
Prueba_Astar.elf:     file format elf32-littlearm

Sections:
Idx Name          Size      VMA       LMA       File off  Algn
  0 .isr_vector   00000198  08000000  08000000  00010000  2**0
                  CONTENTS, ALLOC, LOAD, READONLY, DATA
  1 .text         00008a70  080001a0  080001a0  000101a0  2**4
                  CONTENTS, ALLOC, LOAD, READONLY, CODE
  2 .rodata       00000630  08008c10  08008c10  00018c10  2**3
                  CONTENTS, ALLOC, LOAD, READONLY, DATA
  3 .ARM.extab    00000000  08009240  08009240  000201d8  2**0
                  CONTENTS
  4 .ARM          00000000  08009240  08009240  000201d8  2**0
                  CONTENTS
  5 .preinit_array 00000000  08009240  08009240  000201d8  2**0
                  CONTENTS, ALLOC, LOAD, DATA
  6 .init_array   00000004  08009240  08009240  00019240  2**2
                  CONTENTS, ALLOC, LOAD, DATA
  7 .fini_array   00000004  08009244  08009244  00019244  2**2
                  CONTENTS, ALLOC, LOAD, DATA
  8 .data         000001d8  20000000  08009248  00020000  2**2
                  CONTENTS, ALLOC, LOAD, DATA
  9 .bss          000118c8  200001d8  08009420  000201d8  2**3
                  ALLOC
 10 ._user_heap_stack 00000600  20011aa0  08009420  00021aa0  2**0
                  ALLOC
 11 .ARM.attributes 00000030  00000000  00000000  000201d8  2**0
                  CONTENTS, READONLY
 12 .debug_info   00004219  00000000  00000000  00020208  2**0
                  CONTENTS, READONLY, DEBUGGING, OCTETS
 13 .debug_abbrev 00000d8f  00000000  00000000  00024421  2**0
                  CONTENTS, READONLY, DEBUGGING, OCTETS
 14 .debug_aranges 000003c8  00000000  00000000  000251b0  2**3
                  CONTENTS, READONLY, DEBUGGING, OCTETS
 15 .debug_ranges 00000368  00000000  00000000  00025578  2**3
                  CONTENTS, READONLY, DEBUGGING, OCTETS
 16 .debug_macro  000115bd  00000000  00000000  000258e0  2**0
                  CONTENTS, READONLY, DEBUGGING, OCTETS
 17 .debug_line   00004f07  00000000  00000000  00036e9d  2**0
                  CONTENTS, READONLY, DEBUGGING, OCTETS
 18 .debug_str    0005fbab  00000000  00000000  0003bda4  2**0
                  CONTENTS, READONLY, DEBUGGING, OCTETS
 19 .comment      00000050  00000000  00000000  0009b94f  2**0
                  CONTENTS, READONLY
 20 .debug_frame  00002590  00000000  00000000  0009b9a0  2**2
                  CONTENTS, READONLY, DEBUGGING, OCTETS

Disassembly of section .text:

080001a0 <__do_global_dtors_aux>:
 80001a0:	b510      	push	{r4, lr}
 80001a2:	4c05      	ldr	r4, [pc, #20]	; (80001b8 <__do_global_dtors_aux+0x18>)
 80001a4:	7823      	ldrb	r3, [r4, #0]
 80001a6:	b933      	cbnz	r3, 80001b6 <__do_global_dtors_aux+0x16>
 80001a8:	4b04      	ldr	r3, [pc, #16]	; (80001bc <__do_global_dtors_aux+0x1c>)
 80001aa:	b113      	cbz	r3, 80001b2 <__do_global_dtors_aux+0x12>
 80001ac:	4804      	ldr	r0, [pc, #16]	; (80001c0 <__do_global_dtors_aux+0x20>)
 80001ae:	f3af 8000 	nop.w
 80001b2:	2301      	movs	r3, #1
 80001b4:	7023      	strb	r3, [r4, #0]
 80001b6:	bd10      	pop	{r4, pc}
 80001b8:	200001d8 	.word	0x200001d8
 80001bc:	00000000 	.word	0x00000000
 80001c0:	08008bf8 	.word	0x08008bf8

080001c4 <frame_dummy>:
 80001c4:	b508      	push	{r3, lr}
 80001c6:	4b03      	ldr	r3, [pc, #12]	; (80001d4 <frame_dummy+0x10>)
 80001c8:	b11b      	cbz	r3, 80001d2 <frame_dummy+0xe>
 80001ca:	4903      	ldr	r1, [pc, #12]	; (80001d8 <frame_dummy+0x14>)
 80001cc:	4803      	ldr	r0, [pc, #12]	; (80001dc <frame_dummy+0x18>)
 80001ce:	f3af 8000 	nop.w
 80001d2:	bd08      	pop	{r3, pc}
 80001d4:	00000000 	.word	0x00000000
 80001d8:	200001dc 	.word	0x200001dc
 80001dc:	08008bf8 	.word	0x08008bf8

080001e0 <strcmp>:
 80001e0:	f810 2b01 	ldrb.w	r2, [r0], #1
 80001e4:	f811 3b01 	ldrb.w	r3, [r1], #1
 80001e8:	2a01      	cmp	r2, #1
 80001ea:	bf28      	it	cs
 80001ec:	429a      	cmpcs	r2, r3
 80001ee:	d0f7      	beq.n	80001e0 <strcmp>
 80001f0:	1ad0      	subs	r0, r2, r3
 80001f2:	4770      	bx	lr

080001f4 <strlen>:
 80001f4:	4603      	mov	r3, r0
 80001f6:	f813 2b01 	ldrb.w	r2, [r3], #1
 80001fa:	2a00      	cmp	r2, #0
 80001fc:	d1fb      	bne.n	80001f6 <strlen+0x2>
 80001fe:	1a18      	subs	r0, r3, r0
 8000200:	3801      	subs	r0, #1
 8000202:	4770      	bx	lr
	...

08000210 <memchr>:
 8000210:	f001 01ff 	and.w	r1, r1, #255	; 0xff
 8000214:	2a10      	cmp	r2, #16
 8000216:	db2b      	blt.n	8000270 <memchr+0x60>
 8000218:	f010 0f07 	tst.w	r0, #7
 800021c:	d008      	beq.n	8000230 <memchr+0x20>
 800021e:	f810 3b01 	ldrb.w	r3, [r0], #1
 8000222:	3a01      	subs	r2, #1
 8000224:	428b      	cmp	r3, r1
 8000226:	d02d      	beq.n	8000284 <memchr+0x74>
 8000228:	f010 0f07 	tst.w	r0, #7
 800022c:	b342      	cbz	r2, 8000280 <memchr+0x70>
 800022e:	d1f6      	bne.n	800021e <memchr+0xe>
 8000230:	b4f0      	push	{r4, r5, r6, r7}
 8000232:	ea41 2101 	orr.w	r1, r1, r1, lsl #8
 8000236:	ea41 4101 	orr.w	r1, r1, r1, lsl #16
 800023a:	f022 0407 	bic.w	r4, r2, #7
 800023e:	f07f 0700 	mvns.w	r7, #0
 8000242:	2300      	movs	r3, #0
 8000244:	e8f0 5602 	ldrd	r5, r6, [r0], #8
 8000248:	3c08      	subs	r4, #8
 800024a:	ea85 0501 	eor.w	r5, r5, r1
 800024e:	ea86 0601 	eor.w	r6, r6, r1
 8000252:	fa85 f547 	uadd8	r5, r5, r7
 8000256:	faa3 f587 	sel	r5, r3, r7
 800025a:	fa86 f647 	uadd8	r6, r6, r7
 800025e:	faa5 f687 	sel	r6, r5, r7
 8000262:	b98e      	cbnz	r6, 8000288 <memchr+0x78>
 8000264:	d1ee      	bne.n	8000244 <memchr+0x34>
 8000266:	bcf0      	pop	{r4, r5, r6, r7}
 8000268:	f001 01ff 	and.w	r1, r1, #255	; 0xff
 800026c:	f002 0207 	and.w	r2, r2, #7
 8000270:	b132      	cbz	r2, 8000280 <memchr+0x70>
 8000272:	f810 3b01 	ldrb.w	r3, [r0], #1
 8000276:	3a01      	subs	r2, #1
 8000278:	ea83 0301 	eor.w	r3, r3, r1
 800027c:	b113      	cbz	r3, 8000284 <memchr+0x74>
 800027e:	d1f8      	bne.n	8000272 <memchr+0x62>
 8000280:	2000      	movs	r0, #0
 8000282:	4770      	bx	lr
 8000284:	3801      	subs	r0, #1
 8000286:	4770      	bx	lr
 8000288:	2d00      	cmp	r5, #0
 800028a:	bf06      	itte	eq
 800028c:	4635      	moveq	r5, r6
 800028e:	3803      	subeq	r0, #3
 8000290:	3807      	subne	r0, #7
 8000292:	f015 0f01 	tst.w	r5, #1
 8000296:	d107      	bne.n	80002a8 <memchr+0x98>
 8000298:	3001      	adds	r0, #1
 800029a:	f415 7f80 	tst.w	r5, #256	; 0x100
 800029e:	bf02      	ittt	eq
 80002a0:	3001      	addeq	r0, #1
 80002a2:	f415 3fc0 	tsteq.w	r5, #98304	; 0x18000
 80002a6:	3001      	addeq	r0, #1
 80002a8:	bcf0      	pop	{r4, r5, r6, r7}
 80002aa:	3801      	subs	r0, #1
 80002ac:	4770      	bx	lr
 80002ae:	bf00      	nop

080002b0 <__aeabi_drsub>:
 80002b0:	f081 4100 	eor.w	r1, r1, #2147483648	; 0x80000000
 80002b4:	e002      	b.n	80002bc <__adddf3>
 80002b6:	bf00      	nop

080002b8 <__aeabi_dsub>:
 80002b8:	f083 4300 	eor.w	r3, r3, #2147483648	; 0x80000000

080002bc <__adddf3>:
 80002bc:	b530      	push	{r4, r5, lr}
 80002be:	ea4f 0441 	mov.w	r4, r1, lsl #1
 80002c2:	ea4f 0543 	mov.w	r5, r3, lsl #1
 80002c6:	ea94 0f05 	teq	r4, r5
 80002ca:	bf08      	it	eq
 80002cc:	ea90 0f02 	teqeq	r0, r2
 80002d0:	bf1f      	itttt	ne
 80002d2:	ea54 0c00 	orrsne.w	ip, r4, r0
 80002d6:	ea55 0c02 	orrsne.w	ip, r5, r2
 80002da:	ea7f 5c64 	mvnsne.w	ip, r4, asr #21
 80002de:	ea7f 5c65 	mvnsne.w	ip, r5, asr #21
 80002e2:	f000 80e2 	beq.w	80004aa <__adddf3+0x1ee>
 80002e6:	ea4f 5454 	mov.w	r4, r4, lsr #21
 80002ea:	ebd4 5555 	rsbs	r5, r4, r5, lsr #21
 80002ee:	bfb8      	it	lt
 80002f0:	426d      	neglt	r5, r5
 80002f2:	dd0c      	ble.n	800030e <__adddf3+0x52>
 80002f4:	442c      	add	r4, r5
 80002f6:	ea80 0202 	eor.w	r2, r0, r2
 80002fa:	ea81 0303 	eor.w	r3, r1, r3
 80002fe:	ea82 0000 	eor.w	r0, r2, r0
 8000302:	ea83 0101 	eor.w	r1, r3, r1
 8000306:	ea80 0202 	eor.w	r2, r0, r2
 800030a:	ea81 0303 	eor.w	r3, r1, r3
 800030e:	2d36      	cmp	r5, #54	; 0x36
 8000310:	bf88      	it	hi
 8000312:	bd30      	pophi	{r4, r5, pc}
 8000314:	f011 4f00 	tst.w	r1, #2147483648	; 0x80000000
 8000318:	ea4f 3101 	mov.w	r1, r1, lsl #12
 800031c:	f44f 1c80 	mov.w	ip, #1048576	; 0x100000
 8000320:	ea4c 3111 	orr.w	r1, ip, r1, lsr #12
 8000324:	d002      	beq.n	800032c <__adddf3+0x70>
 8000326:	4240      	negs	r0, r0
 8000328:	eb61 0141 	sbc.w	r1, r1, r1, lsl #1
 800032c:	f013 4f00 	tst.w	r3, #2147483648	; 0x80000000
 8000330:	ea4f 3303 	mov.w	r3, r3, lsl #12
 8000334:	ea4c 3313 	orr.w	r3, ip, r3, lsr #12
 8000338:	d002      	beq.n	8000340 <__adddf3+0x84>
 800033a:	4252      	negs	r2, r2
 800033c:	eb63 0343 	sbc.w	r3, r3, r3, lsl #1
 8000340:	ea94 0f05 	teq	r4, r5
 8000344:	f000 80a7 	beq.w	8000496 <__adddf3+0x1da>
 8000348:	f1a4 0401 	sub.w	r4, r4, #1
 800034c:	f1d5 0e20 	rsbs	lr, r5, #32
 8000350:	db0d      	blt.n	800036e <__adddf3+0xb2>
 8000352:	fa02 fc0e 	lsl.w	ip, r2, lr
 8000356:	fa22 f205 	lsr.w	r2, r2, r5
 800035a:	1880      	adds	r0, r0, r2
 800035c:	f141 0100 	adc.w	r1, r1, #0
 8000360:	fa03 f20e 	lsl.w	r2, r3, lr
 8000364:	1880      	adds	r0, r0, r2
 8000366:	fa43 f305 	asr.w	r3, r3, r5
 800036a:	4159      	adcs	r1, r3
 800036c:	e00e      	b.n	800038c <__adddf3+0xd0>
 800036e:	f1a5 0520 	sub.w	r5, r5, #32
 8000372:	f10e 0e20 	add.w	lr, lr, #32
 8000376:	2a01      	cmp	r2, #1
 8000378:	fa03 fc0e 	lsl.w	ip, r3, lr
 800037c:	bf28      	it	cs
 800037e:	f04c 0c02 	orrcs.w	ip, ip, #2
 8000382:	fa43 f305 	asr.w	r3, r3, r5
 8000386:	18c0      	adds	r0, r0, r3
 8000388:	eb51 71e3 	adcs.w	r1, r1, r3, asr #31
 800038c:	f001 4500 	and.w	r5, r1, #2147483648	; 0x80000000
 8000390:	d507      	bpl.n	80003a2 <__adddf3+0xe6>
 8000392:	f04f 0e00 	mov.w	lr, #0
 8000396:	f1dc 0c00 	rsbs	ip, ip, #0
 800039a:	eb7e 0000 	sbcs.w	r0, lr, r0
 800039e:	eb6e 0101 	sbc.w	r1, lr, r1
 80003a2:	f5b1 1f80 	cmp.w	r1, #1048576	; 0x100000
 80003a6:	d31b      	bcc.n	80003e0 <__adddf3+0x124>
 80003a8:	f5b1 1f00 	cmp.w	r1, #2097152	; 0x200000
 80003ac:	d30c      	bcc.n	80003c8 <__adddf3+0x10c>
 80003ae:	0849      	lsrs	r1, r1, #1
 80003b0:	ea5f 0030 	movs.w	r0, r0, rrx
 80003b4:	ea4f 0c3c 	mov.w	ip, ip, rrx
 80003b8:	f104 0401 	add.w	r4, r4, #1
 80003bc:	ea4f 5244 	mov.w	r2, r4, lsl #21
 80003c0:	f512 0f80 	cmn.w	r2, #4194304	; 0x400000
 80003c4:	f080 809a 	bcs.w	80004fc <__adddf3+0x240>
 80003c8:	f1bc 4f00 	cmp.w	ip, #2147483648	; 0x80000000
 80003cc:	bf08      	it	eq
 80003ce:	ea5f 0c50 	movseq.w	ip, r0, lsr #1
 80003d2:	f150 0000 	adcs.w	r0, r0, #0
 80003d6:	eb41 5104 	adc.w	r1, r1, r4, lsl #20
 80003da:	ea41 0105 	orr.w	r1, r1, r5
 80003de:	bd30      	pop	{r4, r5, pc}
 80003e0:	ea5f 0c4c 	movs.w	ip, ip, lsl #1
 80003e4:	4140      	adcs	r0, r0
 80003e6:	eb41 0101 	adc.w	r1, r1, r1
 80003ea:	3c01      	subs	r4, #1
 80003ec:	bf28      	it	cs
 80003ee:	f5b1 1f80 	cmpcs.w	r1, #1048576	; 0x100000
 80003f2:	d2e9      	bcs.n	80003c8 <__adddf3+0x10c>
 80003f4:	f091 0f00 	teq	r1, #0
 80003f8:	bf04      	itt	eq
 80003fa:	4601      	moveq	r1, r0
 80003fc:	2000      	moveq	r0, #0
 80003fe:	fab1 f381 	clz	r3, r1
 8000402:	bf08      	it	eq
 8000404:	3320      	addeq	r3, #32
 8000406:	f1a3 030b 	sub.w	r3, r3, #11
 800040a:	f1b3 0220 	subs.w	r2, r3, #32
 800040e:	da0c      	bge.n	800042a <__adddf3+0x16e>
 8000410:	320c      	adds	r2, #12
 8000412:	dd08      	ble.n	8000426 <__adddf3+0x16a>
 8000414:	f102 0c14 	add.w	ip, r2, #20
 8000418:	f1c2 020c 	rsb	r2, r2, #12
 800041c:	fa01 f00c 	lsl.w	r0, r1, ip
 8000420:	fa21 f102 	lsr.w	r1, r1, r2
 8000424:	e00c      	b.n	8000440 <__adddf3+0x184>
 8000426:	f102 0214 	add.w	r2, r2, #20
 800042a:	bfd8      	it	le
 800042c:	f1c2 0c20 	rsble	ip, r2, #32
 8000430:	fa01 f102 	lsl.w	r1, r1, r2
 8000434:	fa20 fc0c 	lsr.w	ip, r0, ip
 8000438:	bfdc      	itt	le
 800043a:	ea41 010c 	orrle.w	r1, r1, ip
 800043e:	4090      	lslle	r0, r2
 8000440:	1ae4      	subs	r4, r4, r3
 8000442:	bfa2      	ittt	ge
 8000444:	eb01 5104 	addge.w	r1, r1, r4, lsl #20
 8000448:	4329      	orrge	r1, r5
 800044a:	bd30      	popge	{r4, r5, pc}
 800044c:	ea6f 0404 	mvn.w	r4, r4
 8000450:	3c1f      	subs	r4, #31
 8000452:	da1c      	bge.n	800048e <__adddf3+0x1d2>
 8000454:	340c      	adds	r4, #12
 8000456:	dc0e      	bgt.n	8000476 <__adddf3+0x1ba>
 8000458:	f104 0414 	add.w	r4, r4, #20
 800045c:	f1c4 0220 	rsb	r2, r4, #32
 8000460:	fa20 f004 	lsr.w	r0, r0, r4
 8000464:	fa01 f302 	lsl.w	r3, r1, r2
 8000468:	ea40 0003 	orr.w	r0, r0, r3
 800046c:	fa21 f304 	lsr.w	r3, r1, r4
 8000470:	ea45 0103 	orr.w	r1, r5, r3
 8000474:	bd30      	pop	{r4, r5, pc}
 8000476:	f1c4 040c 	rsb	r4, r4, #12
 800047a:	f1c4 0220 	rsb	r2, r4, #32
 800047e:	fa20 f002 	lsr.w	r0, r0, r2
 8000482:	fa01 f304 	lsl.w	r3, r1, r4
 8000486:	ea40 0003 	orr.w	r0, r0, r3
 800048a:	4629      	mov	r1, r5
 800048c:	bd30      	pop	{r4, r5, pc}
 800048e:	fa21 f004 	lsr.w	r0, r1, r4
 8000492:	4629      	mov	r1, r5
 8000494:	bd30      	pop	{r4, r5, pc}
 8000496:	f094 0f00 	teq	r4, #0
 800049a:	f483 1380 	eor.w	r3, r3, #1048576	; 0x100000
 800049e:	bf06      	itte	eq
 80004a0:	f481 1180 	eoreq.w	r1, r1, #1048576	; 0x100000
 80004a4:	3401      	addeq	r4, #1
 80004a6:	3d01      	subne	r5, #1
 80004a8:	e74e      	b.n	8000348 <__adddf3+0x8c>
 80004aa:	ea7f 5c64 	mvns.w	ip, r4, asr #21
 80004ae:	bf18      	it	ne
 80004b0:	ea7f 5c65 	mvnsne.w	ip, r5, asr #21
 80004b4:	d029      	beq.n	800050a <__adddf3+0x24e>
 80004b6:	ea94 0f05 	teq	r4, r5
 80004ba:	bf08      	it	eq
 80004bc:	ea90 0f02 	teqeq	r0, r2
 80004c0:	d005      	beq.n	80004ce <__adddf3+0x212>
 80004c2:	ea54 0c00 	orrs.w	ip, r4, r0
 80004c6:	bf04      	itt	eq
 80004c8:	4619      	moveq	r1, r3
 80004ca:	4610      	moveq	r0, r2
 80004cc:	bd30      	pop	{r4, r5, pc}
 80004ce:	ea91 0f03 	teq	r1, r3
 80004d2:	bf1e      	ittt	ne
 80004d4:	2100      	movne	r1, #0
 80004d6:	2000      	movne	r0, #0
 80004d8:	bd30      	popne	{r4, r5, pc}
 80004da:	ea5f 5c54 	movs.w	ip, r4, lsr #21
 80004de:	d105      	bne.n	80004ec <__adddf3+0x230>
 80004e0:	0040      	lsls	r0, r0, #1
 80004e2:	4149      	adcs	r1, r1
 80004e4:	bf28      	it	cs
 80004e6:	f041 4100 	orrcs.w	r1, r1, #2147483648	; 0x80000000
 80004ea:	bd30      	pop	{r4, r5, pc}
 80004ec:	f514 0480 	adds.w	r4, r4, #4194304	; 0x400000
 80004f0:	bf3c      	itt	cc
 80004f2:	f501 1180 	addcc.w	r1, r1, #1048576	; 0x100000
 80004f6:	bd30      	popcc	{r4, r5, pc}
 80004f8:	f001 4500 	and.w	r5, r1, #2147483648	; 0x80000000
 80004fc:	f045 41fe 	orr.w	r1, r5, #2130706432	; 0x7f000000
 8000500:	f441 0170 	orr.w	r1, r1, #15728640	; 0xf00000
 8000504:	f04f 0000 	mov.w	r0, #0
 8000508:	bd30      	pop	{r4, r5, pc}
 800050a:	ea7f 5c64 	mvns.w	ip, r4, asr #21
 800050e:	bf1a      	itte	ne
 8000510:	4619      	movne	r1, r3
 8000512:	4610      	movne	r0, r2
 8000514:	ea7f 5c65 	mvnseq.w	ip, r5, asr #21
 8000518:	bf1c      	itt	ne
 800051a:	460b      	movne	r3, r1
 800051c:	4602      	movne	r2, r0
 800051e:	ea50 3401 	orrs.w	r4, r0, r1, lsl #12
 8000522:	bf06      	itte	eq
 8000524:	ea52 3503 	orrseq.w	r5, r2, r3, lsl #12
 8000528:	ea91 0f03 	teqeq	r1, r3
 800052c:	f441 2100 	orrne.w	r1, r1, #524288	; 0x80000
 8000530:	bd30      	pop	{r4, r5, pc}
 8000532:	bf00      	nop

08000534 <__aeabi_ui2d>:
 8000534:	f090 0f00 	teq	r0, #0
 8000538:	bf04      	itt	eq
 800053a:	2100      	moveq	r1, #0
 800053c:	4770      	bxeq	lr
 800053e:	b530      	push	{r4, r5, lr}
 8000540:	f44f 6480 	mov.w	r4, #1024	; 0x400
 8000544:	f104 0432 	add.w	r4, r4, #50	; 0x32
 8000548:	f04f 0500 	mov.w	r5, #0
 800054c:	f04f 0100 	mov.w	r1, #0
 8000550:	e750      	b.n	80003f4 <__adddf3+0x138>
 8000552:	bf00      	nop

08000554 <__aeabi_i2d>:
 8000554:	f090 0f00 	teq	r0, #0
 8000558:	bf04      	itt	eq
 800055a:	2100      	moveq	r1, #0
 800055c:	4770      	bxeq	lr
 800055e:	b530      	push	{r4, r5, lr}
 8000560:	f44f 6480 	mov.w	r4, #1024	; 0x400
 8000564:	f104 0432 	add.w	r4, r4, #50	; 0x32
 8000568:	f010 4500 	ands.w	r5, r0, #2147483648	; 0x80000000
 800056c:	bf48      	it	mi
 800056e:	4240      	negmi	r0, r0
 8000570:	f04f 0100 	mov.w	r1, #0
 8000574:	e73e      	b.n	80003f4 <__adddf3+0x138>
 8000576:	bf00      	nop

08000578 <__aeabi_f2d>:
 8000578:	0042      	lsls	r2, r0, #1
 800057a:	ea4f 01e2 	mov.w	r1, r2, asr #3
 800057e:	ea4f 0131 	mov.w	r1, r1, rrx
 8000582:	ea4f 7002 	mov.w	r0, r2, lsl #28
 8000586:	bf1f      	itttt	ne
 8000588:	f012 437f 	andsne.w	r3, r2, #4278190080	; 0xff000000
 800058c:	f093 4f7f 	teqne	r3, #4278190080	; 0xff000000
 8000590:	f081 5160 	eorne.w	r1, r1, #939524096	; 0x38000000
 8000594:	4770      	bxne	lr
 8000596:	f032 427f 	bics.w	r2, r2, #4278190080	; 0xff000000
 800059a:	bf08      	it	eq
 800059c:	4770      	bxeq	lr
 800059e:	f093 4f7f 	teq	r3, #4278190080	; 0xff000000
 80005a2:	bf04      	itt	eq
 80005a4:	f441 2100 	orreq.w	r1, r1, #524288	; 0x80000
 80005a8:	4770      	bxeq	lr
 80005aa:	b530      	push	{r4, r5, lr}
 80005ac:	f44f 7460 	mov.w	r4, #896	; 0x380
 80005b0:	f001 4500 	and.w	r5, r1, #2147483648	; 0x80000000
 80005b4:	f021 4100 	bic.w	r1, r1, #2147483648	; 0x80000000
 80005b8:	e71c      	b.n	80003f4 <__adddf3+0x138>
 80005ba:	bf00      	nop

080005bc <__aeabi_ul2d>:
 80005bc:	ea50 0201 	orrs.w	r2, r0, r1
 80005c0:	bf08      	it	eq
 80005c2:	4770      	bxeq	lr
 80005c4:	b530      	push	{r4, r5, lr}
 80005c6:	f04f 0500 	mov.w	r5, #0
 80005ca:	e00a      	b.n	80005e2 <__aeabi_l2d+0x16>

080005cc <__aeabi_l2d>:
 80005cc:	ea50 0201 	orrs.w	r2, r0, r1
 80005d0:	bf08      	it	eq
 80005d2:	4770      	bxeq	lr
 80005d4:	b530      	push	{r4, r5, lr}
 80005d6:	f011 4500 	ands.w	r5, r1, #2147483648	; 0x80000000
 80005da:	d502      	bpl.n	80005e2 <__aeabi_l2d+0x16>
 80005dc:	4240      	negs	r0, r0
 80005de:	eb61 0141 	sbc.w	r1, r1, r1, lsl #1
 80005e2:	f44f 6480 	mov.w	r4, #1024	; 0x400
 80005e6:	f104 0432 	add.w	r4, r4, #50	; 0x32
 80005ea:	ea5f 5c91 	movs.w	ip, r1, lsr #22
 80005ee:	f43f aed8 	beq.w	80003a2 <__adddf3+0xe6>
 80005f2:	f04f 0203 	mov.w	r2, #3
 80005f6:	ea5f 0cdc 	movs.w	ip, ip, lsr #3
 80005fa:	bf18      	it	ne
 80005fc:	3203      	addne	r2, #3
 80005fe:	ea5f 0cdc 	movs.w	ip, ip, lsr #3
 8000602:	bf18      	it	ne
 8000604:	3203      	addne	r2, #3
 8000606:	eb02 02dc 	add.w	r2, r2, ip, lsr #3
 800060a:	f1c2 0320 	rsb	r3, r2, #32
 800060e:	fa00 fc03 	lsl.w	ip, r0, r3
 8000612:	fa20 f002 	lsr.w	r0, r0, r2
 8000616:	fa01 fe03 	lsl.w	lr, r1, r3
 800061a:	ea40 000e 	orr.w	r0, r0, lr
 800061e:	fa21 f102 	lsr.w	r1, r1, r2
 8000622:	4414      	add	r4, r2
 8000624:	e6bd      	b.n	80003a2 <__adddf3+0xe6>
 8000626:	bf00      	nop

08000628 <__aeabi_dmul>:
 8000628:	b570      	push	{r4, r5, r6, lr}
 800062a:	f04f 0cff 	mov.w	ip, #255	; 0xff
 800062e:	f44c 6ce0 	orr.w	ip, ip, #1792	; 0x700
 8000632:	ea1c 5411 	ands.w	r4, ip, r1, lsr #20
 8000636:	bf1d      	ittte	ne
 8000638:	ea1c 5513 	andsne.w	r5, ip, r3, lsr #20
 800063c:	ea94 0f0c 	teqne	r4, ip
 8000640:	ea95 0f0c 	teqne	r5, ip
 8000644:	f000 f8de 	bleq	8000804 <__aeabi_dmul+0x1dc>
 8000648:	442c      	add	r4, r5
 800064a:	ea81 0603 	eor.w	r6, r1, r3
 800064e:	ea21 514c 	bic.w	r1, r1, ip, lsl #21
 8000652:	ea23 534c 	bic.w	r3, r3, ip, lsl #21
 8000656:	ea50 3501 	orrs.w	r5, r0, r1, lsl #12
 800065a:	bf18      	it	ne
 800065c:	ea52 3503 	orrsne.w	r5, r2, r3, lsl #12
 8000660:	f441 1180 	orr.w	r1, r1, #1048576	; 0x100000
 8000664:	f443 1380 	orr.w	r3, r3, #1048576	; 0x100000
 8000668:	d038      	beq.n	80006dc <__aeabi_dmul+0xb4>
 800066a:	fba0 ce02 	umull	ip, lr, r0, r2
 800066e:	f04f 0500 	mov.w	r5, #0
 8000672:	fbe1 e502 	umlal	lr, r5, r1, r2
 8000676:	f006 4200 	and.w	r2, r6, #2147483648	; 0x80000000
 800067a:	fbe0 e503 	umlal	lr, r5, r0, r3
 800067e:	f04f 0600 	mov.w	r6, #0
 8000682:	fbe1 5603 	umlal	r5, r6, r1, r3
 8000686:	f09c 0f00 	teq	ip, #0
 800068a:	bf18      	it	ne
 800068c:	f04e 0e01 	orrne.w	lr, lr, #1
 8000690:	f1a4 04ff 	sub.w	r4, r4, #255	; 0xff
 8000694:	f5b6 7f00 	cmp.w	r6, #512	; 0x200
 8000698:	f564 7440 	sbc.w	r4, r4, #768	; 0x300
 800069c:	d204      	bcs.n	80006a8 <__aeabi_dmul+0x80>
 800069e:	ea5f 0e4e 	movs.w	lr, lr, lsl #1
 80006a2:	416d      	adcs	r5, r5
 80006a4:	eb46 0606 	adc.w	r6, r6, r6
 80006a8:	ea42 21c6 	orr.w	r1, r2, r6, lsl #11
 80006ac:	ea41 5155 	orr.w	r1, r1, r5, lsr #21
 80006b0:	ea4f 20c5 	mov.w	r0, r5, lsl #11
 80006b4:	ea40 505e 	orr.w	r0, r0, lr, lsr #21
 80006b8:	ea4f 2ece 	mov.w	lr, lr, lsl #11
 80006bc:	f1b4 0cfd 	subs.w	ip, r4, #253	; 0xfd
 80006c0:	bf88      	it	hi
 80006c2:	f5bc 6fe0 	cmphi.w	ip, #1792	; 0x700
 80006c6:	d81e      	bhi.n	8000706 <__aeabi_dmul+0xde>
 80006c8:	f1be 4f00 	cmp.w	lr, #2147483648	; 0x80000000
 80006cc:	bf08      	it	eq
 80006ce:	ea5f 0e50 	movseq.w	lr, r0, lsr #1
 80006d2:	f150 0000 	adcs.w	r0, r0, #0
 80006d6:	eb41 5104 	adc.w	r1, r1, r4, lsl #20
 80006da:	bd70      	pop	{r4, r5, r6, pc}
 80006dc:	f006 4600 	and.w	r6, r6, #2147483648	; 0x80000000
 80006e0:	ea46 0101 	orr.w	r1, r6, r1
 80006e4:	ea40 0002 	orr.w	r0, r0, r2
 80006e8:	ea81 0103 	eor.w	r1, r1, r3
 80006ec:	ebb4 045c 	subs.w	r4, r4, ip, lsr #1
 80006f0:	bfc2      	ittt	gt
 80006f2:	ebd4 050c 	rsbsgt	r5, r4, ip
 80006f6:	ea41 5104 	orrgt.w	r1, r1, r4, lsl #20
 80006fa:	bd70      	popgt	{r4, r5, r6, pc}
 80006fc:	f441 1180 	orr.w	r1, r1, #1048576	; 0x100000
 8000700:	f04f 0e00 	mov.w	lr, #0
 8000704:	3c01      	subs	r4, #1
 8000706:	f300 80ab 	bgt.w	8000860 <__aeabi_dmul+0x238>
 800070a:	f114 0f36 	cmn.w	r4, #54	; 0x36
 800070e:	bfde      	ittt	le
 8000710:	2000      	movle	r0, #0
 8000712:	f001 4100 	andle.w	r1, r1, #2147483648	; 0x80000000
 8000716:	bd70      	pople	{r4, r5, r6, pc}
 8000718:	f1c4 0400 	rsb	r4, r4, #0
 800071c:	3c20      	subs	r4, #32
 800071e:	da35      	bge.n	800078c <__aeabi_dmul+0x164>
 8000720:	340c      	adds	r4, #12
 8000722:	dc1b      	bgt.n	800075c <__aeabi_dmul+0x134>
 8000724:	f104 0414 	add.w	r4, r4, #20
 8000728:	f1c4 0520 	rsb	r5, r4, #32
 800072c:	fa00 f305 	lsl.w	r3, r0, r5
 8000730:	fa20 f004 	lsr.w	r0, r0, r4
 8000734:	fa01 f205 	lsl.w	r2, r1, r5
 8000738:	ea40 0002 	orr.w	r0, r0, r2
 800073c:	f001 4200 	and.w	r2, r1, #2147483648	; 0x80000000
 8000740:	f021 4100 	bic.w	r1, r1, #2147483648	; 0x80000000
 8000744:	eb10 70d3 	adds.w	r0, r0, r3, lsr #31
 8000748:	fa21 f604 	lsr.w	r6, r1, r4
 800074c:	eb42 0106 	adc.w	r1, r2, r6
 8000750:	ea5e 0e43 	orrs.w	lr, lr, r3, lsl #1
 8000754:	bf08      	it	eq
 8000756:	ea20 70d3 	biceq.w	r0, r0, r3, lsr #31
 800075a:	bd70      	pop	{r4, r5, r6, pc}
 800075c:	f1c4 040c 	rsb	r4, r4, #12
 8000760:	f1c4 0520 	rsb	r5, r4, #32
 8000764:	fa00 f304 	lsl.w	r3, r0, r4
 8000768:	fa20 f005 	lsr.w	r0, r0, r5
 800076c:	fa01 f204 	lsl.w	r2, r1, r4
 8000770:	ea40 0002 	orr.w	r0, r0, r2
 8000774:	f001 4100 	and.w	r1, r1, #2147483648	; 0x80000000
 8000778:	eb10 70d3 	adds.w	r0, r0, r3, lsr #31
 800077c:	f141 0100 	adc.w	r1, r1, #0
 8000780:	ea5e 0e43 	orrs.w	lr, lr, r3, lsl #1
 8000784:	bf08      	it	eq
 8000786:	ea20 70d3 	biceq.w	r0, r0, r3, lsr #31
 800078a:	bd70      	pop	{r4, r5, r6, pc}
 800078c:	f1c4 0520 	rsb	r5, r4, #32
 8000790:	fa00 f205 	lsl.w	r2, r0, r5
 8000794:	ea4e 0e02 	orr.w	lr, lr, r2
 8000798:	fa20 f304 	lsr.w	r3, r0, r4
 800079c:	fa01 f205 	lsl.w	r2, r1, r5
 80007a0:	ea43 0302 	orr.w	r3, r3, r2
 80007a4:	fa21 f004 	lsr.w	r0, r1, r4
 80007a8:	f001 4100 	and.w	r1, r1, #2147483648	; 0x80000000
 80007ac:	fa21 f204 	lsr.w	r2, r1, r4
 80007b0:	ea20 0002 	bic.w	r0, r0, r2
 80007b4:	eb00 70d3 	add.w	r0, r0, r3, lsr #31
 80007b8:	ea5e 0e43 	orrs.w	lr, lr, r3, lsl #1
 80007bc:	bf08      	it	eq
 80007be:	ea20 70d3 	biceq.w	r0, r0, r3, lsr #31
 80007c2:	bd70      	pop	{r4, r5, r6, pc}
 80007c4:	f094 0f00 	teq	r4, #0
 80007c8:	d10f      	bne.n	80007ea <__aeabi_dmul+0x1c2>
 80007ca:	f001 4600 	and.w	r6, r1, #2147483648	; 0x80000000
 80007ce:	0040      	lsls	r0, r0, #1
 80007d0:	eb41 0101 	adc.w	r1, r1, r1
 80007d4:	f411 1f80 	tst.w	r1, #1048576	; 0x100000
 80007d8:	bf08      	it	eq
 80007da:	3c01      	subeq	r4, #1
 80007dc:	d0f7      	beq.n	80007ce <__aeabi_dmul+0x1a6>
 80007de:	ea41 0106 	orr.w	r1, r1, r6
 80007e2:	f095 0f00 	teq	r5, #0
 80007e6:	bf18      	it	ne
 80007e8:	4770      	bxne	lr
 80007ea:	f003 4600 	and.w	r6, r3, #2147483648	; 0x80000000
 80007ee:	0052      	lsls	r2, r2, #1
 80007f0:	eb43 0303 	adc.w	r3, r3, r3
 80007f4:	f413 1f80 	tst.w	r3, #1048576	; 0x100000
 80007f8:	bf08      	it	eq
 80007fa:	3d01      	subeq	r5, #1
 80007fc:	d0f7      	beq.n	80007ee <__aeabi_dmul+0x1c6>
 80007fe:	ea43 0306 	orr.w	r3, r3, r6
 8000802:	4770      	bx	lr
 8000804:	ea94 0f0c 	teq	r4, ip
 8000808:	ea0c 5513 	and.w	r5, ip, r3, lsr #20
 800080c:	bf18      	it	ne
 800080e:	ea95 0f0c 	teqne	r5, ip
 8000812:	d00c      	beq.n	800082e <__aeabi_dmul+0x206>
 8000814:	ea50 0641 	orrs.w	r6, r0, r1, lsl #1
 8000818:	bf18      	it	ne
 800081a:	ea52 0643 	orrsne.w	r6, r2, r3, lsl #1
 800081e:	d1d1      	bne.n	80007c4 <__aeabi_dmul+0x19c>
 8000820:	ea81 0103 	eor.w	r1, r1, r3
 8000824:	f001 4100 	and.w	r1, r1, #2147483648	; 0x80000000
 8000828:	f04f 0000 	mov.w	r0, #0
 800082c:	bd70      	pop	{r4, r5, r6, pc}
 800082e:	ea50 0641 	orrs.w	r6, r0, r1, lsl #1
 8000832:	bf06      	itte	eq
 8000834:	4610      	moveq	r0, r2
 8000836:	4619      	moveq	r1, r3
 8000838:	ea52 0643 	orrsne.w	r6, r2, r3, lsl #1
 800083c:	d019      	beq.n	8000872 <__aeabi_dmul+0x24a>
 800083e:	ea94 0f0c 	teq	r4, ip
 8000842:	d102      	bne.n	800084a <__aeabi_dmul+0x222>
 8000844:	ea50 3601 	orrs.w	r6, r0, r1, lsl #12
 8000848:	d113      	bne.n	8000872 <__aeabi_dmul+0x24a>
 800084a:	ea95 0f0c 	teq	r5, ip
 800084e:	d105      	bne.n	800085c <__aeabi_dmul+0x234>
 8000850:	ea52 3603 	orrs.w	r6, r2, r3, lsl #12
 8000854:	bf1c      	itt	ne
 8000856:	4610      	movne	r0, r2
 8000858:	4619      	movne	r1, r3
 800085a:	d10a      	bne.n	8000872 <__aeabi_dmul+0x24a>
 800085c:	ea81 0103 	eor.w	r1, r1, r3
 8000860:	f001 4100 	and.w	r1, r1, #2147483648	; 0x80000000
 8000864:	f041 41fe 	orr.w	r1, r1, #2130706432	; 0x7f000000
 8000868:	f441 0170 	orr.w	r1, r1, #15728640	; 0xf00000
 800086c:	f04f 0000 	mov.w	r0, #0
 8000870:	bd70      	pop	{r4, r5, r6, pc}
 8000872:	f041 41fe 	orr.w	r1, r1, #2130706432	; 0x7f000000
 8000876:	f441 0178 	orr.w	r1, r1, #16252928	; 0xf80000
 800087a:	bd70      	pop	{r4, r5, r6, pc}

0800087c <__aeabi_ddiv>:
 800087c:	b570      	push	{r4, r5, r6, lr}
 800087e:	f04f 0cff 	mov.w	ip, #255	; 0xff
 8000882:	f44c 6ce0 	orr.w	ip, ip, #1792	; 0x700
 8000886:	ea1c 5411 	ands.w	r4, ip, r1, lsr #20
 800088a:	bf1d      	ittte	ne
 800088c:	ea1c 5513 	andsne.w	r5, ip, r3, lsr #20
 8000890:	ea94 0f0c 	teqne	r4, ip
 8000894:	ea95 0f0c 	teqne	r5, ip
 8000898:	f000 f8a7 	bleq	80009ea <__aeabi_ddiv+0x16e>
 800089c:	eba4 0405 	sub.w	r4, r4, r5
 80008a0:	ea81 0e03 	eor.w	lr, r1, r3
 80008a4:	ea52 3503 	orrs.w	r5, r2, r3, lsl #12
 80008a8:	ea4f 3101 	mov.w	r1, r1, lsl #12
 80008ac:	f000 8088 	beq.w	80009c0 <__aeabi_ddiv+0x144>
 80008b0:	ea4f 3303 	mov.w	r3, r3, lsl #12
 80008b4:	f04f 5580 	mov.w	r5, #268435456	; 0x10000000
 80008b8:	ea45 1313 	orr.w	r3, r5, r3, lsr #4
 80008bc:	ea43 6312 	orr.w	r3, r3, r2, lsr #24
 80008c0:	ea4f 2202 	mov.w	r2, r2, lsl #8
 80008c4:	ea45 1511 	orr.w	r5, r5, r1, lsr #4
 80008c8:	ea45 6510 	orr.w	r5, r5, r0, lsr #24
 80008cc:	ea4f 2600 	mov.w	r6, r0, lsl #8
 80008d0:	f00e 4100 	and.w	r1, lr, #2147483648	; 0x80000000
 80008d4:	429d      	cmp	r5, r3
 80008d6:	bf08      	it	eq
 80008d8:	4296      	cmpeq	r6, r2
 80008da:	f144 04fd 	adc.w	r4, r4, #253	; 0xfd
 80008de:	f504 7440 	add.w	r4, r4, #768	; 0x300
 80008e2:	d202      	bcs.n	80008ea <__aeabi_ddiv+0x6e>
 80008e4:	085b      	lsrs	r3, r3, #1
 80008e6:	ea4f 0232 	mov.w	r2, r2, rrx
 80008ea:	1ab6      	subs	r6, r6, r2
 80008ec:	eb65 0503 	sbc.w	r5, r5, r3
 80008f0:	085b      	lsrs	r3, r3, #1
 80008f2:	ea4f 0232 	mov.w	r2, r2, rrx
 80008f6:	f44f 1080 	mov.w	r0, #1048576	; 0x100000
 80008fa:	f44f 2c00 	mov.w	ip, #524288	; 0x80000
 80008fe:	ebb6 0e02 	subs.w	lr, r6, r2
 8000902:	eb75 0e03 	sbcs.w	lr, r5, r3
 8000906:	bf22      	ittt	cs
 8000908:	1ab6      	subcs	r6, r6, r2
 800090a:	4675      	movcs	r5, lr
 800090c:	ea40 000c 	orrcs.w	r0, r0, ip
 8000910:	085b      	lsrs	r3, r3, #1
 8000912:	ea4f 0232 	mov.w	r2, r2, rrx
 8000916:	ebb6 0e02 	subs.w	lr, r6, r2
 800091a:	eb75 0e03 	sbcs.w	lr, r5, r3
 800091e:	bf22      	ittt	cs
 8000920:	1ab6      	subcs	r6, r6, r2
 8000922:	4675      	movcs	r5, lr
 8000924:	ea40 005c 	orrcs.w	r0, r0, ip, lsr #1
 8000928:	085b      	lsrs	r3, r3, #1
 800092a:	ea4f 0232 	mov.w	r2, r2, rrx
 800092e:	ebb6 0e02 	subs.w	lr, r6, r2
 8000932:	eb75 0e03 	sbcs.w	lr, r5, r3
 8000936:	bf22      	ittt	cs
 8000938:	1ab6      	subcs	r6, r6, r2
 800093a:	4675      	movcs	r5, lr
 800093c:	ea40 009c 	orrcs.w	r0, r0, ip, lsr #2
 8000940:	085b      	lsrs	r3, r3, #1
 8000942:	ea4f 0232 	mov.w	r2, r2, rrx
 8000946:	ebb6 0e02 	subs.w	lr, r6, r2
 800094a:	eb75 0e03 	sbcs.w	lr, r5, r3
 800094e:	bf22      	ittt	cs
 8000950:	1ab6      	subcs	r6, r6, r2
 8000952:	4675      	movcs	r5, lr
 8000954:	ea40 00dc 	orrcs.w	r0, r0, ip, lsr #3
 8000958:	ea55 0e06 	orrs.w	lr, r5, r6
 800095c:	d018      	beq.n	8000990 <__aeabi_ddiv+0x114>
 800095e:	ea4f 1505 	mov.w	r5, r5, lsl #4
 8000962:	ea45 7516 	orr.w	r5, r5, r6, lsr #28
 8000966:	ea4f 1606 	mov.w	r6, r6, lsl #4
 800096a:	ea4f 03c3 	mov.w	r3, r3, lsl #3
 800096e:	ea43 7352 	orr.w	r3, r3, r2, lsr #29
 8000972:	ea4f 02c2 	mov.w	r2, r2, lsl #3
 8000976:	ea5f 1c1c 	movs.w	ip, ip, lsr #4
 800097a:	d1c0      	bne.n	80008fe <__aeabi_ddiv+0x82>
 800097c:	f411 1f80 	tst.w	r1, #1048576	; 0x100000
 8000980:	d10b      	bne.n	800099a <__aeabi_ddiv+0x11e>
 8000982:	ea41 0100 	orr.w	r1, r1, r0
 8000986:	f04f 0000 	mov.w	r0, #0
 800098a:	f04f 4c00 	mov.w	ip, #2147483648	; 0x80000000
 800098e:	e7b6      	b.n	80008fe <__aeabi_ddiv+0x82>
 8000990:	f411 1f80 	tst.w	r1, #1048576	; 0x100000
 8000994:	bf04      	itt	eq
 8000996:	4301      	orreq	r1, r0
 8000998:	2000      	moveq	r0, #0
 800099a:	f1b4 0cfd 	subs.w	ip, r4, #253	; 0xfd
 800099e:	bf88      	it	hi
 80009a0:	f5bc 6fe0 	cmphi.w	ip, #1792	; 0x700
 80009a4:	f63f aeaf 	bhi.w	8000706 <__aeabi_dmul+0xde>
 80009a8:	ebb5 0c03 	subs.w	ip, r5, r3
 80009ac:	bf04      	itt	eq
 80009ae:	ebb6 0c02 	subseq.w	ip, r6, r2
 80009b2:	ea5f 0c50 	movseq.w	ip, r0, lsr #1
 80009b6:	f150 0000 	adcs.w	r0, r0, #0
 80009ba:	eb41 5104 	adc.w	r1, r1, r4, lsl #20
 80009be:	bd70      	pop	{r4, r5, r6, pc}
 80009c0:	f00e 4e00 	and.w	lr, lr, #2147483648	; 0x80000000
 80009c4:	ea4e 3111 	orr.w	r1, lr, r1, lsr #12
 80009c8:	eb14 045c 	adds.w	r4, r4, ip, lsr #1
 80009cc:	bfc2      	ittt	gt
 80009ce:	ebd4 050c 	rsbsgt	r5, r4, ip
 80009d2:	ea41 5104 	orrgt.w	r1, r1, r4, lsl #20
 80009d6:	bd70      	popgt	{r4, r5, r6, pc}
 80009d8:	f441 1180 	orr.w	r1, r1, #1048576	; 0x100000
 80009dc:	f04f 0e00 	mov.w	lr, #0
 80009e0:	3c01      	subs	r4, #1
 80009e2:	e690      	b.n	8000706 <__aeabi_dmul+0xde>
 80009e4:	ea45 0e06 	orr.w	lr, r5, r6
 80009e8:	e68d      	b.n	8000706 <__aeabi_dmul+0xde>
 80009ea:	ea0c 5513 	and.w	r5, ip, r3, lsr #20
 80009ee:	ea94 0f0c 	teq	r4, ip
 80009f2:	bf08      	it	eq
 80009f4:	ea95 0f0c 	teqeq	r5, ip
 80009f8:	f43f af3b 	beq.w	8000872 <__aeabi_dmul+0x24a>
 80009fc:	ea94 0f0c 	teq	r4, ip
 8000a00:	d10a      	bne.n	8000a18 <__aeabi_ddiv+0x19c>
 8000a02:	ea50 3401 	orrs.w	r4, r0, r1, lsl #12
 8000a06:	f47f af34 	bne.w	8000872 <__aeabi_dmul+0x24a>
 8000a0a:	ea95 0f0c 	teq	r5, ip
 8000a0e:	f47f af25 	bne.w	800085c <__aeabi_dmul+0x234>
 8000a12:	4610      	mov	r0, r2
 8000a14:	4619      	mov	r1, r3
 8000a16:	e72c      	b.n	8000872 <__aeabi_dmul+0x24a>
 8000a18:	ea95 0f0c 	teq	r5, ip
 8000a1c:	d106      	bne.n	8000a2c <__aeabi_ddiv+0x1b0>
 8000a1e:	ea52 3503 	orrs.w	r5, r2, r3, lsl #12
 8000a22:	f43f aefd 	beq.w	8000820 <__aeabi_dmul+0x1f8>
 8000a26:	4610      	mov	r0, r2
 8000a28:	4619      	mov	r1, r3
 8000a2a:	e722      	b.n	8000872 <__aeabi_dmul+0x24a>
 8000a2c:	ea50 0641 	orrs.w	r6, r0, r1, lsl #1
 8000a30:	bf18      	it	ne
 8000a32:	ea52 0643 	orrsne.w	r6, r2, r3, lsl #1
 8000a36:	f47f aec5 	bne.w	80007c4 <__aeabi_dmul+0x19c>
 8000a3a:	ea50 0441 	orrs.w	r4, r0, r1, lsl #1
 8000a3e:	f47f af0d 	bne.w	800085c <__aeabi_dmul+0x234>
 8000a42:	ea52 0543 	orrs.w	r5, r2, r3, lsl #1
 8000a46:	f47f aeeb 	bne.w	8000820 <__aeabi_dmul+0x1f8>
 8000a4a:	e712      	b.n	8000872 <__aeabi_dmul+0x24a>

08000a4c <__gedf2>:
 8000a4c:	f04f 3cff 	mov.w	ip, #4294967295	; 0xffffffff
 8000a50:	e006      	b.n	8000a60 <__cmpdf2+0x4>
 8000a52:	bf00      	nop

08000a54 <__ledf2>:
 8000a54:	f04f 0c01 	mov.w	ip, #1
 8000a58:	e002      	b.n	8000a60 <__cmpdf2+0x4>
 8000a5a:	bf00      	nop

08000a5c <__cmpdf2>:
 8000a5c:	f04f 0c01 	mov.w	ip, #1
 8000a60:	f84d cd04 	str.w	ip, [sp, #-4]!
 8000a64:	ea4f 0c41 	mov.w	ip, r1, lsl #1
 8000a68:	ea7f 5c6c 	mvns.w	ip, ip, asr #21
 8000a6c:	ea4f 0c43 	mov.w	ip, r3, lsl #1
 8000a70:	bf18      	it	ne
 8000a72:	ea7f 5c6c 	mvnsne.w	ip, ip, asr #21
 8000a76:	d01b      	beq.n	8000ab0 <__cmpdf2+0x54>
 8000a78:	b001      	add	sp, #4
 8000a7a:	ea50 0c41 	orrs.w	ip, r0, r1, lsl #1
 8000a7e:	bf0c      	ite	eq
 8000a80:	ea52 0c43 	orrseq.w	ip, r2, r3, lsl #1
 8000a84:	ea91 0f03 	teqne	r1, r3
 8000a88:	bf02      	ittt	eq
 8000a8a:	ea90 0f02 	teqeq	r0, r2
 8000a8e:	2000      	moveq	r0, #0
 8000a90:	4770      	bxeq	lr
 8000a92:	f110 0f00 	cmn.w	r0, #0
 8000a96:	ea91 0f03 	teq	r1, r3
 8000a9a:	bf58      	it	pl
 8000a9c:	4299      	cmppl	r1, r3
 8000a9e:	bf08      	it	eq
 8000aa0:	4290      	cmpeq	r0, r2
 8000aa2:	bf2c      	ite	cs
 8000aa4:	17d8      	asrcs	r0, r3, #31
 8000aa6:	ea6f 70e3 	mvncc.w	r0, r3, asr #31
 8000aaa:	f040 0001 	orr.w	r0, r0, #1
 8000aae:	4770      	bx	lr
 8000ab0:	ea4f 0c41 	mov.w	ip, r1, lsl #1
 8000ab4:	ea7f 5c6c 	mvns.w	ip, ip, asr #21
 8000ab8:	d102      	bne.n	8000ac0 <__cmpdf2+0x64>
 8000aba:	ea50 3c01 	orrs.w	ip, r0, r1, lsl #12
 8000abe:	d107      	bne.n	8000ad0 <__cmpdf2+0x74>
 8000ac0:	ea4f 0c43 	mov.w	ip, r3, lsl #1
 8000ac4:	ea7f 5c6c 	mvns.w	ip, ip, asr #21
 8000ac8:	d1d6      	bne.n	8000a78 <__cmpdf2+0x1c>
 8000aca:	ea52 3c03 	orrs.w	ip, r2, r3, lsl #12
 8000ace:	d0d3      	beq.n	8000a78 <__cmpdf2+0x1c>
 8000ad0:	f85d 0b04 	ldr.w	r0, [sp], #4
 8000ad4:	4770      	bx	lr
 8000ad6:	bf00      	nop

08000ad8 <__aeabi_cdrcmple>:
 8000ad8:	4684      	mov	ip, r0
 8000ada:	4610      	mov	r0, r2
 8000adc:	4662      	mov	r2, ip
 8000ade:	468c      	mov	ip, r1
 8000ae0:	4619      	mov	r1, r3
 8000ae2:	4663      	mov	r3, ip
 8000ae4:	e000      	b.n	8000ae8 <__aeabi_cdcmpeq>
 8000ae6:	bf00      	nop

08000ae8 <__aeabi_cdcmpeq>:
 8000ae8:	b501      	push	{r0, lr}
 8000aea:	f7ff ffb7 	bl	8000a5c <__cmpdf2>
 8000aee:	2800      	cmp	r0, #0
 8000af0:	bf48      	it	mi
 8000af2:	f110 0f00 	cmnmi.w	r0, #0
 8000af6:	bd01      	pop	{r0, pc}

08000af8 <__aeabi_dcmpeq>:
 8000af8:	f84d ed08 	str.w	lr, [sp, #-8]!
 8000afc:	f7ff fff4 	bl	8000ae8 <__aeabi_cdcmpeq>
 8000b00:	bf0c      	ite	eq
 8000b02:	2001      	moveq	r0, #1
 8000b04:	2000      	movne	r0, #0
 8000b06:	f85d fb08 	ldr.w	pc, [sp], #8
 8000b0a:	bf00      	nop

08000b0c <__aeabi_dcmplt>:
 8000b0c:	f84d ed08 	str.w	lr, [sp, #-8]!
 8000b10:	f7ff ffea 	bl	8000ae8 <__aeabi_cdcmpeq>
 8000b14:	bf34      	ite	cc
 8000b16:	2001      	movcc	r0, #1
 8000b18:	2000      	movcs	r0, #0
 8000b1a:	f85d fb08 	ldr.w	pc, [sp], #8
 8000b1e:	bf00      	nop

08000b20 <__aeabi_dcmple>:
 8000b20:	f84d ed08 	str.w	lr, [sp, #-8]!
 8000b24:	f7ff ffe0 	bl	8000ae8 <__aeabi_cdcmpeq>
 8000b28:	bf94      	ite	ls
 8000b2a:	2001      	movls	r0, #1
 8000b2c:	2000      	movhi	r0, #0
 8000b2e:	f85d fb08 	ldr.w	pc, [sp], #8
 8000b32:	bf00      	nop

08000b34 <__aeabi_dcmpge>:
 8000b34:	f84d ed08 	str.w	lr, [sp, #-8]!
 8000b38:	f7ff ffce 	bl	8000ad8 <__aeabi_cdrcmple>
 8000b3c:	bf94      	ite	ls
 8000b3e:	2001      	movls	r0, #1
 8000b40:	2000      	movhi	r0, #0
 8000b42:	f85d fb08 	ldr.w	pc, [sp], #8
 8000b46:	bf00      	nop

08000b48 <__aeabi_dcmpgt>:
 8000b48:	f84d ed08 	str.w	lr, [sp, #-8]!
 8000b4c:	f7ff ffc4 	bl	8000ad8 <__aeabi_cdrcmple>
 8000b50:	bf34      	ite	cc
 8000b52:	2001      	movcc	r0, #1
 8000b54:	2000      	movcs	r0, #0
 8000b56:	f85d fb08 	ldr.w	pc, [sp], #8
 8000b5a:	bf00      	nop

08000b5c <__aeabi_dcmpun>:
 8000b5c:	ea4f 0c41 	mov.w	ip, r1, lsl #1
 8000b60:	ea7f 5c6c 	mvns.w	ip, ip, asr #21
 8000b64:	d102      	bne.n	8000b6c <__aeabi_dcmpun+0x10>
 8000b66:	ea50 3c01 	orrs.w	ip, r0, r1, lsl #12
 8000b6a:	d10a      	bne.n	8000b82 <__aeabi_dcmpun+0x26>
 8000b6c:	ea4f 0c43 	mov.w	ip, r3, lsl #1
 8000b70:	ea7f 5c6c 	mvns.w	ip, ip, asr #21
 8000b74:	d102      	bne.n	8000b7c <__aeabi_dcmpun+0x20>
 8000b76:	ea52 3c03 	orrs.w	ip, r2, r3, lsl #12
 8000b7a:	d102      	bne.n	8000b82 <__aeabi_dcmpun+0x26>
 8000b7c:	f04f 0000 	mov.w	r0, #0
 8000b80:	4770      	bx	lr
 8000b82:	f04f 0001 	mov.w	r0, #1
 8000b86:	4770      	bx	lr

08000b88 <__aeabi_d2iz>:
 8000b88:	ea4f 0241 	mov.w	r2, r1, lsl #1
 8000b8c:	f512 1200 	adds.w	r2, r2, #2097152	; 0x200000
 8000b90:	d215      	bcs.n	8000bbe <__aeabi_d2iz+0x36>
 8000b92:	d511      	bpl.n	8000bb8 <__aeabi_d2iz+0x30>
 8000b94:	f46f 7378 	mvn.w	r3, #992	; 0x3e0
 8000b98:	ebb3 5262 	subs.w	r2, r3, r2, asr #21
 8000b9c:	d912      	bls.n	8000bc4 <__aeabi_d2iz+0x3c>
 8000b9e:	ea4f 23c1 	mov.w	r3, r1, lsl #11
 8000ba2:	f043 4300 	orr.w	r3, r3, #2147483648	; 0x80000000
 8000ba6:	ea43 5350 	orr.w	r3, r3, r0, lsr #21
 8000baa:	f011 4f00 	tst.w	r1, #2147483648	; 0x80000000
 8000bae:	fa23 f002 	lsr.w	r0, r3, r2
 8000bb2:	bf18      	it	ne
 8000bb4:	4240      	negne	r0, r0
 8000bb6:	4770      	bx	lr
 8000bb8:	f04f 0000 	mov.w	r0, #0
 8000bbc:	4770      	bx	lr
 8000bbe:	ea50 3001 	orrs.w	r0, r0, r1, lsl #12
 8000bc2:	d105      	bne.n	8000bd0 <__aeabi_d2iz+0x48>
 8000bc4:	f011 4000 	ands.w	r0, r1, #2147483648	; 0x80000000
 8000bc8:	bf08      	it	eq
 8000bca:	f06f 4000 	mvneq.w	r0, #2147483648	; 0x80000000
 8000bce:	4770      	bx	lr
 8000bd0:	f04f 0000 	mov.w	r0, #0
 8000bd4:	4770      	bx	lr
 8000bd6:	bf00      	nop

08000bd8 <__aeabi_d2f>:
 8000bd8:	ea4f 0241 	mov.w	r2, r1, lsl #1
 8000bdc:	f1b2 43e0 	subs.w	r3, r2, #1879048192	; 0x70000000
 8000be0:	bf24      	itt	cs
 8000be2:	f5b3 1c00 	subscs.w	ip, r3, #2097152	; 0x200000
 8000be6:	f1dc 5cfe 	rsbscs	ip, ip, #532676608	; 0x1fc00000
 8000bea:	d90d      	bls.n	8000c08 <__aeabi_d2f+0x30>
 8000bec:	f001 4c00 	and.w	ip, r1, #2147483648	; 0x80000000
 8000bf0:	ea4f 02c0 	mov.w	r2, r0, lsl #3
 8000bf4:	ea4c 7050 	orr.w	r0, ip, r0, lsr #29
 8000bf8:	f1b2 4f00 	cmp.w	r2, #2147483648	; 0x80000000
 8000bfc:	eb40 0083 	adc.w	r0, r0, r3, lsl #2
 8000c00:	bf08      	it	eq
 8000c02:	f020 0001 	biceq.w	r0, r0, #1
 8000c06:	4770      	bx	lr
 8000c08:	f011 4f80 	tst.w	r1, #1073741824	; 0x40000000
 8000c0c:	d121      	bne.n	8000c52 <__aeabi_d2f+0x7a>
 8000c0e:	f113 7238 	adds.w	r2, r3, #48234496	; 0x2e00000
 8000c12:	bfbc      	itt	lt
 8000c14:	f001 4000 	andlt.w	r0, r1, #2147483648	; 0x80000000
 8000c18:	4770      	bxlt	lr
 8000c1a:	f441 1180 	orr.w	r1, r1, #1048576	; 0x100000
 8000c1e:	ea4f 5252 	mov.w	r2, r2, lsr #21
 8000c22:	f1c2 0218 	rsb	r2, r2, #24
 8000c26:	f1c2 0c20 	rsb	ip, r2, #32
 8000c2a:	fa10 f30c 	lsls.w	r3, r0, ip
 8000c2e:	fa20 f002 	lsr.w	r0, r0, r2
 8000c32:	bf18      	it	ne
 8000c34:	f040 0001 	orrne.w	r0, r0, #1
 8000c38:	ea4f 23c1 	mov.w	r3, r1, lsl #11
 8000c3c:	ea4f 23d3 	mov.w	r3, r3, lsr #11
 8000c40:	fa03 fc0c 	lsl.w	ip, r3, ip
 8000c44:	ea40 000c 	orr.w	r0, r0, ip
 8000c48:	fa23 f302 	lsr.w	r3, r3, r2
 8000c4c:	ea4f 0343 	mov.w	r3, r3, lsl #1
 8000c50:	e7cc      	b.n	8000bec <__aeabi_d2f+0x14>
 8000c52:	ea7f 5362 	mvns.w	r3, r2, asr #21
 8000c56:	d107      	bne.n	8000c68 <__aeabi_d2f+0x90>
 8000c58:	ea50 3301 	orrs.w	r3, r0, r1, lsl #12
 8000c5c:	bf1e      	ittt	ne
 8000c5e:	f04f 40fe 	movne.w	r0, #2130706432	; 0x7f000000
 8000c62:	f440 0040 	orrne.w	r0, r0, #12582912	; 0xc00000
 8000c66:	4770      	bxne	lr
 8000c68:	f001 4000 	and.w	r0, r1, #2147483648	; 0x80000000
 8000c6c:	f040 40fe 	orr.w	r0, r0, #2130706432	; 0x7f000000
 8000c70:	f440 0000 	orr.w	r0, r0, #8388608	; 0x800000
 8000c74:	4770      	bx	lr
 8000c76:	bf00      	nop

08000c78 <main>:
const char* msg_NotWorking = "\n--------Astar isn't working properly----------\n";
const char* msg_InsertGrid = "\n------------Insert the char grid--------------\n";


int main(void)
{
 8000c78:	b590      	push	{r4, r7, lr}
 8000c7a:	b083      	sub	sp, #12
 8000c7c:	af02      	add	r7, sp, #8


	//Activamos el FPU o la unidad de punto flotante
 	SCB -> CPACR |= (0xF << 20);
 8000c7e:	4b70      	ldr	r3, [pc, #448]	; (8000e40 <main+0x1c8>)
 8000c80:	f8d3 3088 	ldr.w	r3, [r3, #136]	; 0x88
 8000c84:	4a6e      	ldr	r2, [pc, #440]	; (8000e40 <main+0x1c8>)
 8000c86:	f443 0370 	orr.w	r3, r3, #15728640	; 0xf00000
 8000c8a:	f8c2 3088 	str.w	r3, [r2, #136]	; 0x88


	inSystem ();
 8000c8e:	f000 f8ff 	bl	8000e90 <inSystem>


    /* Loop forever */
	while(1){

		if (!flagAstar){
 8000c92:	4b6c      	ldr	r3, [pc, #432]	; (8000e44 <main+0x1cc>)
 8000c94:	781b      	ldrb	r3, [r3, #0]
 8000c96:	2b00      	cmp	r3, #0
 8000c98:	d13f      	bne.n	8000d1a <main+0xa2>

			if (rxData != '\0'){
 8000c9a:	4b6b      	ldr	r3, [pc, #428]	; (8000e48 <main+0x1d0>)
 8000c9c:	781b      	ldrb	r3, [r3, #0]
 8000c9e:	2b00      	cmp	r3, #0
 8000ca0:	d030      	beq.n	8000d04 <main+0x8c>
				bufferReception[counterReception] = rxData;
 8000ca2:	4b6a      	ldr	r3, [pc, #424]	; (8000e4c <main+0x1d4>)
 8000ca4:	781b      	ldrb	r3, [r3, #0]
 8000ca6:	461a      	mov	r2, r3
 8000ca8:	4b67      	ldr	r3, [pc, #412]	; (8000e48 <main+0x1d0>)
 8000caa:	7819      	ldrb	r1, [r3, #0]
 8000cac:	4b68      	ldr	r3, [pc, #416]	; (8000e50 <main+0x1d8>)
 8000cae:	5499      	strb	r1, [r3, r2]
				counterReception++;
 8000cb0:	4b66      	ldr	r3, [pc, #408]	; (8000e4c <main+0x1d4>)
 8000cb2:	781b      	ldrb	r3, [r3, #0]
 8000cb4:	3301      	adds	r3, #1
 8000cb6:	b2da      	uxtb	r2, r3
 8000cb8:	4b64      	ldr	r3, [pc, #400]	; (8000e4c <main+0x1d4>)
 8000cba:	701a      	strb	r2, [r3, #0]

				if (rxData == '@'){
 8000cbc:	4b62      	ldr	r3, [pc, #392]	; (8000e48 <main+0x1d0>)
 8000cbe:	781b      	ldrb	r3, [r3, #0]
 8000cc0:	2b40      	cmp	r3, #64	; 0x40
 8000cc2:	d10c      	bne.n	8000cde <main+0x66>
					doneTransaction = SET;
 8000cc4:	4b63      	ldr	r3, [pc, #396]	; (8000e54 <main+0x1dc>)
 8000cc6:	2201      	movs	r2, #1
 8000cc8:	701a      	strb	r2, [r3, #0]

					bufferReception[counterReception-1] = '\0';
 8000cca:	4b60      	ldr	r3, [pc, #384]	; (8000e4c <main+0x1d4>)
 8000ccc:	781b      	ldrb	r3, [r3, #0]
 8000cce:	3b01      	subs	r3, #1
 8000cd0:	4a5f      	ldr	r2, [pc, #380]	; (8000e50 <main+0x1d8>)
 8000cd2:	2100      	movs	r1, #0
 8000cd4:	54d1      	strb	r1, [r2, r3]

					counterReception = 0;
 8000cd6:	4b5d      	ldr	r3, [pc, #372]	; (8000e4c <main+0x1d4>)
 8000cd8:	2200      	movs	r2, #0
 8000cda:	701a      	strb	r2, [r3, #0]
 8000cdc:	e00f      	b.n	8000cfe <main+0x86>

				}else if (rxData == 'z'){
 8000cde:	4b5a      	ldr	r3, [pc, #360]	; (8000e48 <main+0x1d0>)
 8000ce0:	781b      	ldrb	r3, [r3, #0]
 8000ce2:	2b7a      	cmp	r3, #122	; 0x7a
 8000ce4:	d10b      	bne.n	8000cfe <main+0x86>

					memset(bufferReception, 0, sizeof(bufferReception));
 8000ce6:	2240      	movs	r2, #64	; 0x40
 8000ce8:	2100      	movs	r1, #0
 8000cea:	4859      	ldr	r0, [pc, #356]	; (8000e50 <main+0x1d8>)
 8000cec:	f003 fc7a 	bl	80045e4 <memset>
					counterReception = 0;
 8000cf0:	4b56      	ldr	r3, [pc, #344]	; (8000e4c <main+0x1d4>)
 8000cf2:	2200      	movs	r2, #0
 8000cf4:	701a      	strb	r2, [r3, #0]
					writeMsg(&handlerUSART, "Buffer Vaciado\n \r");
 8000cf6:	4958      	ldr	r1, [pc, #352]	; (8000e58 <main+0x1e0>)
 8000cf8:	4858      	ldr	r0, [pc, #352]	; (8000e5c <main+0x1e4>)
 8000cfa:	f003 fb7b 	bl	80043f4 <writeMsg>
				}

				rxData = '\0';
 8000cfe:	4b52      	ldr	r3, [pc, #328]	; (8000e48 <main+0x1d0>)
 8000d00:	2200      	movs	r2, #0
 8000d02:	701a      	strb	r2, [r3, #0]

			}

			if (doneTransaction){
 8000d04:	4b53      	ldr	r3, [pc, #332]	; (8000e54 <main+0x1dc>)
 8000d06:	781b      	ldrb	r3, [r3, #0]
 8000d08:	2b00      	cmp	r3, #0
 8000d0a:	d0c2      	beq.n	8000c92 <main+0x1a>
				parseCommands(bufferReception);
 8000d0c:	4850      	ldr	r0, [pc, #320]	; (8000e50 <main+0x1d8>)
 8000d0e:	f000 f959 	bl	8000fc4 <parseCommands>
				doneTransaction = RESET;
 8000d12:	4b50      	ldr	r3, [pc, #320]	; (8000e54 <main+0x1dc>)
 8000d14:	2200      	movs	r2, #0
 8000d16:	701a      	strb	r2, [r3, #0]
 8000d18:	e7bb      	b.n	8000c92 <main+0x1a>
			}

		}else{
			// Si estamos aqui es porque se aplicara el mismo metodo para guardar cada fila de strings

			if (rxData != '\0'){
 8000d1a:	4b4b      	ldr	r3, [pc, #300]	; (8000e48 <main+0x1d0>)
 8000d1c:	781b      	ldrb	r3, [r3, #0]
 8000d1e:	2b00      	cmp	r3, #0
 8000d20:	d059      	beq.n	8000dd6 <main+0x15e>

				if (rxData != '\r'){
 8000d22:	4b49      	ldr	r3, [pc, #292]	; (8000e48 <main+0x1d0>)
 8000d24:	781b      	ldrb	r3, [r3, #0]
 8000d26:	2b0d      	cmp	r3, #13
 8000d28:	d016      	beq.n	8000d58 <main+0xe0>
					stringMatrix[stringRow][stringColumn] = rxData;
 8000d2a:	4b4d      	ldr	r3, [pc, #308]	; (8000e60 <main+0x1e8>)
 8000d2c:	781b      	ldrb	r3, [r3, #0]
 8000d2e:	461c      	mov	r4, r3
 8000d30:	4b4c      	ldr	r3, [pc, #304]	; (8000e64 <main+0x1ec>)
 8000d32:	781b      	ldrb	r3, [r3, #0]
 8000d34:	4618      	mov	r0, r3
 8000d36:	4b44      	ldr	r3, [pc, #272]	; (8000e48 <main+0x1d0>)
 8000d38:	7819      	ldrb	r1, [r3, #0]
 8000d3a:	4a4b      	ldr	r2, [pc, #300]	; (8000e68 <main+0x1f0>)
 8000d3c:	2334      	movs	r3, #52	; 0x34
 8000d3e:	fb04 f303 	mul.w	r3, r4, r3
 8000d42:	4413      	add	r3, r2
 8000d44:	4403      	add	r3, r0
 8000d46:	460a      	mov	r2, r1
 8000d48:	701a      	strb	r2, [r3, #0]
					stringColumn++;
 8000d4a:	4b46      	ldr	r3, [pc, #280]	; (8000e64 <main+0x1ec>)
 8000d4c:	781b      	ldrb	r3, [r3, #0]
 8000d4e:	3301      	adds	r3, #1
 8000d50:	b2da      	uxtb	r2, r3
 8000d52:	4b44      	ldr	r3, [pc, #272]	; (8000e64 <main+0x1ec>)
 8000d54:	701a      	strb	r2, [r3, #0]
 8000d56:	e008      	b.n	8000d6a <main+0xf2>
				}else{
					stringRow++;
 8000d58:	4b41      	ldr	r3, [pc, #260]	; (8000e60 <main+0x1e8>)
 8000d5a:	781b      	ldrb	r3, [r3, #0]
 8000d5c:	3301      	adds	r3, #1
 8000d5e:	b2da      	uxtb	r2, r3
 8000d60:	4b3f      	ldr	r3, [pc, #252]	; (8000e60 <main+0x1e8>)
 8000d62:	701a      	strb	r2, [r3, #0]
					stringColumn = 0;
 8000d64:	4b3f      	ldr	r3, [pc, #252]	; (8000e64 <main+0x1ec>)
 8000d66:	2200      	movs	r2, #0
 8000d68:	701a      	strb	r2, [r3, #0]
				}

				if (rxData == '@'){
 8000d6a:	4b37      	ldr	r3, [pc, #220]	; (8000e48 <main+0x1d0>)
 8000d6c:	781b      	ldrb	r3, [r3, #0]
 8000d6e:	2b40      	cmp	r3, #64	; 0x40
 8000d70:	d114      	bne.n	8000d9c <main+0x124>
					doneTransaction = SET;
 8000d72:	4b38      	ldr	r3, [pc, #224]	; (8000e54 <main+0x1dc>)
 8000d74:	2201      	movs	r2, #1
 8000d76:	701a      	strb	r2, [r3, #0]

					stringMatrix[stringRow][stringColumn - 1] = '\0';
 8000d78:	4b39      	ldr	r3, [pc, #228]	; (8000e60 <main+0x1e8>)
 8000d7a:	781b      	ldrb	r3, [r3, #0]
 8000d7c:	4618      	mov	r0, r3
 8000d7e:	4b39      	ldr	r3, [pc, #228]	; (8000e64 <main+0x1ec>)
 8000d80:	781b      	ldrb	r3, [r3, #0]
 8000d82:	3b01      	subs	r3, #1
 8000d84:	4938      	ldr	r1, [pc, #224]	; (8000e68 <main+0x1f0>)
 8000d86:	2234      	movs	r2, #52	; 0x34
 8000d88:	fb00 f202 	mul.w	r2, r0, r2
 8000d8c:	440a      	add	r2, r1
 8000d8e:	4413      	add	r3, r2
 8000d90:	2200      	movs	r2, #0
 8000d92:	701a      	strb	r2, [r3, #0]

					stringColumn = 0;
 8000d94:	4b33      	ldr	r3, [pc, #204]	; (8000e64 <main+0x1ec>)
 8000d96:	2200      	movs	r2, #0
 8000d98:	701a      	strb	r2, [r3, #0]
 8000d9a:	e019      	b.n	8000dd0 <main+0x158>

				}else if (rxData == 'z'){
 8000d9c:	4b2a      	ldr	r3, [pc, #168]	; (8000e48 <main+0x1d0>)
 8000d9e:	781b      	ldrb	r3, [r3, #0]
 8000da0:	2b7a      	cmp	r3, #122	; 0x7a
 8000da2:	d115      	bne.n	8000dd0 <main+0x158>

					memset(stringMatrix, 0, sizeof(stringMatrix));
 8000da4:	f44f 6229 	mov.w	r2, #2704	; 0xa90
 8000da8:	2100      	movs	r1, #0
 8000daa:	482f      	ldr	r0, [pc, #188]	; (8000e68 <main+0x1f0>)
 8000dac:	f003 fc1a 	bl	80045e4 <memset>
					stringRow    = 0;
 8000db0:	4b2b      	ldr	r3, [pc, #172]	; (8000e60 <main+0x1e8>)
 8000db2:	2200      	movs	r2, #0
 8000db4:	701a      	strb	r2, [r3, #0]
					stringColumn = 0;
 8000db6:	4b2b      	ldr	r3, [pc, #172]	; (8000e64 <main+0x1ec>)
 8000db8:	2200      	movs	r2, #0
 8000dba:	701a      	strb	r2, [r3, #0]
					writeMsg(&handlerUSART, "\n------String Vaciado-----\n \r");
 8000dbc:	492b      	ldr	r1, [pc, #172]	; (8000e6c <main+0x1f4>)
 8000dbe:	4827      	ldr	r0, [pc, #156]	; (8000e5c <main+0x1e4>)
 8000dc0:	f003 fb18 	bl	80043f4 <writeMsg>
					writeMsg(&handlerUSART, msg_InsertGrid);
 8000dc4:	4b2a      	ldr	r3, [pc, #168]	; (8000e70 <main+0x1f8>)
 8000dc6:	681b      	ldr	r3, [r3, #0]
 8000dc8:	4619      	mov	r1, r3
 8000dca:	4824      	ldr	r0, [pc, #144]	; (8000e5c <main+0x1e4>)
 8000dcc:	f003 fb12 	bl	80043f4 <writeMsg>
				}

				rxData = '\0';
 8000dd0:	4b1d      	ldr	r3, [pc, #116]	; (8000e48 <main+0x1d0>)
 8000dd2:	2200      	movs	r2, #0
 8000dd4:	701a      	strb	r2, [r3, #0]

			}

			if (doneTransaction){
 8000dd6:	4b1f      	ldr	r3, [pc, #124]	; (8000e54 <main+0x1dc>)
 8000dd8:	781b      	ldrb	r3, [r3, #0]
 8000dda:	2b00      	cmp	r3, #0
 8000ddc:	f43f af59 	beq.w	8000c92 <main+0x1a>

				starWorking = findShorterWay(stringMatrix, readableGrid, costs, &handlerAstarParameters, &handlerCostsAstar, shorterWay);
 8000de0:	4b24      	ldr	r3, [pc, #144]	; (8000e74 <main+0x1fc>)
 8000de2:	9301      	str	r3, [sp, #4]
 8000de4:	4b24      	ldr	r3, [pc, #144]	; (8000e78 <main+0x200>)
 8000de6:	9300      	str	r3, [sp, #0]
 8000de8:	4b24      	ldr	r3, [pc, #144]	; (8000e7c <main+0x204>)
 8000dea:	4a25      	ldr	r2, [pc, #148]	; (8000e80 <main+0x208>)
 8000dec:	4925      	ldr	r1, [pc, #148]	; (8000e84 <main+0x20c>)
 8000dee:	481e      	ldr	r0, [pc, #120]	; (8000e68 <main+0x1f0>)
 8000df0:	f000 fa4c 	bl	800128c <findShorterWay>
 8000df4:	4603      	mov	r3, r0
 8000df6:	b2da      	uxtb	r2, r3
 8000df8:	4b23      	ldr	r3, [pc, #140]	; (8000e88 <main+0x210>)
 8000dfa:	701a      	strb	r2, [r3, #0]

				if (starWorking){
 8000dfc:	4b22      	ldr	r3, [pc, #136]	; (8000e88 <main+0x210>)
 8000dfe:	781b      	ldrb	r3, [r3, #0]
 8000e00:	2b00      	cmp	r3, #0
 8000e02:	d105      	bne.n	8000e10 <main+0x198>
					// si se llego hasta aca es porque Astar si funciona correctamente
				}else{
					writeMsg(&handlerUSART, msg_NotWorking);
 8000e04:	4b21      	ldr	r3, [pc, #132]	; (8000e8c <main+0x214>)
 8000e06:	681b      	ldr	r3, [r3, #0]
 8000e08:	4619      	mov	r1, r3
 8000e0a:	4814      	ldr	r0, [pc, #80]	; (8000e5c <main+0x1e4>)
 8000e0c:	f003 faf2 	bl	80043f4 <writeMsg>
				}
				memset(stringMatrix, 0, sizeof(stringMatrix));
 8000e10:	f44f 6229 	mov.w	r2, #2704	; 0xa90
 8000e14:	2100      	movs	r1, #0
 8000e16:	4814      	ldr	r0, [pc, #80]	; (8000e68 <main+0x1f0>)
 8000e18:	f003 fbe4 	bl	80045e4 <memset>
				stringRow    = 0;
 8000e1c:	4b10      	ldr	r3, [pc, #64]	; (8000e60 <main+0x1e8>)
 8000e1e:	2200      	movs	r2, #0
 8000e20:	701a      	strb	r2, [r3, #0]
				stringColumn = 0;
 8000e22:	4b10      	ldr	r3, [pc, #64]	; (8000e64 <main+0x1ec>)
 8000e24:	2200      	movs	r2, #0
 8000e26:	701a      	strb	r2, [r3, #0]
				writeMsg(&handlerUSART, "\n------String Vaciado-----\n \r");
 8000e28:	4910      	ldr	r1, [pc, #64]	; (8000e6c <main+0x1f4>)
 8000e2a:	480c      	ldr	r0, [pc, #48]	; (8000e5c <main+0x1e4>)
 8000e2c:	f003 fae2 	bl	80043f4 <writeMsg>

				flagAstar = RESET;
 8000e30:	4b04      	ldr	r3, [pc, #16]	; (8000e44 <main+0x1cc>)
 8000e32:	2200      	movs	r2, #0
 8000e34:	701a      	strb	r2, [r3, #0]

				doneTransaction = RESET;
 8000e36:	4b07      	ldr	r3, [pc, #28]	; (8000e54 <main+0x1dc>)
 8000e38:	2200      	movs	r2, #0
 8000e3a:	701a      	strb	r2, [r3, #0]
		if (!flagAstar){
 8000e3c:	e729      	b.n	8000c92 <main+0x1a>
 8000e3e:	bf00      	nop
 8000e40:	e000ed00 	.word	0xe000ed00
 8000e44:	20000e56 	.word	0x20000e56
 8000e48:	20000356 	.word	0x20000356
 8000e4c:	20000354 	.word	0x20000354
 8000e50:	20000314 	.word	0x20000314
 8000e54:	20000355 	.word	0x20000355
 8000e58:	08008c78 	.word	0x08008c78
 8000e5c:	2000022c 	.word	0x2000022c
 8000e60:	20000e55 	.word	0x20000e55
 8000e64:	20000e54 	.word	0x20000e54
 8000e68:	200003c4 	.word	0x200003c4
 8000e6c:	08008c8c 	.word	0x08008c8c
 8000e70:	20000004 	.word	0x20000004
 8000e74:	20011754 	.word	0x20011754
 8000e78:	200002cc 	.word	0x200002cc
 8000e7c:	200002c0 	.word	0x200002c0
 8000e80:	20000f44 	.word	0x20000f44
 8000e84:	20010cc4 	.word	0x20010cc4
 8000e88:	20000e57 	.word	0x20000e57
 8000e8c:	20000000 	.word	0x20000000

08000e90 <inSystem>:
		}
	}// FIN DEL LOOP
}


void inSystem (void){
 8000e90:	b580      	push	{r7, lr}
 8000e92:	af00      	add	r7, sp, #0


	// Activamos la maxima velocidad del microcontrolador
	RCC_enableMaxFrequencies();
 8000e94:	f002 fe40 	bl	8003b18 <RCC_enableMaxFrequencies>
//	handlerMCO2Show.GPIO_PinConfig.GPIO_PinMode        = GPIO_MODE_ALTFN;
//	GPIO_Config(&handlerMCO2Show);

	//BLINKY LED

	handlerPinA5.pGPIOx = GPIOA;
 8000e98:	4b41      	ldr	r3, [pc, #260]	; (8000fa0 <inSystem+0x110>)
 8000e9a:	4a42      	ldr	r2, [pc, #264]	; (8000fa4 <inSystem+0x114>)
 8000e9c:	601a      	str	r2, [r3, #0]
	handlerPinA5.GPIO_PinConfig.GPIO_PinAltFunMode = AF0;
 8000e9e:	4b40      	ldr	r3, [pc, #256]	; (8000fa0 <inSystem+0x110>)
 8000ea0:	2200      	movs	r2, #0
 8000ea2:	725a      	strb	r2, [r3, #9]
	handlerPinA5.GPIO_PinConfig.GPIO_PinMode = GPIO_MODE_OUT;
 8000ea4:	4b3e      	ldr	r3, [pc, #248]	; (8000fa0 <inSystem+0x110>)
 8000ea6:	2201      	movs	r2, #1
 8000ea8:	715a      	strb	r2, [r3, #5]
	handlerPinA5.GPIO_PinConfig.GPIO_PinOPType = GPIO_OTYPE_PUSHPULL;
 8000eaa:	4b3d      	ldr	r3, [pc, #244]	; (8000fa0 <inSystem+0x110>)
 8000eac:	2200      	movs	r2, #0
 8000eae:	721a      	strb	r2, [r3, #8]
	handlerPinA5.GPIO_PinConfig.GPIO_PinNumber = PIN_5;
 8000eb0:	4b3b      	ldr	r3, [pc, #236]	; (8000fa0 <inSystem+0x110>)
 8000eb2:	2205      	movs	r2, #5
 8000eb4:	711a      	strb	r2, [r3, #4]
	handlerPinA5.GPIO_PinConfig.GPIO_PinPuPdControl = GPIO_PUPDR_NOTHING;
 8000eb6:	4b3a      	ldr	r3, [pc, #232]	; (8000fa0 <inSystem+0x110>)
 8000eb8:	2200      	movs	r2, #0
 8000eba:	71da      	strb	r2, [r3, #7]
	handlerPinA5.GPIO_PinConfig.GPIO_PinSpeed = GPIO_OSPEEDR_FAST;
 8000ebc:	4b38      	ldr	r3, [pc, #224]	; (8000fa0 <inSystem+0x110>)
 8000ebe:	2202      	movs	r2, #2
 8000ec0:	719a      	strb	r2, [r3, #6]
	GPIO_Config(&handlerPinA5);
 8000ec2:	4837      	ldr	r0, [pc, #220]	; (8000fa0 <inSystem+0x110>)
 8000ec4:	f002 fc9a 	bl	80037fc <GPIO_Config>
	GPIO_WritePin(&handlerPinA5, SET);
 8000ec8:	2101      	movs	r1, #1
 8000eca:	4835      	ldr	r0, [pc, #212]	; (8000fa0 <inSystem+0x110>)
 8000ecc:	f002 fdc0 	bl	8003a50 <GPIO_WritePin>

	handlerTimerBlinky.ptrTIMx                           = TIM3;
 8000ed0:	4b35      	ldr	r3, [pc, #212]	; (8000fa8 <inSystem+0x118>)
 8000ed2:	4a36      	ldr	r2, [pc, #216]	; (8000fac <inSystem+0x11c>)
 8000ed4:	601a      	str	r2, [r3, #0]
	handlerTimerBlinky.TIMx_Config.TIMx_interruptEnable  = BTIMER_ENABLE_INTERRUPT;
 8000ed6:	4b34      	ldr	r3, [pc, #208]	; (8000fa8 <inSystem+0x118>)
 8000ed8:	2201      	movs	r2, #1
 8000eda:	741a      	strb	r2, [r3, #16]
	handlerTimerBlinky.TIMx_Config.TIMx_mode             = BTIMER_MODE_UP;
 8000edc:	4b32      	ldr	r3, [pc, #200]	; (8000fa8 <inSystem+0x118>)
 8000ede:	2200      	movs	r2, #0
 8000ee0:	711a      	strb	r2, [r3, #4]
	handlerTimerBlinky.TIMx_Config.TIMx_speed            = BTIMER_SPEED_100MHz_100us;
 8000ee2:	4b31      	ldr	r3, [pc, #196]	; (8000fa8 <inSystem+0x118>)
 8000ee4:	f242 7210 	movw	r2, #10000	; 0x2710
 8000ee8:	609a      	str	r2, [r3, #8]
	handlerTimerBlinky.TIMx_Config.TIMx_period           = 1000;
 8000eea:	4b2f      	ldr	r3, [pc, #188]	; (8000fa8 <inSystem+0x118>)
 8000eec:	f44f 727a 	mov.w	r2, #1000	; 0x3e8
 8000ef0:	60da      	str	r2, [r3, #12]
	BasicTimer_Config(&handlerTimerBlinky);
 8000ef2:	482d      	ldr	r0, [pc, #180]	; (8000fa8 <inSystem+0x118>)
 8000ef4:	f002 f932 	bl	800315c <BasicTimer_Config>
	startTimer(&handlerTimerBlinky);
 8000ef8:	482b      	ldr	r0, [pc, #172]	; (8000fa8 <inSystem+0x118>)
 8000efa:	f002 fc6d 	bl	80037d8 <startTimer>
	///////////////////////////////////////////Comunicacin serial para comandos //////////////////////////////////////////////


	//Comunicacion serial

	handlerPinRx.pGPIOx                             = GPIOA;
 8000efe:	4b2c      	ldr	r3, [pc, #176]	; (8000fb0 <inSystem+0x120>)
 8000f00:	4a28      	ldr	r2, [pc, #160]	; (8000fa4 <inSystem+0x114>)
 8000f02:	601a      	str	r2, [r3, #0]
	handlerPinRx.GPIO_PinConfig.GPIO_PinAltFunMode  = AF7;
 8000f04:	4b2a      	ldr	r3, [pc, #168]	; (8000fb0 <inSystem+0x120>)
 8000f06:	2207      	movs	r2, #7
 8000f08:	725a      	strb	r2, [r3, #9]
	handlerPinRx.GPIO_PinConfig.GPIO_PinMode        = GPIO_MODE_ALTFN;
 8000f0a:	4b29      	ldr	r3, [pc, #164]	; (8000fb0 <inSystem+0x120>)
 8000f0c:	2202      	movs	r2, #2
 8000f0e:	715a      	strb	r2, [r3, #5]
	handlerPinRx.GPIO_PinConfig.GPIO_PinOPType      = GPIO_OTYPE_PUSHPULL;
 8000f10:	4b27      	ldr	r3, [pc, #156]	; (8000fb0 <inSystem+0x120>)
 8000f12:	2200      	movs	r2, #0
 8000f14:	721a      	strb	r2, [r3, #8]
	handlerPinRx.GPIO_PinConfig.GPIO_PinNumber      = PIN_3;
 8000f16:	4b26      	ldr	r3, [pc, #152]	; (8000fb0 <inSystem+0x120>)
 8000f18:	2203      	movs	r2, #3
 8000f1a:	711a      	strb	r2, [r3, #4]
	handlerPinRx.GPIO_PinConfig.GPIO_PinPuPdControl = GPIO_PUPDR_NOTHING;
 8000f1c:	4b24      	ldr	r3, [pc, #144]	; (8000fb0 <inSystem+0x120>)
 8000f1e:	2200      	movs	r2, #0
 8000f20:	71da      	strb	r2, [r3, #7]
	handlerPinRx.GPIO_PinConfig.GPIO_PinSpeed       = GPIO_OSPEEDR_HIGH;
 8000f22:	4b23      	ldr	r3, [pc, #140]	; (8000fb0 <inSystem+0x120>)
 8000f24:	2203      	movs	r2, #3
 8000f26:	719a      	strb	r2, [r3, #6]
	GPIO_Config(&handlerPinRx);
 8000f28:	4821      	ldr	r0, [pc, #132]	; (8000fb0 <inSystem+0x120>)
 8000f2a:	f002 fc67 	bl	80037fc <GPIO_Config>

	handlerPinTx.pGPIOx                             = GPIOA;
 8000f2e:	4b21      	ldr	r3, [pc, #132]	; (8000fb4 <inSystem+0x124>)
 8000f30:	4a1c      	ldr	r2, [pc, #112]	; (8000fa4 <inSystem+0x114>)
 8000f32:	601a      	str	r2, [r3, #0]
	handlerPinTx.GPIO_PinConfig.GPIO_PinAltFunMode  = AF7;
 8000f34:	4b1f      	ldr	r3, [pc, #124]	; (8000fb4 <inSystem+0x124>)
 8000f36:	2207      	movs	r2, #7
 8000f38:	725a      	strb	r2, [r3, #9]
	handlerPinTx.GPIO_PinConfig.GPIO_PinMode        = GPIO_MODE_ALTFN;
 8000f3a:	4b1e      	ldr	r3, [pc, #120]	; (8000fb4 <inSystem+0x124>)
 8000f3c:	2202      	movs	r2, #2
 8000f3e:	715a      	strb	r2, [r3, #5]
	handlerPinTx.GPIO_PinConfig.GPIO_PinOPType      = GPIO_OTYPE_PUSHPULL;
 8000f40:	4b1c      	ldr	r3, [pc, #112]	; (8000fb4 <inSystem+0x124>)
 8000f42:	2200      	movs	r2, #0
 8000f44:	721a      	strb	r2, [r3, #8]
	handlerPinTx.GPIO_PinConfig.GPIO_PinNumber      = PIN_2;
 8000f46:	4b1b      	ldr	r3, [pc, #108]	; (8000fb4 <inSystem+0x124>)
 8000f48:	2202      	movs	r2, #2
 8000f4a:	711a      	strb	r2, [r3, #4]
	handlerPinTx.GPIO_PinConfig.GPIO_PinPuPdControl = GPIO_PUPDR_NOTHING;
 8000f4c:	4b19      	ldr	r3, [pc, #100]	; (8000fb4 <inSystem+0x124>)
 8000f4e:	2200      	movs	r2, #0
 8000f50:	71da      	strb	r2, [r3, #7]
	handlerPinTx.GPIO_PinConfig.GPIO_PinSpeed       = GPIO_OSPEEDR_HIGH;
 8000f52:	4b18      	ldr	r3, [pc, #96]	; (8000fb4 <inSystem+0x124>)
 8000f54:	2203      	movs	r2, #3
 8000f56:	719a      	strb	r2, [r3, #6]
	GPIO_Config(&handlerPinTx);
 8000f58:	4816      	ldr	r0, [pc, #88]	; (8000fb4 <inSystem+0x124>)
 8000f5a:	f002 fc4f 	bl	80037fc <GPIO_Config>

	handlerUSART.ptrUSARTx                      = USART2;
 8000f5e:	4b16      	ldr	r3, [pc, #88]	; (8000fb8 <inSystem+0x128>)
 8000f60:	4a16      	ldr	r2, [pc, #88]	; (8000fbc <inSystem+0x12c>)
 8000f62:	601a      	str	r2, [r3, #0]
	handlerUSART.USART_Config.USART_MCUvelocity = USART_50MHz_VELOCITY;
 8000f64:	4b14      	ldr	r3, [pc, #80]	; (8000fb8 <inSystem+0x128>)
 8000f66:	4a16      	ldr	r2, [pc, #88]	; (8000fc0 <inSystem+0x130>)
 8000f68:	60da      	str	r2, [r3, #12]
	handlerUSART.USART_Config.USART_baudrate    = USART_BAUDRATE_19200;
 8000f6a:	4b13      	ldr	r3, [pc, #76]	; (8000fb8 <inSystem+0x128>)
 8000f6c:	2201      	movs	r2, #1
 8000f6e:	71da      	strb	r2, [r3, #7]
	handlerUSART.USART_Config.USART_enableInRx  = USART_INTERRUPT_RX_ENABLE;
 8000f70:	4b11      	ldr	r3, [pc, #68]	; (8000fb8 <inSystem+0x128>)
 8000f72:	2201      	movs	r2, #1
 8000f74:	715a      	strb	r2, [r3, #5]
	handlerUSART.USART_Config.USART_enableInTx  = USART_INTERRUPT_TX_DISABLE;
 8000f76:	4b10      	ldr	r3, [pc, #64]	; (8000fb8 <inSystem+0x128>)
 8000f78:	2200      	movs	r2, #0
 8000f7a:	711a      	strb	r2, [r3, #4]
	handlerUSART.USART_Config.USART_mode        = USART_MODE_RXTX;
 8000f7c:	4b0e      	ldr	r3, [pc, #56]	; (8000fb8 <inSystem+0x128>)
 8000f7e:	2202      	movs	r2, #2
 8000f80:	719a      	strb	r2, [r3, #6]
	handlerUSART.USART_Config.USART_parity      = USART_PARITY_NONE;
 8000f82:	4b0d      	ldr	r3, [pc, #52]	; (8000fb8 <inSystem+0x128>)
 8000f84:	2200      	movs	r2, #0
 8000f86:	725a      	strb	r2, [r3, #9]
	handlerUSART.USART_Config.USART_stopbits    = USART_STOPBIT_1;
 8000f88:	4b0b      	ldr	r3, [pc, #44]	; (8000fb8 <inSystem+0x128>)
 8000f8a:	2200      	movs	r2, #0
 8000f8c:	729a      	strb	r2, [r3, #10]
	handlerUSART.USART_Config.USART_datasize    = USART_DATASIZE_8BIT;
 8000f8e:	4b0a      	ldr	r3, [pc, #40]	; (8000fb8 <inSystem+0x128>)
 8000f90:	2200      	movs	r2, #0
 8000f92:	721a      	strb	r2, [r3, #8]
	USART_Config(&handlerUSART);
 8000f94:	4808      	ldr	r0, [pc, #32]	; (8000fb8 <inSystem+0x128>)
 8000f96:	f002 fe4d 	bl	8003c34 <USART_Config>


}
 8000f9a:	bf00      	nop
 8000f9c:	bd80      	pop	{r7, pc}
 8000f9e:	bf00      	nop
 8000fa0:	200001f4 	.word	0x200001f4
 8000fa4:	40020000 	.word	0x40020000
 8000fa8:	20000218 	.word	0x20000218
 8000fac:	40000400 	.word	0x40000400
 8000fb0:	20000200 	.word	0x20000200
 8000fb4:	2000020c 	.word	0x2000020c
 8000fb8:	2000022c 	.word	0x2000022c
 8000fbc:	40004400 	.word	0x40004400
 8000fc0:	02faf080 	.word	0x02faf080

08000fc4 <parseCommands>:


void parseCommands(char *stringVector){
 8000fc4:	b580      	push	{r7, lr}
 8000fc6:	b086      	sub	sp, #24
 8000fc8:	af04      	add	r7, sp, #16
 8000fca:	6078      	str	r0, [r7, #4]

	sscanf(stringVector, "%s %u %u %u %s", cmd ,&firstParameter, &secondParameter, &thirdParameter, userMsg);
 8000fcc:	4b23      	ldr	r3, [pc, #140]	; (800105c <parseCommands+0x98>)
 8000fce:	9302      	str	r3, [sp, #8]
 8000fd0:	4b23      	ldr	r3, [pc, #140]	; (8001060 <parseCommands+0x9c>)
 8000fd2:	9301      	str	r3, [sp, #4]
 8000fd4:	4b23      	ldr	r3, [pc, #140]	; (8001064 <parseCommands+0xa0>)
 8000fd6:	9300      	str	r3, [sp, #0]
 8000fd8:	4b23      	ldr	r3, [pc, #140]	; (8001068 <parseCommands+0xa4>)
 8000fda:	4a24      	ldr	r2, [pc, #144]	; (800106c <parseCommands+0xa8>)
 8000fdc:	4924      	ldr	r1, [pc, #144]	; (8001070 <parseCommands+0xac>)
 8000fde:	6878      	ldr	r0, [r7, #4]
 8000fe0:	f004 f882 	bl	80050e8 <siscanf>


	if (strcmp(cmd, "help") == 0){
 8000fe4:	4923      	ldr	r1, [pc, #140]	; (8001074 <parseCommands+0xb0>)
 8000fe6:	4821      	ldr	r0, [pc, #132]	; (800106c <parseCommands+0xa8>)
 8000fe8:	f7ff f8fa 	bl	80001e0 <strcmp>
 8000fec:	4603      	mov	r3, r0
 8000fee:	2b00      	cmp	r3, #0
 8000ff0:	d108      	bne.n	8001004 <parseCommands+0x40>

		writeMsg(&handlerUSART, "HELP MENU CMD : \n");
 8000ff2:	4921      	ldr	r1, [pc, #132]	; (8001078 <parseCommands+0xb4>)
 8000ff4:	4821      	ldr	r0, [pc, #132]	; (800107c <parseCommands+0xb8>)
 8000ff6:	f003 f9fd 	bl	80043f4 <writeMsg>
		writeMsg(&handlerUSART, "1)  astar #parallel Distance #diagonal Distance  \n");
 8000ffa:	4921      	ldr	r1, [pc, #132]	; (8001080 <parseCommands+0xbc>)
 8000ffc:	481f      	ldr	r0, [pc, #124]	; (800107c <parseCommands+0xb8>)
 8000ffe:	f003 f9f9 	bl	80043f4 <writeMsg>

	}



}
 8001002:	e026      	b.n	8001052 <parseCommands+0x8e>
	}else if (strcmp(cmd, "astar") == 0){
 8001004:	491f      	ldr	r1, [pc, #124]	; (8001084 <parseCommands+0xc0>)
 8001006:	4819      	ldr	r0, [pc, #100]	; (800106c <parseCommands+0xa8>)
 8001008:	f7ff f8ea 	bl	80001e0 <strcmp>
 800100c:	4603      	mov	r3, r0
 800100e:	2b00      	cmp	r3, #0
 8001010:	d11f      	bne.n	8001052 <parseCommands+0x8e>
		handlerAstarParameters.parallelDistance  = firstParameter;
 8001012:	4b15      	ldr	r3, [pc, #84]	; (8001068 <parseCommands+0xa4>)
 8001014:	681b      	ldr	r3, [r3, #0]
 8001016:	ee07 3a90 	vmov	s15, r3
 800101a:	eef8 7a67 	vcvt.f32.u32	s15, s15
 800101e:	4b1a      	ldr	r3, [pc, #104]	; (8001088 <parseCommands+0xc4>)
 8001020:	edc3 7a00 	vstr	s15, [r3]
		handlerAstarParameters.diagonalDiastance = secondParameter;
 8001024:	4b0f      	ldr	r3, [pc, #60]	; (8001064 <parseCommands+0xa0>)
 8001026:	681b      	ldr	r3, [r3, #0]
 8001028:	ee07 3a90 	vmov	s15, r3
 800102c:	eef8 7a67 	vcvt.f32.u32	s15, s15
 8001030:	4b15      	ldr	r3, [pc, #84]	; (8001088 <parseCommands+0xc4>)
 8001032:	edc3 7a01 	vstr	s15, [r3, #4]
		writeMsg(&handlerUSART, msg_InsertGrid);
 8001036:	4b15      	ldr	r3, [pc, #84]	; (800108c <parseCommands+0xc8>)
 8001038:	681b      	ldr	r3, [r3, #0]
 800103a:	4619      	mov	r1, r3
 800103c:	480f      	ldr	r0, [pc, #60]	; (800107c <parseCommands+0xb8>)
 800103e:	f003 f9d9 	bl	80043f4 <writeMsg>
		initSerialComunication(&handlerUSART, &handlerPinRx, &handlerPinTx);
 8001042:	4a13      	ldr	r2, [pc, #76]	; (8001090 <parseCommands+0xcc>)
 8001044:	4913      	ldr	r1, [pc, #76]	; (8001094 <parseCommands+0xd0>)
 8001046:	480d      	ldr	r0, [pc, #52]	; (800107c <parseCommands+0xb8>)
 8001048:	f002 f800 	bl	800304c <initSerialComunication>
		flagAstar = SET;
 800104c:	4b12      	ldr	r3, [pc, #72]	; (8001098 <parseCommands+0xd4>)
 800104e:	2201      	movs	r2, #1
 8001050:	701a      	strb	r2, [r3, #0]
}
 8001052:	bf00      	nop
 8001054:	3708      	adds	r7, #8
 8001056:	46bd      	mov	sp, r7
 8001058:	bd80      	pop	{r7, pc}
 800105a:	bf00      	nop
 800105c:	20000384 	.word	0x20000384
 8001060:	20000380 	.word	0x20000380
 8001064:	2000037c 	.word	0x2000037c
 8001068:	20000378 	.word	0x20000378
 800106c:	20000358 	.word	0x20000358
 8001070:	08008cac 	.word	0x08008cac
 8001074:	08008cbc 	.word	0x08008cbc
 8001078:	08008cc4 	.word	0x08008cc4
 800107c:	2000022c 	.word	0x2000022c
 8001080:	08008cd8 	.word	0x08008cd8
 8001084:	08008d0c 	.word	0x08008d0c
 8001088:	200002c0 	.word	0x200002c0
 800108c:	20000004 	.word	0x20000004
 8001090:	2000020c 	.word	0x2000020c
 8001094:	20000200 	.word	0x20000200
 8001098:	20000e56 	.word	0x20000e56

0800109c <usart2Rx_Callback>:



// Interrupcion usart 1
void usart2Rx_Callback(void){
 800109c:	b580      	push	{r7, lr}
 800109e:	af00      	add	r7, sp, #0

	rxData = getRxData();
 80010a0:	f003 f9d0 	bl	8004444 <getRxData>
 80010a4:	4603      	mov	r3, r0
 80010a6:	461a      	mov	r2, r3
 80010a8:	4b01      	ldr	r3, [pc, #4]	; (80010b0 <usart2Rx_Callback+0x14>)
 80010aa:	701a      	strb	r2, [r3, #0]

}
 80010ac:	bf00      	nop
 80010ae:	bd80      	pop	{r7, pc}
 80010b0:	20000356 	.word	0x20000356

080010b4 <BasicTimer3_Callback>:

//Interrupcin Timer 3
void BasicTimer3_Callback(void){
 80010b4:	b580      	push	{r7, lr}
 80010b6:	af00      	add	r7, sp, #0

	GPIOxTooglePin(&handlerPinA5);
 80010b8:	4802      	ldr	r0, [pc, #8]	; (80010c4 <BasicTimer3_Callback+0x10>)
 80010ba:	f002 fd15 	bl	8003ae8 <GPIOxTooglePin>

}
 80010be:	bf00      	nop
 80010c0:	bd80      	pop	{r7, pc}
 80010c2:	bf00      	nop
 80010c4:	200001f4 	.word	0x200001f4

080010c8 <ITM_SendChar>:
/* ITM register addresses */
#define ITM_STIMULUS_PORT0   	*((volatile uint32_t*) 0xE0000000 )
#define ITM_TRACE_EN          	*((volatile uint32_t*) 0xE0000E00 )

void ITM_SendChar(uint8_t ch)
{
 80010c8:	b480      	push	{r7}
 80010ca:	b083      	sub	sp, #12
 80010cc:	af00      	add	r7, sp, #0
 80010ce:	4603      	mov	r3, r0
 80010d0:	71fb      	strb	r3, [r7, #7]

	//Enable TRCENA
	DEMCR |= ( 1 << 24);
 80010d2:	4b0f      	ldr	r3, [pc, #60]	; (8001110 <ITM_SendChar+0x48>)
 80010d4:	681b      	ldr	r3, [r3, #0]
 80010d6:	4a0e      	ldr	r2, [pc, #56]	; (8001110 <ITM_SendChar+0x48>)
 80010d8:	f043 7380 	orr.w	r3, r3, #16777216	; 0x1000000
 80010dc:	6013      	str	r3, [r2, #0]

	//enable stimulus port 0
	ITM_TRACE_EN |= ( 1 << 0);
 80010de:	4b0d      	ldr	r3, [pc, #52]	; (8001114 <ITM_SendChar+0x4c>)
 80010e0:	681b      	ldr	r3, [r3, #0]
 80010e2:	4a0c      	ldr	r2, [pc, #48]	; (8001114 <ITM_SendChar+0x4c>)
 80010e4:	f043 0301 	orr.w	r3, r3, #1
 80010e8:	6013      	str	r3, [r2, #0]

	// read FIFO status in bit [0]:
	while(!(ITM_STIMULUS_PORT0 & 1));
 80010ea:	bf00      	nop
 80010ec:	f04f 4360 	mov.w	r3, #3758096384	; 0xe0000000
 80010f0:	681b      	ldr	r3, [r3, #0]
 80010f2:	f003 0301 	and.w	r3, r3, #1
 80010f6:	2b00      	cmp	r3, #0
 80010f8:	d0f8      	beq.n	80010ec <ITM_SendChar+0x24>

	//Write to ITM stimulus port0
	ITM_STIMULUS_PORT0 = ch;
 80010fa:	f04f 4260 	mov.w	r2, #3758096384	; 0xe0000000
 80010fe:	79fb      	ldrb	r3, [r7, #7]
 8001100:	6013      	str	r3, [r2, #0]
}
 8001102:	bf00      	nop
 8001104:	370c      	adds	r7, #12
 8001106:	46bd      	mov	sp, r7
 8001108:	f85d 7b04 	ldr.w	r7, [sp], #4
 800110c:	4770      	bx	lr
 800110e:	bf00      	nop
 8001110:	e000edfc 	.word	0xe000edfc
 8001114:	e0000e00 	.word	0xe0000e00

08001118 <_getpid>:
void initialise_monitor_handles()
{
}

int _getpid(void)
{
 8001118:	b480      	push	{r7}
 800111a:	af00      	add	r7, sp, #0
	return 1;
 800111c:	2301      	movs	r3, #1
}
 800111e:	4618      	mov	r0, r3
 8001120:	46bd      	mov	sp, r7
 8001122:	f85d 7b04 	ldr.w	r7, [sp], #4
 8001126:	4770      	bx	lr

08001128 <_kill>:

int _kill(int pid, int sig)
{
 8001128:	b580      	push	{r7, lr}
 800112a:	b082      	sub	sp, #8
 800112c:	af00      	add	r7, sp, #0
 800112e:	6078      	str	r0, [r7, #4]
 8001130:	6039      	str	r1, [r7, #0]
	errno = EINVAL;
 8001132:	f003 fa25 	bl	8004580 <__errno>
 8001136:	4603      	mov	r3, r0
 8001138:	2216      	movs	r2, #22
 800113a:	601a      	str	r2, [r3, #0]
	return -1;
 800113c:	f04f 33ff 	mov.w	r3, #4294967295	; 0xffffffff
}
 8001140:	4618      	mov	r0, r3
 8001142:	3708      	adds	r7, #8
 8001144:	46bd      	mov	sp, r7
 8001146:	bd80      	pop	{r7, pc}

08001148 <_exit>:

void _exit (int status)
{
 8001148:	b580      	push	{r7, lr}
 800114a:	b082      	sub	sp, #8
 800114c:	af00      	add	r7, sp, #0
 800114e:	6078      	str	r0, [r7, #4]
	_kill(status, -1);
 8001150:	f04f 31ff 	mov.w	r1, #4294967295	; 0xffffffff
 8001154:	6878      	ldr	r0, [r7, #4]
 8001156:	f7ff ffe7 	bl	8001128 <_kill>
	while (1) {}		/* Make sure we hang here */
 800115a:	e7fe      	b.n	800115a <_exit+0x12>

0800115c <_read>:
}

__attribute__((weak)) int _read(int file, char *ptr, int len)
{
 800115c:	b580      	push	{r7, lr}
 800115e:	b086      	sub	sp, #24
 8001160:	af00      	add	r7, sp, #0
 8001162:	60f8      	str	r0, [r7, #12]
 8001164:	60b9      	str	r1, [r7, #8]
 8001166:	607a      	str	r2, [r7, #4]
	int DataIdx;

	for (DataIdx = 0; DataIdx < len; DataIdx++)
 8001168:	2300      	movs	r3, #0
 800116a:	617b      	str	r3, [r7, #20]
 800116c:	e00a      	b.n	8001184 <_read+0x28>
	{
		*ptr++ = __io_getchar();
 800116e:	f3af 8000 	nop.w
 8001172:	4601      	mov	r1, r0
 8001174:	68bb      	ldr	r3, [r7, #8]
 8001176:	1c5a      	adds	r2, r3, #1
 8001178:	60ba      	str	r2, [r7, #8]
 800117a:	b2ca      	uxtb	r2, r1
 800117c:	701a      	strb	r2, [r3, #0]
	for (DataIdx = 0; DataIdx < len; DataIdx++)
 800117e:	697b      	ldr	r3, [r7, #20]
 8001180:	3301      	adds	r3, #1
 8001182:	617b      	str	r3, [r7, #20]
 8001184:	697a      	ldr	r2, [r7, #20]
 8001186:	687b      	ldr	r3, [r7, #4]
 8001188:	429a      	cmp	r2, r3
 800118a:	dbf0      	blt.n	800116e <_read+0x12>
	}

return len;
 800118c:	687b      	ldr	r3, [r7, #4]
}
 800118e:	4618      	mov	r0, r3
 8001190:	3718      	adds	r7, #24
 8001192:	46bd      	mov	sp, r7
 8001194:	bd80      	pop	{r7, pc}

08001196 <_write>:

__attribute__((weak)) int _write(int file, char *ptr, int len)
{
 8001196:	b580      	push	{r7, lr}
 8001198:	b086      	sub	sp, #24
 800119a:	af00      	add	r7, sp, #0
 800119c:	60f8      	str	r0, [r7, #12]
 800119e:	60b9      	str	r1, [r7, #8]
 80011a0:	607a      	str	r2, [r7, #4]
	int DataIdx;

	for (DataIdx = 0; DataIdx < len; DataIdx++)
 80011a2:	2300      	movs	r3, #0
 80011a4:	617b      	str	r3, [r7, #20]
 80011a6:	e009      	b.n	80011bc <_write+0x26>
	{
		//__io_putchar(*ptr++);
		ITM_SendChar(*ptr++);
 80011a8:	68bb      	ldr	r3, [r7, #8]
 80011aa:	1c5a      	adds	r2, r3, #1
 80011ac:	60ba      	str	r2, [r7, #8]
 80011ae:	781b      	ldrb	r3, [r3, #0]
 80011b0:	4618      	mov	r0, r3
 80011b2:	f7ff ff89 	bl	80010c8 <ITM_SendChar>
	for (DataIdx = 0; DataIdx < len; DataIdx++)
 80011b6:	697b      	ldr	r3, [r7, #20]
 80011b8:	3301      	adds	r3, #1
 80011ba:	617b      	str	r3, [r7, #20]
 80011bc:	697a      	ldr	r2, [r7, #20]
 80011be:	687b      	ldr	r3, [r7, #4]
 80011c0:	429a      	cmp	r2, r3
 80011c2:	dbf1      	blt.n	80011a8 <_write+0x12>
	}
	return len;
 80011c4:	687b      	ldr	r3, [r7, #4]
}
 80011c6:	4618      	mov	r0, r3
 80011c8:	3718      	adds	r7, #24
 80011ca:	46bd      	mov	sp, r7
 80011cc:	bd80      	pop	{r7, pc}

080011ce <_close>:

int _close(int file)
{
 80011ce:	b480      	push	{r7}
 80011d0:	b083      	sub	sp, #12
 80011d2:	af00      	add	r7, sp, #0
 80011d4:	6078      	str	r0, [r7, #4]
	return -1;
 80011d6:	f04f 33ff 	mov.w	r3, #4294967295	; 0xffffffff
}
 80011da:	4618      	mov	r0, r3
 80011dc:	370c      	adds	r7, #12
 80011de:	46bd      	mov	sp, r7
 80011e0:	f85d 7b04 	ldr.w	r7, [sp], #4
 80011e4:	4770      	bx	lr

080011e6 <_fstat>:


int _fstat(int file, struct stat *st)
{
 80011e6:	b480      	push	{r7}
 80011e8:	b083      	sub	sp, #12
 80011ea:	af00      	add	r7, sp, #0
 80011ec:	6078      	str	r0, [r7, #4]
 80011ee:	6039      	str	r1, [r7, #0]
	st->st_mode = S_IFCHR;
 80011f0:	683b      	ldr	r3, [r7, #0]
 80011f2:	f44f 5200 	mov.w	r2, #8192	; 0x2000
 80011f6:	605a      	str	r2, [r3, #4]
	return 0;
 80011f8:	2300      	movs	r3, #0
}
 80011fa:	4618      	mov	r0, r3
 80011fc:	370c      	adds	r7, #12
 80011fe:	46bd      	mov	sp, r7
 8001200:	f85d 7b04 	ldr.w	r7, [sp], #4
 8001204:	4770      	bx	lr

08001206 <_isatty>:

int _isatty(int file)
{
 8001206:	b480      	push	{r7}
 8001208:	b083      	sub	sp, #12
 800120a:	af00      	add	r7, sp, #0
 800120c:	6078      	str	r0, [r7, #4]
	return 1;
 800120e:	2301      	movs	r3, #1
}
 8001210:	4618      	mov	r0, r3
 8001212:	370c      	adds	r7, #12
 8001214:	46bd      	mov	sp, r7
 8001216:	f85d 7b04 	ldr.w	r7, [sp], #4
 800121a:	4770      	bx	lr

0800121c <_lseek>:

int _lseek(int file, int ptr, int dir)
{
 800121c:	b480      	push	{r7}
 800121e:	b085      	sub	sp, #20
 8001220:	af00      	add	r7, sp, #0
 8001222:	60f8      	str	r0, [r7, #12]
 8001224:	60b9      	str	r1, [r7, #8]
 8001226:	607a      	str	r2, [r7, #4]
	return 0;
 8001228:	2300      	movs	r3, #0
}
 800122a:	4618      	mov	r0, r3
 800122c:	3714      	adds	r7, #20
 800122e:	46bd      	mov	sp, r7
 8001230:	f85d 7b04 	ldr.w	r7, [sp], #4
 8001234:	4770      	bx	lr
	...

08001238 <Reset_Handler>:

  .section .text.Reset_Handler
  .weak Reset_Handler
  .type Reset_Handler, %function
Reset_Handler:
  ldr   r0, =_estack
 8001238:	480d      	ldr	r0, [pc, #52]	; (8001270 <LoopForever+0x2>)
  mov   sp, r0          /* set stack pointer */
 800123a:	4685      	mov	sp, r0
/* Call the clock system initialization function.*/
  bl  SystemInit
 800123c:	f3af 8000 	nop.w

/* Copy the data segment initializers from flash to SRAM */
  ldr r0, =_sdata
 8001240:	480c      	ldr	r0, [pc, #48]	; (8001274 <LoopForever+0x6>)
  ldr r1, =_edata
 8001242:	490d      	ldr	r1, [pc, #52]	; (8001278 <LoopForever+0xa>)
  ldr r2, =_sidata
 8001244:	4a0d      	ldr	r2, [pc, #52]	; (800127c <LoopForever+0xe>)
  movs r3, #0
 8001246:	2300      	movs	r3, #0
  b LoopCopyDataInit
 8001248:	e002      	b.n	8001250 <LoopCopyDataInit>

0800124a <CopyDataInit>:

CopyDataInit:
  ldr r4, [r2, r3]
 800124a:	58d4      	ldr	r4, [r2, r3]
  str r4, [r0, r3]
 800124c:	50c4      	str	r4, [r0, r3]
  adds r3, r3, #4
 800124e:	3304      	adds	r3, #4

08001250 <LoopCopyDataInit>:

LoopCopyDataInit:
  adds r4, r0, r3
 8001250:	18c4      	adds	r4, r0, r3
  cmp r4, r1
 8001252:	428c      	cmp	r4, r1
  bcc CopyDataInit
 8001254:	d3f9      	bcc.n	800124a <CopyDataInit>

/* Zero fill the bss segment. */
  ldr r2, =_sbss
 8001256:	4a0a      	ldr	r2, [pc, #40]	; (8001280 <LoopForever+0x12>)
  ldr r4, =_ebss
 8001258:	4c0a      	ldr	r4, [pc, #40]	; (8001284 <LoopForever+0x16>)
  movs r3, #0
 800125a:	2300      	movs	r3, #0
  b LoopFillZerobss
 800125c:	e001      	b.n	8001262 <LoopFillZerobss>

0800125e <FillZerobss>:

FillZerobss:
  str  r3, [r2]
 800125e:	6013      	str	r3, [r2, #0]
  adds r2, r2, #4
 8001260:	3204      	adds	r2, #4

08001262 <LoopFillZerobss>:

LoopFillZerobss:
  cmp r2, r4
 8001262:	42a2      	cmp	r2, r4
  bcc FillZerobss
 8001264:	d3fb      	bcc.n	800125e <FillZerobss>

/* Call static constructors */
  bl __libc_init_array
 8001266:	f003 f991 	bl	800458c <__libc_init_array>
/* Call the application's entry point.*/
  bl main
 800126a:	f7ff fd05 	bl	8000c78 <main>

0800126e <LoopForever>:

LoopForever:
    b LoopForever
 800126e:	e7fe      	b.n	800126e <LoopForever>
  ldr   r0, =_estack
 8001270:	20020000 	.word	0x20020000
  ldr r0, =_sdata
 8001274:	20000000 	.word	0x20000000
  ldr r1, =_edata
 8001278:	200001d8 	.word	0x200001d8
  ldr r2, =_sidata
 800127c:	08009248 	.word	0x08009248
  ldr r2, =_sbss
 8001280:	200001d8 	.word	0x200001d8
  ldr r4, =_ebss
 8001284:	20011aa0 	.word	0x20011aa0

08001288 <ADC_IRQHandler>:
 * @retval : None
*/
  .section .text.Default_Handler,"ax",%progbits
Default_Handler:
Infinite_Loop:
  b Infinite_Loop
 8001288:	e7fe      	b.n	8001288 <ADC_IRQHandler>
	...

0800128c <findShorterWay>:
int shorterWay[100][2]     = {0};



int findShorterWay(char terminalGrid[52][52],char Gridcopy[52][52], float matrixCosts[52][52][6] ,
		AStar_distancesHandler *parameters, costChangesAndPos_t *ptrChanges, int shorterWay[100][2]){
 800128c:	b590      	push	{r4, r7, lr}
 800128e:	f5ad 5dfb 	sub.w	sp, sp, #8032	; 0x1f60
 8001292:	b085      	sub	sp, #20
 8001294:	af00      	add	r7, sp, #0
 8001296:	f507 6477 	add.w	r4, r7, #3952	; 0xf70
 800129a:	f6a4 7464 	subw	r4, r4, #3940	; 0xf64
 800129e:	6020      	str	r0, [r4, #0]
 80012a0:	f507 6077 	add.w	r0, r7, #3952	; 0xf70
 80012a4:	f6a0 7068 	subw	r0, r0, #3944	; 0xf68
 80012a8:	6001      	str	r1, [r0, #0]
 80012aa:	f507 6177 	add.w	r1, r7, #3952	; 0xf70
 80012ae:	f6a1 716c 	subw	r1, r1, #3948	; 0xf6c
 80012b2:	600a      	str	r2, [r1, #0]
 80012b4:	f507 6277 	add.w	r2, r7, #3952	; 0xf70
 80012b8:	f5a2 6277 	sub.w	r2, r2, #3952	; 0xf70
 80012bc:	6013      	str	r3, [r2, #0]

	writeMsg(&handlerAstarUsart, "\n______________Comencemos el viaje_____________\n");
 80012be:	49b5      	ldr	r1, [pc, #724]	; (8001594 <findShorterWay+0x308>)
 80012c0:	48b5      	ldr	r0, [pc, #724]	; (8001598 <findShorterWay+0x30c>)
 80012c2:	f003 f897 	bl	80043f4 <writeMsg>

	// seteamos las variables locales a usar
	char nineSlotsMatriz[3][3] = {0}; // matriz que tomara una parte de redeableGrid para analisis
 80012c6:	f507 53fa 	add.w	r3, r7, #8000	; 0x1f40
 80012ca:	f103 031c 	add.w	r3, r3, #28
 80012ce:	2200      	movs	r2, #0
 80012d0:	601a      	str	r2, [r3, #0]
 80012d2:	605a      	str	r2, [r3, #4]
 80012d4:	721a      	strb	r2, [r3, #8]
	uint8_t shorterWayFound = RESET;
 80012d6:	2300      	movs	r3, #0
 80012d8:	f507 52fb 	add.w	r2, r7, #8032	; 0x1f60
 80012dc:	f102 020f 	add.w	r2, r2, #15
 80012e0:	7013      	strb	r3, [r2, #0]
	uint8_t i = 0;
 80012e2:	2300      	movs	r3, #0
 80012e4:	f507 52fb 	add.w	r2, r7, #8032	; 0x1f60
 80012e8:	f102 020e 	add.w	r2, r2, #14
 80012ec:	7013      	strb	r3, [r2, #0]
	uint8_t j = 0;
 80012ee:	2300      	movs	r3, #0
 80012f0:	f507 52fb 	add.w	r2, r7, #8032	; 0x1f60
 80012f4:	f102 020d 	add.w	r2, r2, #13
 80012f8:	7013      	strb	r3, [r2, #0]
	int position[2];
	uint8_t numberOfPositions = 0;
 80012fa:	2300      	movs	r3, #0
 80012fc:	f507 52fb 	add.w	r2, r7, #8032	; 0x1f60
 8001300:	f102 020c 	add.w	r2, r2, #12
 8001304:	7013      	strb	r3, [r2, #0]
	uint8_t counter = 0;
 8001306:	2300      	movs	r3, #0
 8001308:	f507 52fb 	add.w	r2, r7, #8032	; 0x1f60
 800130c:	f102 020b 	add.w	r2, r2, #11
 8001310:	7013      	strb	r3, [r2, #0]
	uint8_t counterStudy = 0;
 8001312:	2300      	movs	r3, #0
 8001314:	f507 52fb 	add.w	r2, r7, #8032	; 0x1f60
 8001318:	f102 020a 	add.w	r2, r2, #10
 800131c:	7013      	strb	r3, [r2, #0]
	//matriz donde se almacenaran en orden ascendente los F cost de las posiciones en estado de Open, esta si tendra un valor maximo y dos columnas, donde
	// Se almacenara el F cost en la primera y el Hcost en la segunda,
	float decisionMatrix[500][4] = {0};
 800131e:	f507 6377 	add.w	r3, r7, #3952	; 0xf70
 8001322:	f6a3 735c 	subw	r3, r3, #3932	; 0xf5c
 8001326:	4618      	mov	r0, r3
 8001328:	f44f 53fa 	mov.w	r3, #8000	; 0x1f40
 800132c:	461a      	mov	r2, r3
 800132e:	2100      	movs	r1, #0
 8001330:	f003 f958 	bl	80045e4 <memset>



	// Primero seteamos dentro de los valores de los parametros cuales son los valores de las filas y las columnas
	parameters->numberOfRows    = getRows(terminalGrid);
 8001334:	f507 6377 	add.w	r3, r7, #3952	; 0xf70
 8001338:	f6a3 7364 	subw	r3, r3, #3940	; 0xf64
 800133c:	6818      	ldr	r0, [r3, #0]
 800133e:	f001 fd65 	bl	8002e0c <getRows>
 8001342:	4603      	mov	r3, r0
 8001344:	461a      	mov	r2, r3
 8001346:	f507 6377 	add.w	r3, r7, #3952	; 0xf70
 800134a:	f5a3 6377 	sub.w	r3, r3, #3952	; 0xf70
 800134e:	681b      	ldr	r3, [r3, #0]
 8001350:	721a      	strb	r2, [r3, #8]
	parameters->numberOfColumns = getColums(terminalGrid);
 8001352:	f507 6377 	add.w	r3, r7, #3952	; 0xf70
 8001356:	f6a3 7364 	subw	r3, r3, #3940	; 0xf64
 800135a:	6818      	ldr	r0, [r3, #0]
 800135c:	f001 fd7a 	bl	8002e54 <getColums>
 8001360:	4603      	mov	r3, r0
 8001362:	461a      	mov	r2, r3
 8001364:	f507 6377 	add.w	r3, r7, #3952	; 0xf70
 8001368:	f5a3 6377 	sub.w	r3, r3, #3952	; 0xf70
 800136c:	681b      	ldr	r3, [r3, #0]
 800136e:	725a      	strb	r2, [r3, #9]

	//Segundo construimos nuestra matriz dinamicamente repartida
	buildMatrixCopy(parameters, terminalGrid, Gridcopy);
 8001370:	f507 6377 	add.w	r3, r7, #3952	; 0xf70
 8001374:	f6a3 7268 	subw	r2, r3, #3944	; 0xf68
 8001378:	f507 6377 	add.w	r3, r7, #3952	; 0xf70
 800137c:	f6a3 7164 	subw	r1, r3, #3940	; 0xf64
 8001380:	f507 6377 	add.w	r3, r7, #3952	; 0xf70
 8001384:	f5a3 6377 	sub.w	r3, r3, #3952	; 0xf70
 8001388:	6812      	ldr	r2, [r2, #0]
 800138a:	6809      	ldr	r1, [r1, #0]
 800138c:	6818      	ldr	r0, [r3, #0]
 800138e:	f001 fcea 	bl	8002d66 <buildMatrixCopy>
	//Variables que dependen del analisis respectivo,y el H cost que es la heuristica el cual es un valor
	// fijo Se tendra entonces una matriz de arrays donde se almacenaran
	// los valores como siguen, [Gcost, Fcost, Hcost]

    //Cuarto, seteamos la matriz heuristica, la cual es la ultima matriz de el bloque de tres de la matriz de costos
    if (setHeuristic(parameters, ptrChanges, matrixCosts, Gridcopy)){
 8001392:	f507 6377 	add.w	r3, r7, #3952	; 0xf70
 8001396:	f6a3 7368 	subw	r3, r3, #3944	; 0xf68
 800139a:	f507 6277 	add.w	r2, r7, #3952	; 0xf70
 800139e:	f6a2 726c 	subw	r2, r2, #3948	; 0xf6c
 80013a2:	f507 6177 	add.w	r1, r7, #3952	; 0xf70
 80013a6:	f5a1 6077 	sub.w	r0, r1, #3952	; 0xf70
 80013aa:	681b      	ldr	r3, [r3, #0]
 80013ac:	6812      	ldr	r2, [r2, #0]
 80013ae:	f507 51fc 	add.w	r1, r7, #8064	; 0x1f80
 80013b2:	6809      	ldr	r1, [r1, #0]
 80013b4:	6800      	ldr	r0, [r0, #0]
 80013b6:	f001 fa4d 	bl	8002854 <setHeuristic>
 80013ba:	4603      	mov	r3, r0
 80013bc:	2b00      	cmp	r3, #0
 80013be:	d013      	beq.n	80013e8 <findShorterWay+0x15c>
    	// Si estamos aqui todo salio correctamente, el programa puede seguir su curso
    	__NOP();
 80013c0:	bf00      	nop
    	return 0;
    }

    // Seteada la heuristica AQUI COMIENZA EL ALGORITMO A TRABAJAR, seteamos el punto de inicio y lo guardamos dentro de la estructura
    // correspondiente
    if(findStart(Gridcopy, parameters, ptrChanges)){
 80013c2:	f507 6377 	add.w	r3, r7, #3952	; 0xf70
 80013c6:	f5a3 6177 	sub.w	r1, r3, #3952	; 0xf70
 80013ca:	f507 6377 	add.w	r3, r7, #3952	; 0xf70
 80013ce:	f6a3 7368 	subw	r3, r3, #3944	; 0xf68
 80013d2:	f507 52fc 	add.w	r2, r7, #8064	; 0x1f80
 80013d6:	6812      	ldr	r2, [r2, #0]
 80013d8:	6809      	ldr	r1, [r1, #0]
 80013da:	6818      	ldr	r0, [r3, #0]
 80013dc:	f001 fc57 	bl	8002c8e <findStart>
 80013e0:	4603      	mov	r3, r0
 80013e2:	2b00      	cmp	r3, #0
 80013e4:	d026      	beq.n	8001434 <findShorterWay+0x1a8>
 80013e6:	e002      	b.n	80013ee <findShorterWay+0x162>
    	return 0;
 80013e8:	2300      	movs	r3, #0
 80013ea:	f001 b970 	b.w	80026ce <findShorterWay+0x1442>
    	// Si estamos aqui es porque se encontro el punto de inicio con exito
    	__NOP();
 80013ee:	bf00      	nop
    // Comenzamos analizando los vecinos del punto de inicio, calculando para cada uno de ellos (incluyendo el punto de inicio) el Gcosto
    // y el Fcost, de todos ellos al final se selecciona aquel que tenga el F cost mas pequeo, del siguiente while no se sale hasta que se tenga el
    // Array de patents correspondiente a la ruta mas corta

    //guardamos en la posicion de analisis la posicion de start
    ptrChanges->posAnalisis[0] = ptrChanges->startPos[0];
 80013f0:	f507 53fc 	add.w	r3, r7, #8064	; 0x1f80
 80013f4:	681b      	ldr	r3, [r3, #0]
 80013f6:	6a5a      	ldr	r2, [r3, #36]	; 0x24
 80013f8:	f507 53fc 	add.w	r3, r7, #8064	; 0x1f80
 80013fc:	681b      	ldr	r3, [r3, #0]
 80013fe:	609a      	str	r2, [r3, #8]
    ptrChanges->posAnalisis[1] = ptrChanges->startPos[1];
 8001400:	f507 53fc 	add.w	r3, r7, #8064	; 0x1f80
 8001404:	681b      	ldr	r3, [r3, #0]
 8001406:	6a9a      	ldr	r2, [r3, #40]	; 0x28
 8001408:	f507 53fc 	add.w	r3, r7, #8064	; 0x1f80
 800140c:	681b      	ldr	r3, [r3, #0]
 800140e:	60da      	str	r2, [r3, #12]
    // Definimos tambien el estado de abierto
    ptrChanges->posOpen[0] =  ptrChanges->startPos[0];
 8001410:	f507 53fc 	add.w	r3, r7, #8064	; 0x1f80
 8001414:	681b      	ldr	r3, [r3, #0]
 8001416:	6a5a      	ldr	r2, [r3, #36]	; 0x24
 8001418:	f507 53fc 	add.w	r3, r7, #8064	; 0x1f80
 800141c:	681b      	ldr	r3, [r3, #0]
 800141e:	611a      	str	r2, [r3, #16]
    ptrChanges->posOpen[1] =  ptrChanges->startPos[1];
 8001420:	f507 53fc 	add.w	r3, r7, #8064	; 0x1f80
 8001424:	681b      	ldr	r3, [r3, #0]
 8001426:	6a9a      	ldr	r2, [r3, #40]	; 0x28
 8001428:	f507 53fc 	add.w	r3, r7, #8064	; 0x1f80
 800142c:	681b      	ldr	r3, [r3, #0]
 800142e:	615a      	str	r2, [r3, #20]


    while(!shorterWayFound){
 8001430:	f001 b802 	b.w	8002438 <findShorterWay+0x11ac>
    	return 0;
 8001434:	2300      	movs	r3, #0
 8001436:	f001 b94a 	b.w	80026ce <findShorterWay+0x1442>

    	// este while actuara como un while de recorrido lineal, donde se busca analizar las posiciones i,j de los aledaos recorriendo cada punto linealmente
    	// al punto de analisis

    	//Actualizamos el punto de analisis para seguir analizando a partir del punto de anlisis siguiente
    	ptrChanges->posAnalisis[0] = ptrChanges->posOpen[0];
 800143a:	f507 53fc 	add.w	r3, r7, #8064	; 0x1f80
 800143e:	681b      	ldr	r3, [r3, #0]
 8001440:	691a      	ldr	r2, [r3, #16]
 8001442:	f507 53fc 	add.w	r3, r7, #8064	; 0x1f80
 8001446:	681b      	ldr	r3, [r3, #0]
 8001448:	609a      	str	r2, [r3, #8]
    	ptrChanges->posAnalisis[1] = ptrChanges->posOpen[1];
 800144a:	f507 53fc 	add.w	r3, r7, #8064	; 0x1f80
 800144e:	681b      	ldr	r3, [r3, #0]
 8001450:	695a      	ldr	r2, [r3, #20]
 8001452:	f507 53fc 	add.w	r3, r7, #8064	; 0x1f80
 8001456:	681b      	ldr	r3, [r3, #0]
 8001458:	60da      	str	r2, [r3, #12]

    	// guardamos la matriz 3x3 de redeableGrid para analisis, para posiciones no correctas se colocan tales posiciones en 0 tipo char
    	// Y para posiciones ya analizadas se coloca una D de done.
    	for(i = 0; i < 3; i++){
 800145a:	2300      	movs	r3, #0
 800145c:	f507 52fb 	add.w	r2, r7, #8032	; 0x1f60
 8001460:	f102 020e 	add.w	r2, r2, #14
 8001464:	7013      	strb	r3, [r2, #0]
 8001466:	e0ee      	b.n	8001646 <findShorterWay+0x3ba>
    		for (j = 0; j < 3; j++){
 8001468:	2300      	movs	r3, #0
 800146a:	f507 52fb 	add.w	r2, r7, #8032	; 0x1f60
 800146e:	f102 020d 	add.w	r2, r2, #13
 8001472:	7013      	strb	r3, [r2, #0]
 8001474:	e0d4      	b.n	8001620 <findShorterWay+0x394>

    			if 	  ((ptrChanges->posAnalisis[0] + i - 1) < 0
 8001476:	f507 53fc 	add.w	r3, r7, #8064	; 0x1f80
 800147a:	681b      	ldr	r3, [r3, #0]
 800147c:	689a      	ldr	r2, [r3, #8]
 800147e:	f507 53fb 	add.w	r3, r7, #8032	; 0x1f60
 8001482:	f103 030e 	add.w	r3, r3, #14
 8001486:	781b      	ldrb	r3, [r3, #0]
 8001488:	4413      	add	r3, r2
 800148a:	2b00      	cmp	r3, #0
 800148c:	dd0b      	ble.n	80014a6 <findShorterWay+0x21a>
    			    || (ptrChanges->posAnalisis[1] + j - 1) < 0) {
 800148e:	f507 53fc 	add.w	r3, r7, #8064	; 0x1f80
 8001492:	681b      	ldr	r3, [r3, #0]
 8001494:	68da      	ldr	r2, [r3, #12]
 8001496:	f507 53fb 	add.w	r3, r7, #8032	; 0x1f60
 800149a:	f103 030d 	add.w	r3, r3, #13
 800149e:	781b      	ldrb	r3, [r3, #0]
 80014a0:	4413      	add	r3, r2
 80014a2:	2b00      	cmp	r3, #0
 80014a4:	dc16      	bgt.n	80014d4 <findShorterWay+0x248>
    				// El primer caso seria cuando el puntero que estudia la matriz esta por fuera del rango , especificamente por detras del rango
    				// donde el indice seria negativo
    				nineSlotsMatriz[i][j] = '0';
 80014a6:	f507 53fb 	add.w	r3, r7, #8032	; 0x1f60
 80014aa:	f103 030e 	add.w	r3, r3, #14
 80014ae:	781a      	ldrb	r2, [r3, #0]
 80014b0:	f507 53fb 	add.w	r3, r7, #8032	; 0x1f60
 80014b4:	f103 030d 	add.w	r3, r3, #13
 80014b8:	7819      	ldrb	r1, [r3, #0]
 80014ba:	4613      	mov	r3, r2
 80014bc:	005b      	lsls	r3, r3, #1
 80014be:	4413      	add	r3, r2
 80014c0:	f503 53fb 	add.w	r3, r3, #8032	; 0x1f60
 80014c4:	f103 0310 	add.w	r3, r3, #16
 80014c8:	443b      	add	r3, r7
 80014ca:	440b      	add	r3, r1
 80014cc:	3b14      	subs	r3, #20
 80014ce:	2230      	movs	r2, #48	; 0x30
 80014d0:	701a      	strb	r2, [r3, #0]
 80014d2:	e09a      	b.n	800160a <findShorterWay+0x37e>

    			}else if ((ptrChanges->posAnalisis[0] + i - 1) > parameters->numberOfRows - 1
 80014d4:	f507 53fc 	add.w	r3, r7, #8064	; 0x1f80
 80014d8:	681b      	ldr	r3, [r3, #0]
 80014da:	689a      	ldr	r2, [r3, #8]
 80014dc:	f507 53fb 	add.w	r3, r7, #8032	; 0x1f60
 80014e0:	f103 030e 	add.w	r3, r3, #14
 80014e4:	781b      	ldrb	r3, [r3, #0]
 80014e6:	4413      	add	r3, r2
 80014e8:	f507 6277 	add.w	r2, r7, #3952	; 0xf70
 80014ec:	f5a2 6277 	sub.w	r2, r2, #3952	; 0xf70
 80014f0:	6812      	ldr	r2, [r2, #0]
 80014f2:	7a12      	ldrb	r2, [r2, #8]
 80014f4:	4293      	cmp	r3, r2
 80014f6:	dc11      	bgt.n	800151c <findShorterWay+0x290>
    				||    (ptrChanges->posAnalisis[1] + j - 1) > parameters->numberOfColumns - 1){
 80014f8:	f507 53fc 	add.w	r3, r7, #8064	; 0x1f80
 80014fc:	681b      	ldr	r3, [r3, #0]
 80014fe:	68da      	ldr	r2, [r3, #12]
 8001500:	f507 53fb 	add.w	r3, r7, #8032	; 0x1f60
 8001504:	f103 030d 	add.w	r3, r3, #13
 8001508:	781b      	ldrb	r3, [r3, #0]
 800150a:	4413      	add	r3, r2
 800150c:	f507 6277 	add.w	r2, r7, #3952	; 0xf70
 8001510:	f5a2 6277 	sub.w	r2, r2, #3952	; 0xf70
 8001514:	6812      	ldr	r2, [r2, #0]
 8001516:	7a52      	ldrb	r2, [r2, #9]
 8001518:	4293      	cmp	r3, r2
 800151a:	dd16      	ble.n	800154a <findShorterWay+0x2be>
    				// El segundo caso seria cuando el puntero que estudia la matriz esta por fuera del rango, especificamente por delante
    				// del rango donde el indice seria mayor al limite superior del numero de filas o columnas restado uno.
    				nineSlotsMatriz[i][j] = '0';
 800151c:	f507 53fb 	add.w	r3, r7, #8032	; 0x1f60
 8001520:	f103 030e 	add.w	r3, r3, #14
 8001524:	781a      	ldrb	r2, [r3, #0]
 8001526:	f507 53fb 	add.w	r3, r7, #8032	; 0x1f60
 800152a:	f103 030d 	add.w	r3, r3, #13
 800152e:	7819      	ldrb	r1, [r3, #0]
 8001530:	4613      	mov	r3, r2
 8001532:	005b      	lsls	r3, r3, #1
 8001534:	4413      	add	r3, r2
 8001536:	f503 53fb 	add.w	r3, r3, #8032	; 0x1f60
 800153a:	f103 0310 	add.w	r3, r3, #16
 800153e:	443b      	add	r3, r7
 8001540:	440b      	add	r3, r1
 8001542:	3b14      	subs	r3, #20
 8001544:	2230      	movs	r2, #48	; 0x30
 8001546:	701a      	strb	r2, [r3, #0]
 8001548:	e05f      	b.n	800160a <findShorterWay+0x37e>
    			}else if(i == 1 && j == 1){
 800154a:	f507 53fb 	add.w	r3, r7, #8032	; 0x1f60
 800154e:	f103 030e 	add.w	r3, r3, #14
 8001552:	781b      	ldrb	r3, [r3, #0]
 8001554:	2b01      	cmp	r3, #1
 8001556:	d121      	bne.n	800159c <findShorterWay+0x310>
 8001558:	f507 53fb 	add.w	r3, r7, #8032	; 0x1f60
 800155c:	f103 030d 	add.w	r3, r3, #13
 8001560:	781b      	ldrb	r3, [r3, #0]
 8001562:	2b01      	cmp	r3, #1
 8001564:	d11a      	bne.n	800159c <findShorterWay+0x310>
    				// Este caso corresponde con el punto de analisis , este caso no lo queremos estudiar ya que ya estaria estudiado como tal,
    				// queremos es solo estudiar sus aledanios, por lo que en esta posicin colocaremos una 'P' como de Point
    				nineSlotsMatriz[i][j] = 'P';
 8001566:	f507 53fb 	add.w	r3, r7, #8032	; 0x1f60
 800156a:	f103 030e 	add.w	r3, r3, #14
 800156e:	781a      	ldrb	r2, [r3, #0]
 8001570:	f507 53fb 	add.w	r3, r7, #8032	; 0x1f60
 8001574:	f103 030d 	add.w	r3, r3, #13
 8001578:	7819      	ldrb	r1, [r3, #0]
 800157a:	4613      	mov	r3, r2
 800157c:	005b      	lsls	r3, r3, #1
 800157e:	4413      	add	r3, r2
 8001580:	f503 53fb 	add.w	r3, r3, #8032	; 0x1f60
 8001584:	f103 0310 	add.w	r3, r3, #16
 8001588:	443b      	add	r3, r7
 800158a:	440b      	add	r3, r1
 800158c:	3b14      	subs	r3, #20
 800158e:	2250      	movs	r2, #80	; 0x50
 8001590:	701a      	strb	r2, [r3, #0]
 8001592:	e03a      	b.n	800160a <findShorterWay+0x37e>
 8001594:	08008d14 	.word	0x08008d14
 8001598:	20000e58 	.word	0x20000e58
    			}else{
    				// Este ultimo caso donde no se cumple lo anterior  simplemente copiamos exactamente lo mismo que aparece en la matriz de caracteres
    				nineSlotsMatriz[i][j] = Gridcopy[ptrChanges->posAnalisis[0] + i - 1][ptrChanges->posAnalisis[1] + j - 1];
 800159c:	f507 53fc 	add.w	r3, r7, #8064	; 0x1f80
 80015a0:	681b      	ldr	r3, [r3, #0]
 80015a2:	689a      	ldr	r2, [r3, #8]
 80015a4:	f507 53fb 	add.w	r3, r7, #8032	; 0x1f60
 80015a8:	f103 030e 	add.w	r3, r3, #14
 80015ac:	781b      	ldrb	r3, [r3, #0]
 80015ae:	4413      	add	r3, r2
 80015b0:	461a      	mov	r2, r3
 80015b2:	2334      	movs	r3, #52	; 0x34
 80015b4:	fb02 f303 	mul.w	r3, r2, r3
 80015b8:	3b34      	subs	r3, #52	; 0x34
 80015ba:	f507 6277 	add.w	r2, r7, #3952	; 0xf70
 80015be:	f6a2 7268 	subw	r2, r2, #3944	; 0xf68
 80015c2:	6812      	ldr	r2, [r2, #0]
 80015c4:	18d0      	adds	r0, r2, r3
 80015c6:	f507 53fc 	add.w	r3, r7, #8064	; 0x1f80
 80015ca:	681b      	ldr	r3, [r3, #0]
 80015cc:	68da      	ldr	r2, [r3, #12]
 80015ce:	f507 53fb 	add.w	r3, r7, #8032	; 0x1f60
 80015d2:	f103 030d 	add.w	r3, r3, #13
 80015d6:	781b      	ldrb	r3, [r3, #0]
 80015d8:	4413      	add	r3, r2
 80015da:	3b01      	subs	r3, #1
 80015dc:	f507 52fb 	add.w	r2, r7, #8032	; 0x1f60
 80015e0:	f102 020e 	add.w	r2, r2, #14
 80015e4:	7812      	ldrb	r2, [r2, #0]
 80015e6:	f507 51fb 	add.w	r1, r7, #8032	; 0x1f60
 80015ea:	f101 010d 	add.w	r1, r1, #13
 80015ee:	7809      	ldrb	r1, [r1, #0]
 80015f0:	5cc0      	ldrb	r0, [r0, r3]
 80015f2:	4613      	mov	r3, r2
 80015f4:	005b      	lsls	r3, r3, #1
 80015f6:	4413      	add	r3, r2
 80015f8:	f503 53fb 	add.w	r3, r3, #8032	; 0x1f60
 80015fc:	f103 0310 	add.w	r3, r3, #16
 8001600:	443b      	add	r3, r7
 8001602:	440b      	add	r3, r1
 8001604:	3b14      	subs	r3, #20
 8001606:	4602      	mov	r2, r0
 8001608:	701a      	strb	r2, [r3, #0]
    		for (j = 0; j < 3; j++){
 800160a:	f507 53fb 	add.w	r3, r7, #8032	; 0x1f60
 800160e:	f103 030d 	add.w	r3, r3, #13
 8001612:	781b      	ldrb	r3, [r3, #0]
 8001614:	3301      	adds	r3, #1
 8001616:	f507 52fb 	add.w	r2, r7, #8032	; 0x1f60
 800161a:	f102 020d 	add.w	r2, r2, #13
 800161e:	7013      	strb	r3, [r2, #0]
 8001620:	f507 53fb 	add.w	r3, r7, #8032	; 0x1f60
 8001624:	f103 030d 	add.w	r3, r3, #13
 8001628:	781b      	ldrb	r3, [r3, #0]
 800162a:	2b02      	cmp	r3, #2
 800162c:	f67f af23 	bls.w	8001476 <findShorterWay+0x1ea>
    	for(i = 0; i < 3; i++){
 8001630:	f507 53fb 	add.w	r3, r7, #8032	; 0x1f60
 8001634:	f103 030e 	add.w	r3, r3, #14
 8001638:	781b      	ldrb	r3, [r3, #0]
 800163a:	3301      	adds	r3, #1
 800163c:	f507 52fb 	add.w	r2, r7, #8032	; 0x1f60
 8001640:	f102 020e 	add.w	r2, r2, #14
 8001644:	7013      	strb	r3, [r2, #0]
 8001646:	f507 53fb 	add.w	r3, r7, #8032	; 0x1f60
 800164a:	f103 030e 	add.w	r3, r3, #14
 800164e:	781b      	ldrb	r3, [r3, #0]
 8001650:	2b02      	cmp	r3, #2
 8001652:	f67f af09 	bls.w	8001468 <findShorterWay+0x1dc>
    	// Esta matriz, Se estudiaran los siguientes casos:

    	// Imprimimos la matriz a estudiar

    	// Imprimimos el mensaje de el estudio en el que estamos
    	sprintf (buffer,"\n__________ESTUDIO NUMERO %u__________\n", counterStudy);
 8001656:	f507 53fb 	add.w	r3, r7, #8032	; 0x1f60
 800165a:	f103 030a 	add.w	r3, r3, #10
 800165e:	781b      	ldrb	r3, [r3, #0]
 8001660:	461a      	mov	r2, r3
 8001662:	49c9      	ldr	r1, [pc, #804]	; (8001988 <findShorterWay+0x6fc>)
 8001664:	48c9      	ldr	r0, [pc, #804]	; (800198c <findShorterWay+0x700>)
 8001666:	f003 fd1f 	bl	80050a8 <siprintf>
    	writeMsg(&handlerAstarUsart, buffer);
 800166a:	49c8      	ldr	r1, [pc, #800]	; (800198c <findShorterWay+0x700>)
 800166c:	48c8      	ldr	r0, [pc, #800]	; (8001990 <findShorterWay+0x704>)
 800166e:	f002 fec1 	bl	80043f4 <writeMsg>

    	// Imprimimos la matriz 3x3 a estudiar
    	for(i = 0; i < 3; i++){
 8001672:	2300      	movs	r3, #0
 8001674:	f507 52fb 	add.w	r2, r7, #8032	; 0x1f60
 8001678:	f102 020e 	add.w	r2, r2, #14
 800167c:	7013      	strb	r3, [r2, #0]
 800167e:	e040      	b.n	8001702 <findShorterWay+0x476>
			for (j = 0; j < 3; j++){
 8001680:	2300      	movs	r3, #0
 8001682:	f507 52fb 	add.w	r2, r7, #8032	; 0x1f60
 8001686:	f102 020d 	add.w	r2, r2, #13
 800168a:	7013      	strb	r3, [r2, #0]
 800168c:	e023      	b.n	80016d6 <findShorterWay+0x44a>
				writeChar(&handlerAstarUsart, nineSlotsMatriz[i][j]);
 800168e:	f507 53fb 	add.w	r3, r7, #8032	; 0x1f60
 8001692:	f103 030e 	add.w	r3, r3, #14
 8001696:	781a      	ldrb	r2, [r3, #0]
 8001698:	f507 53fb 	add.w	r3, r7, #8032	; 0x1f60
 800169c:	f103 030d 	add.w	r3, r3, #13
 80016a0:	7819      	ldrb	r1, [r3, #0]
 80016a2:	4613      	mov	r3, r2
 80016a4:	005b      	lsls	r3, r3, #1
 80016a6:	4413      	add	r3, r2
 80016a8:	f503 53fb 	add.w	r3, r3, #8032	; 0x1f60
 80016ac:	f103 0310 	add.w	r3, r3, #16
 80016b0:	443b      	add	r3, r7
 80016b2:	440b      	add	r3, r1
 80016b4:	3b14      	subs	r3, #20
 80016b6:	781b      	ldrb	r3, [r3, #0]
 80016b8:	4619      	mov	r1, r3
 80016ba:	48b5      	ldr	r0, [pc, #724]	; (8001990 <findShorterWay+0x704>)
 80016bc:	f002 fe82 	bl	80043c4 <writeChar>
			for (j = 0; j < 3; j++){
 80016c0:	f507 53fb 	add.w	r3, r7, #8032	; 0x1f60
 80016c4:	f103 030d 	add.w	r3, r3, #13
 80016c8:	781b      	ldrb	r3, [r3, #0]
 80016ca:	3301      	adds	r3, #1
 80016cc:	f507 52fb 	add.w	r2, r7, #8032	; 0x1f60
 80016d0:	f102 020d 	add.w	r2, r2, #13
 80016d4:	7013      	strb	r3, [r2, #0]
 80016d6:	f507 53fb 	add.w	r3, r7, #8032	; 0x1f60
 80016da:	f103 030d 	add.w	r3, r3, #13
 80016de:	781b      	ldrb	r3, [r3, #0]
 80016e0:	2b02      	cmp	r3, #2
 80016e2:	d9d4      	bls.n	800168e <findShorterWay+0x402>
			}
			writeChar(&handlerAstarUsart, '\r');
 80016e4:	210d      	movs	r1, #13
 80016e6:	48aa      	ldr	r0, [pc, #680]	; (8001990 <findShorterWay+0x704>)
 80016e8:	f002 fe6c 	bl	80043c4 <writeChar>
    	for(i = 0; i < 3; i++){
 80016ec:	f507 53fb 	add.w	r3, r7, #8032	; 0x1f60
 80016f0:	f103 030e 	add.w	r3, r3, #14
 80016f4:	781b      	ldrb	r3, [r3, #0]
 80016f6:	3301      	adds	r3, #1
 80016f8:	f507 52fb 	add.w	r2, r7, #8032	; 0x1f60
 80016fc:	f102 020e 	add.w	r2, r2, #14
 8001700:	7013      	strb	r3, [r2, #0]
 8001702:	f507 53fb 	add.w	r3, r7, #8032	; 0x1f60
 8001706:	f103 030e 	add.w	r3, r3, #14
 800170a:	781b      	ldrb	r3, [r3, #0]
 800170c:	2b02      	cmp	r3, #2
 800170e:	d9b7      	bls.n	8001680 <findShorterWay+0x3f4>
    	}

    	writeChar(&handlerAstarUsart, '\r');
 8001710:	210d      	movs	r1, #13
 8001712:	489f      	ldr	r0, [pc, #636]	; (8001990 <findShorterWay+0x704>)
 8001714:	f002 fe56 	bl	80043c4 <writeChar>

    	// Imprimimos el estado actual de la matriz copia
    	for (uint8_t i = 0; i< parameters->numberOfRows; i++){
 8001718:	2300      	movs	r3, #0
 800171a:	f507 52fb 	add.w	r2, r7, #8032	; 0x1f60
 800171e:	f102 0209 	add.w	r2, r2, #9
 8001722:	7013      	strb	r3, [r2, #0]
 8001724:	e01c      	b.n	8001760 <findShorterWay+0x4d4>
    			writeMsg(&handlerAstarUsart, Gridcopy[i]);
 8001726:	f507 53fb 	add.w	r3, r7, #8032	; 0x1f60
 800172a:	f103 0309 	add.w	r3, r3, #9
 800172e:	781b      	ldrb	r3, [r3, #0]
 8001730:	2234      	movs	r2, #52	; 0x34
 8001732:	fb02 f303 	mul.w	r3, r2, r3
 8001736:	f507 6277 	add.w	r2, r7, #3952	; 0xf70
 800173a:	f6a2 7268 	subw	r2, r2, #3944	; 0xf68
 800173e:	6812      	ldr	r2, [r2, #0]
 8001740:	4413      	add	r3, r2
 8001742:	4619      	mov	r1, r3
 8001744:	4892      	ldr	r0, [pc, #584]	; (8001990 <findShorterWay+0x704>)
 8001746:	f002 fe55 	bl	80043f4 <writeMsg>
    	for (uint8_t i = 0; i< parameters->numberOfRows; i++){
 800174a:	f507 53fb 	add.w	r3, r7, #8032	; 0x1f60
 800174e:	f103 0309 	add.w	r3, r3, #9
 8001752:	781b      	ldrb	r3, [r3, #0]
 8001754:	3301      	adds	r3, #1
 8001756:	f507 52fb 	add.w	r2, r7, #8032	; 0x1f60
 800175a:	f102 0209 	add.w	r2, r2, #9
 800175e:	7013      	strb	r3, [r2, #0]
 8001760:	f507 6377 	add.w	r3, r7, #3952	; 0xf70
 8001764:	f5a3 6377 	sub.w	r3, r3, #3952	; 0xf70
 8001768:	681b      	ldr	r3, [r3, #0]
 800176a:	7a1b      	ldrb	r3, [r3, #8]
 800176c:	f507 52fb 	add.w	r2, r7, #8032	; 0x1f60
 8001770:	f102 0209 	add.w	r2, r2, #9
 8001774:	7812      	ldrb	r2, [r2, #0]
 8001776:	429a      	cmp	r2, r3
 8001778:	d3d5      	bcc.n	8001726 <findShorterWay+0x49a>
		}
    	// Escribimos enter para tener todo bien espaciado
    	writeChar(&handlerAstarUsart, '\r');
 800177a:	210d      	movs	r1, #13
 800177c:	4884      	ldr	r0, [pc, #528]	; (8001990 <findShorterWay+0x704>)
 800177e:	f002 fe21 	bl	80043c4 <writeChar>


    	for(i = 0; i < 3; i++){
 8001782:	2300      	movs	r3, #0
 8001784:	f507 52fb 	add.w	r2, r7, #8032	; 0x1f60
 8001788:	f102 020e 	add.w	r2, r2, #14
 800178c:	7013      	strb	r3, [r2, #0]
 800178e:	e33c      	b.n	8001e0a <findShorterWay+0xb7e>
			for (j = 0; j < 3; j++){
 8001790:	2300      	movs	r3, #0
 8001792:	f507 52fb 	add.w	r2, r7, #8032	; 0x1f60
 8001796:	f102 020d 	add.w	r2, r2, #13
 800179a:	7013      	strb	r3, [r2, #0]
 800179c:	e319      	b.n	8001dd2 <findShorterWay+0xb46>
				switch (nineSlotsMatriz[i][j]) {
 800179e:	f507 53fb 	add.w	r3, r7, #8032	; 0x1f60
 80017a2:	f103 030e 	add.w	r3, r3, #14
 80017a6:	781a      	ldrb	r2, [r3, #0]
 80017a8:	f507 53fb 	add.w	r3, r7, #8032	; 0x1f60
 80017ac:	f103 030d 	add.w	r3, r3, #13
 80017b0:	7819      	ldrb	r1, [r3, #0]
 80017b2:	4613      	mov	r3, r2
 80017b4:	005b      	lsls	r3, r3, #1
 80017b6:	4413      	add	r3, r2
 80017b8:	f503 53fb 	add.w	r3, r3, #8032	; 0x1f60
 80017bc:	f103 0310 	add.w	r3, r3, #16
 80017c0:	443b      	add	r3, r7
 80017c2:	440b      	add	r3, r1
 80017c4:	3b14      	subs	r3, #20
 80017c6:	781b      	ldrb	r3, [r3, #0]
 80017c8:	2b73      	cmp	r3, #115	; 0x73
 80017ca:	d075      	beq.n	80018b8 <findShorterWay+0x62c>
 80017cc:	2b73      	cmp	r3, #115	; 0x73
 80017ce:	f300 82eb 	bgt.w	8001da8 <findShorterWay+0xb1c>
 80017d2:	2b50      	cmp	r3, #80	; 0x50
 80017d4:	dc66      	bgt.n	80018a4 <findShorterWay+0x618>
 80017d6:	2b23      	cmp	r3, #35	; 0x23
 80017d8:	f2c0 82e6 	blt.w	8001da8 <findShorterWay+0xb1c>
 80017dc:	3b23      	subs	r3, #35	; 0x23
 80017de:	2b2d      	cmp	r3, #45	; 0x2d
 80017e0:	f200 82e2 	bhi.w	8001da8 <findShorterWay+0xb1c>
 80017e4:	a201      	add	r2, pc, #4	; (adr r2, 80017ec <findShorterWay+0x560>)
 80017e6:	f852 f023 	ldr.w	pc, [r2, r3, lsl #2]
 80017ea:	bf00      	nop
 80017ec:	080018ad 	.word	0x080018ad
 80017f0:	08001da9 	.word	0x08001da9
 80017f4:	08001da9 	.word	0x08001da9
 80017f8:	08001da9 	.word	0x08001da9
 80017fc:	08001da9 	.word	0x08001da9
 8001800:	08001da9 	.word	0x08001da9
 8001804:	08001da9 	.word	0x08001da9
 8001808:	08001abb 	.word	0x08001abb
 800180c:	08001da9 	.word	0x08001da9
 8001810:	08001da9 	.word	0x08001da9
 8001814:	08001da9 	.word	0x08001da9
 8001818:	08001da9 	.word	0x08001da9
 800181c:	08001da9 	.word	0x08001da9
 8001820:	080018b5 	.word	0x080018b5
 8001824:	08001da9 	.word	0x08001da9
 8001828:	08001da9 	.word	0x08001da9
 800182c:	08001da9 	.word	0x08001da9
 8001830:	08001da9 	.word	0x08001da9
 8001834:	08001da9 	.word	0x08001da9
 8001838:	08001da9 	.word	0x08001da9
 800183c:	08001da9 	.word	0x08001da9
 8001840:	08001da9 	.word	0x08001da9
 8001844:	08001da9 	.word	0x08001da9
 8001848:	08001da9 	.word	0x08001da9
 800184c:	08001da9 	.word	0x08001da9
 8001850:	08001da9 	.word	0x08001da9
 8001854:	08001da9 	.word	0x08001da9
 8001858:	08001da9 	.word	0x08001da9
 800185c:	08001da9 	.word	0x08001da9
 8001860:	08001da9 	.word	0x08001da9
 8001864:	08001da9 	.word	0x08001da9
 8001868:	08001da9 	.word	0x08001da9
 800186c:	08001da9 	.word	0x08001da9
 8001870:	080018b1 	.word	0x080018b1
 8001874:	08001da9 	.word	0x08001da9
 8001878:	08001da9 	.word	0x08001da9
 800187c:	08001da9 	.word	0x08001da9
 8001880:	08001da9 	.word	0x08001da9
 8001884:	08001da9 	.word	0x08001da9
 8001888:	08001da9 	.word	0x08001da9
 800188c:	08001da9 	.word	0x08001da9
 8001890:	08001da9 	.word	0x08001da9
 8001894:	08001da9 	.word	0x08001da9
 8001898:	08001da9 	.word	0x08001da9
 800189c:	080018c1 	.word	0x080018c1
 80018a0:	080018bd 	.word	0x080018bd
 80018a4:	2b65      	cmp	r3, #101	; 0x65
 80018a6:	f000 8256 	beq.w	8001d56 <findShorterWay+0xaca>
 80018aa:	e27d      	b.n	8001da8 <findShorterWay+0xb1c>
					case '#':{
						// El primer caso seria cuando el puntero Que estudia a la matriz 3x3 corresponde con un obstaculo, tal pisicion simpkemente se
						//ignora
						// No se hace nada ya que una posicion se obstaculo no se analiza
						__NOP();
 80018ac:	bf00      	nop
						break;
 80018ae:	e27e      	b.n	8001dae <findShorterWay+0xb22>
					}case 'D':{
						// El segundo caso seria cuando el puntero que estudia la matriz corresponde con un punto ya cerrado o ya pasado a la lista de
						// posiciones ya analizadas, por lo que tampoco se hace nada con este caso,
						__NOP();
 80018b0:	bf00      	nop
						break;
 80018b2:	e27c      	b.n	8001dae <findShorterWay+0xb22>
					}case '0':{
						// El tercer caso seria cuando el puntero que estudia la matriz corresponde con un punto 0 de tipo char que indica que
						// es una posicion por fuera del rango, por lo que tampoco se hace nada con este caso,
						__NOP();
 80018b4:	bf00      	nop
						break;
 80018b6:	e27a      	b.n	8001dae <findShorterWay+0xb22>
					}case 's':{
						// El cuarto caso seria cuando el puntero seala la posicion de start por lo que tampoco se hace nada con este caso,
						__NOP();
 80018b8:	bf00      	nop
						break;
 80018ba:	e278      	b.n	8001dae <findShorterWay+0xb22>
					}case 'P':{
						// El quinto caso seria cuando el puntero seala la posicion de analisis, dentro del analisis no queremos
						// que este se analice a si mismo, por lo que ignoramos este punto, solo nos intrresan sus aledanios
						__NOP();
 80018bc:	bf00      	nop
						break;
 80018be:	e276      	b.n	8001dae <findShorterWay+0xb22>
					}case 'O':{
						// El Sexto caso nos encontramos con un estado Open , por lo que tenemos que recalcular para el punto de
						// analisis el Gcost y el Fcost
						position[0] = i;
 80018c0:	f507 53fb 	add.w	r3, r7, #8032	; 0x1f60
 80018c4:	f103 030e 	add.w	r3, r3, #14
 80018c8:	781b      	ldrb	r3, [r3, #0]
 80018ca:	f507 52fa 	add.w	r2, r7, #8000	; 0x1f40
 80018ce:	f102 0214 	add.w	r2, r2, #20
 80018d2:	6013      	str	r3, [r2, #0]
						position[1] = j;
 80018d4:	f507 53fb 	add.w	r3, r7, #8032	; 0x1f60
 80018d8:	f103 030d 	add.w	r3, r3, #13
 80018dc:	781b      	ldrb	r3, [r3, #0]
 80018de:	f507 52fa 	add.w	r2, r7, #8000	; 0x1f40
 80018e2:	f102 0218 	add.w	r2, r2, #24
 80018e6:	6013      	str	r3, [r2, #0]
						// Como la posicion estudiada esta en estado de open , se debe volver a calcular el G cost y el fcost correspondiente
						// a la posicion opened con respecto al punto de analisis
						ptrChanges->Fcost = setFcost(parameters, ptrChanges, position, matrixCosts);
 80018e8:	f507 6377 	add.w	r3, r7, #3952	; 0xf70
 80018ec:	f6a3 736c 	subw	r3, r3, #3948	; 0xf6c
 80018f0:	f507 52fa 	add.w	r2, r7, #8000	; 0x1f40
 80018f4:	f102 0214 	add.w	r2, r2, #20
 80018f8:	f507 6177 	add.w	r1, r7, #3952	; 0xf70
 80018fc:	f5a1 6077 	sub.w	r0, r1, #3952	; 0xf70
 8001900:	681b      	ldr	r3, [r3, #0]
 8001902:	f507 51fc 	add.w	r1, r7, #8064	; 0x1f80
 8001906:	6809      	ldr	r1, [r1, #0]
 8001908:	6800      	ldr	r0, [r0, #0]
 800190a:	f001 f952 	bl	8002bb2 <setFcost>
 800190e:	eef0 7a40 	vmov.f32	s15, s0
 8001912:	f507 53fc 	add.w	r3, r7, #8064	; 0x1f80
 8001916:	681b      	ldr	r3, [r3, #0]
 8001918:	edc3 7a01 	vstr	s15, [r3, #4]
						// Estudiamos si el nuevo FCost es mayor menor o igual al Fcost que ya tiene el estado abierto
						if (ptrChanges->Fcost >= matrixCosts[ptrChanges->posAnalisis[0] + i - 1][ptrChanges->posAnalisis[1] + j - 1][1]){
 800191c:	f507 53fc 	add.w	r3, r7, #8064	; 0x1f80
 8001920:	681b      	ldr	r3, [r3, #0]
 8001922:	ed93 7a01 	vldr	s14, [r3, #4]
 8001926:	f507 53fc 	add.w	r3, r7, #8064	; 0x1f80
 800192a:	681b      	ldr	r3, [r3, #0]
 800192c:	689a      	ldr	r2, [r3, #8]
 800192e:	f507 53fb 	add.w	r3, r7, #8032	; 0x1f60
 8001932:	f103 030e 	add.w	r3, r3, #14
 8001936:	781b      	ldrb	r3, [r3, #0]
 8001938:	4413      	add	r3, r2
 800193a:	461a      	mov	r2, r3
 800193c:	f44f 639c 	mov.w	r3, #1248	; 0x4e0
 8001940:	fb02 f303 	mul.w	r3, r2, r3
 8001944:	f5a3 639c 	sub.w	r3, r3, #1248	; 0x4e0
 8001948:	f507 6277 	add.w	r2, r7, #3952	; 0xf70
 800194c:	f6a2 726c 	subw	r2, r2, #3948	; 0xf6c
 8001950:	6812      	ldr	r2, [r2, #0]
 8001952:	18d1      	adds	r1, r2, r3
 8001954:	f507 53fc 	add.w	r3, r7, #8064	; 0x1f80
 8001958:	681b      	ldr	r3, [r3, #0]
 800195a:	68da      	ldr	r2, [r3, #12]
 800195c:	f507 53fb 	add.w	r3, r7, #8032	; 0x1f60
 8001960:	f103 030d 	add.w	r3, r3, #13
 8001964:	781b      	ldrb	r3, [r3, #0]
 8001966:	4413      	add	r3, r2
 8001968:	1e5a      	subs	r2, r3, #1
 800196a:	4613      	mov	r3, r2
 800196c:	005b      	lsls	r3, r3, #1
 800196e:	4413      	add	r3, r2
 8001970:	00db      	lsls	r3, r3, #3
 8001972:	440b      	add	r3, r1
 8001974:	3304      	adds	r3, #4
 8001976:	edd3 7a00 	vldr	s15, [r3]
 800197a:	eeb4 7ae7 	vcmpe.f32	s14, s15
 800197e:	eef1 fa10 	vmrs	APSR_nzcv, fpscr
 8001982:	db07      	blt.n	8001994 <findShorterWay+0x708>
							// Si el Fcost es mayor o igual a el anteriormente calculado, Significa que el Gcost calculado es el mismo o mayor,
							//por lo que no se actualiza ni el G cost y el F cost ni el parent
							__NOP();
 8001984:	bf00      	nop
							// Si si actualizamos la posicion abierta respectiva, tambien se debe actualizar en la matriz de decisin el F cost
							decisionMatrix[(int) matrixCosts[ptrChanges->posAnalisis[0] + i - 1][ptrChanges->posAnalisis[1] + j - 1][5]][0] =
									       matrixCosts[ptrChanges->posAnalisis[0] + i - 1][ptrChanges->posAnalisis[1] + j - 1][1]; // La segunda matriz son los F costs

						}
						break;
 8001986:	e212      	b.n	8001dae <findShorterWay+0xb22>
 8001988:	08008d48 	.word	0x08008d48
 800198c:	20000f04 	.word	0x20000f04
 8001990:	20000e58 	.word	0x20000e58
							updateGcost(parameters, ptrChanges, position, matrixCosts);
 8001994:	f507 6377 	add.w	r3, r7, #3952	; 0xf70
 8001998:	f6a3 736c 	subw	r3, r3, #3948	; 0xf6c
 800199c:	f507 52fa 	add.w	r2, r7, #8000	; 0x1f40
 80019a0:	f102 0214 	add.w	r2, r2, #20
 80019a4:	f507 6177 	add.w	r1, r7, #3952	; 0xf70
 80019a8:	f5a1 6077 	sub.w	r0, r1, #3952	; 0xf70
 80019ac:	681b      	ldr	r3, [r3, #0]
 80019ae:	f507 51fc 	add.w	r1, r7, #8064	; 0x1f80
 80019b2:	6809      	ldr	r1, [r1, #0]
 80019b4:	6800      	ldr	r0, [r0, #0]
 80019b6:	f000 feef 	bl	8002798 <updateGcost>
							updateFcost(parameters, ptrChanges, position, matrixCosts);
 80019ba:	f507 6377 	add.w	r3, r7, #3952	; 0xf70
 80019be:	f6a3 736c 	subw	r3, r3, #3948	; 0xf6c
 80019c2:	f507 52fa 	add.w	r2, r7, #8000	; 0x1f40
 80019c6:	f102 0214 	add.w	r2, r2, #20
 80019ca:	f507 6177 	add.w	r1, r7, #3952	; 0xf70
 80019ce:	f5a1 6077 	sub.w	r0, r1, #3952	; 0xf70
 80019d2:	681b      	ldr	r3, [r3, #0]
 80019d4:	f507 51fc 	add.w	r1, r7, #8064	; 0x1f80
 80019d8:	6809      	ldr	r1, [r1, #0]
 80019da:	6800      	ldr	r0, [r0, #0]
 80019dc:	f000 ff0a 	bl	80027f4 <updateFcost>
							updateParent(ptrChanges, position, matrixCosts);
 80019e0:	f507 6377 	add.w	r3, r7, #3952	; 0xf70
 80019e4:	f6a3 736c 	subw	r3, r3, #3948	; 0xf6c
 80019e8:	f507 51fa 	add.w	r1, r7, #8000	; 0x1f40
 80019ec:	f101 0114 	add.w	r1, r1, #20
 80019f0:	681a      	ldr	r2, [r3, #0]
 80019f2:	f507 53fc 	add.w	r3, r7, #8064	; 0x1f80
 80019f6:	6818      	ldr	r0, [r3, #0]
 80019f8:	f000 fe76 	bl	80026e8 <updateParent>
									       matrixCosts[ptrChanges->posAnalisis[0] + i - 1][ptrChanges->posAnalisis[1] + j - 1][1]; // La segunda matriz son los F costs
 80019fc:	f507 53fc 	add.w	r3, r7, #8064	; 0x1f80
 8001a00:	681b      	ldr	r3, [r3, #0]
 8001a02:	689a      	ldr	r2, [r3, #8]
 8001a04:	f507 53fb 	add.w	r3, r7, #8032	; 0x1f60
 8001a08:	f103 030e 	add.w	r3, r3, #14
 8001a0c:	781b      	ldrb	r3, [r3, #0]
 8001a0e:	4413      	add	r3, r2
 8001a10:	461a      	mov	r2, r3
 8001a12:	f44f 639c 	mov.w	r3, #1248	; 0x4e0
 8001a16:	fb02 f303 	mul.w	r3, r2, r3
 8001a1a:	f5a3 639c 	sub.w	r3, r3, #1248	; 0x4e0
 8001a1e:	f507 6277 	add.w	r2, r7, #3952	; 0xf70
 8001a22:	f6a2 726c 	subw	r2, r2, #3948	; 0xf6c
 8001a26:	6812      	ldr	r2, [r2, #0]
 8001a28:	18d0      	adds	r0, r2, r3
 8001a2a:	f507 53fc 	add.w	r3, r7, #8064	; 0x1f80
 8001a2e:	681b      	ldr	r3, [r3, #0]
 8001a30:	68da      	ldr	r2, [r3, #12]
 8001a32:	f507 53fb 	add.w	r3, r7, #8032	; 0x1f60
 8001a36:	f103 030d 	add.w	r3, r3, #13
 8001a3a:	781b      	ldrb	r3, [r3, #0]
 8001a3c:	4413      	add	r3, r2
 8001a3e:	1e5a      	subs	r2, r3, #1
							decisionMatrix[(int) matrixCosts[ptrChanges->posAnalisis[0] + i - 1][ptrChanges->posAnalisis[1] + j - 1][5]][0] =
 8001a40:	f507 53fc 	add.w	r3, r7, #8064	; 0x1f80
 8001a44:	681b      	ldr	r3, [r3, #0]
 8001a46:	6899      	ldr	r1, [r3, #8]
 8001a48:	f507 53fb 	add.w	r3, r7, #8032	; 0x1f60
 8001a4c:	f103 030e 	add.w	r3, r3, #14
 8001a50:	781b      	ldrb	r3, [r3, #0]
 8001a52:	440b      	add	r3, r1
 8001a54:	4619      	mov	r1, r3
 8001a56:	f44f 639c 	mov.w	r3, #1248	; 0x4e0
 8001a5a:	fb01 f303 	mul.w	r3, r1, r3
 8001a5e:	f5a3 639c 	sub.w	r3, r3, #1248	; 0x4e0
 8001a62:	f507 6177 	add.w	r1, r7, #3952	; 0xf70
 8001a66:	f6a1 716c 	subw	r1, r1, #3948	; 0xf6c
 8001a6a:	6809      	ldr	r1, [r1, #0]
 8001a6c:	18cc      	adds	r4, r1, r3
 8001a6e:	f507 53fc 	add.w	r3, r7, #8064	; 0x1f80
 8001a72:	681b      	ldr	r3, [r3, #0]
 8001a74:	68d9      	ldr	r1, [r3, #12]
 8001a76:	f507 53fb 	add.w	r3, r7, #8032	; 0x1f60
 8001a7a:	f103 030d 	add.w	r3, r3, #13
 8001a7e:	781b      	ldrb	r3, [r3, #0]
 8001a80:	440b      	add	r3, r1
 8001a82:	1e59      	subs	r1, r3, #1
 8001a84:	460b      	mov	r3, r1
 8001a86:	005b      	lsls	r3, r3, #1
 8001a88:	440b      	add	r3, r1
 8001a8a:	00db      	lsls	r3, r3, #3
 8001a8c:	4423      	add	r3, r4
 8001a8e:	3314      	adds	r3, #20
 8001a90:	edd3 7a00 	vldr	s15, [r3]
 8001a94:	eefd 7ae7 	vcvt.s32.f32	s15, s15
 8001a98:	ee17 4a90 	vmov	r4, s15
									       matrixCosts[ptrChanges->posAnalisis[0] + i - 1][ptrChanges->posAnalisis[1] + j - 1][1]; // La segunda matriz son los F costs
 8001a9c:	4613      	mov	r3, r2
 8001a9e:	005b      	lsls	r3, r3, #1
 8001aa0:	4413      	add	r3, r2
 8001aa2:	00db      	lsls	r3, r3, #3
 8001aa4:	4403      	add	r3, r0
 8001aa6:	3304      	adds	r3, #4
 8001aa8:	681a      	ldr	r2, [r3, #0]
							decisionMatrix[(int) matrixCosts[ptrChanges->posAnalisis[0] + i - 1][ptrChanges->posAnalisis[1] + j - 1][5]][0] =
 8001aaa:	f507 6377 	add.w	r3, r7, #3952	; 0xf70
 8001aae:	f6a3 715c 	subw	r1, r3, #3932	; 0xf5c
 8001ab2:	0123      	lsls	r3, r4, #4
 8001ab4:	440b      	add	r3, r1
 8001ab6:	601a      	str	r2, [r3, #0]
						break;
 8001ab8:	e179      	b.n	8001dae <findShorterWay+0xb22>
					}case '*':{
						// El sptimo caso seria cuando el puntero que estudia la matriz corresponde con un punto '*' que corresponde con un
						// espacio no estudiado, por lo que simplemente se setea sobre estos nuevos puntos su Gcost y su Fcost, incluyendo el parent
						position[0] = i;
 8001aba:	f507 53fb 	add.w	r3, r7, #8032	; 0x1f60
 8001abe:	f103 030e 	add.w	r3, r3, #14
 8001ac2:	781b      	ldrb	r3, [r3, #0]
 8001ac4:	f507 52fa 	add.w	r2, r7, #8000	; 0x1f40
 8001ac8:	f102 0214 	add.w	r2, r2, #20
 8001acc:	6013      	str	r3, [r2, #0]
						position[1] = j;
 8001ace:	f507 53fb 	add.w	r3, r7, #8032	; 0x1f60
 8001ad2:	f103 030d 	add.w	r3, r3, #13
 8001ad6:	781b      	ldrb	r3, [r3, #0]
 8001ad8:	f507 52fa 	add.w	r2, r7, #8000	; 0x1f40
 8001adc:	f102 0218 	add.w	r2, r2, #24
 8001ae0:	6013      	str	r3, [r2, #0]
						updateGcost(parameters, ptrChanges, position, matrixCosts);
 8001ae2:	f507 6377 	add.w	r3, r7, #3952	; 0xf70
 8001ae6:	f6a3 736c 	subw	r3, r3, #3948	; 0xf6c
 8001aea:	f507 52fa 	add.w	r2, r7, #8000	; 0x1f40
 8001aee:	f102 0214 	add.w	r2, r2, #20
 8001af2:	f507 6177 	add.w	r1, r7, #3952	; 0xf70
 8001af6:	f5a1 6077 	sub.w	r0, r1, #3952	; 0xf70
 8001afa:	681b      	ldr	r3, [r3, #0]
 8001afc:	f507 51fc 	add.w	r1, r7, #8064	; 0x1f80
 8001b00:	6809      	ldr	r1, [r1, #0]
 8001b02:	6800      	ldr	r0, [r0, #0]
 8001b04:	f000 fe48 	bl	8002798 <updateGcost>
						updateFcost(parameters, ptrChanges, position, matrixCosts);
 8001b08:	f507 6377 	add.w	r3, r7, #3952	; 0xf70
 8001b0c:	f6a3 736c 	subw	r3, r3, #3948	; 0xf6c
 8001b10:	f507 52fa 	add.w	r2, r7, #8000	; 0x1f40
 8001b14:	f102 0214 	add.w	r2, r2, #20
 8001b18:	f507 6177 	add.w	r1, r7, #3952	; 0xf70
 8001b1c:	f5a1 6077 	sub.w	r0, r1, #3952	; 0xf70
 8001b20:	681b      	ldr	r3, [r3, #0]
 8001b22:	f507 51fc 	add.w	r1, r7, #8064	; 0x1f80
 8001b26:	6809      	ldr	r1, [r1, #0]
 8001b28:	6800      	ldr	r0, [r0, #0]
 8001b2a:	f000 fe63 	bl	80027f4 <updateFcost>
						updateParent(ptrChanges, position, matrixCosts);
 8001b2e:	f507 6377 	add.w	r3, r7, #3952	; 0xf70
 8001b32:	f6a3 736c 	subw	r3, r3, #3948	; 0xf6c
 8001b36:	f507 51fa 	add.w	r1, r7, #8000	; 0x1f40
 8001b3a:	f101 0114 	add.w	r1, r1, #20
 8001b3e:	681a      	ldr	r2, [r3, #0]
 8001b40:	f507 53fc 	add.w	r3, r7, #8064	; 0x1f80
 8001b44:	6818      	ldr	r0, [r3, #0]
 8001b46:	f000 fdcf 	bl	80026e8 <updateParent>

						// Es conveniente que guardemos tambien esta informacin dentro de readableGrid porque se necesita luego almacenar esta ifnromacion ya
						// estudiada
						Gridcopy[ptrChanges->posAnalisis[0] + i - 1][ptrChanges->posAnalisis[1] + j - 1] = 'O';
 8001b4a:	f507 53fc 	add.w	r3, r7, #8064	; 0x1f80
 8001b4e:	681b      	ldr	r3, [r3, #0]
 8001b50:	689a      	ldr	r2, [r3, #8]
 8001b52:	f507 53fb 	add.w	r3, r7, #8032	; 0x1f60
 8001b56:	f103 030e 	add.w	r3, r3, #14
 8001b5a:	781b      	ldrb	r3, [r3, #0]
 8001b5c:	4413      	add	r3, r2
 8001b5e:	461a      	mov	r2, r3
 8001b60:	2334      	movs	r3, #52	; 0x34
 8001b62:	fb02 f303 	mul.w	r3, r2, r3
 8001b66:	3b34      	subs	r3, #52	; 0x34
 8001b68:	f507 6277 	add.w	r2, r7, #3952	; 0xf70
 8001b6c:	f6a2 7268 	subw	r2, r2, #3944	; 0xf68
 8001b70:	6812      	ldr	r2, [r2, #0]
 8001b72:	441a      	add	r2, r3
 8001b74:	f507 53fc 	add.w	r3, r7, #8064	; 0x1f80
 8001b78:	681b      	ldr	r3, [r3, #0]
 8001b7a:	68d9      	ldr	r1, [r3, #12]
 8001b7c:	f507 53fb 	add.w	r3, r7, #8032	; 0x1f60
 8001b80:	f103 030d 	add.w	r3, r3, #13
 8001b84:	781b      	ldrb	r3, [r3, #0]
 8001b86:	440b      	add	r3, r1
 8001b88:	3b01      	subs	r3, #1
 8001b8a:	214f      	movs	r1, #79	; 0x4f
 8001b8c:	54d1      	strb	r1, [r2, r3]

						// Como se crearon nuevos estados abiertos , se almacena dentro de la matriz de decicion el Fcost, el H cost, y la posicion
						// de cada punto analizado
						// se almacena el Fcost
						decisionMatrix[counter][0] = matrixCosts[ptrChanges->posAnalisis[0] + i - 1][ptrChanges->posAnalisis[1] + j - 1][1];
 8001b8e:	f507 53fc 	add.w	r3, r7, #8064	; 0x1f80
 8001b92:	681b      	ldr	r3, [r3, #0]
 8001b94:	689a      	ldr	r2, [r3, #8]
 8001b96:	f507 53fb 	add.w	r3, r7, #8032	; 0x1f60
 8001b9a:	f103 030e 	add.w	r3, r3, #14
 8001b9e:	781b      	ldrb	r3, [r3, #0]
 8001ba0:	4413      	add	r3, r2
 8001ba2:	461a      	mov	r2, r3
 8001ba4:	f44f 639c 	mov.w	r3, #1248	; 0x4e0
 8001ba8:	fb02 f303 	mul.w	r3, r2, r3
 8001bac:	f5a3 639c 	sub.w	r3, r3, #1248	; 0x4e0
 8001bb0:	f507 6277 	add.w	r2, r7, #3952	; 0xf70
 8001bb4:	f6a2 726c 	subw	r2, r2, #3948	; 0xf6c
 8001bb8:	6812      	ldr	r2, [r2, #0]
 8001bba:	18d1      	adds	r1, r2, r3
 8001bbc:	f507 53fc 	add.w	r3, r7, #8064	; 0x1f80
 8001bc0:	681b      	ldr	r3, [r3, #0]
 8001bc2:	68da      	ldr	r2, [r3, #12]
 8001bc4:	f507 53fb 	add.w	r3, r7, #8032	; 0x1f60
 8001bc8:	f103 030d 	add.w	r3, r3, #13
 8001bcc:	781b      	ldrb	r3, [r3, #0]
 8001bce:	4413      	add	r3, r2
 8001bd0:	1e5a      	subs	r2, r3, #1
 8001bd2:	f507 53fb 	add.w	r3, r7, #8032	; 0x1f60
 8001bd6:	f103 030b 	add.w	r3, r3, #11
 8001bda:	7818      	ldrb	r0, [r3, #0]
 8001bdc:	4613      	mov	r3, r2
 8001bde:	005b      	lsls	r3, r3, #1
 8001be0:	4413      	add	r3, r2
 8001be2:	00db      	lsls	r3, r3, #3
 8001be4:	440b      	add	r3, r1
 8001be6:	3304      	adds	r3, #4
 8001be8:	681a      	ldr	r2, [r3, #0]
 8001bea:	f507 6377 	add.w	r3, r7, #3952	; 0xf70
 8001bee:	f6a3 715c 	subw	r1, r3, #3932	; 0xf5c
 8001bf2:	0103      	lsls	r3, r0, #4
 8001bf4:	440b      	add	r3, r1
 8001bf6:	601a      	str	r2, [r3, #0]
						// Se almacena el H cost
						decisionMatrix[counter][1] = matrixCosts[ptrChanges->posAnalisis[0] + i - 1][ptrChanges->posAnalisis[1] + j - 1][2];
 8001bf8:	f507 53fc 	add.w	r3, r7, #8064	; 0x1f80
 8001bfc:	681b      	ldr	r3, [r3, #0]
 8001bfe:	689a      	ldr	r2, [r3, #8]
 8001c00:	f507 53fb 	add.w	r3, r7, #8032	; 0x1f60
 8001c04:	f103 030e 	add.w	r3, r3, #14
 8001c08:	781b      	ldrb	r3, [r3, #0]
 8001c0a:	4413      	add	r3, r2
 8001c0c:	461a      	mov	r2, r3
 8001c0e:	f44f 639c 	mov.w	r3, #1248	; 0x4e0
 8001c12:	fb02 f303 	mul.w	r3, r2, r3
 8001c16:	f5a3 639c 	sub.w	r3, r3, #1248	; 0x4e0
 8001c1a:	f507 6277 	add.w	r2, r7, #3952	; 0xf70
 8001c1e:	f6a2 726c 	subw	r2, r2, #3948	; 0xf6c
 8001c22:	6812      	ldr	r2, [r2, #0]
 8001c24:	18d1      	adds	r1, r2, r3
 8001c26:	f507 53fc 	add.w	r3, r7, #8064	; 0x1f80
 8001c2a:	681b      	ldr	r3, [r3, #0]
 8001c2c:	68da      	ldr	r2, [r3, #12]
 8001c2e:	f507 53fb 	add.w	r3, r7, #8032	; 0x1f60
 8001c32:	f103 030d 	add.w	r3, r3, #13
 8001c36:	781b      	ldrb	r3, [r3, #0]
 8001c38:	4413      	add	r3, r2
 8001c3a:	1e5a      	subs	r2, r3, #1
 8001c3c:	f507 53fb 	add.w	r3, r7, #8032	; 0x1f60
 8001c40:	f103 030b 	add.w	r3, r3, #11
 8001c44:	7818      	ldrb	r0, [r3, #0]
 8001c46:	4613      	mov	r3, r2
 8001c48:	005b      	lsls	r3, r3, #1
 8001c4a:	4413      	add	r3, r2
 8001c4c:	00db      	lsls	r3, r3, #3
 8001c4e:	440b      	add	r3, r1
 8001c50:	3308      	adds	r3, #8
 8001c52:	681a      	ldr	r2, [r3, #0]
 8001c54:	f507 6377 	add.w	r3, r7, #3952	; 0xf70
 8001c58:	f6a3 715c 	subw	r1, r3, #3932	; 0xf5c
 8001c5c:	0103      	lsls	r3, r0, #4
 8001c5e:	440b      	add	r3, r1
 8001c60:	3304      	adds	r3, #4
 8001c62:	601a      	str	r2, [r3, #0]
						// Se almacena la posicion i
						decisionMatrix[counter][2] = ptrChanges->posAnalisis[0] + i - 1;
 8001c64:	f507 53fc 	add.w	r3, r7, #8064	; 0x1f80
 8001c68:	681b      	ldr	r3, [r3, #0]
 8001c6a:	689a      	ldr	r2, [r3, #8]
 8001c6c:	f507 53fb 	add.w	r3, r7, #8032	; 0x1f60
 8001c70:	f103 030e 	add.w	r3, r3, #14
 8001c74:	781b      	ldrb	r3, [r3, #0]
 8001c76:	4413      	add	r3, r2
 8001c78:	1e5a      	subs	r2, r3, #1
 8001c7a:	f507 53fb 	add.w	r3, r7, #8032	; 0x1f60
 8001c7e:	f103 030b 	add.w	r3, r3, #11
 8001c82:	781b      	ldrb	r3, [r3, #0]
 8001c84:	ee07 2a90 	vmov	s15, r2
 8001c88:	eef8 7ae7 	vcvt.f32.s32	s15, s15
 8001c8c:	f507 6277 	add.w	r2, r7, #3952	; 0xf70
 8001c90:	f6a2 725c 	subw	r2, r2, #3932	; 0xf5c
 8001c94:	011b      	lsls	r3, r3, #4
 8001c96:	4413      	add	r3, r2
 8001c98:	3308      	adds	r3, #8
 8001c9a:	edc3 7a00 	vstr	s15, [r3]
						// Se almacena la posicion j
						decisionMatrix[counter][3] = ptrChanges->posAnalisis[1] + j - 1;
 8001c9e:	f507 53fc 	add.w	r3, r7, #8064	; 0x1f80
 8001ca2:	681b      	ldr	r3, [r3, #0]
 8001ca4:	68da      	ldr	r2, [r3, #12]
 8001ca6:	f507 53fb 	add.w	r3, r7, #8032	; 0x1f60
 8001caa:	f103 030d 	add.w	r3, r3, #13
 8001cae:	781b      	ldrb	r3, [r3, #0]
 8001cb0:	4413      	add	r3, r2
 8001cb2:	1e5a      	subs	r2, r3, #1
 8001cb4:	f507 53fb 	add.w	r3, r7, #8032	; 0x1f60
 8001cb8:	f103 030b 	add.w	r3, r3, #11
 8001cbc:	781b      	ldrb	r3, [r3, #0]
 8001cbe:	ee07 2a90 	vmov	s15, r2
 8001cc2:	eef8 7ae7 	vcvt.f32.s32	s15, s15
 8001cc6:	f507 6277 	add.w	r2, r7, #3952	; 0xf70
 8001cca:	f6a2 725c 	subw	r2, r2, #3932	; 0xf5c
 8001cce:	011b      	lsls	r3, r3, #4
 8001cd0:	4413      	add	r3, r2
 8001cd2:	330c      	adds	r3, #12
 8001cd4:	edc3 7a00 	vstr	s15, [r3]

						// Guardamos en la matris grande de costos en la ultima matriz el valor del counter asignado a la posicin
						matrixCosts[ptrChanges->posAnalisis[0] + i - 1][ptrChanges->posAnalisis[1] + j - 1][5] = counter;
 8001cd8:	f507 53fc 	add.w	r3, r7, #8064	; 0x1f80
 8001cdc:	681b      	ldr	r3, [r3, #0]
 8001cde:	689a      	ldr	r2, [r3, #8]
 8001ce0:	f507 53fb 	add.w	r3, r7, #8032	; 0x1f60
 8001ce4:	f103 030e 	add.w	r3, r3, #14
 8001ce8:	781b      	ldrb	r3, [r3, #0]
 8001cea:	4413      	add	r3, r2
 8001cec:	461a      	mov	r2, r3
 8001cee:	f44f 639c 	mov.w	r3, #1248	; 0x4e0
 8001cf2:	fb02 f303 	mul.w	r3, r2, r3
 8001cf6:	f5a3 639c 	sub.w	r3, r3, #1248	; 0x4e0
 8001cfa:	f507 6277 	add.w	r2, r7, #3952	; 0xf70
 8001cfe:	f6a2 726c 	subw	r2, r2, #3948	; 0xf6c
 8001d02:	6812      	ldr	r2, [r2, #0]
 8001d04:	18d1      	adds	r1, r2, r3
 8001d06:	f507 53fc 	add.w	r3, r7, #8064	; 0x1f80
 8001d0a:	681b      	ldr	r3, [r3, #0]
 8001d0c:	68da      	ldr	r2, [r3, #12]
 8001d0e:	f507 53fb 	add.w	r3, r7, #8032	; 0x1f60
 8001d12:	f103 030d 	add.w	r3, r3, #13
 8001d16:	781b      	ldrb	r3, [r3, #0]
 8001d18:	4413      	add	r3, r2
 8001d1a:	1e5a      	subs	r2, r3, #1
 8001d1c:	f507 53fb 	add.w	r3, r7, #8032	; 0x1f60
 8001d20:	f103 030b 	add.w	r3, r3, #11
 8001d24:	781b      	ldrb	r3, [r3, #0]
 8001d26:	ee07 3a90 	vmov	s15, r3
 8001d2a:	eef8 7a67 	vcvt.f32.u32	s15, s15
 8001d2e:	4613      	mov	r3, r2
 8001d30:	005b      	lsls	r3, r3, #1
 8001d32:	4413      	add	r3, r2
 8001d34:	00db      	lsls	r3, r3, #3
 8001d36:	440b      	add	r3, r1
 8001d38:	3314      	adds	r3, #20
 8001d3a:	edc3 7a00 	vstr	s15, [r3]

						// Aumentamos el contador ya que cada posicion estudiada aqui es una nueva posicion que entra a estado open
						counter++;
 8001d3e:	f507 53fb 	add.w	r3, r7, #8032	; 0x1f60
 8001d42:	f103 030b 	add.w	r3, r3, #11
 8001d46:	781b      	ldrb	r3, [r3, #0]
 8001d48:	3301      	adds	r3, #1
 8001d4a:	f507 52fb 	add.w	r2, r7, #8032	; 0x1f60
 8001d4e:	f102 020b 	add.w	r2, r2, #11
 8001d52:	7013      	strb	r3, [r2, #0]

						break;
 8001d54:	e02b      	b.n	8001dae <findShorterWay+0xb22>
					}case 'e':{
						// El octavo caso Sera cuando se encuentra la 'e' de end , donde ya logramos despues de viajar a traves de la maya llegar
						// hasta el punto final, aqui para economizar recursos simplemente haremos que el ciclo se detenga y de parent al end le asignamos
						// el ultimo
						position[0] = i;
 8001d56:	f507 53fb 	add.w	r3, r7, #8032	; 0x1f60
 8001d5a:	f103 030e 	add.w	r3, r3, #14
 8001d5e:	781b      	ldrb	r3, [r3, #0]
 8001d60:	f507 52fa 	add.w	r2, r7, #8000	; 0x1f40
 8001d64:	f102 0214 	add.w	r2, r2, #20
 8001d68:	6013      	str	r3, [r2, #0]
						position[1] = j;
 8001d6a:	f507 53fb 	add.w	r3, r7, #8032	; 0x1f60
 8001d6e:	f103 030d 	add.w	r3, r3, #13
 8001d72:	781b      	ldrb	r3, [r3, #0]
 8001d74:	f507 52fa 	add.w	r2, r7, #8000	; 0x1f40
 8001d78:	f102 0218 	add.w	r2, r2, #24
 8001d7c:	6013      	str	r3, [r2, #0]
						updateParent(ptrChanges, position, matrixCosts);
 8001d7e:	f507 6377 	add.w	r3, r7, #3952	; 0xf70
 8001d82:	f6a3 736c 	subw	r3, r3, #3948	; 0xf6c
 8001d86:	f507 51fa 	add.w	r1, r7, #8000	; 0x1f40
 8001d8a:	f101 0114 	add.w	r1, r1, #20
 8001d8e:	681a      	ldr	r2, [r3, #0]
 8001d90:	f507 53fc 	add.w	r3, r7, #8064	; 0x1f80
 8001d94:	6818      	ldr	r0, [r3, #0]
 8001d96:	f000 fca7 	bl	80026e8 <updateParent>
						shorterWayFound = SET;
 8001d9a:	2301      	movs	r3, #1
 8001d9c:	f507 52fb 	add.w	r2, r7, #8032	; 0x1f60
 8001da0:	f102 020f 	add.w	r2, r2, #15
 8001da4:	7013      	strb	r3, [r2, #0]
						break;
 8001da6:	e002      	b.n	8001dae <findShorterWay+0xb22>
					}
					default:{
						// Si se llega hasta aca es porque hay un caracter no permitido dentro de la malla y se debe parar la ejecucion del programa
						return 0;
 8001da8:	2300      	movs	r3, #0
 8001daa:	f000 bc90 	b.w	80026ce <findShorterWay+0x1442>
						break;
					}
				}// Termino del switch case

				if (shorterWayFound){
 8001dae:	f507 53fb 	add.w	r3, r7, #8032	; 0x1f60
 8001db2:	f103 030f 	add.w	r3, r3, #15
 8001db6:	781b      	ldrb	r3, [r3, #0]
 8001db8:	2b00      	cmp	r3, #0
 8001dba:	d113      	bne.n	8001de4 <findShorterWay+0xb58>
			for (j = 0; j < 3; j++){
 8001dbc:	f507 53fb 	add.w	r3, r7, #8032	; 0x1f60
 8001dc0:	f103 030d 	add.w	r3, r3, #13
 8001dc4:	781b      	ldrb	r3, [r3, #0]
 8001dc6:	3301      	adds	r3, #1
 8001dc8:	f507 52fb 	add.w	r2, r7, #8032	; 0x1f60
 8001dcc:	f102 020d 	add.w	r2, r2, #13
 8001dd0:	7013      	strb	r3, [r2, #0]
 8001dd2:	f507 53fb 	add.w	r3, r7, #8032	; 0x1f60
 8001dd6:	f103 030d 	add.w	r3, r3, #13
 8001dda:	781b      	ldrb	r3, [r3, #0]
 8001ddc:	2b02      	cmp	r3, #2
 8001dde:	f67f acde 	bls.w	800179e <findShorterWay+0x512>
 8001de2:	e000      	b.n	8001de6 <findShorterWay+0xb5a>
					break;
 8001de4:	bf00      	nop
				}

			}// Termino del ciclo for
			if (shorterWayFound){
 8001de6:	f507 53fb 	add.w	r3, r7, #8032	; 0x1f60
 8001dea:	f103 030f 	add.w	r3, r3, #15
 8001dee:	781b      	ldrb	r3, [r3, #0]
 8001df0:	2b00      	cmp	r3, #0
 8001df2:	d113      	bne.n	8001e1c <findShorterWay+0xb90>
    	for(i = 0; i < 3; i++){
 8001df4:	f507 53fb 	add.w	r3, r7, #8032	; 0x1f60
 8001df8:	f103 030e 	add.w	r3, r3, #14
 8001dfc:	781b      	ldrb	r3, [r3, #0]
 8001dfe:	3301      	adds	r3, #1
 8001e00:	f507 52fb 	add.w	r2, r7, #8032	; 0x1f60
 8001e04:	f102 020e 	add.w	r2, r2, #14
 8001e08:	7013      	strb	r3, [r2, #0]
 8001e0a:	f507 53fb 	add.w	r3, r7, #8032	; 0x1f60
 8001e0e:	f103 030e 	add.w	r3, r3, #14
 8001e12:	781b      	ldrb	r3, [r3, #0]
 8001e14:	2b02      	cmp	r3, #2
 8001e16:	f67f acbb 	bls.w	8001790 <findShorterWay+0x504>
 8001e1a:	e000      	b.n	8001e1e <findShorterWay+0xb92>
				break;
 8001e1c:	bf00      	nop
    	// el que tiene el Fcost mas pequeo, y en caso de Fcost iguales desempata el que tenga una heuristica o Hcost menor
    	// Volvemos a recorrer los aledanios para seleccionar la nueva posicion, tal posicion pasara a ser el nuevo punto de analisis, el resto
    	// seran solo puntos en estado Open, y el antiguo punto de analisis sera ahora un punto Done, Para ello usaremos la funcion findeLesserValue
    	// Esta funcion almacena dentro de la estructura costChangesAndPos_t los valores de la pisicion del F cost mas pequeo, en el caso de que haya
    	// mas de uno igual, se alzar una bandera que indica que esto ocurrio, por lo que internamente el tambien analiza cual es la heuristica
    	if (!shorterWayFound){
 8001e1e:	f507 53fb 	add.w	r3, r7, #8032	; 0x1f60
 8001e22:	f103 030f 	add.w	r3, r3, #15
 8001e26:	781b      	ldrb	r3, [r3, #0]
 8001e28:	2b00      	cmp	r3, #0
 8001e2a:	f040 8273 	bne.w	8002314 <findShorterWay+0x1088>
			findLesserValue(ptrChanges, decisionMatrix, counter);
 8001e2e:	f507 53fb 	add.w	r3, r7, #8032	; 0x1f60
 8001e32:	f103 030b 	add.w	r3, r3, #11
 8001e36:	781a      	ldrb	r2, [r3, #0]
 8001e38:	f107 0330 	add.w	r3, r7, #48	; 0x30
 8001e3c:	3b1c      	subs	r3, #28
 8001e3e:	4619      	mov	r1, r3
 8001e40:	f507 53fc 	add.w	r3, r7, #8064	; 0x1f80
 8001e44:	6818      	ldr	r0, [r3, #0]
 8001e46:	f001 f81b 	bl	8002e80 <findLesserValue>
			// A partir de aqui tendriamos la posicion del F cost mas pequeo, pero primero se compueba de que si depronto hubo un F cost igual
			if (ptrChanges->equalFcost){
 8001e4a:	f507 53fc 	add.w	r3, r7, #8064	; 0x1f80
 8001e4e:	681b      	ldr	r3, [r3, #0]
 8001e50:	f893 303c 	ldrb.w	r3, [r3, #60]	; 0x3c
 8001e54:	2b00      	cmp	r3, #0
 8001e56:	f000 812c 	beq.w	80020b2 <findShorterWay+0xe26>
				// Si estamos aqui es porque si hubo mas de un Fcost igual , por lo que se busca es la posicion del Hcost mas pequeo como la nueva posicion
				// que tomara el nuevo papel de punto de analisis, y el que fue el punto de analisis sera ahor aun estado Done o 'D'
				// Llevamos la posicion de analisis al estado cerrado
				ptrChanges->posClosed[0] = ptrChanges->posAnalisis[0];
 8001e5a:	f507 53fc 	add.w	r3, r7, #8064	; 0x1f80
 8001e5e:	681b      	ldr	r3, [r3, #0]
 8001e60:	689a      	ldr	r2, [r3, #8]
 8001e62:	f507 53fc 	add.w	r3, r7, #8064	; 0x1f80
 8001e66:	681b      	ldr	r3, [r3, #0]
 8001e68:	619a      	str	r2, [r3, #24]
				ptrChanges->posClosed[1] = ptrChanges->posAnalisis[1];
 8001e6a:	f507 53fc 	add.w	r3, r7, #8064	; 0x1f80
 8001e6e:	681b      	ldr	r3, [r3, #0]
 8001e70:	68da      	ldr	r2, [r3, #12]
 8001e72:	f507 53fc 	add.w	r3, r7, #8064	; 0x1f80
 8001e76:	681b      	ldr	r3, [r3, #0]
 8001e78:	61da      	str	r2, [r3, #28]

				// Convertimos el estado estudiado en un estado Done acualizando el redeableGrid, excepto cuando se trata del punto de start
				if (Gridcopy[ptrChanges->posAnalisis[0]][ptrChanges->posAnalisis[1]] == 's'){
 8001e7a:	f507 53fc 	add.w	r3, r7, #8064	; 0x1f80
 8001e7e:	681b      	ldr	r3, [r3, #0]
 8001e80:	689b      	ldr	r3, [r3, #8]
 8001e82:	461a      	mov	r2, r3
 8001e84:	2334      	movs	r3, #52	; 0x34
 8001e86:	fb02 f303 	mul.w	r3, r2, r3
 8001e8a:	f507 6277 	add.w	r2, r7, #3952	; 0xf70
 8001e8e:	f6a2 7268 	subw	r2, r2, #3944	; 0xf68
 8001e92:	6812      	ldr	r2, [r2, #0]
 8001e94:	441a      	add	r2, r3
 8001e96:	f507 53fc 	add.w	r3, r7, #8064	; 0x1f80
 8001e9a:	681b      	ldr	r3, [r3, #0]
 8001e9c:	68db      	ldr	r3, [r3, #12]
 8001e9e:	5cd3      	ldrb	r3, [r2, r3]
 8001ea0:	2b73      	cmp	r3, #115	; 0x73
 8001ea2:	d101      	bne.n	8001ea8 <findShorterWay+0xc1c>
					// Dejamos el char de start tal cual como esta
					__NOP();
 8001ea4:	bf00      	nop
 8001ea6:	e013      	b.n	8001ed0 <findShorterWay+0xc44>
				}else{
					// Si no se trata del caracter de Start si actualizamos con el caracter de Done 'D'
					Gridcopy[ptrChanges->posAnalisis[0]][ptrChanges->posAnalisis[1]] = 'D';
 8001ea8:	f507 53fc 	add.w	r3, r7, #8064	; 0x1f80
 8001eac:	681b      	ldr	r3, [r3, #0]
 8001eae:	689b      	ldr	r3, [r3, #8]
 8001eb0:	461a      	mov	r2, r3
 8001eb2:	2334      	movs	r3, #52	; 0x34
 8001eb4:	fb02 f303 	mul.w	r3, r2, r3
 8001eb8:	f507 6277 	add.w	r2, r7, #3952	; 0xf70
 8001ebc:	f6a2 7268 	subw	r2, r2, #3944	; 0xf68
 8001ec0:	6812      	ldr	r2, [r2, #0]
 8001ec2:	441a      	add	r2, r3
 8001ec4:	f507 53fc 	add.w	r3, r7, #8064	; 0x1f80
 8001ec8:	681b      	ldr	r3, [r3, #0]
 8001eca:	68db      	ldr	r3, [r3, #12]
 8001ecc:	2144      	movs	r1, #68	; 0x44
 8001ece:	54d1      	strb	r1, [r2, r3]
				}

				//Actualizamos el punto de analisis con la posicion de la heuristica mas pequea, usando la matriz de decision entregamos la posicion
				// respectiva que contiene la caracteristica deseada
				ptrChanges->posAnalisis[0] = decisionMatrix[ptrChanges->lesserHcostPosition][2]; // Posicion i del valor de la Heuristica mas corta
 8001ed0:	f507 53fc 	add.w	r3, r7, #8064	; 0x1f80
 8001ed4:	681b      	ldr	r3, [r3, #0]
 8001ed6:	6b9b      	ldr	r3, [r3, #56]	; 0x38
 8001ed8:	f507 6277 	add.w	r2, r7, #3952	; 0xf70
 8001edc:	f6a2 725c 	subw	r2, r2, #3932	; 0xf5c
 8001ee0:	011b      	lsls	r3, r3, #4
 8001ee2:	4413      	add	r3, r2
 8001ee4:	3308      	adds	r3, #8
 8001ee6:	edd3 7a00 	vldr	s15, [r3]
 8001eea:	eefd 7ae7 	vcvt.s32.f32	s15, s15
 8001eee:	ee17 2a90 	vmov	r2, s15
 8001ef2:	f507 53fc 	add.w	r3, r7, #8064	; 0x1f80
 8001ef6:	681b      	ldr	r3, [r3, #0]
 8001ef8:	609a      	str	r2, [r3, #8]
				ptrChanges->posAnalisis[1] = decisionMatrix[ptrChanges->lesserHcostPosition][3]; // Posicion j del valor de la heuristica mas corta
 8001efa:	f507 53fc 	add.w	r3, r7, #8064	; 0x1f80
 8001efe:	681b      	ldr	r3, [r3, #0]
 8001f00:	6b9b      	ldr	r3, [r3, #56]	; 0x38
 8001f02:	f507 6277 	add.w	r2, r7, #3952	; 0xf70
 8001f06:	f6a2 725c 	subw	r2, r2, #3932	; 0xf5c
 8001f0a:	011b      	lsls	r3, r3, #4
 8001f0c:	4413      	add	r3, r2
 8001f0e:	330c      	adds	r3, #12
 8001f10:	edd3 7a00 	vldr	s15, [r3]
 8001f14:	eefd 7ae7 	vcvt.s32.f32	s15, s15
 8001f18:	ee17 2a90 	vmov	r2, s15
 8001f1c:	f507 53fc 	add.w	r3, r7, #8064	; 0x1f80
 8001f20:	681b      	ldr	r3, [r3, #0]
 8001f22:	60da      	str	r2, [r3, #12]

				// Limpiamos la posicion de la matriz de decision ya que este punto pasa a ser un valor a estudiar, y debe de salir de la lista
				// de estados en Open
				for (i = 0 ; i < 4 ; i++){
 8001f24:	2300      	movs	r3, #0
 8001f26:	f507 52fb 	add.w	r2, r7, #8032	; 0x1f60
 8001f2a:	f102 020e 	add.w	r2, r2, #14
 8001f2e:	7013      	strb	r3, [r2, #0]
 8001f30:	e01e      	b.n	8001f70 <findShorterWay+0xce4>
					decisionMatrix[ptrChanges->lesserHcostPosition][i] = 0;
 8001f32:	f507 53fc 	add.w	r3, r7, #8064	; 0x1f80
 8001f36:	681b      	ldr	r3, [r3, #0]
 8001f38:	6b99      	ldr	r1, [r3, #56]	; 0x38
 8001f3a:	f507 53fb 	add.w	r3, r7, #8032	; 0x1f60
 8001f3e:	f103 030e 	add.w	r3, r3, #14
 8001f42:	781b      	ldrb	r3, [r3, #0]
 8001f44:	f507 6277 	add.w	r2, r7, #3952	; 0xf70
 8001f48:	f6a2 725c 	subw	r2, r2, #3932	; 0xf5c
 8001f4c:	0089      	lsls	r1, r1, #2
 8001f4e:	440b      	add	r3, r1
 8001f50:	009b      	lsls	r3, r3, #2
 8001f52:	4413      	add	r3, r2
 8001f54:	f04f 0200 	mov.w	r2, #0
 8001f58:	601a      	str	r2, [r3, #0]
				for (i = 0 ; i < 4 ; i++){
 8001f5a:	f507 53fb 	add.w	r3, r7, #8032	; 0x1f60
 8001f5e:	f103 030e 	add.w	r3, r3, #14
 8001f62:	781b      	ldrb	r3, [r3, #0]
 8001f64:	3301      	adds	r3, #1
 8001f66:	f507 52fb 	add.w	r2, r7, #8032	; 0x1f60
 8001f6a:	f102 020e 	add.w	r2, r2, #14
 8001f6e:	7013      	strb	r3, [r2, #0]
 8001f70:	f507 53fb 	add.w	r3, r7, #8032	; 0x1f60
 8001f74:	f103 030e 	add.w	r3, r3, #14
 8001f78:	781b      	ldrb	r3, [r3, #0]
 8001f7a:	2b03      	cmp	r3, #3
 8001f7c:	d9d9      	bls.n	8001f32 <findShorterWay+0xca6>
				}

				//solo queda mover las posiciones en estado de abierto para arriba para que ocupen el espacio que quedo

				for (i = ptrChanges->lesserHcostPosition + 1; i < counter ; i++ ){
 8001f7e:	f507 53fc 	add.w	r3, r7, #8064	; 0x1f80
 8001f82:	681b      	ldr	r3, [r3, #0]
 8001f84:	6b9b      	ldr	r3, [r3, #56]	; 0x38
 8001f86:	b2db      	uxtb	r3, r3
 8001f88:	3301      	adds	r3, #1
 8001f8a:	f507 52fb 	add.w	r2, r7, #8032	; 0x1f60
 8001f8e:	f102 020e 	add.w	r2, r2, #14
 8001f92:	7013      	strb	r3, [r2, #0]
 8001f94:	e05f      	b.n	8002056 <findShorterWay+0xdca>
					for (j = 0 ; j < 4 ; j++){
 8001f96:	2300      	movs	r3, #0
 8001f98:	f507 52fb 	add.w	r2, r7, #8032	; 0x1f60
 8001f9c:	f102 020d 	add.w	r2, r2, #13
 8001fa0:	7013      	strb	r3, [r2, #0]
 8001fa2:	e046      	b.n	8002032 <findShorterWay+0xda6>
						// Mudamos los elementos de la posicion i a la posicion anterior
						decisionMatrix[i - 1][j] = decisionMatrix[i][j];
 8001fa4:	f507 53fb 	add.w	r3, r7, #8032	; 0x1f60
 8001fa8:	f103 030e 	add.w	r3, r3, #14
 8001fac:	781c      	ldrb	r4, [r3, #0]
 8001fae:	f507 53fb 	add.w	r3, r7, #8032	; 0x1f60
 8001fb2:	f103 030d 	add.w	r3, r3, #13
 8001fb6:	781a      	ldrb	r2, [r3, #0]
 8001fb8:	f507 53fb 	add.w	r3, r7, #8032	; 0x1f60
 8001fbc:	f103 030e 	add.w	r3, r3, #14
 8001fc0:	781b      	ldrb	r3, [r3, #0]
 8001fc2:	1e58      	subs	r0, r3, #1
 8001fc4:	f507 53fb 	add.w	r3, r7, #8032	; 0x1f60
 8001fc8:	f103 030d 	add.w	r3, r3, #13
 8001fcc:	781b      	ldrb	r3, [r3, #0]
 8001fce:	f507 6177 	add.w	r1, r7, #3952	; 0xf70
 8001fd2:	f6a1 715c 	subw	r1, r1, #3932	; 0xf5c
 8001fd6:	00a4      	lsls	r4, r4, #2
 8001fd8:	4422      	add	r2, r4
 8001fda:	0092      	lsls	r2, r2, #2
 8001fdc:	440a      	add	r2, r1
 8001fde:	6812      	ldr	r2, [r2, #0]
 8001fe0:	f507 6177 	add.w	r1, r7, #3952	; 0xf70
 8001fe4:	f6a1 715c 	subw	r1, r1, #3932	; 0xf5c
 8001fe8:	0080      	lsls	r0, r0, #2
 8001fea:	4403      	add	r3, r0
 8001fec:	009b      	lsls	r3, r3, #2
 8001fee:	440b      	add	r3, r1
 8001ff0:	601a      	str	r2, [r3, #0]
						// Limpiamos la posicion que acabamos de mudar para mudar a la siguiente
						decisionMatrix[i][j] = 0;
 8001ff2:	f507 53fb 	add.w	r3, r7, #8032	; 0x1f60
 8001ff6:	f103 030e 	add.w	r3, r3, #14
 8001ffa:	7819      	ldrb	r1, [r3, #0]
 8001ffc:	f507 53fb 	add.w	r3, r7, #8032	; 0x1f60
 8002000:	f103 030d 	add.w	r3, r3, #13
 8002004:	781b      	ldrb	r3, [r3, #0]
 8002006:	f507 6277 	add.w	r2, r7, #3952	; 0xf70
 800200a:	f6a2 725c 	subw	r2, r2, #3932	; 0xf5c
 800200e:	0089      	lsls	r1, r1, #2
 8002010:	440b      	add	r3, r1
 8002012:	009b      	lsls	r3, r3, #2
 8002014:	4413      	add	r3, r2
 8002016:	f04f 0200 	mov.w	r2, #0
 800201a:	601a      	str	r2, [r3, #0]
					for (j = 0 ; j < 4 ; j++){
 800201c:	f507 53fb 	add.w	r3, r7, #8032	; 0x1f60
 8002020:	f103 030d 	add.w	r3, r3, #13
 8002024:	781b      	ldrb	r3, [r3, #0]
 8002026:	3301      	adds	r3, #1
 8002028:	f507 52fb 	add.w	r2, r7, #8032	; 0x1f60
 800202c:	f102 020d 	add.w	r2, r2, #13
 8002030:	7013      	strb	r3, [r2, #0]
 8002032:	f507 53fb 	add.w	r3, r7, #8032	; 0x1f60
 8002036:	f103 030d 	add.w	r3, r3, #13
 800203a:	781b      	ldrb	r3, [r3, #0]
 800203c:	2b03      	cmp	r3, #3
 800203e:	d9b1      	bls.n	8001fa4 <findShorterWay+0xd18>
				for (i = ptrChanges->lesserHcostPosition + 1; i < counter ; i++ ){
 8002040:	f507 53fb 	add.w	r3, r7, #8032	; 0x1f60
 8002044:	f103 030e 	add.w	r3, r3, #14
 8002048:	781b      	ldrb	r3, [r3, #0]
 800204a:	3301      	adds	r3, #1
 800204c:	f507 52fb 	add.w	r2, r7, #8032	; 0x1f60
 8002050:	f102 020e 	add.w	r2, r2, #14
 8002054:	7013      	strb	r3, [r2, #0]
 8002056:	f507 53fb 	add.w	r3, r7, #8032	; 0x1f60
 800205a:	f103 030e 	add.w	r3, r3, #14
 800205e:	781a      	ldrb	r2, [r3, #0]
 8002060:	f507 53fb 	add.w	r3, r7, #8032	; 0x1f60
 8002064:	f103 030b 	add.w	r3, r3, #11
 8002068:	781b      	ldrb	r3, [r3, #0]
 800206a:	429a      	cmp	r2, r3
 800206c:	d393      	bcc.n	8001f96 <findShorterWay+0xd0a>
					}
				}

				// Al final restamos uno al counter ya que de su lista salio un compaero
				counter--;
 800206e:	f507 53fb 	add.w	r3, r7, #8032	; 0x1f60
 8002072:	f103 030b 	add.w	r3, r3, #11
 8002076:	781b      	ldrb	r3, [r3, #0]
 8002078:	3b01      	subs	r3, #1
 800207a:	f507 52fb 	add.w	r2, r7, #8032	; 0x1f60
 800207e:	f102 020b 	add.w	r2, r2, #11
 8002082:	7013      	strb	r3, [r2, #0]

				//Colocamos en estado de open el nuevo estado a estudiar
				ptrChanges->posOpen[0] = ptrChanges->posAnalisis[0];
 8002084:	f507 53fc 	add.w	r3, r7, #8064	; 0x1f80
 8002088:	681b      	ldr	r3, [r3, #0]
 800208a:	689a      	ldr	r2, [r3, #8]
 800208c:	f507 53fc 	add.w	r3, r7, #8064	; 0x1f80
 8002090:	681b      	ldr	r3, [r3, #0]
 8002092:	611a      	str	r2, [r3, #16]
				ptrChanges->posOpen[1] = ptrChanges->posAnalisis[1];
 8002094:	f507 53fc 	add.w	r3, r7, #8064	; 0x1f80
 8002098:	681b      	ldr	r3, [r3, #0]
 800209a:	68da      	ldr	r2, [r3, #12]
 800209c:	f507 53fc 	add.w	r3, r7, #8064	; 0x1f80
 80020a0:	681b      	ldr	r3, [r3, #0]
 80020a2:	615a      	str	r2, [r3, #20]

				// Resetemos la bandera que nos indica si hay un valor de Fcost igual.
				ptrChanges->equalFcost = RESET;
 80020a4:	f507 53fc 	add.w	r3, r7, #8064	; 0x1f80
 80020a8:	681b      	ldr	r3, [r3, #0]
 80020aa:	2200      	movs	r2, #0
 80020ac:	f883 203c 	strb.w	r2, [r3, #60]	; 0x3c
 80020b0:	e124      	b.n	80022fc <findShorterWay+0x1070>

			}else{
				// Si estamos aqui es porque no hubo F costs iguales y se hara lo mismo que en el caso anterior solo que se tendra en cuenta
				// la posicion encontrada del Fcost mas pequeo, ya no del Hcost mas pequeo
				ptrChanges->posClosed[0] = ptrChanges->posAnalisis[0];
 80020b2:	f507 53fc 	add.w	r3, r7, #8064	; 0x1f80
 80020b6:	681b      	ldr	r3, [r3, #0]
 80020b8:	689a      	ldr	r2, [r3, #8]
 80020ba:	f507 53fc 	add.w	r3, r7, #8064	; 0x1f80
 80020be:	681b      	ldr	r3, [r3, #0]
 80020c0:	619a      	str	r2, [r3, #24]
				ptrChanges->posClosed[1] = ptrChanges->posAnalisis[1];
 80020c2:	f507 53fc 	add.w	r3, r7, #8064	; 0x1f80
 80020c6:	681b      	ldr	r3, [r3, #0]
 80020c8:	68da      	ldr	r2, [r3, #12]
 80020ca:	f507 53fc 	add.w	r3, r7, #8064	; 0x1f80
 80020ce:	681b      	ldr	r3, [r3, #0]
 80020d0:	61da      	str	r2, [r3, #28]

				// Convertimos el estado estudiado en un estado Done acualizando el redeableGrid, excepto cuando se trata del punto de start
				if (Gridcopy[ptrChanges->posAnalisis[0]][ptrChanges->posAnalisis[1]] == 's'){
 80020d2:	f507 53fc 	add.w	r3, r7, #8064	; 0x1f80
 80020d6:	681b      	ldr	r3, [r3, #0]
 80020d8:	689b      	ldr	r3, [r3, #8]
 80020da:	461a      	mov	r2, r3
 80020dc:	2334      	movs	r3, #52	; 0x34
 80020de:	fb02 f303 	mul.w	r3, r2, r3
 80020e2:	f507 6277 	add.w	r2, r7, #3952	; 0xf70
 80020e6:	f6a2 7268 	subw	r2, r2, #3944	; 0xf68
 80020ea:	6812      	ldr	r2, [r2, #0]
 80020ec:	441a      	add	r2, r3
 80020ee:	f507 53fc 	add.w	r3, r7, #8064	; 0x1f80
 80020f2:	681b      	ldr	r3, [r3, #0]
 80020f4:	68db      	ldr	r3, [r3, #12]
 80020f6:	5cd3      	ldrb	r3, [r2, r3]
 80020f8:	2b73      	cmp	r3, #115	; 0x73
 80020fa:	d101      	bne.n	8002100 <findShorterWay+0xe74>
					// Dejamos el char de start tal cual como esta
					__NOP();
 80020fc:	bf00      	nop
 80020fe:	e013      	b.n	8002128 <findShorterWay+0xe9c>
				}else{
					// Si no se trata del caracter de Start si actualizamos con el caracter de Done 'D'
					Gridcopy[ptrChanges->posAnalisis[0]][ptrChanges->posAnalisis[1]] = 'D';
 8002100:	f507 53fc 	add.w	r3, r7, #8064	; 0x1f80
 8002104:	681b      	ldr	r3, [r3, #0]
 8002106:	689b      	ldr	r3, [r3, #8]
 8002108:	461a      	mov	r2, r3
 800210a:	2334      	movs	r3, #52	; 0x34
 800210c:	fb02 f303 	mul.w	r3, r2, r3
 8002110:	f507 6277 	add.w	r2, r7, #3952	; 0xf70
 8002114:	f6a2 7268 	subw	r2, r2, #3944	; 0xf68
 8002118:	6812      	ldr	r2, [r2, #0]
 800211a:	441a      	add	r2, r3
 800211c:	f507 53fc 	add.w	r3, r7, #8064	; 0x1f80
 8002120:	681b      	ldr	r3, [r3, #0]
 8002122:	68db      	ldr	r3, [r3, #12]
 8002124:	2144      	movs	r1, #68	; 0x44
 8002126:	54d1      	strb	r1, [r2, r3]
				}

				//Actualizamos el punto de analisis con la posicion de la heuristica mas pequea, usando la matriz de decision entregamos la posicion
				// respectiva que contiene la caracteristica deseada
				ptrChanges->posAnalisis[0] = decisionMatrix[ptrChanges->lesserFcostPosition][2]; // Posicion i del valor de la Heuristica mas corta
 8002128:	f507 53fc 	add.w	r3, r7, #8064	; 0x1f80
 800212c:	681b      	ldr	r3, [r3, #0]
 800212e:	6b5b      	ldr	r3, [r3, #52]	; 0x34
 8002130:	f507 6277 	add.w	r2, r7, #3952	; 0xf70
 8002134:	f6a2 725c 	subw	r2, r2, #3932	; 0xf5c
 8002138:	011b      	lsls	r3, r3, #4
 800213a:	4413      	add	r3, r2
 800213c:	3308      	adds	r3, #8
 800213e:	edd3 7a00 	vldr	s15, [r3]
 8002142:	eefd 7ae7 	vcvt.s32.f32	s15, s15
 8002146:	ee17 2a90 	vmov	r2, s15
 800214a:	f507 53fc 	add.w	r3, r7, #8064	; 0x1f80
 800214e:	681b      	ldr	r3, [r3, #0]
 8002150:	609a      	str	r2, [r3, #8]
				ptrChanges->posAnalisis[1] = decisionMatrix[ptrChanges->lesserFcostPosition][3]; // Posicion j del valor de la heuristica mas corta
 8002152:	f507 53fc 	add.w	r3, r7, #8064	; 0x1f80
 8002156:	681b      	ldr	r3, [r3, #0]
 8002158:	6b5b      	ldr	r3, [r3, #52]	; 0x34
 800215a:	f507 6277 	add.w	r2, r7, #3952	; 0xf70
 800215e:	f6a2 725c 	subw	r2, r2, #3932	; 0xf5c
 8002162:	011b      	lsls	r3, r3, #4
 8002164:	4413      	add	r3, r2
 8002166:	330c      	adds	r3, #12
 8002168:	edd3 7a00 	vldr	s15, [r3]
 800216c:	eefd 7ae7 	vcvt.s32.f32	s15, s15
 8002170:	ee17 2a90 	vmov	r2, s15
 8002174:	f507 53fc 	add.w	r3, r7, #8064	; 0x1f80
 8002178:	681b      	ldr	r3, [r3, #0]
 800217a:	60da      	str	r2, [r3, #12]

				// Limpiamos la posicion de la matriz de decision ya que este punto pasa a ser un valor a estudiar, y debe de salir de la lista
				// de estados en Open
				for (i = 0 ; i < 4 ; i++){
 800217c:	2300      	movs	r3, #0
 800217e:	f507 52fb 	add.w	r2, r7, #8032	; 0x1f60
 8002182:	f102 020e 	add.w	r2, r2, #14
 8002186:	7013      	strb	r3, [r2, #0]
 8002188:	e01e      	b.n	80021c8 <findShorterWay+0xf3c>
					decisionMatrix[ptrChanges->lesserFcostPosition][i] = 0;
 800218a:	f507 53fc 	add.w	r3, r7, #8064	; 0x1f80
 800218e:	681b      	ldr	r3, [r3, #0]
 8002190:	6b59      	ldr	r1, [r3, #52]	; 0x34
 8002192:	f507 53fb 	add.w	r3, r7, #8032	; 0x1f60
 8002196:	f103 030e 	add.w	r3, r3, #14
 800219a:	781b      	ldrb	r3, [r3, #0]
 800219c:	f507 6277 	add.w	r2, r7, #3952	; 0xf70
 80021a0:	f6a2 725c 	subw	r2, r2, #3932	; 0xf5c
 80021a4:	0089      	lsls	r1, r1, #2
 80021a6:	440b      	add	r3, r1
 80021a8:	009b      	lsls	r3, r3, #2
 80021aa:	4413      	add	r3, r2
 80021ac:	f04f 0200 	mov.w	r2, #0
 80021b0:	601a      	str	r2, [r3, #0]
				for (i = 0 ; i < 4 ; i++){
 80021b2:	f507 53fb 	add.w	r3, r7, #8032	; 0x1f60
 80021b6:	f103 030e 	add.w	r3, r3, #14
 80021ba:	781b      	ldrb	r3, [r3, #0]
 80021bc:	3301      	adds	r3, #1
 80021be:	f507 52fb 	add.w	r2, r7, #8032	; 0x1f60
 80021c2:	f102 020e 	add.w	r2, r2, #14
 80021c6:	7013      	strb	r3, [r2, #0]
 80021c8:	f507 53fb 	add.w	r3, r7, #8032	; 0x1f60
 80021cc:	f103 030e 	add.w	r3, r3, #14
 80021d0:	781b      	ldrb	r3, [r3, #0]
 80021d2:	2b03      	cmp	r3, #3
 80021d4:	d9d9      	bls.n	800218a <findShorterWay+0xefe>
				}

				//solo queda mover las posiciones en estado de abierto para arriba para que ocupen el espacio que quedo

				for (i = ptrChanges->lesserFcostPosition + 1; i < counter ; i++ ){
 80021d6:	f507 53fc 	add.w	r3, r7, #8064	; 0x1f80
 80021da:	681b      	ldr	r3, [r3, #0]
 80021dc:	6b5b      	ldr	r3, [r3, #52]	; 0x34
 80021de:	b2db      	uxtb	r3, r3
 80021e0:	3301      	adds	r3, #1
 80021e2:	f507 52fb 	add.w	r2, r7, #8032	; 0x1f60
 80021e6:	f102 020e 	add.w	r2, r2, #14
 80021ea:	7013      	strb	r3, [r2, #0]
 80021ec:	e05f      	b.n	80022ae <findShorterWay+0x1022>
					for (j = 0 ; j < 4 ; j++){
 80021ee:	2300      	movs	r3, #0
 80021f0:	f507 52fb 	add.w	r2, r7, #8032	; 0x1f60
 80021f4:	f102 020d 	add.w	r2, r2, #13
 80021f8:	7013      	strb	r3, [r2, #0]
 80021fa:	e046      	b.n	800228a <findShorterWay+0xffe>
						// Mudamos los elementos de la posicion i a la posicion anterior
						decisionMatrix[i - 1][j] = decisionMatrix[i][j];
 80021fc:	f507 53fb 	add.w	r3, r7, #8032	; 0x1f60
 8002200:	f103 030e 	add.w	r3, r3, #14
 8002204:	781c      	ldrb	r4, [r3, #0]
 8002206:	f507 53fb 	add.w	r3, r7, #8032	; 0x1f60
 800220a:	f103 030d 	add.w	r3, r3, #13
 800220e:	781a      	ldrb	r2, [r3, #0]
 8002210:	f507 53fb 	add.w	r3, r7, #8032	; 0x1f60
 8002214:	f103 030e 	add.w	r3, r3, #14
 8002218:	781b      	ldrb	r3, [r3, #0]
 800221a:	1e58      	subs	r0, r3, #1
 800221c:	f507 53fb 	add.w	r3, r7, #8032	; 0x1f60
 8002220:	f103 030d 	add.w	r3, r3, #13
 8002224:	781b      	ldrb	r3, [r3, #0]
 8002226:	f507 6177 	add.w	r1, r7, #3952	; 0xf70
 800222a:	f6a1 715c 	subw	r1, r1, #3932	; 0xf5c
 800222e:	00a4      	lsls	r4, r4, #2
 8002230:	4422      	add	r2, r4
 8002232:	0092      	lsls	r2, r2, #2
 8002234:	440a      	add	r2, r1
 8002236:	6812      	ldr	r2, [r2, #0]
 8002238:	f507 6177 	add.w	r1, r7, #3952	; 0xf70
 800223c:	f6a1 715c 	subw	r1, r1, #3932	; 0xf5c
 8002240:	0080      	lsls	r0, r0, #2
 8002242:	4403      	add	r3, r0
 8002244:	009b      	lsls	r3, r3, #2
 8002246:	440b      	add	r3, r1
 8002248:	601a      	str	r2, [r3, #0]
						// Limpiamos la posicion que acabamos de mudar para mudar a la siguiente
						decisionMatrix[i][j] = 0;
 800224a:	f507 53fb 	add.w	r3, r7, #8032	; 0x1f60
 800224e:	f103 030e 	add.w	r3, r3, #14
 8002252:	7819      	ldrb	r1, [r3, #0]
 8002254:	f507 53fb 	add.w	r3, r7, #8032	; 0x1f60
 8002258:	f103 030d 	add.w	r3, r3, #13
 800225c:	781b      	ldrb	r3, [r3, #0]
 800225e:	f507 6277 	add.w	r2, r7, #3952	; 0xf70
 8002262:	f6a2 725c 	subw	r2, r2, #3932	; 0xf5c
 8002266:	0089      	lsls	r1, r1, #2
 8002268:	440b      	add	r3, r1
 800226a:	009b      	lsls	r3, r3, #2
 800226c:	4413      	add	r3, r2
 800226e:	f04f 0200 	mov.w	r2, #0
 8002272:	601a      	str	r2, [r3, #0]
					for (j = 0 ; j < 4 ; j++){
 8002274:	f507 53fb 	add.w	r3, r7, #8032	; 0x1f60
 8002278:	f103 030d 	add.w	r3, r3, #13
 800227c:	781b      	ldrb	r3, [r3, #0]
 800227e:	3301      	adds	r3, #1
 8002280:	f507 52fb 	add.w	r2, r7, #8032	; 0x1f60
 8002284:	f102 020d 	add.w	r2, r2, #13
 8002288:	7013      	strb	r3, [r2, #0]
 800228a:	f507 53fb 	add.w	r3, r7, #8032	; 0x1f60
 800228e:	f103 030d 	add.w	r3, r3, #13
 8002292:	781b      	ldrb	r3, [r3, #0]
 8002294:	2b03      	cmp	r3, #3
 8002296:	d9b1      	bls.n	80021fc <findShorterWay+0xf70>
				for (i = ptrChanges->lesserFcostPosition + 1; i < counter ; i++ ){
 8002298:	f507 53fb 	add.w	r3, r7, #8032	; 0x1f60
 800229c:	f103 030e 	add.w	r3, r3, #14
 80022a0:	781b      	ldrb	r3, [r3, #0]
 80022a2:	3301      	adds	r3, #1
 80022a4:	f507 52fb 	add.w	r2, r7, #8032	; 0x1f60
 80022a8:	f102 020e 	add.w	r2, r2, #14
 80022ac:	7013      	strb	r3, [r2, #0]
 80022ae:	f507 53fb 	add.w	r3, r7, #8032	; 0x1f60
 80022b2:	f103 030e 	add.w	r3, r3, #14
 80022b6:	781a      	ldrb	r2, [r3, #0]
 80022b8:	f507 53fb 	add.w	r3, r7, #8032	; 0x1f60
 80022bc:	f103 030b 	add.w	r3, r3, #11
 80022c0:	781b      	ldrb	r3, [r3, #0]
 80022c2:	429a      	cmp	r2, r3
 80022c4:	d393      	bcc.n	80021ee <findShorterWay+0xf62>
					}
				}

				// Al final restamos uno al counter ya que de su lista salio un compaero
				counter--;
 80022c6:	f507 53fb 	add.w	r3, r7, #8032	; 0x1f60
 80022ca:	f103 030b 	add.w	r3, r3, #11
 80022ce:	781b      	ldrb	r3, [r3, #0]
 80022d0:	3b01      	subs	r3, #1
 80022d2:	f507 52fb 	add.w	r2, r7, #8032	; 0x1f60
 80022d6:	f102 020b 	add.w	r2, r2, #11
 80022da:	7013      	strb	r3, [r2, #0]

				//Colocamos en estado de open el nuevo estado a estudiar
				ptrChanges->posOpen[0] = ptrChanges->posAnalisis[0];
 80022dc:	f507 53fc 	add.w	r3, r7, #8064	; 0x1f80
 80022e0:	681b      	ldr	r3, [r3, #0]
 80022e2:	689a      	ldr	r2, [r3, #8]
 80022e4:	f507 53fc 	add.w	r3, r7, #8064	; 0x1f80
 80022e8:	681b      	ldr	r3, [r3, #0]
 80022ea:	611a      	str	r2, [r3, #16]
				ptrChanges->posOpen[1] = ptrChanges->posAnalisis[1];
 80022ec:	f507 53fc 	add.w	r3, r7, #8064	; 0x1f80
 80022f0:	681b      	ldr	r3, [r3, #0]
 80022f2:	68da      	ldr	r2, [r3, #12]
 80022f4:	f507 53fc 	add.w	r3, r7, #8064	; 0x1f80
 80022f8:	681b      	ldr	r3, [r3, #0]
 80022fa:	615a      	str	r2, [r3, #20]

			}

			counterStudy++;
 80022fc:	f507 53fb 	add.w	r3, r7, #8032	; 0x1f60
 8002300:	f103 030a 	add.w	r3, r3, #10
 8002304:	781b      	ldrb	r3, [r3, #0]
 8002306:	3301      	adds	r3, #1
 8002308:	f507 52fb 	add.w	r2, r7, #8032	; 0x1f60
 800230c:	f102 020a 	add.w	r2, r2, #10
 8002310:	7013      	strb	r3, [r2, #0]
 8002312:	e091      	b.n	8002438 <findShorterWay+0x11ac>
    	}else{
			// Si el programa entra en esta condicion quiere decir que ya se encontro la ruta mas corta y ya es hora de construir la matriz de posiciones
			// donde se almacenara la ruta mas corta
			//buscamos cuantos elementos deberia de tener el arreglo para ello usaremos el siguiente while donde recorreremos desde el end hasta el
			//start
			i = ptrChanges->endPos[0];
 8002314:	f507 53fc 	add.w	r3, r7, #8064	; 0x1f80
 8002318:	681b      	ldr	r3, [r3, #0]
 800231a:	6adb      	ldr	r3, [r3, #44]	; 0x2c
 800231c:	f507 52fb 	add.w	r2, r7, #8032	; 0x1f60
 8002320:	f102 020e 	add.w	r2, r2, #14
 8002324:	7013      	strb	r3, [r2, #0]
			j = ptrChanges->endPos[1];
 8002326:	f507 53fc 	add.w	r3, r7, #8064	; 0x1f80
 800232a:	681b      	ldr	r3, [r3, #0]
 800232c:	6b1b      	ldr	r3, [r3, #48]	; 0x30
 800232e:	f507 52fb 	add.w	r2, r7, #8032	; 0x1f60
 8002332:	f102 020d 	add.w	r2, r2, #13
 8002336:	7013      	strb	r3, [r2, #0]
			while(Gridcopy[i][j] != 's'){
 8002338:	e068      	b.n	800240c <findShorterWay+0x1180>
				// Actualizamos a la nueva posicin
				position[0] = matrixCosts[i][j][3];
 800233a:	f507 53fb 	add.w	r3, r7, #8032	; 0x1f60
 800233e:	f103 030e 	add.w	r3, r3, #14
 8002342:	781b      	ldrb	r3, [r3, #0]
 8002344:	f44f 629c 	mov.w	r2, #1248	; 0x4e0
 8002348:	fb02 f303 	mul.w	r3, r2, r3
 800234c:	f507 6277 	add.w	r2, r7, #3952	; 0xf70
 8002350:	f6a2 726c 	subw	r2, r2, #3948	; 0xf6c
 8002354:	6812      	ldr	r2, [r2, #0]
 8002356:	18d1      	adds	r1, r2, r3
 8002358:	f507 53fb 	add.w	r3, r7, #8032	; 0x1f60
 800235c:	f103 030d 	add.w	r3, r3, #13
 8002360:	781a      	ldrb	r2, [r3, #0]
 8002362:	4613      	mov	r3, r2
 8002364:	005b      	lsls	r3, r3, #1
 8002366:	4413      	add	r3, r2
 8002368:	00db      	lsls	r3, r3, #3
 800236a:	440b      	add	r3, r1
 800236c:	330c      	adds	r3, #12
 800236e:	edd3 7a00 	vldr	s15, [r3]
 8002372:	eefd 7ae7 	vcvt.s32.f32	s15, s15
 8002376:	ee17 3a90 	vmov	r3, s15
 800237a:	f507 52fa 	add.w	r2, r7, #8000	; 0x1f40
 800237e:	f102 0214 	add.w	r2, r2, #20
 8002382:	6013      	str	r3, [r2, #0]
				position[1] = matrixCosts[i][j][4];
 8002384:	f507 53fb 	add.w	r3, r7, #8032	; 0x1f60
 8002388:	f103 030e 	add.w	r3, r3, #14
 800238c:	781b      	ldrb	r3, [r3, #0]
 800238e:	f44f 629c 	mov.w	r2, #1248	; 0x4e0
 8002392:	fb02 f303 	mul.w	r3, r2, r3
 8002396:	f507 6277 	add.w	r2, r7, #3952	; 0xf70
 800239a:	f6a2 726c 	subw	r2, r2, #3948	; 0xf6c
 800239e:	6812      	ldr	r2, [r2, #0]
 80023a0:	18d1      	adds	r1, r2, r3
 80023a2:	f507 53fb 	add.w	r3, r7, #8032	; 0x1f60
 80023a6:	f103 030d 	add.w	r3, r3, #13
 80023aa:	781a      	ldrb	r2, [r3, #0]
 80023ac:	4613      	mov	r3, r2
 80023ae:	005b      	lsls	r3, r3, #1
 80023b0:	4413      	add	r3, r2
 80023b2:	00db      	lsls	r3, r3, #3
 80023b4:	440b      	add	r3, r1
 80023b6:	3310      	adds	r3, #16
 80023b8:	edd3 7a00 	vldr	s15, [r3]
 80023bc:	eefd 7ae7 	vcvt.s32.f32	s15, s15
 80023c0:	ee17 3a90 	vmov	r3, s15
 80023c4:	f507 52fa 	add.w	r2, r7, #8000	; 0x1f40
 80023c8:	f102 0218 	add.w	r2, r2, #24
 80023cc:	6013      	str	r3, [r2, #0]

				// actualizamos la nueva posicin
				i = position[0];
 80023ce:	f507 53fa 	add.w	r3, r7, #8000	; 0x1f40
 80023d2:	f103 0314 	add.w	r3, r3, #20
 80023d6:	681b      	ldr	r3, [r3, #0]
 80023d8:	f507 52fb 	add.w	r2, r7, #8032	; 0x1f60
 80023dc:	f102 020e 	add.w	r2, r2, #14
 80023e0:	7013      	strb	r3, [r2, #0]
				j = position[1];
 80023e2:	f507 53fa 	add.w	r3, r7, #8000	; 0x1f40
 80023e6:	f103 0318 	add.w	r3, r3, #24
 80023ea:	681b      	ldr	r3, [r3, #0]
 80023ec:	f507 52fb 	add.w	r2, r7, #8032	; 0x1f60
 80023f0:	f102 020d 	add.w	r2, r2, #13
 80023f4:	7013      	strb	r3, [r2, #0]

				// incrementamos en uno la cantidad de posiciones a guardar
				numberOfPositions++;
 80023f6:	f507 53fb 	add.w	r3, r7, #8032	; 0x1f60
 80023fa:	f103 030c 	add.w	r3, r3, #12
 80023fe:	781b      	ldrb	r3, [r3, #0]
 8002400:	3301      	adds	r3, #1
 8002402:	f507 52fb 	add.w	r2, r7, #8032	; 0x1f60
 8002406:	f102 020c 	add.w	r2, r2, #12
 800240a:	7013      	strb	r3, [r2, #0]
			while(Gridcopy[i][j] != 's'){
 800240c:	f507 53fb 	add.w	r3, r7, #8032	; 0x1f60
 8002410:	f103 030e 	add.w	r3, r3, #14
 8002414:	781b      	ldrb	r3, [r3, #0]
 8002416:	2234      	movs	r2, #52	; 0x34
 8002418:	fb02 f303 	mul.w	r3, r2, r3
 800241c:	f507 6277 	add.w	r2, r7, #3952	; 0xf70
 8002420:	f6a2 7268 	subw	r2, r2, #3944	; 0xf68
 8002424:	6812      	ldr	r2, [r2, #0]
 8002426:	441a      	add	r2, r3
 8002428:	f507 53fb 	add.w	r3, r7, #8032	; 0x1f60
 800242c:	f103 030d 	add.w	r3, r3, #13
 8002430:	781b      	ldrb	r3, [r3, #0]
 8002432:	5cd3      	ldrb	r3, [r2, r3]
 8002434:	2b73      	cmp	r3, #115	; 0x73
 8002436:	d180      	bne.n	800233a <findShorterWay+0x10ae>
    while(!shorterWayFound){
 8002438:	f507 53fb 	add.w	r3, r7, #8032	; 0x1f60
 800243c:	f103 030f 	add.w	r3, r3, #15
 8002440:	781b      	ldrb	r3, [r3, #0]
 8002442:	2b00      	cmp	r3, #0
 8002444:	f43e aff9 	beq.w	800143a <findShorterWay+0x1ae>
		}


    }// final del ciclo While

    writeMsg(&handlerAstarUsart, "\n___________Hemos Encontrado la ruta mas corta______________\n");
 8002448:	49a4      	ldr	r1, [pc, #656]	; (80026dc <findShorterWay+0x1450>)
 800244a:	48a5      	ldr	r0, [pc, #660]	; (80026e0 <findShorterWay+0x1454>)
 800244c:	f001 ffd2 	bl	80043f4 <writeMsg>
    writeChar(&handlerAstarUsart, '\r');
 8002450:	210d      	movs	r1, #13
 8002452:	48a3      	ldr	r0, [pc, #652]	; (80026e0 <findShorterWay+0x1454>)
 8002454:	f001 ffb6 	bl	80043c4 <writeChar>

    // estando aqui ya solo queda almacenar toda las posiciones parent comenzando desde el end hasta el start, siguendo el parent de cada uno se asegura
    // que lo que se esta almacenando es la ruta mas corta

    //Almacenamos dentro de una de las variables del arreglo AStar_distancesHandler la cantidad de elementos que tiene la matriz de la ruta mas corta
    parameters->numberOfElements = numberOfPositions + 1 ; // Le sumamos uno mas para incluir el punto de inicio
 8002458:	f507 53fb 	add.w	r3, r7, #8032	; 0x1f60
 800245c:	f103 030c 	add.w	r3, r3, #12
 8002460:	781b      	ldrb	r3, [r3, #0]
 8002462:	3301      	adds	r3, #1
 8002464:	b2da      	uxtb	r2, r3
 8002466:	f507 6377 	add.w	r3, r7, #3952	; 0xf70
 800246a:	f5a3 6377 	sub.w	r3, r3, #3952	; 0xf70
 800246e:	681b      	ldr	r3, [r3, #0]
 8002470:	729a      	strb	r2, [r3, #10]


    i = ptrChanges->endPos[0];
 8002472:	f507 53fc 	add.w	r3, r7, #8064	; 0x1f80
 8002476:	681b      	ldr	r3, [r3, #0]
 8002478:	6adb      	ldr	r3, [r3, #44]	; 0x2c
 800247a:	f507 52fb 	add.w	r2, r7, #8032	; 0x1f60
 800247e:	f102 020e 	add.w	r2, r2, #14
 8002482:	7013      	strb	r3, [r2, #0]
	j = ptrChanges->endPos[1];
 8002484:	f507 53fc 	add.w	r3, r7, #8064	; 0x1f80
 8002488:	681b      	ldr	r3, [r3, #0]
 800248a:	6b1b      	ldr	r3, [r3, #48]	; 0x30
 800248c:	f507 52fb 	add.w	r2, r7, #8032	; 0x1f60
 8002490:	f102 020d 	add.w	r2, r2, #13
 8002494:	7013      	strb	r3, [r2, #0]

    // Recorremos la matriz e iremos almacenando dentro de este comenzando desde la posicion final y terminando en la posicion inicial
    for (uint8_t  k = 0 ; k < numberOfPositions + 1 ; k++){
 8002496:	2300      	movs	r3, #0
 8002498:	f507 52fb 	add.w	r2, r7, #8032	; 0x1f60
 800249c:	f102 0208 	add.w	r2, r2, #8
 80024a0:	7013      	strb	r3, [r2, #0]
 80024a2:	e0d1      	b.n	8002648 <findShorterWay+0x13bc>
    	//Cambiamos la matriz redeableGrid, las posiciones que corresponden a la ruta mas corta por un char 'I',
    	if (Gridcopy[i][j] == 'e'){
 80024a4:	f507 53fb 	add.w	r3, r7, #8032	; 0x1f60
 80024a8:	f103 030e 	add.w	r3, r3, #14
 80024ac:	781b      	ldrb	r3, [r3, #0]
 80024ae:	2234      	movs	r2, #52	; 0x34
 80024b0:	fb02 f303 	mul.w	r3, r2, r3
 80024b4:	f507 6277 	add.w	r2, r7, #3952	; 0xf70
 80024b8:	f6a2 7268 	subw	r2, r2, #3944	; 0xf68
 80024bc:	6812      	ldr	r2, [r2, #0]
 80024be:	441a      	add	r2, r3
 80024c0:	f507 53fb 	add.w	r3, r7, #8032	; 0x1f60
 80024c4:	f103 030d 	add.w	r3, r3, #13
 80024c8:	781b      	ldrb	r3, [r3, #0]
 80024ca:	5cd3      	ldrb	r3, [r2, r3]
 80024cc:	2b65      	cmp	r3, #101	; 0x65
 80024ce:	d101      	bne.n	80024d4 <findShorterWay+0x1248>
    		// Si estamos aqui es porque no queremos cambiar el char de finalizacin
    		__NOP();
 80024d0:	bf00      	nop
 80024d2:	e02c      	b.n	800252e <findShorterWay+0x12a2>
    	}else if (Gridcopy[i][j] == 's'){
 80024d4:	f507 53fb 	add.w	r3, r7, #8032	; 0x1f60
 80024d8:	f103 030e 	add.w	r3, r3, #14
 80024dc:	781b      	ldrb	r3, [r3, #0]
 80024de:	2234      	movs	r2, #52	; 0x34
 80024e0:	fb02 f303 	mul.w	r3, r2, r3
 80024e4:	f507 6277 	add.w	r2, r7, #3952	; 0xf70
 80024e8:	f6a2 7268 	subw	r2, r2, #3944	; 0xf68
 80024ec:	6812      	ldr	r2, [r2, #0]
 80024ee:	441a      	add	r2, r3
 80024f0:	f507 53fb 	add.w	r3, r7, #8032	; 0x1f60
 80024f4:	f103 030d 	add.w	r3, r3, #13
 80024f8:	781b      	ldrb	r3, [r3, #0]
 80024fa:	5cd3      	ldrb	r3, [r2, r3]
 80024fc:	2b73      	cmp	r3, #115	; 0x73
 80024fe:	d101      	bne.n	8002504 <findShorterWay+0x1278>
    		// Si estamos aqui es porque no queremos cambiar el char de inicio
    		__NOP();
 8002500:	bf00      	nop
 8002502:	e014      	b.n	800252e <findShorterWay+0x12a2>
    	}else{
    		// Si estamos aqui es porque estamos dentro del camino a seguir, por lo cambiamos a una 'I'
    		Gridcopy[i][j] = 'I';
 8002504:	f507 53fb 	add.w	r3, r7, #8032	; 0x1f60
 8002508:	f103 030e 	add.w	r3, r3, #14
 800250c:	781b      	ldrb	r3, [r3, #0]
 800250e:	2234      	movs	r2, #52	; 0x34
 8002510:	fb02 f303 	mul.w	r3, r2, r3
 8002514:	f507 6277 	add.w	r2, r7, #3952	; 0xf70
 8002518:	f6a2 7268 	subw	r2, r2, #3944	; 0xf68
 800251c:	6812      	ldr	r2, [r2, #0]
 800251e:	441a      	add	r2, r3
 8002520:	f507 53fb 	add.w	r3, r7, #8032	; 0x1f60
 8002524:	f103 030d 	add.w	r3, r3, #13
 8002528:	781b      	ldrb	r3, [r3, #0]
 800252a:	2149      	movs	r1, #73	; 0x49
 800252c:	54d1      	strb	r1, [r2, r3]
    	}


    	// Almacenamos en la matriz de ruta mas corta
		shorterWay[k][0] = i;
 800252e:	f507 53fb 	add.w	r3, r7, #8032	; 0x1f60
 8002532:	f103 0308 	add.w	r3, r3, #8
 8002536:	781b      	ldrb	r3, [r3, #0]
 8002538:	00db      	lsls	r3, r3, #3
 800253a:	f507 52fc 	add.w	r2, r7, #8064	; 0x1f80
 800253e:	f102 0204 	add.w	r2, r2, #4
 8002542:	6812      	ldr	r2, [r2, #0]
 8002544:	4413      	add	r3, r2
 8002546:	f507 52fb 	add.w	r2, r7, #8032	; 0x1f60
 800254a:	f102 020e 	add.w	r2, r2, #14
 800254e:	7812      	ldrb	r2, [r2, #0]
 8002550:	601a      	str	r2, [r3, #0]
		shorterWay[k][1] = j;
 8002552:	f507 53fb 	add.w	r3, r7, #8032	; 0x1f60
 8002556:	f103 0308 	add.w	r3, r3, #8
 800255a:	781b      	ldrb	r3, [r3, #0]
 800255c:	00db      	lsls	r3, r3, #3
 800255e:	f507 52fc 	add.w	r2, r7, #8064	; 0x1f80
 8002562:	f102 0204 	add.w	r2, r2, #4
 8002566:	6812      	ldr	r2, [r2, #0]
 8002568:	4413      	add	r3, r2
 800256a:	f507 52fb 	add.w	r2, r7, #8032	; 0x1f60
 800256e:	f102 020d 	add.w	r2, r2, #13
 8002572:	7812      	ldrb	r2, [r2, #0]
 8002574:	605a      	str	r2, [r3, #4]

    	// comenzamos almacenando las posiciones en orden desde el final al punto inicial
		// Actualizamos a la nueva posicin
		position[0] = matrixCosts[i][j][3];
 8002576:	f507 53fb 	add.w	r3, r7, #8032	; 0x1f60
 800257a:	f103 030e 	add.w	r3, r3, #14
 800257e:	781b      	ldrb	r3, [r3, #0]
 8002580:	f44f 629c 	mov.w	r2, #1248	; 0x4e0
 8002584:	fb02 f303 	mul.w	r3, r2, r3
 8002588:	f507 6277 	add.w	r2, r7, #3952	; 0xf70
 800258c:	f6a2 726c 	subw	r2, r2, #3948	; 0xf6c
 8002590:	6812      	ldr	r2, [r2, #0]
 8002592:	18d1      	adds	r1, r2, r3
 8002594:	f507 53fb 	add.w	r3, r7, #8032	; 0x1f60
 8002598:	f103 030d 	add.w	r3, r3, #13
 800259c:	781a      	ldrb	r2, [r3, #0]
 800259e:	4613      	mov	r3, r2
 80025a0:	005b      	lsls	r3, r3, #1
 80025a2:	4413      	add	r3, r2
 80025a4:	00db      	lsls	r3, r3, #3
 80025a6:	440b      	add	r3, r1
 80025a8:	330c      	adds	r3, #12
 80025aa:	edd3 7a00 	vldr	s15, [r3]
 80025ae:	eefd 7ae7 	vcvt.s32.f32	s15, s15
 80025b2:	ee17 3a90 	vmov	r3, s15
 80025b6:	f507 52fa 	add.w	r2, r7, #8000	; 0x1f40
 80025ba:	f102 0214 	add.w	r2, r2, #20
 80025be:	6013      	str	r3, [r2, #0]
		position[1] = matrixCosts[i][j][4];
 80025c0:	f507 53fb 	add.w	r3, r7, #8032	; 0x1f60
 80025c4:	f103 030e 	add.w	r3, r3, #14
 80025c8:	781b      	ldrb	r3, [r3, #0]
 80025ca:	f44f 629c 	mov.w	r2, #1248	; 0x4e0
 80025ce:	fb02 f303 	mul.w	r3, r2, r3
 80025d2:	f507 6277 	add.w	r2, r7, #3952	; 0xf70
 80025d6:	f6a2 726c 	subw	r2, r2, #3948	; 0xf6c
 80025da:	6812      	ldr	r2, [r2, #0]
 80025dc:	18d1      	adds	r1, r2, r3
 80025de:	f507 53fb 	add.w	r3, r7, #8032	; 0x1f60
 80025e2:	f103 030d 	add.w	r3, r3, #13
 80025e6:	781a      	ldrb	r2, [r3, #0]
 80025e8:	4613      	mov	r3, r2
 80025ea:	005b      	lsls	r3, r3, #1
 80025ec:	4413      	add	r3, r2
 80025ee:	00db      	lsls	r3, r3, #3
 80025f0:	440b      	add	r3, r1
 80025f2:	3310      	adds	r3, #16
 80025f4:	edd3 7a00 	vldr	s15, [r3]
 80025f8:	eefd 7ae7 	vcvt.s32.f32	s15, s15
 80025fc:	ee17 3a90 	vmov	r3, s15
 8002600:	f507 52fa 	add.w	r2, r7, #8000	; 0x1f40
 8002604:	f102 0218 	add.w	r2, r2, #24
 8002608:	6013      	str	r3, [r2, #0]

		// actualizamos la nueva posicin
		i = position[0];
 800260a:	f507 53fa 	add.w	r3, r7, #8000	; 0x1f40
 800260e:	f103 0314 	add.w	r3, r3, #20
 8002612:	681b      	ldr	r3, [r3, #0]
 8002614:	f507 52fb 	add.w	r2, r7, #8032	; 0x1f60
 8002618:	f102 020e 	add.w	r2, r2, #14
 800261c:	7013      	strb	r3, [r2, #0]
		j = position[1];
 800261e:	f507 53fa 	add.w	r3, r7, #8000	; 0x1f40
 8002622:	f103 0318 	add.w	r3, r3, #24
 8002626:	681b      	ldr	r3, [r3, #0]
 8002628:	f507 52fb 	add.w	r2, r7, #8032	; 0x1f60
 800262c:	f102 020d 	add.w	r2, r2, #13
 8002630:	7013      	strb	r3, [r2, #0]
    for (uint8_t  k = 0 ; k < numberOfPositions + 1 ; k++){
 8002632:	f507 53fb 	add.w	r3, r7, #8032	; 0x1f60
 8002636:	f103 0308 	add.w	r3, r3, #8
 800263a:	781b      	ldrb	r3, [r3, #0]
 800263c:	3301      	adds	r3, #1
 800263e:	f507 52fb 	add.w	r2, r7, #8032	; 0x1f60
 8002642:	f102 0208 	add.w	r2, r2, #8
 8002646:	7013      	strb	r3, [r2, #0]
 8002648:	f507 53fb 	add.w	r3, r7, #8032	; 0x1f60
 800264c:	f103 030c 	add.w	r3, r3, #12
 8002650:	781a      	ldrb	r2, [r3, #0]
 8002652:	f507 53fb 	add.w	r3, r7, #8032	; 0x1f60
 8002656:	f103 0308 	add.w	r3, r3, #8
 800265a:	781b      	ldrb	r3, [r3, #0]
 800265c:	429a      	cmp	r2, r3
 800265e:	f4bf af21 	bcs.w	80024a4 <findShorterWay+0x1218>


    }
	// Imprimimos el estado actual de la matriz copia
	for (uint8_t i = 0; i< parameters->numberOfRows; i++){
 8002662:	2300      	movs	r3, #0
 8002664:	f507 52fb 	add.w	r2, r7, #8032	; 0x1f60
 8002668:	f102 0207 	add.w	r2, r2, #7
 800266c:	7013      	strb	r3, [r2, #0]
 800266e:	e01c      	b.n	80026aa <findShorterWay+0x141e>
			writeMsg(&handlerAstarUsart, Gridcopy[i]);
 8002670:	f507 53fb 	add.w	r3, r7, #8032	; 0x1f60
 8002674:	f103 0307 	add.w	r3, r3, #7
 8002678:	781b      	ldrb	r3, [r3, #0]
 800267a:	2234      	movs	r2, #52	; 0x34
 800267c:	fb02 f303 	mul.w	r3, r2, r3
 8002680:	f507 6277 	add.w	r2, r7, #3952	; 0xf70
 8002684:	f6a2 7268 	subw	r2, r2, #3944	; 0xf68
 8002688:	6812      	ldr	r2, [r2, #0]
 800268a:	4413      	add	r3, r2
 800268c:	4619      	mov	r1, r3
 800268e:	4814      	ldr	r0, [pc, #80]	; (80026e0 <findShorterWay+0x1454>)
 8002690:	f001 feb0 	bl	80043f4 <writeMsg>
	for (uint8_t i = 0; i< parameters->numberOfRows; i++){
 8002694:	f507 53fb 	add.w	r3, r7, #8032	; 0x1f60
 8002698:	f103 0307 	add.w	r3, r3, #7
 800269c:	781b      	ldrb	r3, [r3, #0]
 800269e:	3301      	adds	r3, #1
 80026a0:	f507 52fb 	add.w	r2, r7, #8032	; 0x1f60
 80026a4:	f102 0207 	add.w	r2, r2, #7
 80026a8:	7013      	strb	r3, [r2, #0]
 80026aa:	f507 6377 	add.w	r3, r7, #3952	; 0xf70
 80026ae:	f5a3 6377 	sub.w	r3, r3, #3952	; 0xf70
 80026b2:	681b      	ldr	r3, [r3, #0]
 80026b4:	7a1b      	ldrb	r3, [r3, #8]
 80026b6:	f507 52fb 	add.w	r2, r7, #8032	; 0x1f60
 80026ba:	f102 0207 	add.w	r2, r2, #7
 80026be:	7812      	ldrb	r2, [r2, #0]
 80026c0:	429a      	cmp	r2, r3
 80026c2:	d3d5      	bcc.n	8002670 <findShorterWay+0x13e4>

    // A partir de aqui habremos logrado despues de un largo camino hallar la ruta mas corta entre dos puntos , el robot ya con esa informacion
    // sabra hacia donde moverse y cuanto moverse

    // Si llegamos hasta aca, con exito hemos logrado todo lo cometido, Felicidades!
    writeMsg(&handlerAstarUsart, "\n_______________Gracias por viajar con nuestra linea Astarlines____________________\n");
 80026c4:	4907      	ldr	r1, [pc, #28]	; (80026e4 <findShorterWay+0x1458>)
 80026c6:	4806      	ldr	r0, [pc, #24]	; (80026e0 <findShorterWay+0x1454>)
 80026c8:	f001 fe94 	bl	80043f4 <writeMsg>

    return 1;
 80026cc:	2301      	movs	r3, #1


}
 80026ce:	4618      	mov	r0, r3
 80026d0:	f507 57fb 	add.w	r7, r7, #8032	; 0x1f60
 80026d4:	3714      	adds	r7, #20
 80026d6:	46bd      	mov	sp, r7
 80026d8:	bd90      	pop	{r4, r7, pc}
 80026da:	bf00      	nop
 80026dc:	08008d70 	.word	0x08008d70
 80026e0:	20000e58 	.word	0x20000e58
 80026e4:	08008db0 	.word	0x08008db0

080026e8 <updateParent>:

// esta funcion actuazliza en la matriz de costs el parent correspondiente
void updateParent(costChangesAndPos_t *ptrChanges, int posIJ[2], float matrixCosts[52][52][6]){
 80026e8:	b580      	push	{r7, lr}
 80026ea:	b084      	sub	sp, #16
 80026ec:	af00      	add	r7, sp, #0
 80026ee:	60f8      	str	r0, [r7, #12]
 80026f0:	60b9      	str	r1, [r7, #8]
 80026f2:	607a      	str	r2, [r7, #4]

	setParents(ptrChanges, posIJ);
 80026f4:	68b9      	ldr	r1, [r7, #8]
 80026f6:	68f8      	ldr	r0, [r7, #12]
 80026f8:	f000 fa9a 	bl	8002c30 <setParents>

	matrixCosts[ptrChanges->posAnalisis[0] + posIJ[0] - 1][ptrChanges->posAnalisis[1] + posIJ[1] - 1][3] = ptrChanges->parent[0]; //Posicion i del parent
 80026fc:	68fb      	ldr	r3, [r7, #12]
 80026fe:	f893 3020 	ldrb.w	r3, [r3, #32]
 8002702:	b2d8      	uxtb	r0, r3
 8002704:	68fb      	ldr	r3, [r7, #12]
 8002706:	689a      	ldr	r2, [r3, #8]
 8002708:	68bb      	ldr	r3, [r7, #8]
 800270a:	681b      	ldr	r3, [r3, #0]
 800270c:	4413      	add	r3, r2
 800270e:	461a      	mov	r2, r3
 8002710:	f44f 639c 	mov.w	r3, #1248	; 0x4e0
 8002714:	fb02 f303 	mul.w	r3, r2, r3
 8002718:	f5a3 639c 	sub.w	r3, r3, #1248	; 0x4e0
 800271c:	687a      	ldr	r2, [r7, #4]
 800271e:	18d1      	adds	r1, r2, r3
 8002720:	68fb      	ldr	r3, [r7, #12]
 8002722:	68da      	ldr	r2, [r3, #12]
 8002724:	68bb      	ldr	r3, [r7, #8]
 8002726:	3304      	adds	r3, #4
 8002728:	681b      	ldr	r3, [r3, #0]
 800272a:	4413      	add	r3, r2
 800272c:	1e5a      	subs	r2, r3, #1
 800272e:	ee07 0a90 	vmov	s15, r0
 8002732:	eef8 7a67 	vcvt.f32.u32	s15, s15
 8002736:	4613      	mov	r3, r2
 8002738:	005b      	lsls	r3, r3, #1
 800273a:	4413      	add	r3, r2
 800273c:	00db      	lsls	r3, r3, #3
 800273e:	440b      	add	r3, r1
 8002740:	330c      	adds	r3, #12
 8002742:	edc3 7a00 	vstr	s15, [r3]
	matrixCosts[ptrChanges->posAnalisis[0] + posIJ[0] - 1][ptrChanges->posAnalisis[1] + posIJ[1] - 1][4] = ptrChanges->parent[1]; //Posicion j del parent
 8002746:	68fb      	ldr	r3, [r7, #12]
 8002748:	f893 3021 	ldrb.w	r3, [r3, #33]	; 0x21
 800274c:	b2d8      	uxtb	r0, r3
 800274e:	68fb      	ldr	r3, [r7, #12]
 8002750:	689a      	ldr	r2, [r3, #8]
 8002752:	68bb      	ldr	r3, [r7, #8]
 8002754:	681b      	ldr	r3, [r3, #0]
 8002756:	4413      	add	r3, r2
 8002758:	461a      	mov	r2, r3
 800275a:	f44f 639c 	mov.w	r3, #1248	; 0x4e0
 800275e:	fb02 f303 	mul.w	r3, r2, r3
 8002762:	f5a3 639c 	sub.w	r3, r3, #1248	; 0x4e0
 8002766:	687a      	ldr	r2, [r7, #4]
 8002768:	18d1      	adds	r1, r2, r3
 800276a:	68fb      	ldr	r3, [r7, #12]
 800276c:	68da      	ldr	r2, [r3, #12]
 800276e:	68bb      	ldr	r3, [r7, #8]
 8002770:	3304      	adds	r3, #4
 8002772:	681b      	ldr	r3, [r3, #0]
 8002774:	4413      	add	r3, r2
 8002776:	1e5a      	subs	r2, r3, #1
 8002778:	ee07 0a90 	vmov	s15, r0
 800277c:	eef8 7a67 	vcvt.f32.u32	s15, s15
 8002780:	4613      	mov	r3, r2
 8002782:	005b      	lsls	r3, r3, #1
 8002784:	4413      	add	r3, r2
 8002786:	00db      	lsls	r3, r3, #3
 8002788:	440b      	add	r3, r1
 800278a:	3310      	adds	r3, #16
 800278c:	edc3 7a00 	vstr	s15, [r3]

}
 8002790:	bf00      	nop
 8002792:	3710      	adds	r7, #16
 8002794:	46bd      	mov	sp, r7
 8002796:	bd80      	pop	{r7, pc}

08002798 <updateGcost>:

// esta funcion actualiz el Gcost correspondiente
void updateGcost(AStar_distancesHandler *parameters, costChangesAndPos_t *ptrChanges, int posIJ[2], float matrixCosts[52][52][6] ){
 8002798:	b5b0      	push	{r4, r5, r7, lr}
 800279a:	b084      	sub	sp, #16
 800279c:	af00      	add	r7, sp, #0
 800279e:	60f8      	str	r0, [r7, #12]
 80027a0:	60b9      	str	r1, [r7, #8]
 80027a2:	607a      	str	r2, [r7, #4]
 80027a4:	603b      	str	r3, [r7, #0]
	//Por ultimo se setea en la pisicion de la heuristica correspondiente a la matriz ultima de la super matriz
	// de costos
	matrixCosts[ptrChanges->posAnalisis[0] + posIJ[0] -1][ptrChanges->posAnalisis[1] + posIJ[1] -1][0] = setGcost(parameters, ptrChanges, posIJ);
 80027a6:	68bb      	ldr	r3, [r7, #8]
 80027a8:	689a      	ldr	r2, [r3, #8]
 80027aa:	687b      	ldr	r3, [r7, #4]
 80027ac:	681b      	ldr	r3, [r3, #0]
 80027ae:	4413      	add	r3, r2
 80027b0:	461a      	mov	r2, r3
 80027b2:	f44f 639c 	mov.w	r3, #1248	; 0x4e0
 80027b6:	fb02 f303 	mul.w	r3, r2, r3
 80027ba:	f5a3 639c 	sub.w	r3, r3, #1248	; 0x4e0
 80027be:	683a      	ldr	r2, [r7, #0]
 80027c0:	18d5      	adds	r5, r2, r3
 80027c2:	68bb      	ldr	r3, [r7, #8]
 80027c4:	68da      	ldr	r2, [r3, #12]
 80027c6:	687b      	ldr	r3, [r7, #4]
 80027c8:	3304      	adds	r3, #4
 80027ca:	681b      	ldr	r3, [r3, #0]
 80027cc:	4413      	add	r3, r2
 80027ce:	1e5c      	subs	r4, r3, #1
 80027d0:	687a      	ldr	r2, [r7, #4]
 80027d2:	68b9      	ldr	r1, [r7, #8]
 80027d4:	68f8      	ldr	r0, [r7, #12]
 80027d6:	f000 f905 	bl	80029e4 <setGcost>
 80027da:	eef0 7a40 	vmov.f32	s15, s0
 80027de:	4623      	mov	r3, r4
 80027e0:	005b      	lsls	r3, r3, #1
 80027e2:	4423      	add	r3, r4
 80027e4:	00db      	lsls	r3, r3, #3
 80027e6:	442b      	add	r3, r5
 80027e8:	edc3 7a00 	vstr	s15, [r3]
}
 80027ec:	bf00      	nop
 80027ee:	3710      	adds	r7, #16
 80027f0:	46bd      	mov	sp, r7
 80027f2:	bdb0      	pop	{r4, r5, r7, pc}

080027f4 <updateFcost>:

// Esta funcin actualiza el Fcost correspondiente
void updateFcost(AStar_distancesHandler *parameters ,costChangesAndPos_t *ptrChanges, int posIJ[2], float matrixCosts[52][52][6] ){
 80027f4:	b5b0      	push	{r4, r5, r7, lr}
 80027f6:	b084      	sub	sp, #16
 80027f8:	af00      	add	r7, sp, #0
 80027fa:	60f8      	str	r0, [r7, #12]
 80027fc:	60b9      	str	r1, [r7, #8]
 80027fe:	607a      	str	r2, [r7, #4]
 8002800:	603b      	str	r3, [r7, #0]
	//Por ultimo se setea en la pisicion de la heuristica correspondiente a la matriz ultima de la super matriz
	// de costos
	matrixCosts[ptrChanges->posAnalisis[0] + posIJ[0] -1][ptrChanges->posAnalisis[1] + posIJ[1] -1][1] = setFcost(parameters, ptrChanges, posIJ, matrixCosts);
 8002802:	68bb      	ldr	r3, [r7, #8]
 8002804:	689a      	ldr	r2, [r3, #8]
 8002806:	687b      	ldr	r3, [r7, #4]
 8002808:	681b      	ldr	r3, [r3, #0]
 800280a:	4413      	add	r3, r2
 800280c:	461a      	mov	r2, r3
 800280e:	f44f 639c 	mov.w	r3, #1248	; 0x4e0
 8002812:	fb02 f303 	mul.w	r3, r2, r3
 8002816:	f5a3 639c 	sub.w	r3, r3, #1248	; 0x4e0
 800281a:	683a      	ldr	r2, [r7, #0]
 800281c:	18d5      	adds	r5, r2, r3
 800281e:	68bb      	ldr	r3, [r7, #8]
 8002820:	68da      	ldr	r2, [r3, #12]
 8002822:	687b      	ldr	r3, [r7, #4]
 8002824:	3304      	adds	r3, #4
 8002826:	681b      	ldr	r3, [r3, #0]
 8002828:	4413      	add	r3, r2
 800282a:	1e5c      	subs	r4, r3, #1
 800282c:	683b      	ldr	r3, [r7, #0]
 800282e:	687a      	ldr	r2, [r7, #4]
 8002830:	68b9      	ldr	r1, [r7, #8]
 8002832:	68f8      	ldr	r0, [r7, #12]
 8002834:	f000 f9bd 	bl	8002bb2 <setFcost>
 8002838:	eef0 7a40 	vmov.f32	s15, s0
 800283c:	4623      	mov	r3, r4
 800283e:	005b      	lsls	r3, r3, #1
 8002840:	4423      	add	r3, r4
 8002842:	00db      	lsls	r3, r3, #3
 8002844:	442b      	add	r3, r5
 8002846:	3304      	adds	r3, #4
 8002848:	edc3 7a00 	vstr	s15, [r3]

}
 800284c:	bf00      	nop
 800284e:	3710      	adds	r7, #16
 8002850:	46bd      	mov	sp, r7
 8002852:	bdb0      	pop	{r4, r5, r7, pc}

08002854 <setHeuristic>:

// con esta funcion seteamos la matriz Heuristica con la cual usaremos la info para buscar la ruta mas corta
int setHeuristic(AStar_distancesHandler *parameters, costChangesAndPos_t *ptrChanges, float matrixCosts[52][52][6] , char Gridcopy[52][52]){
 8002854:	b580      	push	{r7, lr}
 8002856:	b088      	sub	sp, #32
 8002858:	af00      	add	r7, sp, #0
 800285a:	60f8      	str	r0, [r7, #12]
 800285c:	60b9      	str	r1, [r7, #8]
 800285e:	607a      	str	r2, [r7, #4]
 8002860:	603b      	str	r3, [r7, #0]

	// definimos variables locales
	int distRows     = 0;
 8002862:	2300      	movs	r3, #0
 8002864:	61bb      	str	r3, [r7, #24]
	int distColumns  = 0;
 8002866:	2300      	movs	r3, #0
 8002868:	617b      	str	r3, [r7, #20]
	int distanceToGo = 0;
 800286a:	2300      	movs	r3, #0
 800286c:	613b      	str	r3, [r7, #16]
	//sicion de cada fila y columna el valor de la heuristica dependiendo de donde este el punto de termino o End point

	// Comenzamos entonces recorriendo cada posicion del terccer bloque matricial de ***costs
	// recorremos las filas
	// Almacenamos la posicion final
	if(findEnd(Gridcopy, parameters, ptrChanges)){
 800286e:	68ba      	ldr	r2, [r7, #8]
 8002870:	68f9      	ldr	r1, [r7, #12]
 8002872:	6838      	ldr	r0, [r7, #0]
 8002874:	f000 fa41 	bl	8002cfa <findEnd>
 8002878:	4603      	mov	r3, r0
 800287a:	2b00      	cmp	r3, #0
 800287c:	d003      	beq.n	8002886 <setHeuristic+0x32>
		// Se encontro la posicion final, y continua con el programa
		__NOP();
 800287e:	bf00      	nop
	}

	// A partir de aqui ya se tiene la posicion del punto final y ya se puede entonces calcular la heuristica
	// partiendo siempre de que el robot puede ir en diagonal y luego en linea recta , siempre buscando la ruta mas eficiente

	for (uint8_t i = 0; i< parameters->numberOfRows; i++){
 8002880:	2300      	movs	r3, #0
 8002882:	77fb      	strb	r3, [r7, #31]
 8002884:	e0a3      	b.n	80029ce <setHeuristic+0x17a>
		return RESET;
 8002886:	2300      	movs	r3, #0
 8002888:	e0a8      	b.n	80029dc <setHeuristic+0x188>
		for(uint8_t j = 0; j < parameters->numberOfColumns; j++){
 800288a:	2300      	movs	r3, #0
 800288c:	77bb      	strb	r3, [r7, #30]
 800288e:	e095      	b.n	80029bc <setHeuristic+0x168>
			// para cada posicion i,j, se mira i-iend y j-jend, y se evalua cual de los dos es menor y luego
			// De los dos que sea mas pequeo, el robot tendra que ir diagonal hasta encontrarse con la fila o la columna
			// maas cercana a la fila o la columna del punto final, y ya luego sumarle la distancia paralela que falta para llegar al punto end
			distRows    = abs(i-ptrChanges->endPos[0]);
 8002890:	7ffa      	ldrb	r2, [r7, #31]
 8002892:	68bb      	ldr	r3, [r7, #8]
 8002894:	6adb      	ldr	r3, [r3, #44]	; 0x2c
 8002896:	1ad3      	subs	r3, r2, r3
 8002898:	2b00      	cmp	r3, #0
 800289a:	bfb8      	it	lt
 800289c:	425b      	neglt	r3, r3
 800289e:	61bb      	str	r3, [r7, #24]
			distColumns = abs(j-ptrChanges->endPos[1]);
 80028a0:	7fba      	ldrb	r2, [r7, #30]
 80028a2:	68bb      	ldr	r3, [r7, #8]
 80028a4:	6b1b      	ldr	r3, [r3, #48]	; 0x30
 80028a6:	1ad3      	subs	r3, r2, r3
 80028a8:	2b00      	cmp	r3, #0
 80028aa:	bfb8      	it	lt
 80028ac:	425b      	neglt	r3, r3
 80028ae:	617b      	str	r3, [r7, #20]
			if (distRows <= distColumns){
 80028b0:	69ba      	ldr	r2, [r7, #24]
 80028b2:	697b      	ldr	r3, [r7, #20]
 80028b4:	429a      	cmp	r2, r3
 80028b6:	dc3f      	bgt.n	8002938 <setHeuristic+0xe4>
				// Si estamos aca es porque el robot en la posicion i,j en la que estaria esta mas cerca de la fila del end
				// que de la columna del end, por lo que se debe ir diagonal
				distanceToGo = parameters->diagonalDiastance * distRows;
 80028b8:	68fb      	ldr	r3, [r7, #12]
 80028ba:	ed93 7a01 	vldr	s14, [r3, #4]
 80028be:	69bb      	ldr	r3, [r7, #24]
 80028c0:	ee07 3a90 	vmov	s15, r3
 80028c4:	eef8 7ae7 	vcvt.f32.s32	s15, s15
 80028c8:	ee67 7a27 	vmul.f32	s15, s14, s15
 80028cc:	eefd 7ae7 	vcvt.s32.f32	s15, s15
 80028d0:	ee17 3a90 	vmov	r3, s15
 80028d4:	613b      	str	r3, [r7, #16]
				// Luego el robot ya se encontraria en la misma fila del end, por lo que faltaria sumarle las posiciones restantes
				// paralelas hasta llegar a la columna , la distancia que falta seria la resta de las diferencias en valor absoluto
				// En el caso de que las distancias sean iguales, el robot solo ira diagonal hasta el end , no necesitara ir paralelo.
				distanceToGo += parameters->parallelDistance * abs(distRows-distColumns);
 80028d6:	693b      	ldr	r3, [r7, #16]
 80028d8:	ee07 3a90 	vmov	s15, r3
 80028dc:	eeb8 7ae7 	vcvt.f32.s32	s14, s15
 80028e0:	68fb      	ldr	r3, [r7, #12]
 80028e2:	edd3 6a00 	vldr	s13, [r3]
 80028e6:	69ba      	ldr	r2, [r7, #24]
 80028e8:	697b      	ldr	r3, [r7, #20]
 80028ea:	1ad3      	subs	r3, r2, r3
 80028ec:	2b00      	cmp	r3, #0
 80028ee:	bfb8      	it	lt
 80028f0:	425b      	neglt	r3, r3
 80028f2:	ee07 3a90 	vmov	s15, r3
 80028f6:	eef8 7ae7 	vcvt.f32.s32	s15, s15
 80028fa:	ee66 7aa7 	vmul.f32	s15, s13, s15
 80028fe:	ee77 7a27 	vadd.f32	s15, s14, s15
 8002902:	eefd 7ae7 	vcvt.s32.f32	s15, s15
 8002906:	ee17 3a90 	vmov	r3, s15
 800290a:	613b      	str	r3, [r7, #16]
				//Por ultimo se setea en la pisicion de la heuristica correspondiente a la matriz ultima de la sumer matriz
				// de costos
				matrixCosts[i][j][2] = distanceToGo;
 800290c:	7ffb      	ldrb	r3, [r7, #31]
 800290e:	f44f 629c 	mov.w	r2, #1248	; 0x4e0
 8002912:	fb02 f303 	mul.w	r3, r2, r3
 8002916:	687a      	ldr	r2, [r7, #4]
 8002918:	18d1      	adds	r1, r2, r3
 800291a:	7fba      	ldrb	r2, [r7, #30]
 800291c:	693b      	ldr	r3, [r7, #16]
 800291e:	ee07 3a90 	vmov	s15, r3
 8002922:	eef8 7ae7 	vcvt.f32.s32	s15, s15
 8002926:	4613      	mov	r3, r2
 8002928:	005b      	lsls	r3, r3, #1
 800292a:	4413      	add	r3, r2
 800292c:	00db      	lsls	r3, r3, #3
 800292e:	440b      	add	r3, r1
 8002930:	3308      	adds	r3, #8
 8002932:	edc3 7a00 	vstr	s15, [r3]
 8002936:	e03e      	b.n	80029b6 <setHeuristic+0x162>
			}else{
				// Si estamos aqui es porque la distancia del robot a la columna es mas cercana que del mismo a la fila, por lo que
				// lo unico que cambia es que las veces que hay que ir diagonal sera hasta tocar la columna del end
				distanceToGo = parameters->diagonalDiastance * distColumns;
 8002938:	68fb      	ldr	r3, [r7, #12]
 800293a:	ed93 7a01 	vldr	s14, [r3, #4]
 800293e:	697b      	ldr	r3, [r7, #20]
 8002940:	ee07 3a90 	vmov	s15, r3
 8002944:	eef8 7ae7 	vcvt.f32.s32	s15, s15
 8002948:	ee67 7a27 	vmul.f32	s15, s14, s15
 800294c:	eefd 7ae7 	vcvt.s32.f32	s15, s15
 8002950:	ee17 3a90 	vmov	r3, s15
 8002954:	613b      	str	r3, [r7, #16]
				// Lo que falta para llegar al end es el recorrido por toda la columna, es decir el restante entre
				// distRows y distColumns
				distanceToGo += parameters->parallelDistance * abs(distRows-distColumns);
 8002956:	693b      	ldr	r3, [r7, #16]
 8002958:	ee07 3a90 	vmov	s15, r3
 800295c:	eeb8 7ae7 	vcvt.f32.s32	s14, s15
 8002960:	68fb      	ldr	r3, [r7, #12]
 8002962:	edd3 6a00 	vldr	s13, [r3]
 8002966:	69ba      	ldr	r2, [r7, #24]
 8002968:	697b      	ldr	r3, [r7, #20]
 800296a:	1ad3      	subs	r3, r2, r3
 800296c:	2b00      	cmp	r3, #0
 800296e:	bfb8      	it	lt
 8002970:	425b      	neglt	r3, r3
 8002972:	ee07 3a90 	vmov	s15, r3
 8002976:	eef8 7ae7 	vcvt.f32.s32	s15, s15
 800297a:	ee66 7aa7 	vmul.f32	s15, s13, s15
 800297e:	ee77 7a27 	vadd.f32	s15, s14, s15
 8002982:	eefd 7ae7 	vcvt.s32.f32	s15, s15
 8002986:	ee17 3a90 	vmov	r3, s15
 800298a:	613b      	str	r3, [r7, #16]
				matrixCosts[i][j][2] = distanceToGo;
 800298c:	7ffb      	ldrb	r3, [r7, #31]
 800298e:	f44f 629c 	mov.w	r2, #1248	; 0x4e0
 8002992:	fb02 f303 	mul.w	r3, r2, r3
 8002996:	687a      	ldr	r2, [r7, #4]
 8002998:	18d1      	adds	r1, r2, r3
 800299a:	7fba      	ldrb	r2, [r7, #30]
 800299c:	693b      	ldr	r3, [r7, #16]
 800299e:	ee07 3a90 	vmov	s15, r3
 80029a2:	eef8 7ae7 	vcvt.f32.s32	s15, s15
 80029a6:	4613      	mov	r3, r2
 80029a8:	005b      	lsls	r3, r3, #1
 80029aa:	4413      	add	r3, r2
 80029ac:	00db      	lsls	r3, r3, #3
 80029ae:	440b      	add	r3, r1
 80029b0:	3308      	adds	r3, #8
 80029b2:	edc3 7a00 	vstr	s15, [r3]
		for(uint8_t j = 0; j < parameters->numberOfColumns; j++){
 80029b6:	7fbb      	ldrb	r3, [r7, #30]
 80029b8:	3301      	adds	r3, #1
 80029ba:	77bb      	strb	r3, [r7, #30]
 80029bc:	68fb      	ldr	r3, [r7, #12]
 80029be:	7a5b      	ldrb	r3, [r3, #9]
 80029c0:	7fba      	ldrb	r2, [r7, #30]
 80029c2:	429a      	cmp	r2, r3
 80029c4:	f4ff af64 	bcc.w	8002890 <setHeuristic+0x3c>
	for (uint8_t i = 0; i< parameters->numberOfRows; i++){
 80029c8:	7ffb      	ldrb	r3, [r7, #31]
 80029ca:	3301      	adds	r3, #1
 80029cc:	77fb      	strb	r3, [r7, #31]
 80029ce:	68fb      	ldr	r3, [r7, #12]
 80029d0:	7a1b      	ldrb	r3, [r3, #8]
 80029d2:	7ffa      	ldrb	r2, [r7, #31]
 80029d4:	429a      	cmp	r2, r3
 80029d6:	f4ff af58 	bcc.w	800288a <setHeuristic+0x36>
		}

	}

	// Terminado TODO el recorrido se puede salir de la funcion y decir que todo fue correcto
	return SET;
 80029da:	2301      	movs	r3, #1

}
 80029dc:	4618      	mov	r0, r3
 80029de:	3720      	adds	r7, #32
 80029e0:	46bd      	mov	sp, r7
 80029e2:	bd80      	pop	{r7, pc}

080029e4 <setGcost>:

//Con esta funcion se halla el Gcost teniendo en cuenta la posicion de analisis
float setGcost (AStar_distancesHandler *parameters, costChangesAndPos_t *ptrChanges, int posIJ[2]){
 80029e4:	b480      	push	{r7}
 80029e6:	b089      	sub	sp, #36	; 0x24
 80029e8:	af00      	add	r7, sp, #0
 80029ea:	60f8      	str	r0, [r7, #12]
 80029ec:	60b9      	str	r1, [r7, #8]
 80029ee:	607a      	str	r2, [r7, #4]
	// definimos variables locales
	int distRows     = 0;
 80029f0:	2300      	movs	r3, #0
 80029f2:	61bb      	str	r3, [r7, #24]
	int distColumns  = 0;
 80029f4:	2300      	movs	r3, #0
 80029f6:	617b      	str	r3, [r7, #20]
	float distanceToGo = 0;
 80029f8:	f04f 0300 	mov.w	r3, #0
 80029fc:	61fb      	str	r3, [r7, #28]

	// Luego calculamos el Gcost partiendo de que se tiene que pasar siempre por la posicion de analisis
	// Se analiza cual es la distancia que hay entre el punto de analisis y el punto de start
	distRows    = abs(ptrChanges->posAnalisis[0] -ptrChanges->startPos[0]);
 80029fe:	68bb      	ldr	r3, [r7, #8]
 8002a00:	689a      	ldr	r2, [r3, #8]
 8002a02:	68bb      	ldr	r3, [r7, #8]
 8002a04:	6a5b      	ldr	r3, [r3, #36]	; 0x24
 8002a06:	1ad3      	subs	r3, r2, r3
 8002a08:	2b00      	cmp	r3, #0
 8002a0a:	bfb8      	it	lt
 8002a0c:	425b      	neglt	r3, r3
 8002a0e:	61bb      	str	r3, [r7, #24]
	distColumns = abs(ptrChanges->posAnalisis[1]-ptrChanges->startPos[1]);
 8002a10:	68bb      	ldr	r3, [r7, #8]
 8002a12:	68da      	ldr	r2, [r3, #12]
 8002a14:	68bb      	ldr	r3, [r7, #8]
 8002a16:	6a9b      	ldr	r3, [r3, #40]	; 0x28
 8002a18:	1ad3      	subs	r3, r2, r3
 8002a1a:	2b00      	cmp	r3, #0
 8002a1c:	bfb8      	it	lt
 8002a1e:	425b      	neglt	r3, r3
 8002a20:	617b      	str	r3, [r7, #20]

	if ((ptrChanges->posAnalisis[0] + posIJ[0] -1) != ptrChanges->posAnalisis[0]
 8002a22:	68bb      	ldr	r3, [r7, #8]
 8002a24:	689a      	ldr	r2, [r3, #8]
 8002a26:	687b      	ldr	r3, [r7, #4]
 8002a28:	681b      	ldr	r3, [r3, #0]
 8002a2a:	4413      	add	r3, r2
 8002a2c:	1e5a      	subs	r2, r3, #1
 8002a2e:	68bb      	ldr	r3, [r7, #8]
 8002a30:	689b      	ldr	r3, [r3, #8]
 8002a32:	429a      	cmp	r2, r3
 8002a34:	d05d      	beq.n	8002af2 <setGcost+0x10e>
	 && (ptrChanges->posAnalisis[1] + posIJ[1] -1) != ptrChanges->posAnalisis[1]){
 8002a36:	68bb      	ldr	r3, [r7, #8]
 8002a38:	68da      	ldr	r2, [r3, #12]
 8002a3a:	687b      	ldr	r3, [r7, #4]
 8002a3c:	3304      	adds	r3, #4
 8002a3e:	681b      	ldr	r3, [r3, #0]
 8002a40:	4413      	add	r3, r2
 8002a42:	1e5a      	subs	r2, r3, #1
 8002a44:	68bb      	ldr	r3, [r7, #8]
 8002a46:	68db      	ldr	r3, [r3, #12]
 8002a48:	429a      	cmp	r2, r3
 8002a4a:	d052      	beq.n	8002af2 <setGcost+0x10e>
		// Si estamos aqui es porque estamos en una de las 4 esquinas aledanias, por lo que la distancia a la columna o la fila
		// mas cercana a el punto de analisis es 1, se tendra que ir diagonalmente
		distanceToGo = parameters->diagonalDiastance;
 8002a4c:	68fb      	ldr	r3, [r7, #12]
 8002a4e:	685b      	ldr	r3, [r3, #4]
 8002a50:	61fb      	str	r3, [r7, #28]

		// Luego se calcula la distancia que resta aplicando el mismo algoritmo de la heuristica
		//pero esta vez para el punto de analisis hasta el punto de inicio

		if (distRows <= distColumns){
 8002a52:	69ba      	ldr	r2, [r7, #24]
 8002a54:	697b      	ldr	r3, [r7, #20]
 8002a56:	429a      	cmp	r2, r3
 8002a58:	dc25      	bgt.n	8002aa6 <setGcost+0xc2>
			// Si estamos aca es porque el robot en la posicion i,j en la que estaria esta mas cerca de la fila del end
			// que de la columna del end, por lo que se debe ir diagonal
			distanceToGo += parameters->diagonalDiastance * distRows;
 8002a5a:	68fb      	ldr	r3, [r7, #12]
 8002a5c:	ed93 7a01 	vldr	s14, [r3, #4]
 8002a60:	69bb      	ldr	r3, [r7, #24]
 8002a62:	ee07 3a90 	vmov	s15, r3
 8002a66:	eef8 7ae7 	vcvt.f32.s32	s15, s15
 8002a6a:	ee67 7a27 	vmul.f32	s15, s14, s15
 8002a6e:	ed97 7a07 	vldr	s14, [r7, #28]
 8002a72:	ee77 7a27 	vadd.f32	s15, s14, s15
 8002a76:	edc7 7a07 	vstr	s15, [r7, #28]
			// Luego el robot ya se encontraria en la misma fila del end, por lo que faltaria sumarle las posiciones restantes
			// paralelas hasta llegar a la columna , la distancia que falta seria la resta de las diferencias en valor absoluto
			// En el caso de que las distancias sean iguales, el robot solo ira diagonal hasta el end , no necesitara ir paralelo.
			distanceToGo += parameters->parallelDistance * abs(distRows-distColumns);
 8002a7a:	68fb      	ldr	r3, [r7, #12]
 8002a7c:	ed93 7a00 	vldr	s14, [r3]
 8002a80:	69ba      	ldr	r2, [r7, #24]
 8002a82:	697b      	ldr	r3, [r7, #20]
 8002a84:	1ad3      	subs	r3, r2, r3
 8002a86:	2b00      	cmp	r3, #0
 8002a88:	bfb8      	it	lt
 8002a8a:	425b      	neglt	r3, r3
 8002a8c:	ee07 3a90 	vmov	s15, r3
 8002a90:	eef8 7ae7 	vcvt.f32.s32	s15, s15
 8002a94:	ee67 7a27 	vmul.f32	s15, s14, s15
 8002a98:	ed97 7a07 	vldr	s14, [r7, #28]
 8002a9c:	ee77 7a27 	vadd.f32	s15, s14, s15
 8002aa0:	edc7 7a07 	vstr	s15, [r7, #28]
		if (distRows <= distColumns){
 8002aa4:	e077      	b.n	8002b96 <setGcost+0x1b2>
		}else{
			// Si estamos aqui es porque la distancia del robot a la columna es mas cercana que del mismo a la fila, por lo que
			// lo unico que cambia es que las veces que hay que ir diagonal sera hasta tocar la columna del end
			distanceToGo += parameters->diagonalDiastance * distColumns;
 8002aa6:	68fb      	ldr	r3, [r7, #12]
 8002aa8:	ed93 7a01 	vldr	s14, [r3, #4]
 8002aac:	697b      	ldr	r3, [r7, #20]
 8002aae:	ee07 3a90 	vmov	s15, r3
 8002ab2:	eef8 7ae7 	vcvt.f32.s32	s15, s15
 8002ab6:	ee67 7a27 	vmul.f32	s15, s14, s15
 8002aba:	ed97 7a07 	vldr	s14, [r7, #28]
 8002abe:	ee77 7a27 	vadd.f32	s15, s14, s15
 8002ac2:	edc7 7a07 	vstr	s15, [r7, #28]
			// Lo que falta para llegar al end es el recorrido por toda la columna, es decir el restante entre
			// distRows y distColumns
			distanceToGo += parameters->parallelDistance * abs(distRows-distColumns);
 8002ac6:	68fb      	ldr	r3, [r7, #12]
 8002ac8:	ed93 7a00 	vldr	s14, [r3]
 8002acc:	69ba      	ldr	r2, [r7, #24]
 8002ace:	697b      	ldr	r3, [r7, #20]
 8002ad0:	1ad3      	subs	r3, r2, r3
 8002ad2:	2b00      	cmp	r3, #0
 8002ad4:	bfb8      	it	lt
 8002ad6:	425b      	neglt	r3, r3
 8002ad8:	ee07 3a90 	vmov	s15, r3
 8002adc:	eef8 7ae7 	vcvt.f32.s32	s15, s15
 8002ae0:	ee67 7a27 	vmul.f32	s15, s14, s15
 8002ae4:	ed97 7a07 	vldr	s14, [r7, #28]
 8002ae8:	ee77 7a27 	vadd.f32	s15, s14, s15
 8002aec:	edc7 7a07 	vstr	s15, [r7, #28]
		if (distRows <= distColumns){
 8002af0:	e051      	b.n	8002b96 <setGcost+0x1b2>

	}else {
		// Si estamos aqui es porque estamos en una de las cuatro aristas, donde tanto el puntero como la posicion real del punto de analisis
		// coinciden en fila o en columna, la unica diferencia aqui es que se calcula paralelamente al punto de analisis y a partir de ahi
		// se aplica el algoritmo de la heuristica
		distanceToGo = parameters->parallelDistance;
 8002af2:	68fb      	ldr	r3, [r7, #12]
 8002af4:	681b      	ldr	r3, [r3, #0]
 8002af6:	61fb      	str	r3, [r7, #28]

		if (distRows <= distColumns){
 8002af8:	69ba      	ldr	r2, [r7, #24]
 8002afa:	697b      	ldr	r3, [r7, #20]
 8002afc:	429a      	cmp	r2, r3
 8002afe:	dc25      	bgt.n	8002b4c <setGcost+0x168>
			distanceToGo += parameters->diagonalDiastance * distRows;
 8002b00:	68fb      	ldr	r3, [r7, #12]
 8002b02:	ed93 7a01 	vldr	s14, [r3, #4]
 8002b06:	69bb      	ldr	r3, [r7, #24]
 8002b08:	ee07 3a90 	vmov	s15, r3
 8002b0c:	eef8 7ae7 	vcvt.f32.s32	s15, s15
 8002b10:	ee67 7a27 	vmul.f32	s15, s14, s15
 8002b14:	ed97 7a07 	vldr	s14, [r7, #28]
 8002b18:	ee77 7a27 	vadd.f32	s15, s14, s15
 8002b1c:	edc7 7a07 	vstr	s15, [r7, #28]
			distanceToGo += parameters->parallelDistance * abs(distRows-distColumns);
 8002b20:	68fb      	ldr	r3, [r7, #12]
 8002b22:	ed93 7a00 	vldr	s14, [r3]
 8002b26:	69ba      	ldr	r2, [r7, #24]
 8002b28:	697b      	ldr	r3, [r7, #20]
 8002b2a:	1ad3      	subs	r3, r2, r3
 8002b2c:	2b00      	cmp	r3, #0
 8002b2e:	bfb8      	it	lt
 8002b30:	425b      	neglt	r3, r3
 8002b32:	ee07 3a90 	vmov	s15, r3
 8002b36:	eef8 7ae7 	vcvt.f32.s32	s15, s15
 8002b3a:	ee67 7a27 	vmul.f32	s15, s14, s15
 8002b3e:	ed97 7a07 	vldr	s14, [r7, #28]
 8002b42:	ee77 7a27 	vadd.f32	s15, s14, s15
 8002b46:	edc7 7a07 	vstr	s15, [r7, #28]
 8002b4a:	e024      	b.n	8002b96 <setGcost+0x1b2>
		}else{
			distanceToGo += parameters->diagonalDiastance * distColumns;
 8002b4c:	68fb      	ldr	r3, [r7, #12]
 8002b4e:	ed93 7a01 	vldr	s14, [r3, #4]
 8002b52:	697b      	ldr	r3, [r7, #20]
 8002b54:	ee07 3a90 	vmov	s15, r3
 8002b58:	eef8 7ae7 	vcvt.f32.s32	s15, s15
 8002b5c:	ee67 7a27 	vmul.f32	s15, s14, s15
 8002b60:	ed97 7a07 	vldr	s14, [r7, #28]
 8002b64:	ee77 7a27 	vadd.f32	s15, s14, s15
 8002b68:	edc7 7a07 	vstr	s15, [r7, #28]
			distanceToGo += parameters->parallelDistance * abs(distRows-distColumns);
 8002b6c:	68fb      	ldr	r3, [r7, #12]
 8002b6e:	ed93 7a00 	vldr	s14, [r3]
 8002b72:	69ba      	ldr	r2, [r7, #24]
 8002b74:	697b      	ldr	r3, [r7, #20]
 8002b76:	1ad3      	subs	r3, r2, r3
 8002b78:	2b00      	cmp	r3, #0
 8002b7a:	bfb8      	it	lt
 8002b7c:	425b      	neglt	r3, r3
 8002b7e:	ee07 3a90 	vmov	s15, r3
 8002b82:	eef8 7ae7 	vcvt.f32.s32	s15, s15
 8002b86:	ee67 7a27 	vmul.f32	s15, s14, s15
 8002b8a:	ed97 7a07 	vldr	s14, [r7, #28]
 8002b8e:	ee77 7a27 	vadd.f32	s15, s14, s15
 8002b92:	edc7 7a07 	vstr	s15, [r7, #28]
		}
	}
	ptrChanges->Gcost = distanceToGo;
 8002b96:	68bb      	ldr	r3, [r7, #8]
 8002b98:	69fa      	ldr	r2, [r7, #28]
 8002b9a:	601a      	str	r2, [r3, #0]

	return ptrChanges->Gcost;
 8002b9c:	68bb      	ldr	r3, [r7, #8]
 8002b9e:	681b      	ldr	r3, [r3, #0]
 8002ba0:	ee07 3a90 	vmov	s15, r3
}
 8002ba4:	eeb0 0a67 	vmov.f32	s0, s15
 8002ba8:	3724      	adds	r7, #36	; 0x24
 8002baa:	46bd      	mov	sp, r7
 8002bac:	f85d 7b04 	ldr.w	r7, [sp], #4
 8002bb0:	4770      	bx	lr

08002bb2 <setFcost>:

// Con esta funcion seteamos el F cost en la matriz 2 de la posicion correspondiente
float setFcost (AStar_distancesHandler *parameters , costChangesAndPos_t *ptrChanges, int posIJ[2], float matrixCosts[52][52][6]){
 8002bb2:	b580      	push	{r7, lr}
 8002bb4:	b084      	sub	sp, #16
 8002bb6:	af00      	add	r7, sp, #0
 8002bb8:	60f8      	str	r0, [r7, #12]
 8002bba:	60b9      	str	r1, [r7, #8]
 8002bbc:	607a      	str	r2, [r7, #4]
 8002bbe:	603b      	str	r3, [r7, #0]

	// Esta funcion es simple ya que solo tenemos que calcular de la matriz 3x3 de analisis y sumar el H cost y el G cost para tener el F cost
	ptrChanges->Gcost = setGcost(parameters, ptrChanges, posIJ);
 8002bc0:	687a      	ldr	r2, [r7, #4]
 8002bc2:	68b9      	ldr	r1, [r7, #8]
 8002bc4:	68f8      	ldr	r0, [r7, #12]
 8002bc6:	f7ff ff0d 	bl	80029e4 <setGcost>
 8002bca:	eef0 7a40 	vmov.f32	s15, s0
 8002bce:	68bb      	ldr	r3, [r7, #8]
 8002bd0:	edc3 7a00 	vstr	s15, [r3]
	ptrChanges->Fcost = ptrChanges->Gcost  // Gcost
 8002bd4:	68bb      	ldr	r3, [r7, #8]
 8002bd6:	ed93 7a00 	vldr	s14, [r3]
			          + matrixCosts[ptrChanges->posAnalisis[0]+ posIJ[0] -1][ptrChanges->posAnalisis[1]+ posIJ[1] -1][2]; // Hcost
 8002bda:	68bb      	ldr	r3, [r7, #8]
 8002bdc:	689a      	ldr	r2, [r3, #8]
 8002bde:	687b      	ldr	r3, [r7, #4]
 8002be0:	681b      	ldr	r3, [r3, #0]
 8002be2:	4413      	add	r3, r2
 8002be4:	461a      	mov	r2, r3
 8002be6:	f44f 639c 	mov.w	r3, #1248	; 0x4e0
 8002bea:	fb02 f303 	mul.w	r3, r2, r3
 8002bee:	f5a3 639c 	sub.w	r3, r3, #1248	; 0x4e0
 8002bf2:	683a      	ldr	r2, [r7, #0]
 8002bf4:	18d1      	adds	r1, r2, r3
 8002bf6:	68bb      	ldr	r3, [r7, #8]
 8002bf8:	68da      	ldr	r2, [r3, #12]
 8002bfa:	687b      	ldr	r3, [r7, #4]
 8002bfc:	3304      	adds	r3, #4
 8002bfe:	681b      	ldr	r3, [r3, #0]
 8002c00:	4413      	add	r3, r2
 8002c02:	1e5a      	subs	r2, r3, #1
 8002c04:	4613      	mov	r3, r2
 8002c06:	005b      	lsls	r3, r3, #1
 8002c08:	4413      	add	r3, r2
 8002c0a:	00db      	lsls	r3, r3, #3
 8002c0c:	440b      	add	r3, r1
 8002c0e:	3308      	adds	r3, #8
 8002c10:	edd3 7a00 	vldr	s15, [r3]
 8002c14:	ee77 7a27 	vadd.f32	s15, s14, s15
	ptrChanges->Fcost = ptrChanges->Gcost  // Gcost
 8002c18:	68bb      	ldr	r3, [r7, #8]
 8002c1a:	edc3 7a01 	vstr	s15, [r3, #4]

	return ptrChanges->Fcost;
 8002c1e:	68bb      	ldr	r3, [r7, #8]
 8002c20:	685b      	ldr	r3, [r3, #4]
 8002c22:	ee07 3a90 	vmov	s15, r3

}
 8002c26:	eeb0 0a67 	vmov.f32	s0, s15
 8002c2a:	3710      	adds	r7, #16
 8002c2c:	46bd      	mov	sp, r7
 8002c2e:	bd80      	pop	{r7, pc}

08002c30 <setParents>:

// Con esta funcion seteamos la posicion del parent de los aledanios,
void setParents (costChangesAndPos_t *ptrChanges, int posIJ[2]){
 8002c30:	b480      	push	{r7}
 8002c32:	b083      	sub	sp, #12
 8002c34:	af00      	add	r7, sp, #0
 8002c36:	6078      	str	r0, [r7, #4]
 8002c38:	6039      	str	r1, [r7, #0]
	// esta funcion es simple, ya que solo tenemos que setear de la matriz 3x3 de analisis y colocar en la posicion 4 y 5 el indice i y j correspondiente
	// al parent de cada punto aledanio, exceptuando el punto de analisis ya que ese tiene un parent propio

	if ((ptrChanges->posAnalisis[0] + posIJ[0] - 1) == ptrChanges->posAnalisis[0]
 8002c3a:	687b      	ldr	r3, [r7, #4]
 8002c3c:	689a      	ldr	r2, [r3, #8]
 8002c3e:	683b      	ldr	r3, [r7, #0]
 8002c40:	681b      	ldr	r3, [r3, #0]
 8002c42:	4413      	add	r3, r2
 8002c44:	1e5a      	subs	r2, r3, #1
 8002c46:	687b      	ldr	r3, [r7, #4]
 8002c48:	689b      	ldr	r3, [r3, #8]
 8002c4a:	429a      	cmp	r2, r3
 8002c4c:	d10c      	bne.n	8002c68 <setParents+0x38>
	&&  (ptrChanges->posAnalisis[1] + posIJ[1] - 1) == ptrChanges->posAnalisis[1] ){
 8002c4e:	687b      	ldr	r3, [r7, #4]
 8002c50:	68da      	ldr	r2, [r3, #12]
 8002c52:	683b      	ldr	r3, [r7, #0]
 8002c54:	3304      	adds	r3, #4
 8002c56:	681b      	ldr	r3, [r3, #0]
 8002c58:	4413      	add	r3, r2
 8002c5a:	1e5a      	subs	r2, r3, #1
 8002c5c:	687b      	ldr	r3, [r7, #4]
 8002c5e:	68db      	ldr	r3, [r3, #12]
 8002c60:	429a      	cmp	r2, r3
 8002c62:	d101      	bne.n	8002c68 <setParents+0x38>
		// Aqui no hacemos nada porque significa que estamos sobre el punto de analisis, y no queremos cambiarle el parent a este
		__NOP();
 8002c64:	bf00      	nop
 8002c66:	e00c      	b.n	8002c82 <setParents+0x52>
	}else{
		// Si estamos aqui es porque estamos en alguno de los puntos aledanios
		ptrChanges->parent[0] = ptrChanges->posAnalisis[0];
 8002c68:	687b      	ldr	r3, [r7, #4]
 8002c6a:	689b      	ldr	r3, [r3, #8]
 8002c6c:	b2da      	uxtb	r2, r3
 8002c6e:	687b      	ldr	r3, [r7, #4]
 8002c70:	f883 2020 	strb.w	r2, [r3, #32]
		ptrChanges->parent[1] = ptrChanges->posAnalisis[1];
 8002c74:	687b      	ldr	r3, [r7, #4]
 8002c76:	68db      	ldr	r3, [r3, #12]
 8002c78:	b2da      	uxtb	r2, r3
 8002c7a:	687b      	ldr	r3, [r7, #4]
 8002c7c:	f883 2021 	strb.w	r2, [r3, #33]	; 0x21
	}

}
 8002c80:	bf00      	nop
 8002c82:	bf00      	nop
 8002c84:	370c      	adds	r7, #12
 8002c86:	46bd      	mov	sp, r7
 8002c88:	f85d 7b04 	ldr.w	r7, [sp], #4
 8002c8c:	4770      	bx	lr

08002c8e <findStart>:

// En esta funcion nos centraremos en buscar la posicion i,j donde se almacena el punto de inicio del robot
int findStart(char Gridcopy[52][52], AStar_distancesHandler *parameters, costChangesAndPos_t *ptrChanges){
 8002c8e:	b480      	push	{r7}
 8002c90:	b087      	sub	sp, #28
 8002c92:	af00      	add	r7, sp, #0
 8002c94:	60f8      	str	r0, [r7, #12]
 8002c96:	60b9      	str	r1, [r7, #8]
 8002c98:	607a      	str	r2, [r7, #4]

	// Buscamos dentro de la matriz Grid que corresponde con la copia que le hacemos a la matriz de strings de entrada
	// en la terminal
	// recorremos la matriz hasta encontrar la posicion correpondiente con un char 's' de start
	for (uint8_t i = 0; i<parameters->numberOfRows; i++){
 8002c9a:	2300      	movs	r3, #0
 8002c9c:	75fb      	strb	r3, [r7, #23]
 8002c9e:	e020      	b.n	8002ce2 <findStart+0x54>
		for(uint8_t j = 0; j< parameters->numberOfColumns; j++){
 8002ca0:	2300      	movs	r3, #0
 8002ca2:	75bb      	strb	r3, [r7, #22]
 8002ca4:	e015      	b.n	8002cd2 <findStart+0x44>
			if (Gridcopy[i][j] == 's'){
 8002ca6:	7dfb      	ldrb	r3, [r7, #23]
 8002ca8:	2234      	movs	r2, #52	; 0x34
 8002caa:	fb02 f303 	mul.w	r3, r2, r3
 8002cae:	68fa      	ldr	r2, [r7, #12]
 8002cb0:	441a      	add	r2, r3
 8002cb2:	7dbb      	ldrb	r3, [r7, #22]
 8002cb4:	5cd3      	ldrb	r3, [r2, r3]
 8002cb6:	2b73      	cmp	r3, #115	; 0x73
 8002cb8:	d107      	bne.n	8002cca <findStart+0x3c>
				ptrChanges->startPos[0] = i;
 8002cba:	7dfa      	ldrb	r2, [r7, #23]
 8002cbc:	687b      	ldr	r3, [r7, #4]
 8002cbe:	625a      	str	r2, [r3, #36]	; 0x24
				ptrChanges->startPos[1] = j;
 8002cc0:	7dba      	ldrb	r2, [r7, #22]
 8002cc2:	687b      	ldr	r3, [r7, #4]
 8002cc4:	629a      	str	r2, [r3, #40]	; 0x28
				return SET;
 8002cc6:	2301      	movs	r3, #1
 8002cc8:	e011      	b.n	8002cee <findStart+0x60>
			}else{
				__NOP();
 8002cca:	bf00      	nop
		for(uint8_t j = 0; j< parameters->numberOfColumns; j++){
 8002ccc:	7dbb      	ldrb	r3, [r7, #22]
 8002cce:	3301      	adds	r3, #1
 8002cd0:	75bb      	strb	r3, [r7, #22]
 8002cd2:	68bb      	ldr	r3, [r7, #8]
 8002cd4:	7a5b      	ldrb	r3, [r3, #9]
 8002cd6:	7dba      	ldrb	r2, [r7, #22]
 8002cd8:	429a      	cmp	r2, r3
 8002cda:	d3e4      	bcc.n	8002ca6 <findStart+0x18>
	for (uint8_t i = 0; i<parameters->numberOfRows; i++){
 8002cdc:	7dfb      	ldrb	r3, [r7, #23]
 8002cde:	3301      	adds	r3, #1
 8002ce0:	75fb      	strb	r3, [r7, #23]
 8002ce2:	68bb      	ldr	r3, [r7, #8]
 8002ce4:	7a1b      	ldrb	r3, [r3, #8]
 8002ce6:	7dfa      	ldrb	r2, [r7, #23]
 8002ce8:	429a      	cmp	r2, r3
 8002cea:	d3d9      	bcc.n	8002ca0 <findStart+0x12>

		}

	}
	// Si la funcion llego hasta aca es porque no encontro dentro del arreglo ninguna letra e
	return RESET;
 8002cec:	2300      	movs	r3, #0



}
 8002cee:	4618      	mov	r0, r3
 8002cf0:	371c      	adds	r7, #28
 8002cf2:	46bd      	mov	sp, r7
 8002cf4:	f85d 7b04 	ldr.w	r7, [sp], #4
 8002cf8:	4770      	bx	lr

08002cfa <findEnd>:
int findEnd(char Gridcopy[52][52], AStar_distancesHandler *parameters, costChangesAndPos_t *ptrChanges){
 8002cfa:	b480      	push	{r7}
 8002cfc:	b087      	sub	sp, #28
 8002cfe:	af00      	add	r7, sp, #0
 8002d00:	60f8      	str	r0, [r7, #12]
 8002d02:	60b9      	str	r1, [r7, #8]
 8002d04:	607a      	str	r2, [r7, #4]


	// Buscamos dentro de la matriz Grid que corresponde con la copia que le hacemos a la matriz de strings de entrada
	// en la terminal
	// recorremos la matriz hasta encontrar la posicion correpondiente con un char 'e' de end
	for (uint8_t i = 0; i<parameters->numberOfRows; i++){
 8002d06:	2300      	movs	r3, #0
 8002d08:	75fb      	strb	r3, [r7, #23]
 8002d0a:	e020      	b.n	8002d4e <findEnd+0x54>
		for(uint8_t j = 0; j< parameters->numberOfColumns; j++){
 8002d0c:	2300      	movs	r3, #0
 8002d0e:	75bb      	strb	r3, [r7, #22]
 8002d10:	e015      	b.n	8002d3e <findEnd+0x44>
			if (Gridcopy[i][j] == 'e'){
 8002d12:	7dfb      	ldrb	r3, [r7, #23]
 8002d14:	2234      	movs	r2, #52	; 0x34
 8002d16:	fb02 f303 	mul.w	r3, r2, r3
 8002d1a:	68fa      	ldr	r2, [r7, #12]
 8002d1c:	441a      	add	r2, r3
 8002d1e:	7dbb      	ldrb	r3, [r7, #22]
 8002d20:	5cd3      	ldrb	r3, [r2, r3]
 8002d22:	2b65      	cmp	r3, #101	; 0x65
 8002d24:	d107      	bne.n	8002d36 <findEnd+0x3c>
				ptrChanges->endPos[0] = i;
 8002d26:	7dfa      	ldrb	r2, [r7, #23]
 8002d28:	687b      	ldr	r3, [r7, #4]
 8002d2a:	62da      	str	r2, [r3, #44]	; 0x2c
				ptrChanges->endPos[1] = j;
 8002d2c:	7dba      	ldrb	r2, [r7, #22]
 8002d2e:	687b      	ldr	r3, [r7, #4]
 8002d30:	631a      	str	r2, [r3, #48]	; 0x30
				return SET;
 8002d32:	2301      	movs	r3, #1
 8002d34:	e011      	b.n	8002d5a <findEnd+0x60>
			}else{
				__NOP();
 8002d36:	bf00      	nop
		for(uint8_t j = 0; j< parameters->numberOfColumns; j++){
 8002d38:	7dbb      	ldrb	r3, [r7, #22]
 8002d3a:	3301      	adds	r3, #1
 8002d3c:	75bb      	strb	r3, [r7, #22]
 8002d3e:	68bb      	ldr	r3, [r7, #8]
 8002d40:	7a5b      	ldrb	r3, [r3, #9]
 8002d42:	7dba      	ldrb	r2, [r7, #22]
 8002d44:	429a      	cmp	r2, r3
 8002d46:	d3e4      	bcc.n	8002d12 <findEnd+0x18>
	for (uint8_t i = 0; i<parameters->numberOfRows; i++){
 8002d48:	7dfb      	ldrb	r3, [r7, #23]
 8002d4a:	3301      	adds	r3, #1
 8002d4c:	75fb      	strb	r3, [r7, #23]
 8002d4e:	68bb      	ldr	r3, [r7, #8]
 8002d50:	7a1b      	ldrb	r3, [r3, #8]
 8002d52:	7dfa      	ldrb	r2, [r7, #23]
 8002d54:	429a      	cmp	r2, r3
 8002d56:	d3d9      	bcc.n	8002d0c <findEnd+0x12>

		}

	}
	// Si la funcion llego hasta aca es porque no encontro dentro del arreglo ninguna letra e
	return RESET;
 8002d58:	2300      	movs	r3, #0

}
 8002d5a:	4618      	mov	r0, r3
 8002d5c:	371c      	adds	r7, #28
 8002d5e:	46bd      	mov	sp, r7
 8002d60:	f85d 7b04 	ldr.w	r7, [sp], #4
 8002d64:	4770      	bx	lr

08002d66 <buildMatrixCopy>:
//
//}

//Con esta funcion se reparte la memoria para la matriz de entrada desde la terminal serial

void buildMatrixCopy(AStar_distancesHandler *parameters, char terminalGrid[52][52], char Gridcopy[52][52]){
 8002d66:	b480      	push	{r7}
 8002d68:	b087      	sub	sp, #28
 8002d6a:	af00      	add	r7, sp, #0
 8002d6c:	60f8      	str	r0, [r7, #12]
 8002d6e:	60b9      	str	r1, [r7, #8]
 8002d70:	607a      	str	r2, [r7, #4]


	// Seteamos los valores dentro de la matriz infoGrid de la entrada respectiva
	for (uint8_t i = 0; i < parameters->numberOfRows; i++){
 8002d72:	2300      	movs	r3, #0
 8002d74:	75fb      	strb	r3, [r7, #23]
 8002d76:	e03d      	b.n	8002df4 <buildMatrixCopy+0x8e>
		for(uint8_t j = 0; j < parameters->numberOfColumns + 2; j++){
 8002d78:	2300      	movs	r3, #0
 8002d7a:	75bb      	strb	r3, [r7, #22]
 8002d7c:	e031      	b.n	8002de2 <buildMatrixCopy+0x7c>

			if (j == parameters->numberOfColumns){
 8002d7e:	68fb      	ldr	r3, [r7, #12]
 8002d80:	7a5b      	ldrb	r3, [r3, #9]
 8002d82:	7dba      	ldrb	r2, [r7, #22]
 8002d84:	429a      	cmp	r2, r3
 8002d86:	d109      	bne.n	8002d9c <buildMatrixCopy+0x36>
				// Agregamos al a la posicion penultima, agregamos una terminacion de salto de linea para ipresion en consola
				Gridcopy[i][j] = '\r';
 8002d88:	7dfb      	ldrb	r3, [r7, #23]
 8002d8a:	2234      	movs	r2, #52	; 0x34
 8002d8c:	fb02 f303 	mul.w	r3, r2, r3
 8002d90:	687a      	ldr	r2, [r7, #4]
 8002d92:	441a      	add	r2, r3
 8002d94:	7dbb      	ldrb	r3, [r7, #22]
 8002d96:	210d      	movs	r1, #13
 8002d98:	54d1      	strb	r1, [r2, r3]
 8002d9a:	e01f      	b.n	8002ddc <buildMatrixCopy+0x76>
			}else if (j == parameters->numberOfColumns + 1){
 8002d9c:	7dba      	ldrb	r2, [r7, #22]
 8002d9e:	68fb      	ldr	r3, [r7, #12]
 8002da0:	7a5b      	ldrb	r3, [r3, #9]
 8002da2:	3301      	adds	r3, #1
 8002da4:	429a      	cmp	r2, r3
 8002da6:	d109      	bne.n	8002dbc <buildMatrixCopy+0x56>
				// Agregamos al final la terminacion nula para que cada fila sea un string completo
				Gridcopy[i][j] = '\0';
 8002da8:	7dfb      	ldrb	r3, [r7, #23]
 8002daa:	2234      	movs	r2, #52	; 0x34
 8002dac:	fb02 f303 	mul.w	r3, r2, r3
 8002db0:	687a      	ldr	r2, [r7, #4]
 8002db2:	441a      	add	r2, r3
 8002db4:	7dbb      	ldrb	r3, [r7, #22]
 8002db6:	2100      	movs	r1, #0
 8002db8:	54d1      	strb	r1, [r2, r3]
 8002dba:	e00f      	b.n	8002ddc <buildMatrixCopy+0x76>
			}else{
				Gridcopy[i][j] = terminalGrid[i][j];
 8002dbc:	7dfb      	ldrb	r3, [r7, #23]
 8002dbe:	2234      	movs	r2, #52	; 0x34
 8002dc0:	fb02 f303 	mul.w	r3, r2, r3
 8002dc4:	68ba      	ldr	r2, [r7, #8]
 8002dc6:	18d0      	adds	r0, r2, r3
 8002dc8:	7db9      	ldrb	r1, [r7, #22]
 8002dca:	7dfb      	ldrb	r3, [r7, #23]
 8002dcc:	2234      	movs	r2, #52	; 0x34
 8002dce:	fb02 f303 	mul.w	r3, r2, r3
 8002dd2:	687a      	ldr	r2, [r7, #4]
 8002dd4:	441a      	add	r2, r3
 8002dd6:	7dbb      	ldrb	r3, [r7, #22]
 8002dd8:	5c41      	ldrb	r1, [r0, r1]
 8002dda:	54d1      	strb	r1, [r2, r3]
		for(uint8_t j = 0; j < parameters->numberOfColumns + 2; j++){
 8002ddc:	7dbb      	ldrb	r3, [r7, #22]
 8002dde:	3301      	adds	r3, #1
 8002de0:	75bb      	strb	r3, [r7, #22]
 8002de2:	68fb      	ldr	r3, [r7, #12]
 8002de4:	7a5b      	ldrb	r3, [r3, #9]
 8002de6:	1c5a      	adds	r2, r3, #1
 8002de8:	7dbb      	ldrb	r3, [r7, #22]
 8002dea:	429a      	cmp	r2, r3
 8002dec:	dac7      	bge.n	8002d7e <buildMatrixCopy+0x18>
	for (uint8_t i = 0; i < parameters->numberOfRows; i++){
 8002dee:	7dfb      	ldrb	r3, [r7, #23]
 8002df0:	3301      	adds	r3, #1
 8002df2:	75fb      	strb	r3, [r7, #23]
 8002df4:	68fb      	ldr	r3, [r7, #12]
 8002df6:	7a1b      	ldrb	r3, [r3, #8]
 8002df8:	7dfa      	ldrb	r2, [r7, #23]
 8002dfa:	429a      	cmp	r2, r3
 8002dfc:	d3bc      	bcc.n	8002d78 <buildMatrixCopy+0x12>
			}
		}
	}

}
 8002dfe:	bf00      	nop
 8002e00:	bf00      	nop
 8002e02:	371c      	adds	r7, #28
 8002e04:	46bd      	mov	sp, r7
 8002e06:	f85d 7b04 	ldr.w	r7, [sp], #4
 8002e0a:	4770      	bx	lr

08002e0c <getRows>:



// Se define la funcion de tomar cantidad de filas recorriendo la cantidad de String que tenga el puntero de arreglos matrix hasta que se
// encuentre con el puntero nulo.
uint8_t getRows(char terminalGrid[52][52]){
 8002e0c:	b480      	push	{r7}
 8002e0e:	b085      	sub	sp, #20
 8002e10:	af00      	add	r7, sp, #0
 8002e12:	6078      	str	r0, [r7, #4]

	uint8_t counterRows = 0;
 8002e14:	2300      	movs	r3, #0
 8002e16:	73fb      	strb	r3, [r7, #15]
	char letter = '\0';
 8002e18:	2300      	movs	r3, #0
 8002e1a:	73bb      	strb	r3, [r7, #14]
	(void)letter;
	while(terminalGrid[counterRows][0] != '\0'){
 8002e1c:	e00a      	b.n	8002e34 <getRows+0x28>
		letter = terminalGrid[counterRows][0];
 8002e1e:	7bfb      	ldrb	r3, [r7, #15]
 8002e20:	2234      	movs	r2, #52	; 0x34
 8002e22:	fb02 f303 	mul.w	r3, r2, r3
 8002e26:	687a      	ldr	r2, [r7, #4]
 8002e28:	4413      	add	r3, r2
 8002e2a:	781b      	ldrb	r3, [r3, #0]
 8002e2c:	73bb      	strb	r3, [r7, #14]
		counterRows++;
 8002e2e:	7bfb      	ldrb	r3, [r7, #15]
 8002e30:	3301      	adds	r3, #1
 8002e32:	73fb      	strb	r3, [r7, #15]
	while(terminalGrid[counterRows][0] != '\0'){
 8002e34:	7bfb      	ldrb	r3, [r7, #15]
 8002e36:	2234      	movs	r2, #52	; 0x34
 8002e38:	fb02 f303 	mul.w	r3, r2, r3
 8002e3c:	687a      	ldr	r2, [r7, #4]
 8002e3e:	4413      	add	r3, r2
 8002e40:	781b      	ldrb	r3, [r3, #0]
 8002e42:	2b00      	cmp	r3, #0
 8002e44:	d1eb      	bne.n	8002e1e <getRows+0x12>

	}

	return counterRows;
 8002e46:	7bfb      	ldrb	r3, [r7, #15]
}
 8002e48:	4618      	mov	r0, r3
 8002e4a:	3714      	adds	r7, #20
 8002e4c:	46bd      	mov	sp, r7
 8002e4e:	f85d 7b04 	ldr.w	r7, [sp], #4
 8002e52:	4770      	bx	lr

08002e54 <getColums>:

//Se define la funcion de tomar cantidad de columnas recorriendo el string hasta encontrar el elemento nulo char
uint8_t getColums(char terminalGrid[52][52]){
 8002e54:	b480      	push	{r7}
 8002e56:	b085      	sub	sp, #20
 8002e58:	af00      	add	r7, sp, #0
 8002e5a:	6078      	str	r0, [r7, #4]

	uint8_t counterColumns = 0;
 8002e5c:	2300      	movs	r3, #0
 8002e5e:	73fb      	strb	r3, [r7, #15]
	while(terminalGrid[0][counterColumns] != '\0'){
 8002e60:	e002      	b.n	8002e68 <getColums+0x14>

		counterColumns++;
 8002e62:	7bfb      	ldrb	r3, [r7, #15]
 8002e64:	3301      	adds	r3, #1
 8002e66:	73fb      	strb	r3, [r7, #15]
	while(terminalGrid[0][counterColumns] != '\0'){
 8002e68:	7bfb      	ldrb	r3, [r7, #15]
 8002e6a:	687a      	ldr	r2, [r7, #4]
 8002e6c:	5cd3      	ldrb	r3, [r2, r3]
 8002e6e:	2b00      	cmp	r3, #0
 8002e70:	d1f7      	bne.n	8002e62 <getColums+0xe>

	}

	return counterColumns;
 8002e72:	7bfb      	ldrb	r3, [r7, #15]
}
 8002e74:	4618      	mov	r0, r3
 8002e76:	3714      	adds	r7, #20
 8002e78:	46bd      	mov	sp, r7
 8002e7a:	f85d 7b04 	ldr.w	r7, [sp], #4
 8002e7e:	4770      	bx	lr

08002e80 <findLesserValue>:

// esta funcion nos almacena en uno de los arrays volatiles de la estructura costChangesAndPos_t la posicion del valor Fcost o H cost mas pequeo,
// Se debe identificar con un string si se quiere hallar el Fcost mas pequeo o el Hcost mas pequeo, asi, "Fcost" si se quiere hallar el F cost o
// "Hcost" si se quiere hallar el H cost
void findLesserValue(costChangesAndPos_t *ptrChanges, float decisionMtrx[500][4], uint8_t contador){
 8002e80:	b480      	push	{r7}
 8002e82:	b089      	sub	sp, #36	; 0x24
 8002e84:	af00      	add	r7, sp, #0
 8002e86:	60f8      	str	r0, [r7, #12]
 8002e88:	60b9      	str	r1, [r7, #8]
 8002e8a:	4613      	mov	r3, r2
 8002e8c:	71fb      	strb	r3, [r7, #7]
	// seteamos las variables locales
	uint8_t i;
	uint8_t j;
	float value_1 = 0;
 8002e8e:	f04f 0300 	mov.w	r3, #0
 8002e92:	61bb      	str	r3, [r7, #24]
	float value_2 = 0;
 8002e94:	f04f 0300 	mov.w	r3, #0
 8002e98:	617b      	str	r3, [r7, #20]

	// El algoritmo que se usar es que se recorrer cada una de las posiciones y se analizara con las demas , excpliyendo obviamente
	// la posicion central


	for(i = 0; i<contador ; i++){
 8002e9a:	2300      	movs	r3, #0
 8002e9c:	77fb      	strb	r3, [r7, #31]
 8002e9e:	e04d      	b.n	8002f3c <findLesserValue+0xbc>
		for(j = 0; j<contador ; j++){
 8002ea0:	2300      	movs	r3, #0
 8002ea2:	77bb      	strb	r3, [r7, #30]
 8002ea4:	e034      	b.n	8002f10 <findLesserValue+0x90>
			if (i == j){
 8002ea6:	7ffa      	ldrb	r2, [r7, #31]
 8002ea8:	7fbb      	ldrb	r3, [r7, #30]
 8002eaa:	429a      	cmp	r2, r3
 8002eac:	d101      	bne.n	8002eb2 <findLesserValue+0x32>
				// Si estamos aqui es porque estamos analizando el mismo punto, y nosotros queremos es analizar a sus compaeros solamente
				__NOP();
 8002eae:	bf00      	nop
 8002eb0:	e02b      	b.n	8002f0a <findLesserValue+0x8a>
			}else if (decisionMtrx[i][0]
 8002eb2:	7ffb      	ldrb	r3, [r7, #31]
 8002eb4:	011b      	lsls	r3, r3, #4
 8002eb6:	68ba      	ldr	r2, [r7, #8]
 8002eb8:	4413      	add	r3, r2
 8002eba:	ed93 7a00 	vldr	s14, [r3]
					< decisionMtrx[j][0]){
 8002ebe:	7fbb      	ldrb	r3, [r7, #30]
 8002ec0:	011b      	lsls	r3, r3, #4
 8002ec2:	68ba      	ldr	r2, [r7, #8]
 8002ec4:	4413      	add	r3, r2
 8002ec6:	edd3 7a00 	vldr	s15, [r3]
			}else if (decisionMtrx[i][0]
 8002eca:	eeb4 7ae7 	vcmpe.f32	s14, s15
 8002ece:	eef1 fa10 	vmrs	APSR_nzcv, fpscr
 8002ed2:	d41a      	bmi.n	8002f0a <findLesserValue+0x8a>
				// Si estamos aca es porque podemos hacer la comparacin
				// Si estamos aca es porque efectivamente el Fcost es menor, Solo dejamos pasar el ciclo para asegurarnos de que el j
				// pueda llegar hasta su valor final permitido
			}else if (decisionMtrx[i][0]
 8002ed4:	7ffb      	ldrb	r3, [r7, #31]
 8002ed6:	011b      	lsls	r3, r3, #4
 8002ed8:	68ba      	ldr	r2, [r7, #8]
 8002eda:	4413      	add	r3, r2
 8002edc:	ed93 7a00 	vldr	s14, [r3]
				   == decisionMtrx[j][0]){
 8002ee0:	7fbb      	ldrb	r3, [r7, #30]
 8002ee2:	011b      	lsls	r3, r3, #4
 8002ee4:	68ba      	ldr	r2, [r7, #8]
 8002ee6:	4413      	add	r3, r2
 8002ee8:	edd3 7a00 	vldr	s15, [r3]
			}else if (decisionMtrx[i][0]
 8002eec:	eeb4 7a67 	vcmp.f32	s14, s15
 8002ef0:	eef1 fa10 	vmrs	APSR_nzcv, fpscr
 8002ef4:	d104      	bne.n	8002f00 <findLesserValue+0x80>
				// Si estamos aqui es porque el programa encontro mas de un  minimo un valor igual al analizado
				ptrChanges->equalFcost = SET;
 8002ef6:	68fb      	ldr	r3, [r7, #12]
 8002ef8:	2201      	movs	r2, #1
 8002efa:	f883 203c 	strb.w	r2, [r3, #60]	; 0x3c
 8002efe:	e004      	b.n	8002f0a <findLesserValue+0x8a>
			}else{
				// Si estamos aqui es porque el programa hallo almenos un valor menor al analizado, por lo que no nos sirve
				// Se resetea la bandera que decia que habia un vakor igual, esto debe de ser solo cierto si el valor que es
				// igual es el menor de la matriz
				ptrChanges->equalFcost = RESET;
 8002f00:	68fb      	ldr	r3, [r7, #12]
 8002f02:	2200      	movs	r2, #0
 8002f04:	f883 203c 	strb.w	r2, [r3, #60]	; 0x3c
				break;
 8002f08:	e006      	b.n	8002f18 <findLesserValue+0x98>
		for(j = 0; j<contador ; j++){
 8002f0a:	7fbb      	ldrb	r3, [r7, #30]
 8002f0c:	3301      	adds	r3, #1
 8002f0e:	77bb      	strb	r3, [r7, #30]
 8002f10:	7fba      	ldrb	r2, [r7, #30]
 8002f12:	79fb      	ldrb	r3, [r7, #7]
 8002f14:	429a      	cmp	r2, r3
 8002f16:	d3c6      	bcc.n	8002ea6 <findLesserValue+0x26>
			}

		}//Terminacion de un for
		if (j == contador){
 8002f18:	7fba      	ldrb	r2, [r7, #30]
 8002f1a:	79fb      	ldrb	r3, [r7, #7]
 8002f1c:	429a      	cmp	r2, r3
 8002f1e:	d10a      	bne.n	8002f36 <findLesserValue+0xb6>
			// Si entramos en esta condicion es porque el contador j logro llegar a su posicion final
			// Si entramos aqui es porque se logro analizar todo el arreglo y se encontro la posicion que corresponde con el Fcost mas pequeo
			// de todos, tambien guardamos el valor mas pequeo, si este se repite, se sabra gracias a la bandera
			// La posicion mas pequea del F cost corresponde con la que se etsaba analizando en la posicin i
			ptrChanges->lesserFcostPosition = i;
 8002f20:	7ffa      	ldrb	r2, [r7, #31]
 8002f22:	68fb      	ldr	r3, [r7, #12]
 8002f24:	635a      	str	r2, [r3, #52]	; 0x34
			// Almacenamos en lesserFcost el valor de ese Fcost mas pequeo que se hallo
			ptrChanges->lesserFcost = decisionMtrx[i][0];
 8002f26:	7ffb      	ldrb	r3, [r7, #31]
 8002f28:	011b      	lsls	r3, r3, #4
 8002f2a:	68ba      	ldr	r2, [r7, #8]
 8002f2c:	4413      	add	r3, r2
 8002f2e:	681a      	ldr	r2, [r3, #0]
 8002f30:	68fb      	ldr	r3, [r7, #12]
 8002f32:	641a      	str	r2, [r3, #64]	; 0x40
			// paramos el primer for
			break;
 8002f34:	e006      	b.n	8002f44 <findLesserValue+0xc4>
	for(i = 0; i<contador ; i++){
 8002f36:	7ffb      	ldrb	r3, [r7, #31]
 8002f38:	3301      	adds	r3, #1
 8002f3a:	77fb      	strb	r3, [r7, #31]
 8002f3c:	7ffa      	ldrb	r2, [r7, #31]
 8002f3e:	79fb      	ldrb	r3, [r7, #7]
 8002f40:	429a      	cmp	r2, r3
 8002f42:	d3ad      	bcc.n	8002ea0 <findLesserValue+0x20>

	}//Terminacion del otro for


	// Ahora hallaremos el valor mas pequeo de H cost, solo en el caso de que la bandera correspondiente se haya levantado
	if (ptrChanges->equalFcost){
 8002f44:	68fb      	ldr	r3, [r7, #12]
 8002f46:	f893 303c 	ldrb.w	r3, [r3, #60]	; 0x3c
 8002f4a:	2b00      	cmp	r3, #0
 8002f4c:	d076      	beq.n	800303c <findLesserValue+0x1bc>
		// Si estamos aqui es porque si hay mas de un valor de F cost que corresponde con el valor mas pequeo, desempatamos buscando el Hcost mas pequeo
		// Para ello recorreremos la matriz a analizar de nuevo pero esta vez solo buscando aquellos valores que correspondan con el valor hallado de Fcost

		for(i = 0; i<contador ; i++){
 8002f4e:	2300      	movs	r3, #0
 8002f50:	77fb      	strb	r3, [r7, #31]
 8002f52:	e06e      	b.n	8003032 <findLesserValue+0x1b2>
			value_1 = decisionMtrx[i][0] / ptrChanges->lesserFcost;
 8002f54:	7ffb      	ldrb	r3, [r7, #31]
 8002f56:	011b      	lsls	r3, r3, #4
 8002f58:	68ba      	ldr	r2, [r7, #8]
 8002f5a:	4413      	add	r3, r2
 8002f5c:	edd3 6a00 	vldr	s13, [r3]
 8002f60:	68fb      	ldr	r3, [r7, #12]
 8002f62:	ed93 7a10 	vldr	s14, [r3, #64]	; 0x40
 8002f66:	eec6 7a87 	vdiv.f32	s15, s13, s14
 8002f6a:	edc7 7a06 	vstr	s15, [r7, #24]
			for(j = 0; j<contador ; j++){
 8002f6e:	2300      	movs	r3, #0
 8002f70:	77bb      	strb	r3, [r7, #30]
 8002f72:	e045      	b.n	8003000 <findLesserValue+0x180>
				value_2 = decisionMtrx[j][0] / ptrChanges->lesserFcost;
 8002f74:	7fbb      	ldrb	r3, [r7, #30]
 8002f76:	011b      	lsls	r3, r3, #4
 8002f78:	68ba      	ldr	r2, [r7, #8]
 8002f7a:	4413      	add	r3, r2
 8002f7c:	edd3 6a00 	vldr	s13, [r3]
 8002f80:	68fb      	ldr	r3, [r7, #12]
 8002f82:	ed93 7a10 	vldr	s14, [r3, #64]	; 0x40
 8002f86:	eec6 7a87 	vdiv.f32	s15, s13, s14
 8002f8a:	edc7 7a05 	vstr	s15, [r7, #20]
 				if (i == j){
 8002f8e:	7ffa      	ldrb	r2, [r7, #31]
 8002f90:	7fbb      	ldrb	r3, [r7, #30]
 8002f92:	429a      	cmp	r2, r3
 8002f94:	d101      	bne.n	8002f9a <findLesserValue+0x11a>
					// Si estamos aqui es porque estamos analizando la posicin de analisis, por lo que lo ignoramos
					__NOP();
 8002f96:	bf00      	nop
 8002f98:	e02f      	b.n	8002ffa <findLesserValue+0x17a>
				}else if (value_1 == 1 && value_2 == 1){
 8002f9a:	edd7 7a06 	vldr	s15, [r7, #24]
 8002f9e:	eeb7 7a00 	vmov.f32	s14, #112	; 0x3f800000  1.0
 8002fa2:	eef4 7a47 	vcmp.f32	s15, s14
 8002fa6:	eef1 fa10 	vmrs	APSR_nzcv, fpscr
 8002faa:	d11c      	bne.n	8002fe6 <findLesserValue+0x166>
 8002fac:	edd7 7a05 	vldr	s15, [r7, #20]
 8002fb0:	eeb7 7a00 	vmov.f32	s14, #112	; 0x3f800000  1.0
 8002fb4:	eef4 7a47 	vcmp.f32	s15, s14
 8002fb8:	eef1 fa10 	vmrs	APSR_nzcv, fpscr
 8002fbc:	d113      	bne.n	8002fe6 <findLesserValue+0x166>
					// Si estamos aca es porque podemos hacer la comparacin pero esta vez con la matriz heuristica
					if (decisionMtrx[i][1] <= decisionMtrx[j][1]){
 8002fbe:	7ffb      	ldrb	r3, [r7, #31]
 8002fc0:	011b      	lsls	r3, r3, #4
 8002fc2:	68ba      	ldr	r2, [r7, #8]
 8002fc4:	4413      	add	r3, r2
 8002fc6:	ed93 7a01 	vldr	s14, [r3, #4]
 8002fca:	7fbb      	ldrb	r3, [r7, #30]
 8002fcc:	011b      	lsls	r3, r3, #4
 8002fce:	68ba      	ldr	r2, [r7, #8]
 8002fd0:	4413      	add	r3, r2
 8002fd2:	edd3 7a01 	vldr	s15, [r3, #4]
 8002fd6:	eeb4 7ae7 	vcmpe.f32	s14, s15
 8002fda:	eef1 fa10 	vmrs	APSR_nzcv, fpscr
 8002fde:	d900      	bls.n	8002fe2 <findLesserValue+0x162>
						// Si estamos aca es porque efectivamente el Hcost es menor o igual al resto de Hcost
						__NOP();
					}else{
						// Si estamos aqui es porque el programa hallo almenos un valor menor al analizado, por lo que no nos sirve
						break;
 8002fe0:	e014      	b.n	800300c <findLesserValue+0x18c>
						__NOP();
 8002fe2:	bf00      	nop
					if (decisionMtrx[i][1] <= decisionMtrx[j][1]){
 8002fe4:	e009      	b.n	8002ffa <findLesserValue+0x17a>
					}
				}else if (value_1 == 1){
 8002fe6:	edd7 7a06 	vldr	s15, [r7, #24]
 8002fea:	eeb7 7a00 	vmov.f32	s14, #112	; 0x3f800000  1.0
 8002fee:	eef4 7a47 	vcmp.f32	s15, s14
 8002ff2:	eef1 fa10 	vmrs	APSR_nzcv, fpscr
 8002ff6:	d108      	bne.n	800300a <findLesserValue+0x18a>
					// Si estamos aqui es porque aun podemos seguir comparando, por lo que el algoritmo debe de seguir bucando a sus iguales
					__NOP();
 8002ff8:	bf00      	nop
			for(j = 0; j<contador ; j++){
 8002ffa:	7fbb      	ldrb	r3, [r7, #30]
 8002ffc:	3301      	adds	r3, #1
 8002ffe:	77bb      	strb	r3, [r7, #30]
 8003000:	7fba      	ldrb	r2, [r7, #30]
 8003002:	79fb      	ldrb	r3, [r7, #7]
 8003004:	429a      	cmp	r2, r3
 8003006:	d3b5      	bcc.n	8002f74 <findLesserValue+0xf4>
 8003008:	e000      	b.n	800300c <findLesserValue+0x18c>
				}else {
					// Estamos en un valor que no nos interesa evaluar, por lo que lo ignoramos y salimos
					break;
 800300a:	bf00      	nop
				}

			}//Terminacion de un for
			if (j == contador){
 800300c:	7fba      	ldrb	r2, [r7, #30]
 800300e:	79fb      	ldrb	r3, [r7, #7]
 8003010:	429a      	cmp	r2, r3
 8003012:	d10b      	bne.n	800302c <findLesserValue+0x1ac>
				// Si entramos aqui es porque se logro analizar toda la matriz y se encontro la posicion que corresponde con la posicion mas pequea
				// de todas, tambien guardamos el valor mas pequeo, es muy poco probable, por no decir imposible que tengamos una misma heuristica
				//repetida
				ptrChanges->lesserHcostPosition = i;
 8003014:	7ffa      	ldrb	r2, [r7, #31]
 8003016:	68fb      	ldr	r3, [r7, #12]
 8003018:	639a      	str	r2, [r3, #56]	; 0x38
				//Almacenamos en lesserHcost el valor del Hcost mas pequeo encontrado
				ptrChanges->lesserHcost = decisionMtrx[i][1];
 800301a:	7ffb      	ldrb	r3, [r7, #31]
 800301c:	011b      	lsls	r3, r3, #4
 800301e:	68ba      	ldr	r2, [r7, #8]
 8003020:	4413      	add	r3, r2
 8003022:	685a      	ldr	r2, [r3, #4]
 8003024:	68fb      	ldr	r3, [r7, #12]
 8003026:	645a      	str	r2, [r3, #68]	; 0x44
				// Paramos el primer for
				break;
 8003028:	bf00      	nop
	}else{
		// Si estamos aca es porque no se alzo la bandera que indica que hay mas de un F cost igual por lo que no hacemos nada
		__NOP();
	}

}
 800302a:	e008      	b.n	800303e <findLesserValue+0x1be>
		for(i = 0; i<contador ; i++){
 800302c:	7ffb      	ldrb	r3, [r7, #31]
 800302e:	3301      	adds	r3, #1
 8003030:	77fb      	strb	r3, [r7, #31]
 8003032:	7ffa      	ldrb	r2, [r7, #31]
 8003034:	79fb      	ldrb	r3, [r7, #7]
 8003036:	429a      	cmp	r2, r3
 8003038:	d38c      	bcc.n	8002f54 <findLesserValue+0xd4>
}
 800303a:	e000      	b.n	800303e <findLesserValue+0x1be>
		__NOP();
 800303c:	bf00      	nop
}
 800303e:	bf00      	nop
 8003040:	3724      	adds	r7, #36	; 0x24
 8003042:	46bd      	mov	sp, r7
 8003044:	f85d 7b04 	ldr.w	r7, [sp], #4
 8003048:	4770      	bx	lr
	...

0800304c <initSerialComunication>:
	// Liberamos el arreglo de punteros
	free(shorterWayArray);

}
// Con las siguientes funciones inicializamos a los handler necesarios para poder usar la comunicacion serial desde aqui y no desde el main
void initSerialComunication (USART_Handler_t *ptrHandlerUsart, GPIO_Handler_t *ptrHandlerRx, GPIO_Handler_t *ptrHandlerTx){
 800304c:	b480      	push	{r7}
 800304e:	b085      	sub	sp, #20
 8003050:	af00      	add	r7, sp, #0
 8003052:	60f8      	str	r0, [r7, #12]
 8003054:	60b9      	str	r1, [r7, #8]
 8003056:	607a      	str	r2, [r7, #4]

	// Inicializamos para el modulo Usart, no se necesita configurar ya que ya en el main se configuro con el handler especfico
	handlerAstarUsart.ptrUSARTx                      = ptrHandlerUsart->ptrUSARTx;
 8003058:	68fb      	ldr	r3, [r7, #12]
 800305a:	681b      	ldr	r3, [r3, #0]
 800305c:	4a2d      	ldr	r2, [pc, #180]	; (8003114 <initSerialComunication+0xc8>)
 800305e:	6013      	str	r3, [r2, #0]
	handlerAstarUsart.USART_Config.USART_MCUvelocity = ptrHandlerUsart->USART_Config.USART_MCUvelocity;
 8003060:	68fb      	ldr	r3, [r7, #12]
 8003062:	68db      	ldr	r3, [r3, #12]
 8003064:	4a2b      	ldr	r2, [pc, #172]	; (8003114 <initSerialComunication+0xc8>)
 8003066:	60d3      	str	r3, [r2, #12]
	handlerAstarUsart.USART_Config.USART_baudrate    = ptrHandlerUsart->USART_Config.USART_baudrate;
 8003068:	68fb      	ldr	r3, [r7, #12]
 800306a:	79da      	ldrb	r2, [r3, #7]
 800306c:	4b29      	ldr	r3, [pc, #164]	; (8003114 <initSerialComunication+0xc8>)
 800306e:	71da      	strb	r2, [r3, #7]
	handlerAstarUsart.USART_Config.USART_enableInTx  = ptrHandlerUsart->USART_Config.USART_enableInTx;
 8003070:	68fb      	ldr	r3, [r7, #12]
 8003072:	791a      	ldrb	r2, [r3, #4]
 8003074:	4b27      	ldr	r3, [pc, #156]	; (8003114 <initSerialComunication+0xc8>)
 8003076:	711a      	strb	r2, [r3, #4]
	handlerAstarUsart.USART_Config.USART_mode        = ptrHandlerUsart->USART_Config.USART_mode;
 8003078:	68fb      	ldr	r3, [r7, #12]
 800307a:	799a      	ldrb	r2, [r3, #6]
 800307c:	4b25      	ldr	r3, [pc, #148]	; (8003114 <initSerialComunication+0xc8>)
 800307e:	719a      	strb	r2, [r3, #6]
	handlerAstarUsart.USART_Config.USART_parity      = ptrHandlerUsart->USART_Config.USART_parity;
 8003080:	68fb      	ldr	r3, [r7, #12]
 8003082:	7a5a      	ldrb	r2, [r3, #9]
 8003084:	4b23      	ldr	r3, [pc, #140]	; (8003114 <initSerialComunication+0xc8>)
 8003086:	725a      	strb	r2, [r3, #9]
	handlerAstarUsart.USART_Config.USART_stopbits    = ptrHandlerUsart->USART_Config.USART_stopbits;
 8003088:	68fb      	ldr	r3, [r7, #12]
 800308a:	7a9a      	ldrb	r2, [r3, #10]
 800308c:	4b21      	ldr	r3, [pc, #132]	; (8003114 <initSerialComunication+0xc8>)
 800308e:	729a      	strb	r2, [r3, #10]
	handlerAstarUsart.USART_Config.USART_datasize    = ptrHandlerUsart->USART_Config.USART_datasize;
 8003090:	68fb      	ldr	r3, [r7, #12]
 8003092:	7a1a      	ldrb	r2, [r3, #8]
 8003094:	4b1f      	ldr	r3, [pc, #124]	; (8003114 <initSerialComunication+0xc8>)
 8003096:	721a      	strb	r2, [r3, #8]

	// Hacemos lo mismo con los pines Rx y Tx del GPIO
	handlerAstarPinRx.pGPIOx                             = ptrHandlerRx->pGPIOx;
 8003098:	68bb      	ldr	r3, [r7, #8]
 800309a:	681b      	ldr	r3, [r3, #0]
 800309c:	4a1e      	ldr	r2, [pc, #120]	; (8003118 <initSerialComunication+0xcc>)
 800309e:	6013      	str	r3, [r2, #0]
	handlerAstarPinRx.GPIO_PinConfig.GPIO_PinAltFunMode  = ptrHandlerRx->GPIO_PinConfig.GPIO_PinAltFunMode;
 80030a0:	68bb      	ldr	r3, [r7, #8]
 80030a2:	7a5a      	ldrb	r2, [r3, #9]
 80030a4:	4b1c      	ldr	r3, [pc, #112]	; (8003118 <initSerialComunication+0xcc>)
 80030a6:	725a      	strb	r2, [r3, #9]
	handlerAstarPinRx.GPIO_PinConfig.GPIO_PinMode        = ptrHandlerRx->GPIO_PinConfig.GPIO_PinMode;
 80030a8:	68bb      	ldr	r3, [r7, #8]
 80030aa:	795a      	ldrb	r2, [r3, #5]
 80030ac:	4b1a      	ldr	r3, [pc, #104]	; (8003118 <initSerialComunication+0xcc>)
 80030ae:	715a      	strb	r2, [r3, #5]
	handlerAstarPinRx.GPIO_PinConfig.GPIO_PinOPType      = ptrHandlerRx->GPIO_PinConfig.GPIO_PinOPType;
 80030b0:	68bb      	ldr	r3, [r7, #8]
 80030b2:	7a1a      	ldrb	r2, [r3, #8]
 80030b4:	4b18      	ldr	r3, [pc, #96]	; (8003118 <initSerialComunication+0xcc>)
 80030b6:	721a      	strb	r2, [r3, #8]
	handlerAstarPinRx.GPIO_PinConfig.GPIO_PinNumber      = ptrHandlerRx->GPIO_PinConfig.GPIO_PinNumber;
 80030b8:	68bb      	ldr	r3, [r7, #8]
 80030ba:	791a      	ldrb	r2, [r3, #4]
 80030bc:	4b16      	ldr	r3, [pc, #88]	; (8003118 <initSerialComunication+0xcc>)
 80030be:	711a      	strb	r2, [r3, #4]
	handlerAstarPinRx.GPIO_PinConfig.GPIO_PinPuPdControl = ptrHandlerRx->GPIO_PinConfig.GPIO_PinPuPdControl;
 80030c0:	68bb      	ldr	r3, [r7, #8]
 80030c2:	79da      	ldrb	r2, [r3, #7]
 80030c4:	4b14      	ldr	r3, [pc, #80]	; (8003118 <initSerialComunication+0xcc>)
 80030c6:	71da      	strb	r2, [r3, #7]
	handlerAstarPinRx.GPIO_PinConfig.GPIO_PinSpeed       = ptrHandlerRx->GPIO_PinConfig.GPIO_PinSpeed;
 80030c8:	68bb      	ldr	r3, [r7, #8]
 80030ca:	799a      	ldrb	r2, [r3, #6]
 80030cc:	4b12      	ldr	r3, [pc, #72]	; (8003118 <initSerialComunication+0xcc>)
 80030ce:	719a      	strb	r2, [r3, #6]

	handlerAstarPinTx.pGPIOx                             = ptrHandlerTx->pGPIOx;
 80030d0:	687b      	ldr	r3, [r7, #4]
 80030d2:	681b      	ldr	r3, [r3, #0]
 80030d4:	4a11      	ldr	r2, [pc, #68]	; (800311c <initSerialComunication+0xd0>)
 80030d6:	6013      	str	r3, [r2, #0]
	handlerAstarPinTx.GPIO_PinConfig.GPIO_PinAltFunMode  = ptrHandlerTx->GPIO_PinConfig.GPIO_PinAltFunMode;
 80030d8:	687b      	ldr	r3, [r7, #4]
 80030da:	7a5a      	ldrb	r2, [r3, #9]
 80030dc:	4b0f      	ldr	r3, [pc, #60]	; (800311c <initSerialComunication+0xd0>)
 80030de:	725a      	strb	r2, [r3, #9]
	handlerAstarPinTx.GPIO_PinConfig.GPIO_PinMode        = ptrHandlerTx->GPIO_PinConfig.GPIO_PinMode;
 80030e0:	687b      	ldr	r3, [r7, #4]
 80030e2:	795a      	ldrb	r2, [r3, #5]
 80030e4:	4b0d      	ldr	r3, [pc, #52]	; (800311c <initSerialComunication+0xd0>)
 80030e6:	715a      	strb	r2, [r3, #5]
	handlerAstarPinTx.GPIO_PinConfig.GPIO_PinOPType      = ptrHandlerTx->GPIO_PinConfig.GPIO_PinOPType;
 80030e8:	687b      	ldr	r3, [r7, #4]
 80030ea:	7a1a      	ldrb	r2, [r3, #8]
 80030ec:	4b0b      	ldr	r3, [pc, #44]	; (800311c <initSerialComunication+0xd0>)
 80030ee:	721a      	strb	r2, [r3, #8]
	handlerAstarPinTx.GPIO_PinConfig.GPIO_PinNumber      = ptrHandlerTx->GPIO_PinConfig.GPIO_PinNumber;
 80030f0:	687b      	ldr	r3, [r7, #4]
 80030f2:	791a      	ldrb	r2, [r3, #4]
 80030f4:	4b09      	ldr	r3, [pc, #36]	; (800311c <initSerialComunication+0xd0>)
 80030f6:	711a      	strb	r2, [r3, #4]
	handlerAstarPinTx.GPIO_PinConfig.GPIO_PinPuPdControl = ptrHandlerTx->GPIO_PinConfig.GPIO_PinPuPdControl;
 80030f8:	687b      	ldr	r3, [r7, #4]
 80030fa:	79da      	ldrb	r2, [r3, #7]
 80030fc:	4b07      	ldr	r3, [pc, #28]	; (800311c <initSerialComunication+0xd0>)
 80030fe:	71da      	strb	r2, [r3, #7]
	handlerAstarPinTx.GPIO_PinConfig.GPIO_PinSpeed       = ptrHandlerTx->GPIO_PinConfig.GPIO_PinSpeed;
 8003100:	687b      	ldr	r3, [r7, #4]
 8003102:	799a      	ldrb	r2, [r3, #6]
 8003104:	4b05      	ldr	r3, [pc, #20]	; (800311c <initSerialComunication+0xd0>)
 8003106:	719a      	strb	r2, [r3, #6]

	// Ya seteados estos handler en teoria podriamos mandar por terminarl serial desde este .c

}
 8003108:	bf00      	nop
 800310a:	3714      	adds	r7, #20
 800310c:	46bd      	mov	sp, r7
 800310e:	f85d 7b04 	ldr.w	r7, [sp], #4
 8003112:	4770      	bx	lr
 8003114:	20000e58 	.word	0x20000e58
 8003118:	20000eec 	.word	0x20000eec
 800311c:	20000ef8 	.word	0x20000ef8

08003120 <__NVIC_EnableIRQ>:
  \details Enables a device specific interrupt in the NVIC interrupt controller.
  \param [in]      IRQn  Device specific interrupt number.
  \note    IRQn must not be negative.
 */
__STATIC_INLINE void __NVIC_EnableIRQ(IRQn_Type IRQn)
{
 8003120:	b480      	push	{r7}
 8003122:	b083      	sub	sp, #12
 8003124:	af00      	add	r7, sp, #0
 8003126:	4603      	mov	r3, r0
 8003128:	71fb      	strb	r3, [r7, #7]
  if ((int32_t)(IRQn) >= 0)
 800312a:	f997 3007 	ldrsb.w	r3, [r7, #7]
 800312e:	2b00      	cmp	r3, #0
 8003130:	db0b      	blt.n	800314a <__NVIC_EnableIRQ+0x2a>
  {
    NVIC->ISER[(((uint32_t)IRQn) >> 5UL)] = (uint32_t)(1UL << (((uint32_t)IRQn) & 0x1FUL));
 8003132:	79fb      	ldrb	r3, [r7, #7]
 8003134:	f003 021f 	and.w	r2, r3, #31
 8003138:	4907      	ldr	r1, [pc, #28]	; (8003158 <__NVIC_EnableIRQ+0x38>)
 800313a:	f997 3007 	ldrsb.w	r3, [r7, #7]
 800313e:	095b      	lsrs	r3, r3, #5
 8003140:	2001      	movs	r0, #1
 8003142:	fa00 f202 	lsl.w	r2, r0, r2
 8003146:	f841 2023 	str.w	r2, [r1, r3, lsl #2]
  }
}
 800314a:	bf00      	nop
 800314c:	370c      	adds	r7, #12
 800314e:	46bd      	mov	sp, r7
 8003150:	f85d 7b04 	ldr.w	r7, [sp], #4
 8003154:	4770      	bx	lr
 8003156:	bf00      	nop
 8003158:	e000e100 	.word	0xe000e100

0800315c <BasicTimer_Config>:
 *
 *  Como vamos a trabajar con interrupciones, antes de configurar una nueva, debemos desactivar
 *  el sistema global de interrupciones, activar la IRQ especfica y luego volver a encender
 *  el sistema.
 */
void BasicTimer_Config(BasicTimer_Handler_t *ptrBTimerHandler){
 800315c:	b580      	push	{r7, lr}
 800315e:	b084      	sub	sp, #16
 8003160:	af00      	add	r7, sp, #0
 8003162:	6078      	str	r0, [r7, #4]

	uint32_t period = 0;
 8003164:	2300      	movs	r3, #0
 8003166:	60fb      	str	r3, [r7, #12]
	uint32_t speed   = 0;
 8003168:	2300      	movs	r3, #0
 800316a:	60bb      	str	r3, [r7, #8]
  \details Disables IRQ interrupts by setting the I-bit in the CPSR.
           Can only be executed in Privileged modes.
 */
__STATIC_FORCEINLINE void __disable_irq(void)
{
  __ASM volatile ("cpsid i" : : : "memory");
 800316c:	b672      	cpsid	i
}
 800316e:	bf00      	nop

	/* 0. Desactivamos las interrupciones globales mientras configuramos el sistema.*/
	__disable_irq();

	/* 1. Activar la seal de reloj del perifrico requerido */
	if (ptrBTimerHandler->ptrTIMx == TIM1){
 8003170:	687b      	ldr	r3, [r7, #4]
 8003172:	681b      	ldr	r3, [r3, #0]
 8003174:	4a70      	ldr	r2, [pc, #448]	; (8003338 <BasicTimer_Config+0x1dc>)
 8003176:	4293      	cmp	r3, r2
 8003178:	d106      	bne.n	8003188 <BasicTimer_Config+0x2c>
		RCC->APB2ENR |= RCC_APB2ENR_TIM1EN;
 800317a:	4b70      	ldr	r3, [pc, #448]	; (800333c <BasicTimer_Config+0x1e0>)
 800317c:	6c5b      	ldr	r3, [r3, #68]	; 0x44
 800317e:	4a6f      	ldr	r2, [pc, #444]	; (800333c <BasicTimer_Config+0x1e0>)
 8003180:	f043 0301 	orr.w	r3, r3, #1
 8003184:	6453      	str	r3, [r2, #68]	; 0x44
 8003186:	e030      	b.n	80031ea <BasicTimer_Config+0x8e>

	}else if(ptrBTimerHandler->ptrTIMx == TIM2){
 8003188:	687b      	ldr	r3, [r7, #4]
 800318a:	681b      	ldr	r3, [r3, #0]
 800318c:	f1b3 4f80 	cmp.w	r3, #1073741824	; 0x40000000
 8003190:	d106      	bne.n	80031a0 <BasicTimer_Config+0x44>
		// Registro del RCC que nos activa la seal de reloj para el TIM2
		RCC->APB1ENR |= RCC_APB1ENR_TIM2EN;
 8003192:	4b6a      	ldr	r3, [pc, #424]	; (800333c <BasicTimer_Config+0x1e0>)
 8003194:	6c1b      	ldr	r3, [r3, #64]	; 0x40
 8003196:	4a69      	ldr	r2, [pc, #420]	; (800333c <BasicTimer_Config+0x1e0>)
 8003198:	f043 0301 	orr.w	r3, r3, #1
 800319c:	6413      	str	r3, [r2, #64]	; 0x40
 800319e:	e024      	b.n	80031ea <BasicTimer_Config+0x8e>
	}
	else if(ptrBTimerHandler->ptrTIMx == TIM3){
 80031a0:	687b      	ldr	r3, [r7, #4]
 80031a2:	681b      	ldr	r3, [r3, #0]
 80031a4:	4a66      	ldr	r2, [pc, #408]	; (8003340 <BasicTimer_Config+0x1e4>)
 80031a6:	4293      	cmp	r3, r2
 80031a8:	d106      	bne.n	80031b8 <BasicTimer_Config+0x5c>
		// Registro del RCC que nos activa la seal de reloj para el TIM3
		RCC->APB1ENR |= RCC_APB1ENR_TIM3EN;
 80031aa:	4b64      	ldr	r3, [pc, #400]	; (800333c <BasicTimer_Config+0x1e0>)
 80031ac:	6c1b      	ldr	r3, [r3, #64]	; 0x40
 80031ae:	4a63      	ldr	r2, [pc, #396]	; (800333c <BasicTimer_Config+0x1e0>)
 80031b0:	f043 0302 	orr.w	r3, r3, #2
 80031b4:	6413      	str	r3, [r2, #64]	; 0x40
 80031b6:	e018      	b.n	80031ea <BasicTimer_Config+0x8e>
	}
	else if(ptrBTimerHandler->ptrTIMx == TIM4){
 80031b8:	687b      	ldr	r3, [r7, #4]
 80031ba:	681b      	ldr	r3, [r3, #0]
 80031bc:	4a61      	ldr	r2, [pc, #388]	; (8003344 <BasicTimer_Config+0x1e8>)
 80031be:	4293      	cmp	r3, r2
 80031c0:	d106      	bne.n	80031d0 <BasicTimer_Config+0x74>
		// Registro del RCC que nos activa la seal de reloj para el TIM4
		RCC->APB1ENR |= RCC_APB1ENR_TIM4EN;
 80031c2:	4b5e      	ldr	r3, [pc, #376]	; (800333c <BasicTimer_Config+0x1e0>)
 80031c4:	6c1b      	ldr	r3, [r3, #64]	; 0x40
 80031c6:	4a5d      	ldr	r2, [pc, #372]	; (800333c <BasicTimer_Config+0x1e0>)
 80031c8:	f043 0304 	orr.w	r3, r3, #4
 80031cc:	6413      	str	r3, [r2, #64]	; 0x40
 80031ce:	e00c      	b.n	80031ea <BasicTimer_Config+0x8e>
	}
	else if(ptrBTimerHandler->ptrTIMx == TIM5){
 80031d0:	687b      	ldr	r3, [r7, #4]
 80031d2:	681b      	ldr	r3, [r3, #0]
 80031d4:	4a5c      	ldr	r2, [pc, #368]	; (8003348 <BasicTimer_Config+0x1ec>)
 80031d6:	4293      	cmp	r3, r2
 80031d8:	d106      	bne.n	80031e8 <BasicTimer_Config+0x8c>
		// Registro del RCC que nos activa la seal de reloj para el TIM5
		RCC->APB1ENR |= RCC_APB1ENR_TIM5EN;
 80031da:	4b58      	ldr	r3, [pc, #352]	; (800333c <BasicTimer_Config+0x1e0>)
 80031dc:	6c1b      	ldr	r3, [r3, #64]	; 0x40
 80031de:	4a57      	ldr	r2, [pc, #348]	; (800333c <BasicTimer_Config+0x1e0>)
 80031e0:	f043 0308 	orr.w	r3, r3, #8
 80031e4:	6413      	str	r3, [r2, #64]	; 0x40
 80031e6:	e000      	b.n	80031ea <BasicTimer_Config+0x8e>
	}
	else{
		__NOP();
 80031e8:	bf00      	nop
	}

	//Dejamos una relacion 1 a 1 para la velocidad de conteo del timer
	ptrBTimerHandler->ptrTIMx->CR1 &= ~(TIM_CR1_CKD);
 80031ea:	687b      	ldr	r3, [r7, #4]
 80031ec:	681b      	ldr	r3, [r3, #0]
 80031ee:	681a      	ldr	r2, [r3, #0]
 80031f0:	687b      	ldr	r3, [r7, #4]
 80031f2:	681b      	ldr	r3, [r3, #0]
 80031f4:	f422 7240 	bic.w	r2, r2, #768	; 0x300
 80031f8:	601a      	str	r2, [r3, #0]
	 * Recordar que el prescaler nos indica la velocidad a la que se incrementa el counter, de forma que
	 * periodo_incremento * veces_incremento_counter = periodo_update
	 * Modificar el valor del registro PSC en el TIM utilizado
	 */

	ptrBTimerHandler->ptrTIMx->PSC = ptrBTimerHandler->TIMx_Config.TIMx_speed;
 80031fa:	687b      	ldr	r3, [r7, #4]
 80031fc:	681b      	ldr	r3, [r3, #0]
 80031fe:	687a      	ldr	r2, [r7, #4]
 8003200:	6892      	ldr	r2, [r2, #8]
 8003202:	629a      	str	r2, [r3, #40]	; 0x28


	/* 3. Configuramos la direccin del counter (up/down)*/
	if(ptrBTimerHandler->TIMx_Config.TIMx_mode == BTIMER_MODE_UP){
 8003204:	687b      	ldr	r3, [r7, #4]
 8003206:	791b      	ldrb	r3, [r3, #4]
 8003208:	2b00      	cmp	r3, #0
 800320a:	d144      	bne.n	8003296 <BasicTimer_Config+0x13a>

		/* 3a. Estamos en UP_Mode, el limite se carga en ARR y se comienza en 0 */
		// Configurar el registro que nos controla el modo up or down
		ptrBTimerHandler->ptrTIMx->CR1 &= ~TIM_CR1_DIR;
 800320c:	687b      	ldr	r3, [r7, #4]
 800320e:	681b      	ldr	r3, [r3, #0]
 8003210:	681a      	ldr	r2, [r3, #0]
 8003212:	687b      	ldr	r3, [r7, #4]
 8003214:	681b      	ldr	r3, [r3, #0]
 8003216:	f022 0210 	bic.w	r2, r2, #16
 800321a:	601a      	str	r2, [r3, #0]

		speed = ptrBTimerHandler->TIMx_Config.TIMx_speed;
 800321c:	687b      	ldr	r3, [r7, #4]
 800321e:	689b      	ldr	r3, [r3, #8]
 8003220:	60bb      	str	r3, [r7, #8]

		/* 3b. Configuramos el Auto-reload. Este es el "limite" hasta donde el CNT va a contar */
		if ((speed == BTIMER_SPEED_16MHz_10us )  ||(speed == BTIMER_SPEED_100MHz_10us)){
 8003222:	68bb      	ldr	r3, [r7, #8]
 8003224:	2ba0      	cmp	r3, #160	; 0xa0
 8003226:	d003      	beq.n	8003230 <BasicTimer_Config+0xd4>
 8003228:	68bb      	ldr	r3, [r7, #8]
 800322a:	f5b3 7f7a 	cmp.w	r3, #1000	; 0x3e8
 800322e:	d10b      	bne.n	8003248 <BasicTimer_Config+0xec>

			period = ptrBTimerHandler->TIMx_Config.TIMx_period * 100 ;
 8003230:	687b      	ldr	r3, [r7, #4]
 8003232:	68db      	ldr	r3, [r3, #12]
 8003234:	2264      	movs	r2, #100	; 0x64
 8003236:	fb02 f303 	mul.w	r3, r2, r3
 800323a:	60fb      	str	r3, [r7, #12]

			ptrBTimerHandler->ptrTIMx->ARR = period - 1;
 800323c:	687b      	ldr	r3, [r7, #4]
 800323e:	681b      	ldr	r3, [r3, #0]
 8003240:	68fa      	ldr	r2, [r7, #12]
 8003242:	3a01      	subs	r2, #1
 8003244:	62da      	str	r2, [r3, #44]	; 0x2c
 8003246:	e021      	b.n	800328c <BasicTimer_Config+0x130>

		}else if ((speed == BTIMER_SPEED_16MHz_100us ) || (speed == BTIMER_SPEED_100MHz_100us)){
 8003248:	68bb      	ldr	r3, [r7, #8]
 800324a:	f5b3 6fc8 	cmp.w	r3, #1600	; 0x640
 800324e:	d004      	beq.n	800325a <BasicTimer_Config+0xfe>
 8003250:	68bb      	ldr	r3, [r7, #8]
 8003252:	f242 7210 	movw	r2, #10000	; 0x2710
 8003256:	4293      	cmp	r3, r2
 8003258:	d10c      	bne.n	8003274 <BasicTimer_Config+0x118>

			period = ptrBTimerHandler->TIMx_Config.TIMx_period * 10   ;
 800325a:	687b      	ldr	r3, [r7, #4]
 800325c:	68da      	ldr	r2, [r3, #12]
 800325e:	4613      	mov	r3, r2
 8003260:	009b      	lsls	r3, r3, #2
 8003262:	4413      	add	r3, r2
 8003264:	005b      	lsls	r3, r3, #1
 8003266:	60fb      	str	r3, [r7, #12]

			ptrBTimerHandler->ptrTIMx->ARR = period - 1;
 8003268:	687b      	ldr	r3, [r7, #4]
 800326a:	681b      	ldr	r3, [r3, #0]
 800326c:	68fa      	ldr	r2, [r7, #12]
 800326e:	3a01      	subs	r2, #1
 8003270:	62da      	str	r2, [r3, #44]	; 0x2c
 8003272:	e00b      	b.n	800328c <BasicTimer_Config+0x130>



		}else if ((speed == BTIMER_SPEED_16MHz_1ms )){
 8003274:	68bb      	ldr	r3, [r7, #8]
 8003276:	f5b3 5f7a 	cmp.w	r3, #16000	; 0x3e80
 800327a:	d107      	bne.n	800328c <BasicTimer_Config+0x130>

			period = ptrBTimerHandler->TIMx_Config.TIMx_period    ;
 800327c:	687b      	ldr	r3, [r7, #4]
 800327e:	68db      	ldr	r3, [r3, #12]
 8003280:	60fb      	str	r3, [r7, #12]

			ptrBTimerHandler->ptrTIMx->ARR = period - 1;
 8003282:	687b      	ldr	r3, [r7, #4]
 8003284:	681b      	ldr	r3, [r3, #0]
 8003286:	68fa      	ldr	r2, [r7, #12]
 8003288:	3a01      	subs	r2, #1
 800328a:	62da      	str	r2, [r3, #44]	; 0x2c

		}


		/* 3c. Reiniciamos el registro counter*/
		ptrBTimerHandler->ptrTIMx->CNT = 0;
 800328c:	687b      	ldr	r3, [r7, #4]
 800328e:	681b      	ldr	r3, [r3, #0]
 8003290:	2200      	movs	r2, #0
 8003292:	625a      	str	r2, [r3, #36]	; 0x24
 8003294:	e013      	b.n	80032be <BasicTimer_Config+0x162>

	}else{
		/* 3a. Estamos en DOWN_Mode, el limite se carga en ARR (0) y se comienza en un valor alto
		 * Trabaja contando en direccion descendente*/
		/* Escriba codigo aca */
		ptrBTimerHandler->ptrTIMx->CR1 |= TIM_CR1_DIR;
 8003296:	687b      	ldr	r3, [r7, #4]
 8003298:	681b      	ldr	r3, [r3, #0]
 800329a:	681a      	ldr	r2, [r3, #0]
 800329c:	687b      	ldr	r3, [r7, #4]
 800329e:	681b      	ldr	r3, [r3, #0]
 80032a0:	f042 0210 	orr.w	r2, r2, #16
 80032a4:	601a      	str	r2, [r3, #0]

		/* 3b. Configuramos el Auto-reload. Este es el "limite" hasta donde el CNT va a contar
		 * En modo descendente, con numero positivos, cual es el minimi valor al que ARR puede llegar*/
		/* Escriba codigo aca */
		ptrBTimerHandler->ptrTIMx->ARR = ptrBTimerHandler->TIMx_Config.TIMx_period - 1;
 80032a6:	687b      	ldr	r3, [r7, #4]
 80032a8:	68da      	ldr	r2, [r3, #12]
 80032aa:	687b      	ldr	r3, [r7, #4]
 80032ac:	681b      	ldr	r3, [r3, #0]
 80032ae:	3a01      	subs	r2, #1
 80032b0:	62da      	str	r2, [r3, #44]	; 0x2c

		/* 3c. Reiniciamos el registro counter
		 * Este es el valor con el que el counter comienza */
		ptrBTimerHandler->ptrTIMx->CNT = ptrBTimerHandler->TIMx_Config.TIMx_period - 1;
 80032b2:	687b      	ldr	r3, [r7, #4]
 80032b4:	68da      	ldr	r2, [r3, #12]
 80032b6:	687b      	ldr	r3, [r7, #4]
 80032b8:	681b      	ldr	r3, [r3, #0]
 80032ba:	3a01      	subs	r2, #1
 80032bc:	625a      	str	r2, [r3, #36]	; 0x24
	/* 4. Activamos el Timer (el CNT debe comenzar a contar*/
	//ptrBTimerHandler->ptrTIMx->CR1 |= TIM_CR1_CEN;

	/* 5. Activamos la interrupcin debida al Timerx Utilizado
	 * Modificar el registro encargado de activar la interrupcion generada por el TIMx*/
	ptrBTimerHandler->ptrTIMx->DIER |= TIM_DIER_UIE;
 80032be:	687b      	ldr	r3, [r7, #4]
 80032c0:	681b      	ldr	r3, [r3, #0]
 80032c2:	68da      	ldr	r2, [r3, #12]
 80032c4:	687b      	ldr	r3, [r7, #4]
 80032c6:	681b      	ldr	r3, [r3, #0]
 80032c8:	f042 0201 	orr.w	r2, r2, #1
 80032cc:	60da      	str	r2, [r3, #12]

	/* 6. Activamos el canal del sistema NVIC para que lea la interrupcin*/
	if(ptrBTimerHandler->ptrTIMx == TIM1){
 80032ce:	687b      	ldr	r3, [r7, #4]
 80032d0:	681b      	ldr	r3, [r3, #0]
 80032d2:	4a19      	ldr	r2, [pc, #100]	; (8003338 <BasicTimer_Config+0x1dc>)
 80032d4:	4293      	cmp	r3, r2
 80032d6:	d103      	bne.n	80032e0 <BasicTimer_Config+0x184>
		// Activando en NVIC para la interrupcin del TIM1 , Especificamente la interrucion que habilita
		NVIC_EnableIRQ(TIM2_IRQn);
 80032d8:	201c      	movs	r0, #28
 80032da:	f7ff ff21 	bl	8003120 <__NVIC_EnableIRQ>
 80032de:	e024      	b.n	800332a <BasicTimer_Config+0x1ce>
	}else if(ptrBTimerHandler->ptrTIMx == TIM2){
 80032e0:	687b      	ldr	r3, [r7, #4]
 80032e2:	681b      	ldr	r3, [r3, #0]
 80032e4:	f1b3 4f80 	cmp.w	r3, #1073741824	; 0x40000000
 80032e8:	d103      	bne.n	80032f2 <BasicTimer_Config+0x196>
		// Activando en NVIC para la interrupcin del TIM2
		NVIC_EnableIRQ(TIM2_IRQn);
 80032ea:	201c      	movs	r0, #28
 80032ec:	f7ff ff18 	bl	8003120 <__NVIC_EnableIRQ>
 80032f0:	e01b      	b.n	800332a <BasicTimer_Config+0x1ce>
	}
	else if(ptrBTimerHandler->ptrTIMx == TIM3){
 80032f2:	687b      	ldr	r3, [r7, #4]
 80032f4:	681b      	ldr	r3, [r3, #0]
 80032f6:	4a12      	ldr	r2, [pc, #72]	; (8003340 <BasicTimer_Config+0x1e4>)
 80032f8:	4293      	cmp	r3, r2
 80032fa:	d103      	bne.n	8003304 <BasicTimer_Config+0x1a8>
		// Activando en NVIC para la interrupcin del TIM3
		NVIC_EnableIRQ(TIM3_IRQn);
 80032fc:	201d      	movs	r0, #29
 80032fe:	f7ff ff0f 	bl	8003120 <__NVIC_EnableIRQ>
 8003302:	e012      	b.n	800332a <BasicTimer_Config+0x1ce>
	}
	else if(ptrBTimerHandler->ptrTIMx == TIM4){
 8003304:	687b      	ldr	r3, [r7, #4]
 8003306:	681b      	ldr	r3, [r3, #0]
 8003308:	4a0e      	ldr	r2, [pc, #56]	; (8003344 <BasicTimer_Config+0x1e8>)
 800330a:	4293      	cmp	r3, r2
 800330c:	d103      	bne.n	8003316 <BasicTimer_Config+0x1ba>
		// Activando en NVIC para la interrupcin del TIM4
		NVIC_EnableIRQ(TIM4_IRQn);
 800330e:	201e      	movs	r0, #30
 8003310:	f7ff ff06 	bl	8003120 <__NVIC_EnableIRQ>
 8003314:	e009      	b.n	800332a <BasicTimer_Config+0x1ce>
	}
	else if(ptrBTimerHandler->ptrTIMx == TIM5){
 8003316:	687b      	ldr	r3, [r7, #4]
 8003318:	681b      	ldr	r3, [r3, #0]
 800331a:	4a0b      	ldr	r2, [pc, #44]	; (8003348 <BasicTimer_Config+0x1ec>)
 800331c:	4293      	cmp	r3, r2
 800331e:	d103      	bne.n	8003328 <BasicTimer_Config+0x1cc>
		// Activando en NVIC para la interrupcin del TIM5
		NVIC_EnableIRQ(TIM5_IRQn);
 8003320:	2032      	movs	r0, #50	; 0x32
 8003322:	f7ff fefd 	bl	8003120 <__NVIC_EnableIRQ>
 8003326:	e000      	b.n	800332a <BasicTimer_Config+0x1ce>
	}
	else{
		__NOP();
 8003328:	bf00      	nop
  __ASM volatile ("cpsie i" : : : "memory");
 800332a:	b662      	cpsie	i
}
 800332c:	bf00      	nop
	}

	/* 7. Volvemos a activar las interrupciones del sistema */
	__enable_irq();
}
 800332e:	bf00      	nop
 8003330:	3710      	adds	r7, #16
 8003332:	46bd      	mov	sp, r7
 8003334:	bd80      	pop	{r7, pc}
 8003336:	bf00      	nop
 8003338:	40010000 	.word	0x40010000
 800333c:	40023800 	.word	0x40023800
 8003340:	40000400 	.word	0x40000400
 8003344:	40000800 	.word	0x40000800
 8003348:	40000c00 	.word	0x40000c00

0800334c <BasicTimer2_Callback>:
	            the BasicTimerX_Callback could be implemented in the main file
	   */
	__NOP();
}

__attribute__((weak)) void BasicTimer2_Callback(void){
 800334c:	b480      	push	{r7}
 800334e:	af00      	add	r7, sp, #0
	  /* NOTE : This function should not be modified, when the callback is needed,
	            the BasicTimerX_Callback could be implemented in the main file
	   */
	__NOP();
 8003350:	bf00      	nop
}
 8003352:	bf00      	nop
 8003354:	46bd      	mov	sp, r7
 8003356:	f85d 7b04 	ldr.w	r7, [sp], #4
 800335a:	4770      	bx	lr

0800335c <BasicTimer4_Callback>:
	  /* NOTE : This function should not be modified, when the callback is needed,
	            the BasicTimerX_Callback could be implemented in the main file
	   */
	__NOP();
}
__attribute__((weak)) void BasicTimer4_Callback(void){
 800335c:	b480      	push	{r7}
 800335e:	af00      	add	r7, sp, #0
	  /* NOTE : This function should not be modified, when the callback is needed,
	            the BasicTimerX_Callback could be implemented in the main file
	   */
	__NOP();
 8003360:	bf00      	nop
}
 8003362:	bf00      	nop
 8003364:	46bd      	mov	sp, r7
 8003366:	f85d 7b04 	ldr.w	r7, [sp], #4
 800336a:	4770      	bx	lr

0800336c <BasicTimer5_Callback>:
__attribute__((weak)) void BasicTimer5_Callback(void){
 800336c:	b480      	push	{r7}
 800336e:	af00      	add	r7, sp, #0
	  /* NOTE : This function should not be modified, when the callback is needed,
	            the BasicTimerX_Callback could be implemented in the main file
	   */
	__NOP();
 8003370:	bf00      	nop
}
 8003372:	bf00      	nop
 8003374:	46bd      	mov	sp, r7
 8003376:	f85d 7b04 	ldr.w	r7, [sp], #4
 800337a:	4770      	bx	lr

0800337c <Capture_TIM2_Ch1_Callback>:

__attribute__((weak)) void Capture_TIM2_Ch1_Callback(void){
 800337c:	b480      	push	{r7}
 800337e:	af00      	add	r7, sp, #0
	  /* NOTE : This function should not be modified, when the callback is needed,
	            the BasicTimerX_Callback could be implemented in the main file
	   */
	__NOP();
 8003380:	bf00      	nop
}
 8003382:	bf00      	nop
 8003384:	46bd      	mov	sp, r7
 8003386:	f85d 7b04 	ldr.w	r7, [sp], #4
 800338a:	4770      	bx	lr

0800338c <Capture_TIM2_Ch2_Callback>:
__attribute__((weak)) void Capture_TIM2_Ch2_Callback(void){
 800338c:	b480      	push	{r7}
 800338e:	af00      	add	r7, sp, #0
	  /* NOTE : This function should not be modified, when the callback is needed,
	            the BasicTimerX_Callback could be implemented in the main file
	   */
	__NOP();
 8003390:	bf00      	nop
}
 8003392:	bf00      	nop
 8003394:	46bd      	mov	sp, r7
 8003396:	f85d 7b04 	ldr.w	r7, [sp], #4
 800339a:	4770      	bx	lr

0800339c <Capture_TIM2_Ch3_Callback>:
__attribute__((weak)) void Capture_TIM2_Ch3_Callback(void){
 800339c:	b480      	push	{r7}
 800339e:	af00      	add	r7, sp, #0
	  /* NOTE : This function should not be modified, when the callback is needed,
	            the BasicTimerX_Callback could be implemented in the main file
	   */
	__NOP();
 80033a0:	bf00      	nop
}
 80033a2:	bf00      	nop
 80033a4:	46bd      	mov	sp, r7
 80033a6:	f85d 7b04 	ldr.w	r7, [sp], #4
 80033aa:	4770      	bx	lr

080033ac <Capture_TIM2_Ch4_Callback>:
__attribute__((weak)) void Capture_TIM2_Ch4_Callback(void){
 80033ac:	b480      	push	{r7}
 80033ae:	af00      	add	r7, sp, #0
	  /* NOTE : This function should not be modified, when the callback is needed,
	            the BasicTimerX_Callback could be implemented in the main file
	   */
	__NOP();
 80033b0:	bf00      	nop
}
 80033b2:	bf00      	nop
 80033b4:	46bd      	mov	sp, r7
 80033b6:	f85d 7b04 	ldr.w	r7, [sp], #4
 80033ba:	4770      	bx	lr

080033bc <Capture_TIM3_Ch1_Callback>:
__attribute__((weak)) void Capture_TIM3_Ch1_Callback(void){
 80033bc:	b480      	push	{r7}
 80033be:	af00      	add	r7, sp, #0
	  /* NOTE : This function should not be modified, when the callback is needed,
	            the BasicTimerX_Callback could be implemented in the main file
	   */
	__NOP();
 80033c0:	bf00      	nop
}
 80033c2:	bf00      	nop
 80033c4:	46bd      	mov	sp, r7
 80033c6:	f85d 7b04 	ldr.w	r7, [sp], #4
 80033ca:	4770      	bx	lr

080033cc <Capture_TIM3_Ch2_Callback>:
__attribute__((weak)) void Capture_TIM3_Ch2_Callback(void){
 80033cc:	b480      	push	{r7}
 80033ce:	af00      	add	r7, sp, #0
	  /* NOTE : This function should not be modified, when the callback is needed,
	            the BasicTimerX_Callback could be implemented in the main file
	   */
	__NOP();
 80033d0:	bf00      	nop
}
 80033d2:	bf00      	nop
 80033d4:	46bd      	mov	sp, r7
 80033d6:	f85d 7b04 	ldr.w	r7, [sp], #4
 80033da:	4770      	bx	lr

080033dc <Capture_TIM3_Ch3_Callback>:
__attribute__((weak)) void Capture_TIM3_Ch3_Callback(void){
 80033dc:	b480      	push	{r7}
 80033de:	af00      	add	r7, sp, #0
	  /* NOTE : This function should not be modified, when the callback is needed,
	            the BasicTimerX_Callback could be implemented in the main file
	   */
	__NOP();
 80033e0:	bf00      	nop
}
 80033e2:	bf00      	nop
 80033e4:	46bd      	mov	sp, r7
 80033e6:	f85d 7b04 	ldr.w	r7, [sp], #4
 80033ea:	4770      	bx	lr

080033ec <Capture_TIM3_Ch4_Callback>:
__attribute__((weak)) void Capture_TIM3_Ch4_Callback(void){
 80033ec:	b480      	push	{r7}
 80033ee:	af00      	add	r7, sp, #0
	  /* NOTE : This function should not be modified, when the callback is needed,
	            the BasicTimerX_Callback could be implemented in the main file
	   */
	__NOP();
 80033f0:	bf00      	nop
}
 80033f2:	bf00      	nop
 80033f4:	46bd      	mov	sp, r7
 80033f6:	f85d 7b04 	ldr.w	r7, [sp], #4
 80033fa:	4770      	bx	lr

080033fc <Capture_TIM4_Ch1_Callback>:
__attribute__((weak)) void Capture_TIM4_Ch1_Callback(void){
 80033fc:	b480      	push	{r7}
 80033fe:	af00      	add	r7, sp, #0
	  /* NOTE : This function should not be modified, when the callback is needed,
	            the BasicTimerX_Callback could be implemented in the main file
	   */
	__NOP();
 8003400:	bf00      	nop
}
 8003402:	bf00      	nop
 8003404:	46bd      	mov	sp, r7
 8003406:	f85d 7b04 	ldr.w	r7, [sp], #4
 800340a:	4770      	bx	lr

0800340c <Capture_TIM4_Ch3_Callback>:
	  /* NOTE : This function should not be modified, when the callback is needed,
	            the BasicTimerX_Callback could be implemented in the main file
	   */
	__NOP();
}
__attribute__((weak)) void Capture_TIM4_Ch3_Callback(void){
 800340c:	b480      	push	{r7}
 800340e:	af00      	add	r7, sp, #0
	  /* NOTE : This function should not be modified, when the callback is needed,
	            the BasicTimerX_Callback could be implemented in the main file
	   */
	__NOP();
 8003410:	bf00      	nop
}
 8003412:	bf00      	nop
 8003414:	46bd      	mov	sp, r7
 8003416:	f85d 7b04 	ldr.w	r7, [sp], #4
 800341a:	4770      	bx	lr

0800341c <Capture_TIM4_Ch4_Callback>:
__attribute__((weak)) void Capture_TIM4_Ch4_Callback(void){
 800341c:	b480      	push	{r7}
 800341e:	af00      	add	r7, sp, #0
	  /* NOTE : This function should not be modified, when the callback is needed,
	            the BasicTimerX_Callback could be implemented in the main file
	   */
	__NOP();
 8003420:	bf00      	nop
}
 8003422:	bf00      	nop
 8003424:	46bd      	mov	sp, r7
 8003426:	f85d 7b04 	ldr.w	r7, [sp], #4
 800342a:	4770      	bx	lr

0800342c <Capture_TIM5_Ch1_Callback>:
__attribute__((weak)) void Capture_TIM5_Ch1_Callback(void){
 800342c:	b480      	push	{r7}
 800342e:	af00      	add	r7, sp, #0
	  /* NOTE : This function should not be modified, when the callback is needed,
	            the BasicTimerX_Callback could be implemented in the main file
	   */
	__NOP();
 8003430:	bf00      	nop
}
 8003432:	bf00      	nop
 8003434:	46bd      	mov	sp, r7
 8003436:	f85d 7b04 	ldr.w	r7, [sp], #4
 800343a:	4770      	bx	lr

0800343c <Capture_TIM5_Ch2_Callback>:
__attribute__((weak)) void Capture_TIM5_Ch2_Callback(void){
 800343c:	b480      	push	{r7}
 800343e:	af00      	add	r7, sp, #0
	  /* NOTE : This function should not be modified, when the callback is needed,
	            the BasicTimerX_Callback could be implemented in the main file
	   */
	__NOP();
 8003440:	bf00      	nop
}
 8003442:	bf00      	nop
 8003444:	46bd      	mov	sp, r7
 8003446:	f85d 7b04 	ldr.w	r7, [sp], #4
 800344a:	4770      	bx	lr

0800344c <Capture_TIM5_Ch3_Callback>:
__attribute__((weak)) void Capture_TIM5_Ch3_Callback(void){
 800344c:	b480      	push	{r7}
 800344e:	af00      	add	r7, sp, #0
	  /* NOTE : This function should not be modified, when the callback is needed,
	            the BasicTimerX_Callback could be implemented in the main file
	   */
	__NOP();
 8003450:	bf00      	nop
}
 8003452:	bf00      	nop
 8003454:	46bd      	mov	sp, r7
 8003456:	f85d 7b04 	ldr.w	r7, [sp], #4
 800345a:	4770      	bx	lr

0800345c <Capture_TIM5_Ch4_Callback>:
__attribute__((weak)) void Capture_TIM5_Ch4_Callback(void){
 800345c:	b480      	push	{r7}
 800345e:	af00      	add	r7, sp, #0
	  /* NOTE : This function should not be modified, when the callback is needed,
	            the BasicTimerX_Callback could be implemented in the main file
	   */
	__NOP();
 8003460:	bf00      	nop
}
 8003462:	bf00      	nop
 8003464:	46bd      	mov	sp, r7
 8003466:	f85d 7b04 	ldr.w	r7, [sp], #4
 800346a:	4770      	bx	lr

0800346c <TIM2_IRQHandler>:

/* Esta es la funcin a la que apunta el sistema en el vector de interrupciones.
 * Se debe utilizar usando exactamente el mismo nombre definido en el vector de interrupciones,
 * Al hacerlo correctamente, el sistema apunta a esta funcin y cuando la interrupcin se lanza
 * el sistema inmediatamente salta a este lugar en la memoria*/
void TIM2_IRQHandler(void){
 800346c:	b580      	push	{r7, lr}
 800346e:	af00      	add	r7, sp, #0
	/* Limpiamos la bandera que indica que la interrupcin se ha generado */
	if (TIM2->SR & TIM_SR_UIF){
 8003470:	f04f 4380 	mov.w	r3, #1073741824	; 0x40000000
 8003474:	691b      	ldr	r3, [r3, #16]
 8003476:	f003 0301 	and.w	r3, r3, #1
 800347a:	2b00      	cmp	r3, #0
 800347c:	d00a      	beq.n	8003494 <TIM2_IRQHandler+0x28>
			TIM2->SR &= ~TIM_SR_UIF;
 800347e:	f04f 4380 	mov.w	r3, #1073741824	; 0x40000000
 8003482:	691b      	ldr	r3, [r3, #16]
 8003484:	f04f 4280 	mov.w	r2, #1073741824	; 0x40000000
 8003488:	f023 0301 	bic.w	r3, r3, #1
 800348c:	6113      	str	r3, [r2, #16]
			/* LLamamos a la funcin que se debe encargar de hacer algo con esta interrupcin*/
			BasicTimer2_Callback();
 800348e:	f7ff ff5d 	bl	800334c <BasicTimer2_Callback>
			TIM2->SR &= ~TIM_SR_CC4IF;
			TIM2->SR &= ~TIM_SR_CC4OF;
			Capture_TIM2_Ch4_Callback();
		}

}
 8003492:	e066      	b.n	8003562 <TIM2_IRQHandler+0xf6>
		}else if (TIM2->SR & TIM_SR_CC1IF){
 8003494:	f04f 4380 	mov.w	r3, #1073741824	; 0x40000000
 8003498:	691b      	ldr	r3, [r3, #16]
 800349a:	f003 0302 	and.w	r3, r3, #2
 800349e:	2b00      	cmp	r3, #0
 80034a0:	d012      	beq.n	80034c8 <TIM2_IRQHandler+0x5c>
			TIM2->SR &= ~TIM_SR_CC1IF;
 80034a2:	f04f 4380 	mov.w	r3, #1073741824	; 0x40000000
 80034a6:	691b      	ldr	r3, [r3, #16]
 80034a8:	f04f 4280 	mov.w	r2, #1073741824	; 0x40000000
 80034ac:	f023 0302 	bic.w	r3, r3, #2
 80034b0:	6113      	str	r3, [r2, #16]
			TIM2->SR &= ~TIM_SR_CC1OF;
 80034b2:	f04f 4380 	mov.w	r3, #1073741824	; 0x40000000
 80034b6:	691b      	ldr	r3, [r3, #16]
 80034b8:	f04f 4280 	mov.w	r2, #1073741824	; 0x40000000
 80034bc:	f423 7300 	bic.w	r3, r3, #512	; 0x200
 80034c0:	6113      	str	r3, [r2, #16]
			Capture_TIM2_Ch1_Callback();
 80034c2:	f7ff ff5b 	bl	800337c <Capture_TIM2_Ch1_Callback>
}
 80034c6:	e04c      	b.n	8003562 <TIM2_IRQHandler+0xf6>
		}else if (TIM2->SR & TIM_SR_CC2IF){
 80034c8:	f04f 4380 	mov.w	r3, #1073741824	; 0x40000000
 80034cc:	691b      	ldr	r3, [r3, #16]
 80034ce:	f003 0304 	and.w	r3, r3, #4
 80034d2:	2b00      	cmp	r3, #0
 80034d4:	d012      	beq.n	80034fc <TIM2_IRQHandler+0x90>
			TIM2->SR &= ~TIM_SR_CC2IF;
 80034d6:	f04f 4380 	mov.w	r3, #1073741824	; 0x40000000
 80034da:	691b      	ldr	r3, [r3, #16]
 80034dc:	f04f 4280 	mov.w	r2, #1073741824	; 0x40000000
 80034e0:	f023 0304 	bic.w	r3, r3, #4
 80034e4:	6113      	str	r3, [r2, #16]
			TIM2->SR &= ~TIM_SR_CC2OF;
 80034e6:	f04f 4380 	mov.w	r3, #1073741824	; 0x40000000
 80034ea:	691b      	ldr	r3, [r3, #16]
 80034ec:	f04f 4280 	mov.w	r2, #1073741824	; 0x40000000
 80034f0:	f423 6380 	bic.w	r3, r3, #1024	; 0x400
 80034f4:	6113      	str	r3, [r2, #16]
			Capture_TIM2_Ch2_Callback();
 80034f6:	f7ff ff49 	bl	800338c <Capture_TIM2_Ch2_Callback>
}
 80034fa:	e032      	b.n	8003562 <TIM2_IRQHandler+0xf6>
		}else if (TIM2->SR & TIM_SR_CC3IF){
 80034fc:	f04f 4380 	mov.w	r3, #1073741824	; 0x40000000
 8003500:	691b      	ldr	r3, [r3, #16]
 8003502:	f003 0308 	and.w	r3, r3, #8
 8003506:	2b00      	cmp	r3, #0
 8003508:	d012      	beq.n	8003530 <TIM2_IRQHandler+0xc4>
			TIM2->SR &= ~TIM_SR_CC3IF;
 800350a:	f04f 4380 	mov.w	r3, #1073741824	; 0x40000000
 800350e:	691b      	ldr	r3, [r3, #16]
 8003510:	f04f 4280 	mov.w	r2, #1073741824	; 0x40000000
 8003514:	f023 0308 	bic.w	r3, r3, #8
 8003518:	6113      	str	r3, [r2, #16]
			TIM2->SR &= ~TIM_SR_CC3OF;
 800351a:	f04f 4380 	mov.w	r3, #1073741824	; 0x40000000
 800351e:	691b      	ldr	r3, [r3, #16]
 8003520:	f04f 4280 	mov.w	r2, #1073741824	; 0x40000000
 8003524:	f423 6300 	bic.w	r3, r3, #2048	; 0x800
 8003528:	6113      	str	r3, [r2, #16]
			Capture_TIM2_Ch3_Callback();
 800352a:	f7ff ff37 	bl	800339c <Capture_TIM2_Ch3_Callback>
}
 800352e:	e018      	b.n	8003562 <TIM2_IRQHandler+0xf6>
		}else if (TIM2->SR & TIM_SR_CC4IF){
 8003530:	f04f 4380 	mov.w	r3, #1073741824	; 0x40000000
 8003534:	691b      	ldr	r3, [r3, #16]
 8003536:	f003 0310 	and.w	r3, r3, #16
 800353a:	2b00      	cmp	r3, #0
 800353c:	d011      	beq.n	8003562 <TIM2_IRQHandler+0xf6>
			TIM2->SR &= ~TIM_SR_CC4IF;
 800353e:	f04f 4380 	mov.w	r3, #1073741824	; 0x40000000
 8003542:	691b      	ldr	r3, [r3, #16]
 8003544:	f04f 4280 	mov.w	r2, #1073741824	; 0x40000000
 8003548:	f023 0310 	bic.w	r3, r3, #16
 800354c:	6113      	str	r3, [r2, #16]
			TIM2->SR &= ~TIM_SR_CC4OF;
 800354e:	f04f 4380 	mov.w	r3, #1073741824	; 0x40000000
 8003552:	691b      	ldr	r3, [r3, #16]
 8003554:	f04f 4280 	mov.w	r2, #1073741824	; 0x40000000
 8003558:	f423 5380 	bic.w	r3, r3, #4096	; 0x1000
 800355c:	6113      	str	r3, [r2, #16]
			Capture_TIM2_Ch4_Callback();
 800355e:	f7ff ff25 	bl	80033ac <Capture_TIM2_Ch4_Callback>
}
 8003562:	bf00      	nop
 8003564:	bd80      	pop	{r7, pc}
	...

08003568 <TIM3_IRQHandler>:

void TIM3_IRQHandler(void){
 8003568:	b580      	push	{r7, lr}
 800356a:	af00      	add	r7, sp, #0

	/* Limpiamos la bandera que indica que la interrupcin se ha generado */
	if (TIM3->SR & TIM_SR_UIF){
 800356c:	4b31      	ldr	r3, [pc, #196]	; (8003634 <TIM3_IRQHandler+0xcc>)
 800356e:	691b      	ldr	r3, [r3, #16]
 8003570:	f003 0301 	and.w	r3, r3, #1
 8003574:	2b00      	cmp	r3, #0
 8003576:	d008      	beq.n	800358a <TIM3_IRQHandler+0x22>
		TIM3->SR &= ~TIM_SR_UIF;
 8003578:	4b2e      	ldr	r3, [pc, #184]	; (8003634 <TIM3_IRQHandler+0xcc>)
 800357a:	691b      	ldr	r3, [r3, #16]
 800357c:	4a2d      	ldr	r2, [pc, #180]	; (8003634 <TIM3_IRQHandler+0xcc>)
 800357e:	f023 0301 	bic.w	r3, r3, #1
 8003582:	6113      	str	r3, [r2, #16]
		/* LLamamos a la funcin que se debe encargar de hacer algo con esta interrupcin*/
		BasicTimer3_Callback();
 8003584:	f7fd fd96 	bl	80010b4 <BasicTimer3_Callback>
	}else if (TIM3->SR & TIM_SR_CC4IF){
		TIM3->SR &= ~TIM_SR_CC4IF;
		TIM3->SR &= ~TIM_SR_CC4OF;
		Capture_TIM3_Ch4_Callback();
	}
}
 8003588:	e052      	b.n	8003630 <TIM3_IRQHandler+0xc8>
	}else if (TIM3->SR & TIM_SR_CC1IF){
 800358a:	4b2a      	ldr	r3, [pc, #168]	; (8003634 <TIM3_IRQHandler+0xcc>)
 800358c:	691b      	ldr	r3, [r3, #16]
 800358e:	f003 0302 	and.w	r3, r3, #2
 8003592:	2b00      	cmp	r3, #0
 8003594:	d00e      	beq.n	80035b4 <TIM3_IRQHandler+0x4c>
		TIM3->SR &= ~TIM_SR_CC1IF;
 8003596:	4b27      	ldr	r3, [pc, #156]	; (8003634 <TIM3_IRQHandler+0xcc>)
 8003598:	691b      	ldr	r3, [r3, #16]
 800359a:	4a26      	ldr	r2, [pc, #152]	; (8003634 <TIM3_IRQHandler+0xcc>)
 800359c:	f023 0302 	bic.w	r3, r3, #2
 80035a0:	6113      	str	r3, [r2, #16]
		TIM3->SR &= ~TIM_SR_CC1OF;
 80035a2:	4b24      	ldr	r3, [pc, #144]	; (8003634 <TIM3_IRQHandler+0xcc>)
 80035a4:	691b      	ldr	r3, [r3, #16]
 80035a6:	4a23      	ldr	r2, [pc, #140]	; (8003634 <TIM3_IRQHandler+0xcc>)
 80035a8:	f423 7300 	bic.w	r3, r3, #512	; 0x200
 80035ac:	6113      	str	r3, [r2, #16]
		Capture_TIM3_Ch1_Callback();
 80035ae:	f7ff ff05 	bl	80033bc <Capture_TIM3_Ch1_Callback>
}
 80035b2:	e03d      	b.n	8003630 <TIM3_IRQHandler+0xc8>
	}else if (TIM3->SR & TIM_SR_CC2IF){
 80035b4:	4b1f      	ldr	r3, [pc, #124]	; (8003634 <TIM3_IRQHandler+0xcc>)
 80035b6:	691b      	ldr	r3, [r3, #16]
 80035b8:	f003 0304 	and.w	r3, r3, #4
 80035bc:	2b00      	cmp	r3, #0
 80035be:	d00e      	beq.n	80035de <TIM3_IRQHandler+0x76>
		TIM3->SR &= ~TIM_SR_CC2IF;
 80035c0:	4b1c      	ldr	r3, [pc, #112]	; (8003634 <TIM3_IRQHandler+0xcc>)
 80035c2:	691b      	ldr	r3, [r3, #16]
 80035c4:	4a1b      	ldr	r2, [pc, #108]	; (8003634 <TIM3_IRQHandler+0xcc>)
 80035c6:	f023 0304 	bic.w	r3, r3, #4
 80035ca:	6113      	str	r3, [r2, #16]
		TIM3->SR &= ~TIM_SR_CC2OF;
 80035cc:	4b19      	ldr	r3, [pc, #100]	; (8003634 <TIM3_IRQHandler+0xcc>)
 80035ce:	691b      	ldr	r3, [r3, #16]
 80035d0:	4a18      	ldr	r2, [pc, #96]	; (8003634 <TIM3_IRQHandler+0xcc>)
 80035d2:	f423 6380 	bic.w	r3, r3, #1024	; 0x400
 80035d6:	6113      	str	r3, [r2, #16]
		Capture_TIM3_Ch2_Callback();
 80035d8:	f7ff fef8 	bl	80033cc <Capture_TIM3_Ch2_Callback>
}
 80035dc:	e028      	b.n	8003630 <TIM3_IRQHandler+0xc8>
	}else if (TIM3->SR & TIM_SR_CC3IF){
 80035de:	4b15      	ldr	r3, [pc, #84]	; (8003634 <TIM3_IRQHandler+0xcc>)
 80035e0:	691b      	ldr	r3, [r3, #16]
 80035e2:	f003 0308 	and.w	r3, r3, #8
 80035e6:	2b00      	cmp	r3, #0
 80035e8:	d00e      	beq.n	8003608 <TIM3_IRQHandler+0xa0>
		TIM3->SR &= ~TIM_SR_CC3IF;
 80035ea:	4b12      	ldr	r3, [pc, #72]	; (8003634 <TIM3_IRQHandler+0xcc>)
 80035ec:	691b      	ldr	r3, [r3, #16]
 80035ee:	4a11      	ldr	r2, [pc, #68]	; (8003634 <TIM3_IRQHandler+0xcc>)
 80035f0:	f023 0308 	bic.w	r3, r3, #8
 80035f4:	6113      	str	r3, [r2, #16]
		TIM3->SR &= ~TIM_SR_CC3OF;
 80035f6:	4b0f      	ldr	r3, [pc, #60]	; (8003634 <TIM3_IRQHandler+0xcc>)
 80035f8:	691b      	ldr	r3, [r3, #16]
 80035fa:	4a0e      	ldr	r2, [pc, #56]	; (8003634 <TIM3_IRQHandler+0xcc>)
 80035fc:	f423 6300 	bic.w	r3, r3, #2048	; 0x800
 8003600:	6113      	str	r3, [r2, #16]
		Capture_TIM3_Ch3_Callback();
 8003602:	f7ff feeb 	bl	80033dc <Capture_TIM3_Ch3_Callback>
}
 8003606:	e013      	b.n	8003630 <TIM3_IRQHandler+0xc8>
	}else if (TIM3->SR & TIM_SR_CC4IF){
 8003608:	4b0a      	ldr	r3, [pc, #40]	; (8003634 <TIM3_IRQHandler+0xcc>)
 800360a:	691b      	ldr	r3, [r3, #16]
 800360c:	f003 0310 	and.w	r3, r3, #16
 8003610:	2b00      	cmp	r3, #0
 8003612:	d00d      	beq.n	8003630 <TIM3_IRQHandler+0xc8>
		TIM3->SR &= ~TIM_SR_CC4IF;
 8003614:	4b07      	ldr	r3, [pc, #28]	; (8003634 <TIM3_IRQHandler+0xcc>)
 8003616:	691b      	ldr	r3, [r3, #16]
 8003618:	4a06      	ldr	r2, [pc, #24]	; (8003634 <TIM3_IRQHandler+0xcc>)
 800361a:	f023 0310 	bic.w	r3, r3, #16
 800361e:	6113      	str	r3, [r2, #16]
		TIM3->SR &= ~TIM_SR_CC4OF;
 8003620:	4b04      	ldr	r3, [pc, #16]	; (8003634 <TIM3_IRQHandler+0xcc>)
 8003622:	691b      	ldr	r3, [r3, #16]
 8003624:	4a03      	ldr	r2, [pc, #12]	; (8003634 <TIM3_IRQHandler+0xcc>)
 8003626:	f423 5380 	bic.w	r3, r3, #4096	; 0x1000
 800362a:	6113      	str	r3, [r2, #16]
		Capture_TIM3_Ch4_Callback();
 800362c:	f7ff fede 	bl	80033ec <Capture_TIM3_Ch4_Callback>
}
 8003630:	bf00      	nop
 8003632:	bd80      	pop	{r7, pc}
 8003634:	40000400 	.word	0x40000400

08003638 <TIM4_IRQHandler>:

void TIM4_IRQHandler(void){
 8003638:	b580      	push	{r7, lr}
 800363a:	af00      	add	r7, sp, #0

	/* Limpiamos la bandera que indica que la interrupcin se ha generado */
	if (TIM4->SR & TIM_SR_UIF){
 800363c:	4b31      	ldr	r3, [pc, #196]	; (8003704 <TIM4_IRQHandler+0xcc>)
 800363e:	691b      	ldr	r3, [r3, #16]
 8003640:	f003 0301 	and.w	r3, r3, #1
 8003644:	2b00      	cmp	r3, #0
 8003646:	d008      	beq.n	800365a <TIM4_IRQHandler+0x22>
		TIM4->SR &= ~TIM_SR_UIF;
 8003648:	4b2e      	ldr	r3, [pc, #184]	; (8003704 <TIM4_IRQHandler+0xcc>)
 800364a:	691b      	ldr	r3, [r3, #16]
 800364c:	4a2d      	ldr	r2, [pc, #180]	; (8003704 <TIM4_IRQHandler+0xcc>)
 800364e:	f023 0301 	bic.w	r3, r3, #1
 8003652:	6113      	str	r3, [r2, #16]
		/* LLamamos a la funcin que se debe encargar de hacer algo con esta interrupcin*/
		BasicTimer4_Callback();
 8003654:	f7ff fe82 	bl	800335c <BasicTimer4_Callback>
		TIM4->SR &= ~TIM_SR_CC4IF;
		TIM4->SR &= ~TIM_SR_CC4OF;
		Capture_TIM4_Ch4_Callback();
	}

}
 8003658:	e052      	b.n	8003700 <TIM4_IRQHandler+0xc8>
	}else if (TIM4->SR & TIM_SR_CC1IF){
 800365a:	4b2a      	ldr	r3, [pc, #168]	; (8003704 <TIM4_IRQHandler+0xcc>)
 800365c:	691b      	ldr	r3, [r3, #16]
 800365e:	f003 0302 	and.w	r3, r3, #2
 8003662:	2b00      	cmp	r3, #0
 8003664:	d00e      	beq.n	8003684 <TIM4_IRQHandler+0x4c>
		TIM4->SR &= ~TIM_SR_CC1IF;
 8003666:	4b27      	ldr	r3, [pc, #156]	; (8003704 <TIM4_IRQHandler+0xcc>)
 8003668:	691b      	ldr	r3, [r3, #16]
 800366a:	4a26      	ldr	r2, [pc, #152]	; (8003704 <TIM4_IRQHandler+0xcc>)
 800366c:	f023 0302 	bic.w	r3, r3, #2
 8003670:	6113      	str	r3, [r2, #16]
		TIM4->SR &= ~TIM_SR_CC1OF;
 8003672:	4b24      	ldr	r3, [pc, #144]	; (8003704 <TIM4_IRQHandler+0xcc>)
 8003674:	691b      	ldr	r3, [r3, #16]
 8003676:	4a23      	ldr	r2, [pc, #140]	; (8003704 <TIM4_IRQHandler+0xcc>)
 8003678:	f423 7300 	bic.w	r3, r3, #512	; 0x200
 800367c:	6113      	str	r3, [r2, #16]
		Capture_TIM4_Ch1_Callback();
 800367e:	f7ff febd 	bl	80033fc <Capture_TIM4_Ch1_Callback>
}
 8003682:	e03d      	b.n	8003700 <TIM4_IRQHandler+0xc8>
	}else if (TIM4->SR & TIM_SR_CC2IF){
 8003684:	4b1f      	ldr	r3, [pc, #124]	; (8003704 <TIM4_IRQHandler+0xcc>)
 8003686:	691b      	ldr	r3, [r3, #16]
 8003688:	f003 0304 	and.w	r3, r3, #4
 800368c:	2b00      	cmp	r3, #0
 800368e:	d00e      	beq.n	80036ae <TIM4_IRQHandler+0x76>
		TIM4->SR &= ~TIM_SR_CC2IF;
 8003690:	4b1c      	ldr	r3, [pc, #112]	; (8003704 <TIM4_IRQHandler+0xcc>)
 8003692:	691b      	ldr	r3, [r3, #16]
 8003694:	4a1b      	ldr	r2, [pc, #108]	; (8003704 <TIM4_IRQHandler+0xcc>)
 8003696:	f023 0304 	bic.w	r3, r3, #4
 800369a:	6113      	str	r3, [r2, #16]
		TIM4->SR &= ~TIM_SR_CC2OF;
 800369c:	4b19      	ldr	r3, [pc, #100]	; (8003704 <TIM4_IRQHandler+0xcc>)
 800369e:	691b      	ldr	r3, [r3, #16]
 80036a0:	4a18      	ldr	r2, [pc, #96]	; (8003704 <TIM4_IRQHandler+0xcc>)
 80036a2:	f423 6380 	bic.w	r3, r3, #1024	; 0x400
 80036a6:	6113      	str	r3, [r2, #16]
		Capture_TIM5_Ch2_Callback();
 80036a8:	f7ff fec8 	bl	800343c <Capture_TIM5_Ch2_Callback>
}
 80036ac:	e028      	b.n	8003700 <TIM4_IRQHandler+0xc8>
	}else if (TIM4->SR & TIM_SR_CC3IF){
 80036ae:	4b15      	ldr	r3, [pc, #84]	; (8003704 <TIM4_IRQHandler+0xcc>)
 80036b0:	691b      	ldr	r3, [r3, #16]
 80036b2:	f003 0308 	and.w	r3, r3, #8
 80036b6:	2b00      	cmp	r3, #0
 80036b8:	d00e      	beq.n	80036d8 <TIM4_IRQHandler+0xa0>
		TIM4->SR &= ~TIM_SR_CC3IF;
 80036ba:	4b12      	ldr	r3, [pc, #72]	; (8003704 <TIM4_IRQHandler+0xcc>)
 80036bc:	691b      	ldr	r3, [r3, #16]
 80036be:	4a11      	ldr	r2, [pc, #68]	; (8003704 <TIM4_IRQHandler+0xcc>)
 80036c0:	f023 0308 	bic.w	r3, r3, #8
 80036c4:	6113      	str	r3, [r2, #16]
		TIM4->SR &= ~TIM_SR_CC3OF;
 80036c6:	4b0f      	ldr	r3, [pc, #60]	; (8003704 <TIM4_IRQHandler+0xcc>)
 80036c8:	691b      	ldr	r3, [r3, #16]
 80036ca:	4a0e      	ldr	r2, [pc, #56]	; (8003704 <TIM4_IRQHandler+0xcc>)
 80036cc:	f423 6300 	bic.w	r3, r3, #2048	; 0x800
 80036d0:	6113      	str	r3, [r2, #16]
		Capture_TIM4_Ch3_Callback();
 80036d2:	f7ff fe9b 	bl	800340c <Capture_TIM4_Ch3_Callback>
}
 80036d6:	e013      	b.n	8003700 <TIM4_IRQHandler+0xc8>
	}else if (TIM4->SR & TIM_SR_CC4IF){
 80036d8:	4b0a      	ldr	r3, [pc, #40]	; (8003704 <TIM4_IRQHandler+0xcc>)
 80036da:	691b      	ldr	r3, [r3, #16]
 80036dc:	f003 0310 	and.w	r3, r3, #16
 80036e0:	2b00      	cmp	r3, #0
 80036e2:	d00d      	beq.n	8003700 <TIM4_IRQHandler+0xc8>
		TIM4->SR &= ~TIM_SR_CC4IF;
 80036e4:	4b07      	ldr	r3, [pc, #28]	; (8003704 <TIM4_IRQHandler+0xcc>)
 80036e6:	691b      	ldr	r3, [r3, #16]
 80036e8:	4a06      	ldr	r2, [pc, #24]	; (8003704 <TIM4_IRQHandler+0xcc>)
 80036ea:	f023 0310 	bic.w	r3, r3, #16
 80036ee:	6113      	str	r3, [r2, #16]
		TIM4->SR &= ~TIM_SR_CC4OF;
 80036f0:	4b04      	ldr	r3, [pc, #16]	; (8003704 <TIM4_IRQHandler+0xcc>)
 80036f2:	691b      	ldr	r3, [r3, #16]
 80036f4:	4a03      	ldr	r2, [pc, #12]	; (8003704 <TIM4_IRQHandler+0xcc>)
 80036f6:	f423 5380 	bic.w	r3, r3, #4096	; 0x1000
 80036fa:	6113      	str	r3, [r2, #16]
		Capture_TIM4_Ch4_Callback();
 80036fc:	f7ff fe8e 	bl	800341c <Capture_TIM4_Ch4_Callback>
}
 8003700:	bf00      	nop
 8003702:	bd80      	pop	{r7, pc}
 8003704:	40000800 	.word	0x40000800

08003708 <TIM5_IRQHandler>:

void TIM5_IRQHandler(void){
 8003708:	b580      	push	{r7, lr}
 800370a:	af00      	add	r7, sp, #0

	/* Limpiamos la bandera que indica que la interrupcin se ha generado */
	if (TIM5->SR & TIM_SR_UIF){
 800370c:	4b31      	ldr	r3, [pc, #196]	; (80037d4 <TIM5_IRQHandler+0xcc>)
 800370e:	691b      	ldr	r3, [r3, #16]
 8003710:	f003 0301 	and.w	r3, r3, #1
 8003714:	2b00      	cmp	r3, #0
 8003716:	d008      	beq.n	800372a <TIM5_IRQHandler+0x22>
		TIM5->SR &= ~TIM_SR_UIF;
 8003718:	4b2e      	ldr	r3, [pc, #184]	; (80037d4 <TIM5_IRQHandler+0xcc>)
 800371a:	691b      	ldr	r3, [r3, #16]
 800371c:	4a2d      	ldr	r2, [pc, #180]	; (80037d4 <TIM5_IRQHandler+0xcc>)
 800371e:	f023 0301 	bic.w	r3, r3, #1
 8003722:	6113      	str	r3, [r2, #16]
		/* LLamamos a la funcin que se debe encargar de hacer algo con esta interrupcin*/
		BasicTimer5_Callback();
 8003724:	f7ff fe22 	bl	800336c <BasicTimer5_Callback>
		TIM5->SR &= ~TIM_SR_CC4OF;
		Capture_TIM5_Ch4_Callback();
	}


}
 8003728:	e052      	b.n	80037d0 <TIM5_IRQHandler+0xc8>
	}else if (TIM5->SR & TIM_SR_CC1IF){
 800372a:	4b2a      	ldr	r3, [pc, #168]	; (80037d4 <TIM5_IRQHandler+0xcc>)
 800372c:	691b      	ldr	r3, [r3, #16]
 800372e:	f003 0302 	and.w	r3, r3, #2
 8003732:	2b00      	cmp	r3, #0
 8003734:	d00e      	beq.n	8003754 <TIM5_IRQHandler+0x4c>
		TIM5->SR &= ~TIM_SR_CC1IF;
 8003736:	4b27      	ldr	r3, [pc, #156]	; (80037d4 <TIM5_IRQHandler+0xcc>)
 8003738:	691b      	ldr	r3, [r3, #16]
 800373a:	4a26      	ldr	r2, [pc, #152]	; (80037d4 <TIM5_IRQHandler+0xcc>)
 800373c:	f023 0302 	bic.w	r3, r3, #2
 8003740:	6113      	str	r3, [r2, #16]
		TIM5->SR &= ~TIM_SR_CC1OF;
 8003742:	4b24      	ldr	r3, [pc, #144]	; (80037d4 <TIM5_IRQHandler+0xcc>)
 8003744:	691b      	ldr	r3, [r3, #16]
 8003746:	4a23      	ldr	r2, [pc, #140]	; (80037d4 <TIM5_IRQHandler+0xcc>)
 8003748:	f423 7300 	bic.w	r3, r3, #512	; 0x200
 800374c:	6113      	str	r3, [r2, #16]
		Capture_TIM5_Ch1_Callback();
 800374e:	f7ff fe6d 	bl	800342c <Capture_TIM5_Ch1_Callback>
}
 8003752:	e03d      	b.n	80037d0 <TIM5_IRQHandler+0xc8>
	}else if (TIM5->SR & TIM_SR_CC2IF){
 8003754:	4b1f      	ldr	r3, [pc, #124]	; (80037d4 <TIM5_IRQHandler+0xcc>)
 8003756:	691b      	ldr	r3, [r3, #16]
 8003758:	f003 0304 	and.w	r3, r3, #4
 800375c:	2b00      	cmp	r3, #0
 800375e:	d00e      	beq.n	800377e <TIM5_IRQHandler+0x76>
		TIM5->SR &= ~TIM_SR_CC2IF;
 8003760:	4b1c      	ldr	r3, [pc, #112]	; (80037d4 <TIM5_IRQHandler+0xcc>)
 8003762:	691b      	ldr	r3, [r3, #16]
 8003764:	4a1b      	ldr	r2, [pc, #108]	; (80037d4 <TIM5_IRQHandler+0xcc>)
 8003766:	f023 0304 	bic.w	r3, r3, #4
 800376a:	6113      	str	r3, [r2, #16]
		TIM5->SR &= ~TIM_SR_CC2OF;
 800376c:	4b19      	ldr	r3, [pc, #100]	; (80037d4 <TIM5_IRQHandler+0xcc>)
 800376e:	691b      	ldr	r3, [r3, #16]
 8003770:	4a18      	ldr	r2, [pc, #96]	; (80037d4 <TIM5_IRQHandler+0xcc>)
 8003772:	f423 6380 	bic.w	r3, r3, #1024	; 0x400
 8003776:	6113      	str	r3, [r2, #16]
		Capture_TIM5_Ch2_Callback();
 8003778:	f7ff fe60 	bl	800343c <Capture_TIM5_Ch2_Callback>
}
 800377c:	e028      	b.n	80037d0 <TIM5_IRQHandler+0xc8>
	}else if (TIM5->SR & TIM_SR_CC3IF){
 800377e:	4b15      	ldr	r3, [pc, #84]	; (80037d4 <TIM5_IRQHandler+0xcc>)
 8003780:	691b      	ldr	r3, [r3, #16]
 8003782:	f003 0308 	and.w	r3, r3, #8
 8003786:	2b00      	cmp	r3, #0
 8003788:	d00e      	beq.n	80037a8 <TIM5_IRQHandler+0xa0>
		TIM5->SR &= ~TIM_SR_CC3IF;
 800378a:	4b12      	ldr	r3, [pc, #72]	; (80037d4 <TIM5_IRQHandler+0xcc>)
 800378c:	691b      	ldr	r3, [r3, #16]
 800378e:	4a11      	ldr	r2, [pc, #68]	; (80037d4 <TIM5_IRQHandler+0xcc>)
 8003790:	f023 0308 	bic.w	r3, r3, #8
 8003794:	6113      	str	r3, [r2, #16]
		TIM5->SR &= ~TIM_SR_CC3OF;
 8003796:	4b0f      	ldr	r3, [pc, #60]	; (80037d4 <TIM5_IRQHandler+0xcc>)
 8003798:	691b      	ldr	r3, [r3, #16]
 800379a:	4a0e      	ldr	r2, [pc, #56]	; (80037d4 <TIM5_IRQHandler+0xcc>)
 800379c:	f423 6300 	bic.w	r3, r3, #2048	; 0x800
 80037a0:	6113      	str	r3, [r2, #16]
		Capture_TIM5_Ch3_Callback();
 80037a2:	f7ff fe53 	bl	800344c <Capture_TIM5_Ch3_Callback>
}
 80037a6:	e013      	b.n	80037d0 <TIM5_IRQHandler+0xc8>
	}else if (TIM5->SR & TIM_SR_CC4IF){
 80037a8:	4b0a      	ldr	r3, [pc, #40]	; (80037d4 <TIM5_IRQHandler+0xcc>)
 80037aa:	691b      	ldr	r3, [r3, #16]
 80037ac:	f003 0310 	and.w	r3, r3, #16
 80037b0:	2b00      	cmp	r3, #0
 80037b2:	d00d      	beq.n	80037d0 <TIM5_IRQHandler+0xc8>
		TIM5->SR &= ~TIM_SR_CC4IF;
 80037b4:	4b07      	ldr	r3, [pc, #28]	; (80037d4 <TIM5_IRQHandler+0xcc>)
 80037b6:	691b      	ldr	r3, [r3, #16]
 80037b8:	4a06      	ldr	r2, [pc, #24]	; (80037d4 <TIM5_IRQHandler+0xcc>)
 80037ba:	f023 0310 	bic.w	r3, r3, #16
 80037be:	6113      	str	r3, [r2, #16]
		TIM5->SR &= ~TIM_SR_CC4OF;
 80037c0:	4b04      	ldr	r3, [pc, #16]	; (80037d4 <TIM5_IRQHandler+0xcc>)
 80037c2:	691b      	ldr	r3, [r3, #16]
 80037c4:	4a03      	ldr	r2, [pc, #12]	; (80037d4 <TIM5_IRQHandler+0xcc>)
 80037c6:	f423 5380 	bic.w	r3, r3, #4096	; 0x1000
 80037ca:	6113      	str	r3, [r2, #16]
		Capture_TIM5_Ch4_Callback();
 80037cc:	f7ff fe46 	bl	800345c <Capture_TIM5_Ch4_Callback>
}
 80037d0:	bf00      	nop
 80037d2:	bd80      	pop	{r7, pc}
 80037d4:	40000c00 	.word	0x40000c00

080037d8 <startTimer>:



void startTimer (BasicTimer_Handler_t *ptrTimerConfig){
 80037d8:	b480      	push	{r7}
 80037da:	b083      	sub	sp, #12
 80037dc:	af00      	add	r7, sp, #0
 80037de:	6078      	str	r0, [r7, #4]
	ptrTimerConfig->ptrTIMx->CR1 |= TIM_CR1_CEN;
 80037e0:	687b      	ldr	r3, [r7, #4]
 80037e2:	681b      	ldr	r3, [r3, #0]
 80037e4:	681a      	ldr	r2, [r3, #0]
 80037e6:	687b      	ldr	r3, [r7, #4]
 80037e8:	681b      	ldr	r3, [r3, #0]
 80037ea:	f042 0201 	orr.w	r2, r2, #1
 80037ee:	601a      	str	r2, [r3, #0]
}
 80037f0:	bf00      	nop
 80037f2:	370c      	adds	r7, #12
 80037f4:	46bd      	mov	sp, r7
 80037f6:	f85d 7b04 	ldr.w	r7, [sp], #4
 80037fa:	4770      	bx	lr

080037fc <GPIO_Config>:
 * Lo primero y mas importante es activar la seal del reloj principal hacia ese
 * elemento especifico (relacionado con el periferico RCC), a esto llamaremos
 * simplemente "activar el periferico o activar la seal de reloj del periferico.
 */

void GPIO_Config (GPIO_Handler_t *pGPIOHandler){
 80037fc:	b480      	push	{r7}
 80037fe:	b085      	sub	sp, #20
 8003800:	af00      	add	r7, sp, #0
 8003802:	6078      	str	r0, [r7, #4]

	//Variable para hacer todoo paso a paso
	uint32_t auxConfig = 0;
 8003804:	2300      	movs	r3, #0
 8003806:	60fb      	str	r3, [r7, #12]
	uint32_t auxPosition = 0;
 8003808:	2300      	movs	r3, #0
 800380a:	60bb      	str	r3, [r7, #8]

	// 1) Activar el periferico
	// Verificamos para GPIOA
	if (pGPIOHandler->pGPIOx == GPIOA){
 800380c:	687b      	ldr	r3, [r7, #4]
 800380e:	681b      	ldr	r3, [r3, #0]
 8003810:	4a88      	ldr	r2, [pc, #544]	; (8003a34 <GPIO_Config+0x238>)
 8003812:	4293      	cmp	r3, r2
 8003814:	d106      	bne.n	8003824 <GPIO_Config+0x28>
		//Escribimos 1 (SET) en la posicion correspondiente al GPIOA
		RCC-> AHB1ENR |= (SET << RCC_AHB1ENR_GPIOAEN_Pos);
 8003816:	4b88      	ldr	r3, [pc, #544]	; (8003a38 <GPIO_Config+0x23c>)
 8003818:	6b1b      	ldr	r3, [r3, #48]	; 0x30
 800381a:	4a87      	ldr	r2, [pc, #540]	; (8003a38 <GPIO_Config+0x23c>)
 800381c:	f043 0301 	orr.w	r3, r3, #1
 8003820:	6313      	str	r3, [r2, #48]	; 0x30
 8003822:	e03a      	b.n	800389a <GPIO_Config+0x9e>

	}
	//Verificamps para GPIOB
	else if (pGPIOHandler->pGPIOx == GPIOB){
 8003824:	687b      	ldr	r3, [r7, #4]
 8003826:	681b      	ldr	r3, [r3, #0]
 8003828:	4a84      	ldr	r2, [pc, #528]	; (8003a3c <GPIO_Config+0x240>)
 800382a:	4293      	cmp	r3, r2
 800382c:	d106      	bne.n	800383c <GPIO_Config+0x40>
			//Escribimos 1 (SET) en la posicion correspondiente al GPIOB
			RCC-> AHB1ENR |= (SET << RCC_AHB1ENR_GPIOBEN_Pos);
 800382e:	4b82      	ldr	r3, [pc, #520]	; (8003a38 <GPIO_Config+0x23c>)
 8003830:	6b1b      	ldr	r3, [r3, #48]	; 0x30
 8003832:	4a81      	ldr	r2, [pc, #516]	; (8003a38 <GPIO_Config+0x23c>)
 8003834:	f043 0302 	orr.w	r3, r3, #2
 8003838:	6313      	str	r3, [r2, #48]	; 0x30
 800383a:	e02e      	b.n	800389a <GPIO_Config+0x9e>

		}
	//Verificamos para GPIOC
	else if (pGPIOHandler->pGPIOx == GPIOC){
 800383c:	687b      	ldr	r3, [r7, #4]
 800383e:	681b      	ldr	r3, [r3, #0]
 8003840:	4a7f      	ldr	r2, [pc, #508]	; (8003a40 <GPIO_Config+0x244>)
 8003842:	4293      	cmp	r3, r2
 8003844:	d106      	bne.n	8003854 <GPIO_Config+0x58>
				//Escribimos 1 (SET) en la posicion correspondiente al GPIOB
				RCC-> AHB1ENR |= (SET << RCC_AHB1ENR_GPIOCEN_Pos);
 8003846:	4b7c      	ldr	r3, [pc, #496]	; (8003a38 <GPIO_Config+0x23c>)
 8003848:	6b1b      	ldr	r3, [r3, #48]	; 0x30
 800384a:	4a7b      	ldr	r2, [pc, #492]	; (8003a38 <GPIO_Config+0x23c>)
 800384c:	f043 0304 	orr.w	r3, r3, #4
 8003850:	6313      	str	r3, [r2, #48]	; 0x30
 8003852:	e022      	b.n	800389a <GPIO_Config+0x9e>

			}
	//Verificamos para GPIOD
		else if (pGPIOHandler->pGPIOx == GPIOD){
 8003854:	687b      	ldr	r3, [r7, #4]
 8003856:	681b      	ldr	r3, [r3, #0]
 8003858:	4a7a      	ldr	r2, [pc, #488]	; (8003a44 <GPIO_Config+0x248>)
 800385a:	4293      	cmp	r3, r2
 800385c:	d106      	bne.n	800386c <GPIO_Config+0x70>
					//Escribimos 1 (SET) en la posicion correspondiente al GPIOB
					RCC-> AHB1ENR |= (SET << RCC_AHB1ENR_GPIODEN_Pos);
 800385e:	4b76      	ldr	r3, [pc, #472]	; (8003a38 <GPIO_Config+0x23c>)
 8003860:	6b1b      	ldr	r3, [r3, #48]	; 0x30
 8003862:	4a75      	ldr	r2, [pc, #468]	; (8003a38 <GPIO_Config+0x23c>)
 8003864:	f043 0308 	orr.w	r3, r3, #8
 8003868:	6313      	str	r3, [r2, #48]	; 0x30
 800386a:	e016      	b.n	800389a <GPIO_Config+0x9e>

				}
	//Verificamos para GPIOE
		else if (pGPIOHandler->pGPIOx == GPIOE){
 800386c:	687b      	ldr	r3, [r7, #4]
 800386e:	681b      	ldr	r3, [r3, #0]
 8003870:	4a75      	ldr	r2, [pc, #468]	; (8003a48 <GPIO_Config+0x24c>)
 8003872:	4293      	cmp	r3, r2
 8003874:	d106      	bne.n	8003884 <GPIO_Config+0x88>
					//Escribimos 1 (SET) en la posicion correspondiente al GPIOB
					RCC-> AHB1ENR |= (SET << RCC_AHB1ENR_GPIOEEN_Pos);
 8003876:	4b70      	ldr	r3, [pc, #448]	; (8003a38 <GPIO_Config+0x23c>)
 8003878:	6b1b      	ldr	r3, [r3, #48]	; 0x30
 800387a:	4a6f      	ldr	r2, [pc, #444]	; (8003a38 <GPIO_Config+0x23c>)
 800387c:	f043 0310 	orr.w	r3, r3, #16
 8003880:	6313      	str	r3, [r2, #48]	; 0x30
 8003882:	e00a      	b.n	800389a <GPIO_Config+0x9e>

				}
	//Verificamos para GPIOH
		else if (pGPIOHandler->pGPIOx == GPIOH){
 8003884:	687b      	ldr	r3, [r7, #4]
 8003886:	681b      	ldr	r3, [r3, #0]
 8003888:	4a70      	ldr	r2, [pc, #448]	; (8003a4c <GPIO_Config+0x250>)
 800388a:	4293      	cmp	r3, r2
 800388c:	d105      	bne.n	800389a <GPIO_Config+0x9e>
					//Escribimos 1 (SET) en la posicion correspondiente al GPIOB
					RCC-> AHB1ENR |= (SET << RCC_AHB1ENR_GPIOHEN_Pos);
 800388e:	4b6a      	ldr	r3, [pc, #424]	; (8003a38 <GPIO_Config+0x23c>)
 8003890:	6b1b      	ldr	r3, [r3, #48]	; 0x30
 8003892:	4a69      	ldr	r2, [pc, #420]	; (8003a38 <GPIO_Config+0x23c>)
 8003894:	f043 0380 	orr.w	r3, r3, #128	; 0x80
 8003898:	6313      	str	r3, [r2, #48]	; 0x30
	 * 2) Configurando el registro GPIOx_MODER
	 * Aca estamos leyendo la config, moviendo "PinNumber" veces hacia la izquierda de ese valor (shift left)
	 * y todoo eso lo cargamos en la variable auxConfig.
	 */

	auxConfig = (pGPIOHandler -> GPIO_PinConfig.GPIO_PinMode << 2 * pGPIOHandler -> GPIO_PinConfig.GPIO_PinNumber);
 800389a:	687b      	ldr	r3, [r7, #4]
 800389c:	795b      	ldrb	r3, [r3, #5]
 800389e:	461a      	mov	r2, r3
 80038a0:	687b      	ldr	r3, [r7, #4]
 80038a2:	791b      	ldrb	r3, [r3, #4]
 80038a4:	005b      	lsls	r3, r3, #1
 80038a6:	fa02 f303 	lsl.w	r3, r2, r3
 80038aa:	60fb      	str	r3, [r7, #12]

	/*
	 * Antes de cargar el nuevo valor, limpiamos los bits especificos de ese registro (debemos escribir 0b00)
	 * para lo cual aplicamos una mascara y una operacion bitwise AND
	 */
	pGPIOHandler -> pGPIOx -> MODER &= ~(0b11 << 2 * pGPIOHandler -> GPIO_PinConfig.GPIO_PinNumber);
 80038ac:	687b      	ldr	r3, [r7, #4]
 80038ae:	681b      	ldr	r3, [r3, #0]
 80038b0:	681a      	ldr	r2, [r3, #0]
 80038b2:	687b      	ldr	r3, [r7, #4]
 80038b4:	791b      	ldrb	r3, [r3, #4]
 80038b6:	005b      	lsls	r3, r3, #1
 80038b8:	2103      	movs	r1, #3
 80038ba:	fa01 f303 	lsl.w	r3, r1, r3
 80038be:	43db      	mvns	r3, r3
 80038c0:	4619      	mov	r1, r3
 80038c2:	687b      	ldr	r3, [r7, #4]
 80038c4:	681b      	ldr	r3, [r3, #0]
 80038c6:	400a      	ands	r2, r1
 80038c8:	601a      	str	r2, [r3, #0]

	/*
	 * Cargamos a auxConfig en el registro MODER
	 */
	pGPIOHandler-> pGPIOx -> MODER |= auxConfig;
 80038ca:	687b      	ldr	r3, [r7, #4]
 80038cc:	681b      	ldr	r3, [r3, #0]
 80038ce:	6819      	ldr	r1, [r3, #0]
 80038d0:	687b      	ldr	r3, [r7, #4]
 80038d2:	681b      	ldr	r3, [r3, #0]
 80038d4:	68fa      	ldr	r2, [r7, #12]
 80038d6:	430a      	orrs	r2, r1
 80038d8:	601a      	str	r2, [r3, #0]

	/*
	 * 3) Configurando el registro GPIOx_OTYPER
	 * De nuevo, leemos y movemos el valor un numero "PinNumber" de veces
	 */
	auxConfig = (pGPIOHandler-> GPIO_PinConfig.GPIO_PinOPType << pGPIOHandler->GPIO_PinConfig.GPIO_PinNumber);
 80038da:	687b      	ldr	r3, [r7, #4]
 80038dc:	7a1b      	ldrb	r3, [r3, #8]
 80038de:	461a      	mov	r2, r3
 80038e0:	687b      	ldr	r3, [r7, #4]
 80038e2:	791b      	ldrb	r3, [r3, #4]
 80038e4:	fa02 f303 	lsl.w	r3, r2, r3
 80038e8:	60fb      	str	r3, [r7, #12]
	//Limpiamos antes de cargar

	pGPIOHandler->pGPIOx->OTYPER &= ~(SET << pGPIOHandler -> GPIO_PinConfig.GPIO_PinNumber);
 80038ea:	687b      	ldr	r3, [r7, #4]
 80038ec:	681b      	ldr	r3, [r3, #0]
 80038ee:	685a      	ldr	r2, [r3, #4]
 80038f0:	687b      	ldr	r3, [r7, #4]
 80038f2:	791b      	ldrb	r3, [r3, #4]
 80038f4:	4619      	mov	r1, r3
 80038f6:	2301      	movs	r3, #1
 80038f8:	408b      	lsls	r3, r1
 80038fa:	43db      	mvns	r3, r3
 80038fc:	4619      	mov	r1, r3
 80038fe:	687b      	ldr	r3, [r7, #4]
 8003900:	681b      	ldr	r3, [r3, #0]
 8003902:	400a      	ands	r2, r1
 8003904:	605a      	str	r2, [r3, #4]

	//Cargamos el resultado sobre el registro adecuado
	pGPIOHandler->pGPIOx->OTYPER |= auxConfig;
 8003906:	687b      	ldr	r3, [r7, #4]
 8003908:	681b      	ldr	r3, [r3, #0]
 800390a:	6859      	ldr	r1, [r3, #4]
 800390c:	687b      	ldr	r3, [r7, #4]
 800390e:	681b      	ldr	r3, [r3, #0]
 8003910:	68fa      	ldr	r2, [r7, #12]
 8003912:	430a      	orrs	r2, r1
 8003914:	605a      	str	r2, [r3, #4]

	//4) Configurando ahora la velocidad
	auxConfig = (pGPIOHandler-> GPIO_PinConfig.GPIO_PinSpeed << 2*pGPIOHandler -> GPIO_PinConfig.GPIO_PinNumber);
 8003916:	687b      	ldr	r3, [r7, #4]
 8003918:	799b      	ldrb	r3, [r3, #6]
 800391a:	461a      	mov	r2, r3
 800391c:	687b      	ldr	r3, [r7, #4]
 800391e:	791b      	ldrb	r3, [r3, #4]
 8003920:	005b      	lsls	r3, r3, #1
 8003922:	fa02 f303 	lsl.w	r3, r2, r3
 8003926:	60fb      	str	r3, [r7, #12]

	//Limpiando la posicion antes de cargar la nueva configuracion
	pGPIOHandler->pGPIOx->OSPEEDR &= ~(0b11 << 2*pGPIOHandler-> GPIO_PinConfig.GPIO_PinNumber);
 8003928:	687b      	ldr	r3, [r7, #4]
 800392a:	681b      	ldr	r3, [r3, #0]
 800392c:	689a      	ldr	r2, [r3, #8]
 800392e:	687b      	ldr	r3, [r7, #4]
 8003930:	791b      	ldrb	r3, [r3, #4]
 8003932:	005b      	lsls	r3, r3, #1
 8003934:	2103      	movs	r1, #3
 8003936:	fa01 f303 	lsl.w	r3, r1, r3
 800393a:	43db      	mvns	r3, r3
 800393c:	4619      	mov	r1, r3
 800393e:	687b      	ldr	r3, [r7, #4]
 8003940:	681b      	ldr	r3, [r3, #0]
 8003942:	400a      	ands	r2, r1
 8003944:	609a      	str	r2, [r3, #8]

	// Cargamos el resultado sobre el registro adecuado
	pGPIOHandler ->pGPIOx->OSPEEDR |= auxConfig;
 8003946:	687b      	ldr	r3, [r7, #4]
 8003948:	681b      	ldr	r3, [r3, #0]
 800394a:	6899      	ldr	r1, [r3, #8]
 800394c:	687b      	ldr	r3, [r7, #4]
 800394e:	681b      	ldr	r3, [r3, #0]
 8003950:	68fa      	ldr	r2, [r7, #12]
 8003952:	430a      	orrs	r2, r1
 8003954:	609a      	str	r2, [r3, #8]

	// 5) Configurando si se desea pull-up, pull-down o flotante
	auxConfig = (pGPIOHandler -> GPIO_PinConfig.GPIO_PinPuPdControl << 2*pGPIOHandler -> GPIO_PinConfig.GPIO_PinNumber);
 8003956:	687b      	ldr	r3, [r7, #4]
 8003958:	79db      	ldrb	r3, [r3, #7]
 800395a:	461a      	mov	r2, r3
 800395c:	687b      	ldr	r3, [r7, #4]
 800395e:	791b      	ldrb	r3, [r3, #4]
 8003960:	005b      	lsls	r3, r3, #1
 8003962:	fa02 f303 	lsl.w	r3, r2, r3
 8003966:	60fb      	str	r3, [r7, #12]

	//Limpiando la posicion antes de cargar la nueva configuracion
	pGPIOHandler ->pGPIOx -> PUPDR &= ~(0b11 << 2*pGPIOHandler -> GPIO_PinConfig.GPIO_PinNumber);
 8003968:	687b      	ldr	r3, [r7, #4]
 800396a:	681b      	ldr	r3, [r3, #0]
 800396c:	68da      	ldr	r2, [r3, #12]
 800396e:	687b      	ldr	r3, [r7, #4]
 8003970:	791b      	ldrb	r3, [r3, #4]
 8003972:	005b      	lsls	r3, r3, #1
 8003974:	2103      	movs	r1, #3
 8003976:	fa01 f303 	lsl.w	r3, r1, r3
 800397a:	43db      	mvns	r3, r3
 800397c:	4619      	mov	r1, r3
 800397e:	687b      	ldr	r3, [r7, #4]
 8003980:	681b      	ldr	r3, [r3, #0]
 8003982:	400a      	ands	r2, r1
 8003984:	60da      	str	r2, [r3, #12]

	//Cargamos el resultado sobre el registro adecuado
	pGPIOHandler-> pGPIOx->PUPDR |= auxConfig;
 8003986:	687b      	ldr	r3, [r7, #4]
 8003988:	681b      	ldr	r3, [r3, #0]
 800398a:	68d9      	ldr	r1, [r3, #12]
 800398c:	687b      	ldr	r3, [r7, #4]
 800398e:	681b      	ldr	r3, [r3, #0]
 8003990:	68fa      	ldr	r2, [r7, #12]
 8003992:	430a      	orrs	r2, r1
 8003994:	60da      	str	r2, [r3, #12]

	//Esta es la parte para la configuracion de las funciones alternativas... se vera luego
	if (pGPIOHandler -> GPIO_PinConfig.GPIO_PinMode== GPIO_MODE_ALTFN){
 8003996:	687b      	ldr	r3, [r7, #4]
 8003998:	795b      	ldrb	r3, [r3, #5]
 800399a:	2b02      	cmp	r3, #2
 800399c:	d143      	bne.n	8003a26 <GPIO_Config+0x22a>
		// seleccionamos primero si se debe utilizar el registro bajo (AFRL) o el alto (AFRM)
		if (pGPIOHandler -> GPIO_PinConfig.GPIO_PinNumber < 8){
 800399e:	687b      	ldr	r3, [r7, #4]
 80039a0:	791b      	ldrb	r3, [r3, #4]
 80039a2:	2b07      	cmp	r3, #7
 80039a4:	d81f      	bhi.n	80039e6 <GPIO_Config+0x1ea>
			//Estamos en el registro AFRL, que controla los pines del PIN_0 al PIN_7
			auxPosition = 4 * pGPIOHandler -> GPIO_PinConfig.GPIO_PinNumber;
 80039a6:	687b      	ldr	r3, [r7, #4]
 80039a8:	791b      	ldrb	r3, [r3, #4]
 80039aa:	009b      	lsls	r3, r3, #2
 80039ac:	60bb      	str	r3, [r7, #8]

			//Limpiamos primero la posicion del registro que deseamos escribir a continuacion
			pGPIOHandler -> pGPIOx->AFR[0] &= ~(0b1111 << auxPosition);
 80039ae:	687b      	ldr	r3, [r7, #4]
 80039b0:	681b      	ldr	r3, [r3, #0]
 80039b2:	6a1a      	ldr	r2, [r3, #32]
 80039b4:	210f      	movs	r1, #15
 80039b6:	68bb      	ldr	r3, [r7, #8]
 80039b8:	fa01 f303 	lsl.w	r3, r1, r3
 80039bc:	43db      	mvns	r3, r3
 80039be:	4619      	mov	r1, r3
 80039c0:	687b      	ldr	r3, [r7, #4]
 80039c2:	681b      	ldr	r3, [r3, #0]
 80039c4:	400a      	ands	r2, r1
 80039c6:	621a      	str	r2, [r3, #32]

			//Y escribimos el valor configurado en la posicion seleccionada
			pGPIOHandler-> pGPIOx->AFR[0] |= (pGPIOHandler -> GPIO_PinConfig.GPIO_PinAltFunMode << auxPosition);
 80039c8:	687b      	ldr	r3, [r7, #4]
 80039ca:	681b      	ldr	r3, [r3, #0]
 80039cc:	6a1a      	ldr	r2, [r3, #32]
 80039ce:	687b      	ldr	r3, [r7, #4]
 80039d0:	7a5b      	ldrb	r3, [r3, #9]
 80039d2:	4619      	mov	r1, r3
 80039d4:	68bb      	ldr	r3, [r7, #8]
 80039d6:	fa01 f303 	lsl.w	r3, r1, r3
 80039da:	4619      	mov	r1, r3
 80039dc:	687b      	ldr	r3, [r7, #4]
 80039de:	681b      	ldr	r3, [r3, #0]
 80039e0:	430a      	orrs	r2, r1
 80039e2:	621a      	str	r2, [r3, #32]
			//Y escribimos el valor configurado en la posicion seleccionada
			pGPIOHandler -> pGPIOx->AFR[1] |= (pGPIOHandler-> GPIO_PinConfig.GPIO_PinAltFunMode << auxPosition);

		}
	}
}//Fin del GPIO_Config
 80039e4:	e01f      	b.n	8003a26 <GPIO_Config+0x22a>
			auxPosition = 4 * (pGPIOHandler-> GPIO_PinConfig.GPIO_PinNumber -8);
 80039e6:	687b      	ldr	r3, [r7, #4]
 80039e8:	791b      	ldrb	r3, [r3, #4]
 80039ea:	3b08      	subs	r3, #8
 80039ec:	009b      	lsls	r3, r3, #2
 80039ee:	60bb      	str	r3, [r7, #8]
			pGPIOHandler -> pGPIOx->AFR[1] &= ~(0b1111<<auxPosition);
 80039f0:	687b      	ldr	r3, [r7, #4]
 80039f2:	681b      	ldr	r3, [r3, #0]
 80039f4:	6a5a      	ldr	r2, [r3, #36]	; 0x24
 80039f6:	210f      	movs	r1, #15
 80039f8:	68bb      	ldr	r3, [r7, #8]
 80039fa:	fa01 f303 	lsl.w	r3, r1, r3
 80039fe:	43db      	mvns	r3, r3
 8003a00:	4619      	mov	r1, r3
 8003a02:	687b      	ldr	r3, [r7, #4]
 8003a04:	681b      	ldr	r3, [r3, #0]
 8003a06:	400a      	ands	r2, r1
 8003a08:	625a      	str	r2, [r3, #36]	; 0x24
			pGPIOHandler -> pGPIOx->AFR[1] |= (pGPIOHandler-> GPIO_PinConfig.GPIO_PinAltFunMode << auxPosition);
 8003a0a:	687b      	ldr	r3, [r7, #4]
 8003a0c:	681b      	ldr	r3, [r3, #0]
 8003a0e:	6a5a      	ldr	r2, [r3, #36]	; 0x24
 8003a10:	687b      	ldr	r3, [r7, #4]
 8003a12:	7a5b      	ldrb	r3, [r3, #9]
 8003a14:	4619      	mov	r1, r3
 8003a16:	68bb      	ldr	r3, [r7, #8]
 8003a18:	fa01 f303 	lsl.w	r3, r1, r3
 8003a1c:	4619      	mov	r1, r3
 8003a1e:	687b      	ldr	r3, [r7, #4]
 8003a20:	681b      	ldr	r3, [r3, #0]
 8003a22:	430a      	orrs	r2, r1
 8003a24:	625a      	str	r2, [r3, #36]	; 0x24
}//Fin del GPIO_Config
 8003a26:	bf00      	nop
 8003a28:	3714      	adds	r7, #20
 8003a2a:	46bd      	mov	sp, r7
 8003a2c:	f85d 7b04 	ldr.w	r7, [sp], #4
 8003a30:	4770      	bx	lr
 8003a32:	bf00      	nop
 8003a34:	40020000 	.word	0x40020000
 8003a38:	40023800 	.word	0x40023800
 8003a3c:	40020400 	.word	0x40020400
 8003a40:	40020800 	.word	0x40020800
 8003a44:	40020c00 	.word	0x40020c00
 8003a48:	40021000 	.word	0x40021000
 8003a4c:	40021c00 	.word	0x40021c00

08003a50 <GPIO_WritePin>:
/**
 * Funcion utilizada para cambiar de estado el pin entregado en el handler, asignando
 * el valor entregado en la variable newState
 */

void GPIO_WritePin (GPIO_Handler_t *pPinHandler, uint8_t newState){
 8003a50:	b480      	push	{r7}
 8003a52:	b083      	sub	sp, #12
 8003a54:	af00      	add	r7, sp, #0
 8003a56:	6078      	str	r0, [r7, #4]
 8003a58:	460b      	mov	r3, r1
 8003a5a:	70fb      	strb	r3, [r7, #3]
	//Limpiamos la posicion que deseamos
	// pPinHandler->pGPIOx->ODR &= ~(SET<< pPinHandler->GPIO_PinConfig.GPIO_PinNumber);
	if (newState == SET){
 8003a5c:	78fb      	ldrb	r3, [r7, #3]
 8003a5e:	2b01      	cmp	r3, #1
 8003a60:	d10d      	bne.n	8003a7e <GPIO_WritePin+0x2e>
		//Trabajando con la parte baja del registro
		pPinHandler->pGPIOx->BSRR |= (SET << (pPinHandler ->GPIO_PinConfig.GPIO_PinNumber));
 8003a62:	687b      	ldr	r3, [r7, #4]
 8003a64:	681b      	ldr	r3, [r3, #0]
 8003a66:	699a      	ldr	r2, [r3, #24]
 8003a68:	687b      	ldr	r3, [r7, #4]
 8003a6a:	791b      	ldrb	r3, [r3, #4]
 8003a6c:	4619      	mov	r1, r3
 8003a6e:	2301      	movs	r3, #1
 8003a70:	408b      	lsls	r3, r1
 8003a72:	4619      	mov	r1, r3
 8003a74:	687b      	ldr	r3, [r7, #4]
 8003a76:	681b      	ldr	r3, [r3, #0]
 8003a78:	430a      	orrs	r2, r1
 8003a7a:	619a      	str	r2, [r3, #24]
	}
	else{
		//Trabajando con la parte alta del registro
				pPinHandler->pGPIOx->BSRR |= (SET << (pPinHandler ->GPIO_PinConfig.GPIO_PinNumber + 16));
	}
}
 8003a7c:	e00d      	b.n	8003a9a <GPIO_WritePin+0x4a>
				pPinHandler->pGPIOx->BSRR |= (SET << (pPinHandler ->GPIO_PinConfig.GPIO_PinNumber + 16));
 8003a7e:	687b      	ldr	r3, [r7, #4]
 8003a80:	681b      	ldr	r3, [r3, #0]
 8003a82:	699a      	ldr	r2, [r3, #24]
 8003a84:	687b      	ldr	r3, [r7, #4]
 8003a86:	791b      	ldrb	r3, [r3, #4]
 8003a88:	3310      	adds	r3, #16
 8003a8a:	2101      	movs	r1, #1
 8003a8c:	fa01 f303 	lsl.w	r3, r1, r3
 8003a90:	4619      	mov	r1, r3
 8003a92:	687b      	ldr	r3, [r7, #4]
 8003a94:	681b      	ldr	r3, [r3, #0]
 8003a96:	430a      	orrs	r2, r1
 8003a98:	619a      	str	r2, [r3, #24]
}
 8003a9a:	bf00      	nop
 8003a9c:	370c      	adds	r7, #12
 8003a9e:	46bd      	mov	sp, r7
 8003aa0:	f85d 7b04 	ldr.w	r7, [sp], #4
 8003aa4:	4770      	bx	lr

08003aa6 <GPIO_ReadPin>:

/**
 * Funcion para leer el estado de un pin especifico
 */

uint32_t GPIO_ReadPin (GPIO_Handler_t *pPinHandler){
 8003aa6:	b480      	push	{r7}
 8003aa8:	b085      	sub	sp, #20
 8003aaa:	af00      	add	r7, sp, #0
 8003aac:	6078      	str	r0, [r7, #4]
	//Creamos una variable auxiliar la cual luego retornaremos
	uint32_t pinValue = 0;
 8003aae:	2300      	movs	r3, #0
 8003ab0:	60fb      	str	r3, [r7, #12]

	// Cargamos el valor del registro IDR, Desplazado a derecha tantas veces como la ubicacion
	// del pin especifico
	uint16_t mask = (SET << pPinHandler -> GPIO_PinConfig.GPIO_PinNumber);
 8003ab2:	687b      	ldr	r3, [r7, #4]
 8003ab4:	791b      	ldrb	r3, [r3, #4]
 8003ab6:	461a      	mov	r2, r3
 8003ab8:	2301      	movs	r3, #1
 8003aba:	4093      	lsls	r3, r2
 8003abc:	817b      	strh	r3, [r7, #10]
	pinValue = (pPinHandler -> pGPIOx -> IDR);
 8003abe:	687b      	ldr	r3, [r7, #4]
 8003ac0:	681b      	ldr	r3, [r3, #0]
 8003ac2:	691b      	ldr	r3, [r3, #16]
 8003ac4:	60fb      	str	r3, [r7, #12]
	pinValue &= mask;
 8003ac6:	897b      	ldrh	r3, [r7, #10]
 8003ac8:	68fa      	ldr	r2, [r7, #12]
 8003aca:	4013      	ands	r3, r2
 8003acc:	60fb      	str	r3, [r7, #12]
	pinValue >>= (pPinHandler->GPIO_PinConfig.GPIO_PinNumber);
 8003ace:	687b      	ldr	r3, [r7, #4]
 8003ad0:	791b      	ldrb	r3, [r3, #4]
 8003ad2:	461a      	mov	r2, r3
 8003ad4:	68fb      	ldr	r3, [r7, #12]
 8003ad6:	40d3      	lsrs	r3, r2
 8003ad8:	60fb      	str	r3, [r7, #12]

	return pinValue;
 8003ada:	68fb      	ldr	r3, [r7, #12]
}
 8003adc:	4618      	mov	r0, r3
 8003ade:	3714      	adds	r7, #20
 8003ae0:	46bd      	mov	sp, r7
 8003ae2:	f85d 7b04 	ldr.w	r7, [sp], #4
 8003ae6:	4770      	bx	lr

08003ae8 <GPIOxTooglePin>:

void GPIOxTooglePin (GPIO_Handler_t *pPinState){
 8003ae8:	b580      	push	{r7, lr}
 8003aea:	b084      	sub	sp, #16
 8003aec:	af00      	add	r7, sp, #0
 8003aee:	6078      	str	r0, [r7, #4]
		uint8_t state  = GPIO_ReadPin (pPinState);
 8003af0:	6878      	ldr	r0, [r7, #4]
 8003af2:	f7ff ffd8 	bl	8003aa6 <GPIO_ReadPin>
 8003af6:	4603      	mov	r3, r0
 8003af8:	73fb      	strb	r3, [r7, #15]
		GPIO_WritePin(pPinState, !state);
 8003afa:	7bfb      	ldrb	r3, [r7, #15]
 8003afc:	2b00      	cmp	r3, #0
 8003afe:	bf0c      	ite	eq
 8003b00:	2301      	moveq	r3, #1
 8003b02:	2300      	movne	r3, #0
 8003b04:	b2db      	uxtb	r3, r3
 8003b06:	4619      	mov	r1, r3
 8003b08:	6878      	ldr	r0, [r7, #4]
 8003b0a:	f7ff ffa1 	bl	8003a50 <GPIO_WritePin>
}
 8003b0e:	bf00      	nop
 8003b10:	3710      	adds	r7, #16
 8003b12:	46bd      	mov	sp, r7
 8003b14:	bd80      	pop	{r7, pc}
	...

08003b18 <RCC_enableMaxFrequencies>:
#include "RCCHunMHz.h"
#include "GPIOxDriver.h"



void RCC_enableMaxFrequencies(void){
 8003b18:	b480      	push	{r7}
 8003b1a:	af00      	add	r7, sp, #0


	//Nos aseguramos que el PLL esta apagado para asi hacer la configuracion del mismo, ademas selecc
	RCC->CR &= ~(RCC_CR_PLLON);
 8003b1c:	4b33      	ldr	r3, [pc, #204]	; (8003bec <RCC_enableMaxFrequencies+0xd4>)
 8003b1e:	681b      	ldr	r3, [r3, #0]
 8003b20:	4a32      	ldr	r2, [pc, #200]	; (8003bec <RCC_enableMaxFrequencies+0xd4>)
 8003b22:	f023 7380 	bic.w	r3, r3, #16777216	; 0x1000000
 8003b26:	6013      	str	r3, [r2, #0]
	//Activamos el PWR parapoder activar el uso de 100MHz de velocidad
	RCC->APB1ENR = RCC_APB1ENR_PWREN;
 8003b28:	4b30      	ldr	r3, [pc, #192]	; (8003bec <RCC_enableMaxFrequencies+0xd4>)
 8003b2a:	f04f 5280 	mov.w	r2, #268435456	; 0x10000000
 8003b2e:	641a      	str	r2, [r3, #64]	; 0x40
	//Le damos la opcion al PWR de permitir al MCU para correr una frecuencia de 100MHz
	PWR->CR |= (0b11 << 14);
 8003b30:	4b2f      	ldr	r3, [pc, #188]	; (8003bf0 <RCC_enableMaxFrequencies+0xd8>)
 8003b32:	681b      	ldr	r3, [r3, #0]
 8003b34:	4a2e      	ldr	r2, [pc, #184]	; (8003bf0 <RCC_enableMaxFrequencies+0xd8>)
 8003b36:	f443 4340 	orr.w	r3, r3, #49152	; 0xc000
 8003b3a:	6013      	str	r3, [r2, #0]


	//Antes de configurar el PLL referenciamos cual sera la fuente para el PLL, en nuestro caso sera el HSI sobre el mismo
	//registro
	RCC->PLLCFGR &= 0;
 8003b3c:	4b2b      	ldr	r3, [pc, #172]	; (8003bec <RCC_enableMaxFrequencies+0xd4>)
 8003b3e:	685b      	ldr	r3, [r3, #4]
 8003b40:	4b2a      	ldr	r3, [pc, #168]	; (8003bec <RCC_enableMaxFrequencies+0xd4>)
 8003b42:	2200      	movs	r2, #0
 8003b44:	605a      	str	r2, [r3, #4]

	//Montamos sobre el RCC_PLL config las subdivisiones necesarias para obtener la salida de frecuencia de reloj que deseamos
	RCC->PLLCFGR |= (8 << RCC_PLLCFGR_PLLM_Pos);
 8003b46:	4b29      	ldr	r3, [pc, #164]	; (8003bec <RCC_enableMaxFrequencies+0xd4>)
 8003b48:	685b      	ldr	r3, [r3, #4]
 8003b4a:	4a28      	ldr	r2, [pc, #160]	; (8003bec <RCC_enableMaxFrequencies+0xd4>)
 8003b4c:	f043 0308 	orr.w	r3, r3, #8
 8003b50:	6053      	str	r3, [r2, #4]
	RCC->PLLCFGR |= (100 << RCC_PLLCFGR_PLLN_Pos);
 8003b52:	4b26      	ldr	r3, [pc, #152]	; (8003bec <RCC_enableMaxFrequencies+0xd4>)
 8003b54:	685b      	ldr	r3, [r3, #4]
 8003b56:	4a25      	ldr	r2, [pc, #148]	; (8003bec <RCC_enableMaxFrequencies+0xd4>)
 8003b58:	f443 53c8 	orr.w	r3, r3, #6400	; 0x1900
 8003b5c:	6053      	str	r3, [r2, #4]
	RCC->PLLCFGR &= ~(0b11 << RCC_PLLCFGR_PLLP_Pos);
 8003b5e:	4b23      	ldr	r3, [pc, #140]	; (8003bec <RCC_enableMaxFrequencies+0xd4>)
 8003b60:	685b      	ldr	r3, [r3, #4]
 8003b62:	4a22      	ldr	r2, [pc, #136]	; (8003bec <RCC_enableMaxFrequencies+0xd4>)
 8003b64:	f423 3340 	bic.w	r3, r3, #196608	; 0x30000
 8003b68:	6053      	str	r3, [r2, #4]

	//Configurado el PLL para salida de 100MHz entonces ya podemos activar el PLL
	RCC->CR |= RCC_CR_PLLON;
 8003b6a:	4b20      	ldr	r3, [pc, #128]	; (8003bec <RCC_enableMaxFrequencies+0xd4>)
 8003b6c:	681b      	ldr	r3, [r3, #0]
 8003b6e:	4a1f      	ldr	r2, [pc, #124]	; (8003bec <RCC_enableMaxFrequencies+0xd4>)
 8003b70:	f043 7380 	orr.w	r3, r3, #16777216	; 0x1000000
 8003b74:	6013      	str	r3, [r2, #0]
	while (!(RCC->CR & RCC_CR_PLLRDY)){
 8003b76:	e000      	b.n	8003b7a <RCC_enableMaxFrequencies+0x62>
		__NOP();
 8003b78:	bf00      	nop
	while (!(RCC->CR & RCC_CR_PLLRDY)){
 8003b7a:	4b1c      	ldr	r3, [pc, #112]	; (8003bec <RCC_enableMaxFrequencies+0xd4>)
 8003b7c:	681b      	ldr	r3, [r3, #0]
 8003b7e:	f003 7300 	and.w	r3, r3, #33554432	; 0x2000000
 8003b82:	2b00      	cmp	r3, #0
 8003b84:	d0f8      	beq.n	8003b78 <RCC_enableMaxFrequencies+0x60>
	}

	//Seleccionamos los preescalers adecuados para los AHB y APBx en el registro RCC_CFGR
	RCC->CFGR &= ~(0b111 << 13);
 8003b86:	4b19      	ldr	r3, [pc, #100]	; (8003bec <RCC_enableMaxFrequencies+0xd4>)
 8003b88:	689b      	ldr	r3, [r3, #8]
 8003b8a:	4a18      	ldr	r2, [pc, #96]	; (8003bec <RCC_enableMaxFrequencies+0xd4>)
 8003b8c:	f423 4360 	bic.w	r3, r3, #57344	; 0xe000
 8003b90:	6093      	str	r3, [r2, #8]
	RCC->CFGR |= (0b100 << 10);
 8003b92:	4b16      	ldr	r3, [pc, #88]	; (8003bec <RCC_enableMaxFrequencies+0xd4>)
 8003b94:	689b      	ldr	r3, [r3, #8]
 8003b96:	4a15      	ldr	r2, [pc, #84]	; (8003bec <RCC_enableMaxFrequencies+0xd4>)
 8003b98:	f443 5380 	orr.w	r3, r3, #4096	; 0x1000
 8003b9c:	6093      	str	r3, [r2, #8]
	RCC->CFGR &= ~(0xF << 4);
 8003b9e:	4b13      	ldr	r3, [pc, #76]	; (8003bec <RCC_enableMaxFrequencies+0xd4>)
 8003ba0:	689b      	ldr	r3, [r3, #8]
 8003ba2:	4a12      	ldr	r2, [pc, #72]	; (8003bec <RCC_enableMaxFrequencies+0xd4>)
 8003ba4:	f023 03f0 	bic.w	r3, r3, #240	; 0xf0
 8003ba8:	6093      	str	r3, [r2, #8]

	//Antes de configurar el PLL del RCC, debemos cambiar la velocidad de lectura de la memoria flash
	FLASH->ACR &= ~(0xF << FLASH_ACR_LATENCY_Pos);
 8003baa:	4b12      	ldr	r3, [pc, #72]	; (8003bf4 <RCC_enableMaxFrequencies+0xdc>)
 8003bac:	681b      	ldr	r3, [r3, #0]
 8003bae:	4a11      	ldr	r2, [pc, #68]	; (8003bf4 <RCC_enableMaxFrequencies+0xdc>)
 8003bb0:	f023 030f 	bic.w	r3, r3, #15
 8003bb4:	6013      	str	r3, [r2, #0]
	FLASH->ACR |= (0b011 << FLASH_ACR_LATENCY_Pos);
 8003bb6:	4b0f      	ldr	r3, [pc, #60]	; (8003bf4 <RCC_enableMaxFrequencies+0xdc>)
 8003bb8:	681b      	ldr	r3, [r3, #0]
 8003bba:	4a0e      	ldr	r2, [pc, #56]	; (8003bf4 <RCC_enableMaxFrequencies+0xdc>)
 8003bbc:	f043 0303 	orr.w	r3, r3, #3
 8003bc0:	6013      	str	r3, [r2, #0]


	// Se configura como system clock al PLL
	RCC->CFGR |= RCC_CFGR_SW_PLL;
 8003bc2:	4b0a      	ldr	r3, [pc, #40]	; (8003bec <RCC_enableMaxFrequencies+0xd4>)
 8003bc4:	689b      	ldr	r3, [r3, #8]
 8003bc6:	4a09      	ldr	r2, [pc, #36]	; (8003bec <RCC_enableMaxFrequencies+0xd4>)
 8003bc8:	f043 0302 	orr.w	r3, r3, #2
 8003bcc:	6093      	str	r3, [r2, #8]

	while(!(RCC->CFGR & RCC_CFGR_SWS_PLL)){
 8003bce:	e000      	b.n	8003bd2 <RCC_enableMaxFrequencies+0xba>
		__NOP();
 8003bd0:	bf00      	nop
	while(!(RCC->CFGR & RCC_CFGR_SWS_PLL)){
 8003bd2:	4b06      	ldr	r3, [pc, #24]	; (8003bec <RCC_enableMaxFrequencies+0xd4>)
 8003bd4:	689b      	ldr	r3, [r3, #8]
 8003bd6:	f003 0308 	and.w	r3, r3, #8
 8003bda:	2b00      	cmp	r3, #0
 8003bdc:	d0f8      	beq.n	8003bd0 <RCC_enableMaxFrequencies+0xb8>
	}



}
 8003bde:	bf00      	nop
 8003be0:	bf00      	nop
 8003be2:	46bd      	mov	sp, r7
 8003be4:	f85d 7b04 	ldr.w	r7, [sp], #4
 8003be8:	4770      	bx	lr
 8003bea:	bf00      	nop
 8003bec:	40023800 	.word	0x40023800
 8003bf0:	40007000 	.word	0x40007000
 8003bf4:	40023c00 	.word	0x40023c00

08003bf8 <__NVIC_EnableIRQ>:
{
 8003bf8:	b480      	push	{r7}
 8003bfa:	b083      	sub	sp, #12
 8003bfc:	af00      	add	r7, sp, #0
 8003bfe:	4603      	mov	r3, r0
 8003c00:	71fb      	strb	r3, [r7, #7]
  if ((int32_t)(IRQn) >= 0)
 8003c02:	f997 3007 	ldrsb.w	r3, [r7, #7]
 8003c06:	2b00      	cmp	r3, #0
 8003c08:	db0b      	blt.n	8003c22 <__NVIC_EnableIRQ+0x2a>
    NVIC->ISER[(((uint32_t)IRQn) >> 5UL)] = (uint32_t)(1UL << (((uint32_t)IRQn) & 0x1FUL));
 8003c0a:	79fb      	ldrb	r3, [r7, #7]
 8003c0c:	f003 021f 	and.w	r2, r3, #31
 8003c10:	4907      	ldr	r1, [pc, #28]	; (8003c30 <__NVIC_EnableIRQ+0x38>)
 8003c12:	f997 3007 	ldrsb.w	r3, [r7, #7]
 8003c16:	095b      	lsrs	r3, r3, #5
 8003c18:	2001      	movs	r0, #1
 8003c1a:	fa00 f202 	lsl.w	r2, r0, r2
 8003c1e:	f841 2023 	str.w	r2, [r1, r3, lsl #2]
}
 8003c22:	bf00      	nop
 8003c24:	370c      	adds	r7, #12
 8003c26:	46bd      	mov	sp, r7
 8003c28:	f85d 7b04 	ldr.w	r7, [sp], #4
 8003c2c:	4770      	bx	lr
 8003c2e:	bf00      	nop
 8003c30:	e000e100 	.word	0xe000e100

08003c34 <USART_Config>:
/**
 * Configurando el puerto Serial...
 * Recordar que siempre se debe comenzar con activar la seal de reloj
 * del periferico que se est utilizando.
 */
void USART_Config(USART_Handler_t *ptrUsartHandler){
 8003c34:	b590      	push	{r4, r7, lr}
 8003c36:	b083      	sub	sp, #12
 8003c38:	af00      	add	r7, sp, #0
 8003c3a:	6078      	str	r0, [r7, #4]
  __ASM volatile ("cpsid i" : : : "memory");
 8003c3c:	b672      	cpsid	i
}
 8003c3e:	bf00      	nop
	__disable_irq();

	/* 1. Activamos la seal de reloj que viene desde el BUS al que pertenece el periferico */
	/* Lo debemos hacer para cada uno de las posibles opciones que tengamos (USART1, USART2, USART6) */
    /* 1.1 Configuramos el USART1 */
	if(ptrUsartHandler->ptrUSARTx == USART1){
 8003c40:	687b      	ldr	r3, [r7, #4]
 8003c42:	681b      	ldr	r3, [r3, #0]
 8003c44:	4a8f      	ldr	r2, [pc, #572]	; (8003e84 <USART_Config+0x250>)
 8003c46:	4293      	cmp	r3, r2
 8003c48:	d106      	bne.n	8003c58 <USART_Config+0x24>
		RCC->APB2ENR |= RCC_APB2ENR_USART1EN;
 8003c4a:	4b8f      	ldr	r3, [pc, #572]	; (8003e88 <USART_Config+0x254>)
 8003c4c:	6c5b      	ldr	r3, [r3, #68]	; 0x44
 8003c4e:	4a8e      	ldr	r2, [pc, #568]	; (8003e88 <USART_Config+0x254>)
 8003c50:	f043 0310 	orr.w	r3, r3, #16
 8003c54:	6453      	str	r3, [r2, #68]	; 0x44
 8003c56:	e018      	b.n	8003c8a <USART_Config+0x56>
	}
	else if(ptrUsartHandler->ptrUSARTx == USART2){
 8003c58:	687b      	ldr	r3, [r7, #4]
 8003c5a:	681b      	ldr	r3, [r3, #0]
 8003c5c:	4a8b      	ldr	r2, [pc, #556]	; (8003e8c <USART_Config+0x258>)
 8003c5e:	4293      	cmp	r3, r2
 8003c60:	d106      	bne.n	8003c70 <USART_Config+0x3c>
		RCC->APB1ENR |= RCC_APB1ENR_USART2EN;
 8003c62:	4b89      	ldr	r3, [pc, #548]	; (8003e88 <USART_Config+0x254>)
 8003c64:	6c1b      	ldr	r3, [r3, #64]	; 0x40
 8003c66:	4a88      	ldr	r2, [pc, #544]	; (8003e88 <USART_Config+0x254>)
 8003c68:	f443 3300 	orr.w	r3, r3, #131072	; 0x20000
 8003c6c:	6413      	str	r3, [r2, #64]	; 0x40
 8003c6e:	e00c      	b.n	8003c8a <USART_Config+0x56>
	}
	
    /* 1.2 Configuramos el USART6 */
	else if(ptrUsartHandler->ptrUSARTx == USART6){
 8003c70:	687b      	ldr	r3, [r7, #4]
 8003c72:	681b      	ldr	r3, [r3, #0]
 8003c74:	4a86      	ldr	r2, [pc, #536]	; (8003e90 <USART_Config+0x25c>)
 8003c76:	4293      	cmp	r3, r2
 8003c78:	d106      	bne.n	8003c88 <USART_Config+0x54>
		RCC->APB2ENR |= RCC_APB2ENR_USART6EN;
 8003c7a:	4b83      	ldr	r3, [pc, #524]	; (8003e88 <USART_Config+0x254>)
 8003c7c:	6c5b      	ldr	r3, [r3, #68]	; 0x44
 8003c7e:	4a82      	ldr	r2, [pc, #520]	; (8003e88 <USART_Config+0x254>)
 8003c80:	f043 0320 	orr.w	r3, r3, #32
 8003c84:	6453      	str	r3, [r2, #68]	; 0x44
 8003c86:	e000      	b.n	8003c8a <USART_Config+0x56>
	}
	else{
		__NOP();
 8003c88:	bf00      	nop
	/* Configuracion del Baudrate (registro BRR) */
	/* Configuramos el modo: only TX, only RX, o RXTX */
	/* Por ultimo activamos el modulo USART cuando todo esta correctamente configurado */

	// 2.1 Comienzo por limpiar los registros, para cargar la configuracin desde cero
	ptrUsartHandler->ptrUSARTx->CR1 = 0;
 8003c8a:	687b      	ldr	r3, [r7, #4]
 8003c8c:	681b      	ldr	r3, [r3, #0]
 8003c8e:	2200      	movs	r2, #0
 8003c90:	60da      	str	r2, [r3, #12]
	ptrUsartHandler->ptrUSARTx->CR2 = 0;
 8003c92:	687b      	ldr	r3, [r7, #4]
 8003c94:	681b      	ldr	r3, [r3, #0]
 8003c96:	2200      	movs	r2, #0
 8003c98:	611a      	str	r2, [r3, #16]

	// 2.2 Configuracion del Parity:
	// Verificamos si el parity esta activado o no
    // Tenga cuidado, el parity hace parte del tamao de los datos...
	if(ptrUsartHandler->USART_Config.USART_parity != USART_PARITY_NONE){
 8003c9a:	687b      	ldr	r3, [r7, #4]
 8003c9c:	7a5b      	ldrb	r3, [r3, #9]
 8003c9e:	2b00      	cmp	r3, #0
 8003ca0:	d025      	beq.n	8003cee <USART_Config+0xba>

		// Verificamos si se ha seleccionado ODD or EVEN
		if(ptrUsartHandler->USART_Config.USART_parity == USART_PARITY_EVEN){
 8003ca2:	687b      	ldr	r3, [r7, #4]
 8003ca4:	7a5b      	ldrb	r3, [r3, #9]
 8003ca6:	2b02      	cmp	r3, #2
 8003ca8:	d110      	bne.n	8003ccc <USART_Config+0x98>
			// Es even, entonces cargamos la configuracion adecuada
			ptrUsartHandler->ptrUSARTx->CR1 &= ~USART_CR1_PS;
 8003caa:	687b      	ldr	r3, [r7, #4]
 8003cac:	681b      	ldr	r3, [r3, #0]
 8003cae:	68da      	ldr	r2, [r3, #12]
 8003cb0:	687b      	ldr	r3, [r7, #4]
 8003cb2:	681b      	ldr	r3, [r3, #0]
 8003cb4:	f422 7200 	bic.w	r2, r2, #512	; 0x200
 8003cb8:	60da      	str	r2, [r3, #12]
			ptrUsartHandler->ptrUSARTx->CR1 |= USART_CR1_PEIE;
 8003cba:	687b      	ldr	r3, [r7, #4]
 8003cbc:	681b      	ldr	r3, [r3, #0]
 8003cbe:	68da      	ldr	r2, [r3, #12]
 8003cc0:	687b      	ldr	r3, [r7, #4]
 8003cc2:	681b      	ldr	r3, [r3, #0]
 8003cc4:	f442 7280 	orr.w	r2, r2, #256	; 0x100
 8003cc8:	60da      	str	r2, [r3, #12]
 8003cca:	e018      	b.n	8003cfe <USART_Config+0xca>
			
		}else{
			// Si es "else" significa que la paridad seleccionada es ODD, y cargamos esta configuracion
			ptrUsartHandler->ptrUSARTx->CR1 |= USART_CR1_PS;
 8003ccc:	687b      	ldr	r3, [r7, #4]
 8003cce:	681b      	ldr	r3, [r3, #0]
 8003cd0:	68da      	ldr	r2, [r3, #12]
 8003cd2:	687b      	ldr	r3, [r7, #4]
 8003cd4:	681b      	ldr	r3, [r3, #0]
 8003cd6:	f442 7200 	orr.w	r2, r2, #512	; 0x200
 8003cda:	60da      	str	r2, [r3, #12]
			ptrUsartHandler->ptrUSARTx->CR1 |= USART_CR1_PEIE;
 8003cdc:	687b      	ldr	r3, [r7, #4]
 8003cde:	681b      	ldr	r3, [r3, #0]
 8003ce0:	68da      	ldr	r2, [r3, #12]
 8003ce2:	687b      	ldr	r3, [r7, #4]
 8003ce4:	681b      	ldr	r3, [r3, #0]
 8003ce6:	f442 7280 	orr.w	r2, r2, #256	; 0x100
 8003cea:	60da      	str	r2, [r3, #12]
 8003cec:	e007      	b.n	8003cfe <USART_Config+0xca>
		}
	}else{
		// Si llegamos aca, es porque no deseamos tener el parity-check
		ptrUsartHandler->ptrUSARTx->CR1 &= ~USART_CR1_PCE ;
 8003cee:	687b      	ldr	r3, [r7, #4]
 8003cf0:	681b      	ldr	r3, [r3, #0]
 8003cf2:	68da      	ldr	r2, [r3, #12]
 8003cf4:	687b      	ldr	r3, [r7, #4]
 8003cf6:	681b      	ldr	r3, [r3, #0]
 8003cf8:	f422 6280 	bic.w	r2, r2, #1024	; 0x400
 8003cfc:	60da      	str	r2, [r3, #12]
	}

	// 2.3 Configuramos el tamao del dato
	if(ptrUsartHandler->USART_Config.USART_datasize == USART_DATASIZE_8BIT){
 8003cfe:	687b      	ldr	r3, [r7, #4]
 8003d00:	7a1b      	ldrb	r3, [r3, #8]
 8003d02:	2b00      	cmp	r3, #0
 8003d04:	d108      	bne.n	8003d18 <USART_Config+0xe4>
			// Son 8 bits, entonces cargamos la configuracion adecuada
			ptrUsartHandler->ptrUSARTx->CR1 &= ~USART_CR1_M;
 8003d06:	687b      	ldr	r3, [r7, #4]
 8003d08:	681b      	ldr	r3, [r3, #0]
 8003d0a:	68da      	ldr	r2, [r3, #12]
 8003d0c:	687b      	ldr	r3, [r7, #4]
 8003d0e:	681b      	ldr	r3, [r3, #0]
 8003d10:	f422 5280 	bic.w	r2, r2, #4096	; 0x1000
 8003d14:	60da      	str	r2, [r3, #12]
 8003d16:	e007      	b.n	8003d28 <USART_Config+0xf4>

	}else{
			// Si es "else" significa que se trata de un tamao de dato de 9 bits, y cargamos esta configuracion
			ptrUsartHandler->ptrUSARTx->CR1 |= USART_CR1_M;
 8003d18:	687b      	ldr	r3, [r7, #4]
 8003d1a:	681b      	ldr	r3, [r3, #0]
 8003d1c:	68da      	ldr	r2, [r3, #12]
 8003d1e:	687b      	ldr	r3, [r7, #4]
 8003d20:	681b      	ldr	r3, [r3, #0]
 8003d22:	f442 5280 	orr.w	r2, r2, #4096	; 0x1000
 8003d26:	60da      	str	r2, [r3, #12]
	}

	// 2.4 Configuramos los stop bits (SFR USART_CR2)
	switch(ptrUsartHandler->USART_Config.USART_stopbits){
 8003d28:	687b      	ldr	r3, [r7, #4]
 8003d2a:	7a9b      	ldrb	r3, [r3, #10]
 8003d2c:	2b03      	cmp	r3, #3
 8003d2e:	d82f      	bhi.n	8003d90 <USART_Config+0x15c>
 8003d30:	a201      	add	r2, pc, #4	; (adr r2, 8003d38 <USART_Config+0x104>)
 8003d32:	f852 f023 	ldr.w	pc, [r2, r3, lsl #2]
 8003d36:	bf00      	nop
 8003d38:	08003d49 	.word	0x08003d49
 8003d3c:	08003d5b 	.word	0x08003d5b
 8003d40:	08003d6d 	.word	0x08003d6d
 8003d44:	08003d7f 	.word	0x08003d7f
		case USART_STOPBIT_1: {
			// Debemos cargar el valor 0b00 en los dos bits de STOP
			ptrUsartHandler->ptrUSARTx->CR2 &= ~USART_CR2_STOP;
 8003d48:	687b      	ldr	r3, [r7, #4]
 8003d4a:	681b      	ldr	r3, [r3, #0]
 8003d4c:	691a      	ldr	r2, [r3, #16]
 8003d4e:	687b      	ldr	r3, [r7, #4]
 8003d50:	681b      	ldr	r3, [r3, #0]
 8003d52:	f422 5240 	bic.w	r2, r2, #12288	; 0x3000
 8003d56:	611a      	str	r2, [r3, #16]
			break;
 8003d58:	e023      	b.n	8003da2 <USART_Config+0x16e>
		}
		case USART_STOPBIT_0_5: {
			// Debemos cargar el valor 0b01 en los dos bits de STOP
			ptrUsartHandler->ptrUSARTx->CR2 |= USART_CR2_STOP & (~USART_CR2_STOP_1);
 8003d5a:	687b      	ldr	r3, [r7, #4]
 8003d5c:	681b      	ldr	r3, [r3, #0]
 8003d5e:	691a      	ldr	r2, [r3, #16]
 8003d60:	687b      	ldr	r3, [r7, #4]
 8003d62:	681b      	ldr	r3, [r3, #0]
 8003d64:	f442 5280 	orr.w	r2, r2, #4096	; 0x1000
 8003d68:	611a      	str	r2, [r3, #16]
			break;
 8003d6a:	e01a      	b.n	8003da2 <USART_Config+0x16e>
		}
		case USART_STOPBIT_2: {
			// Debemoscargar el valor 0b10 en los dos bits de STOP
			ptrUsartHandler->ptrUSARTx->CR2 |= USART_CR2_STOP & (~USART_CR2_STOP_0);
 8003d6c:	687b      	ldr	r3, [r7, #4]
 8003d6e:	681b      	ldr	r3, [r3, #0]
 8003d70:	691a      	ldr	r2, [r3, #16]
 8003d72:	687b      	ldr	r3, [r7, #4]
 8003d74:	681b      	ldr	r3, [r3, #0]
 8003d76:	f442 5200 	orr.w	r2, r2, #8192	; 0x2000
 8003d7a:	611a      	str	r2, [r3, #16]
			break;
 8003d7c:	e011      	b.n	8003da2 <USART_Config+0x16e>
		}
		case USART_STOPBIT_1_5: {
			// Debemoscargar el valor 0b11 en los dos bits de STOP
			ptrUsartHandler->ptrUSARTx->CR2 |= USART_CR2_STOP;
 8003d7e:	687b      	ldr	r3, [r7, #4]
 8003d80:	681b      	ldr	r3, [r3, #0]
 8003d82:	691a      	ldr	r2, [r3, #16]
 8003d84:	687b      	ldr	r3, [r7, #4]
 8003d86:	681b      	ldr	r3, [r3, #0]
 8003d88:	f442 5240 	orr.w	r2, r2, #12288	; 0x3000
 8003d8c:	611a      	str	r2, [r3, #16]
			break;
 8003d8e:	e008      	b.n	8003da2 <USART_Config+0x16e>
		}
		default: {
			// En el caso por defecto seleccionamos 1 bit de parada
			ptrUsartHandler->ptrUSARTx->CR2 &= ~USART_CR2_STOP;
 8003d90:	687b      	ldr	r3, [r7, #4]
 8003d92:	681b      	ldr	r3, [r3, #0]
 8003d94:	691a      	ldr	r2, [r3, #16]
 8003d96:	687b      	ldr	r3, [r7, #4]
 8003d98:	681b      	ldr	r3, [r3, #0]
 8003d9a:	f422 5240 	bic.w	r2, r2, #12288	; 0x3000
 8003d9e:	611a      	str	r2, [r3, #16]
			break;
 8003da0:	bf00      	nop
		}
	}

		// 2.5 Configuracion del Baudrate (SFR USART_BRR)
		ptrUsartHandler->ptrUSARTx->BRR = brrCalculus (ptrUsartHandler, ptrUsartHandler->USART_Config.USART_MCUvelocity);
 8003da2:	687b      	ldr	r3, [r7, #4]
 8003da4:	68da      	ldr	r2, [r3, #12]
 8003da6:	687b      	ldr	r3, [r7, #4]
 8003da8:	681c      	ldr	r4, [r3, #0]
 8003daa:	4611      	mov	r1, r2
 8003dac:	6878      	ldr	r0, [r7, #4]
 8003dae:	f000 f8cb 	bl	8003f48 <brrCalculus>
 8003db2:	4603      	mov	r3, r0
 8003db4:	60a3      	str	r3, [r4, #8]
//
//
//	}

	// 2.6 Configuramos el modo: TX only, RX only, RXTX, disable
	switch(ptrUsartHandler->USART_Config.USART_mode){
 8003db6:	687b      	ldr	r3, [r7, #4]
 8003db8:	799b      	ldrb	r3, [r3, #6]
 8003dba:	2b03      	cmp	r3, #3
 8003dbc:	d82e      	bhi.n	8003e1c <USART_Config+0x1e8>
 8003dbe:	a201      	add	r2, pc, #4	; (adr r2, 8003dc4 <USART_Config+0x190>)
 8003dc0:	f852 f023 	ldr.w	pc, [r2, r3, lsl #2]
 8003dc4:	08003dd5 	.word	0x08003dd5
 8003dc8:	08003de7 	.word	0x08003de7
 8003dcc:	08003df9 	.word	0x08003df9
 8003dd0:	08003e0b 	.word	0x08003e0b
		case USART_MODE_TX:
		{
			// Activamos la parte del sistema encargada de enviar
			ptrUsartHandler->ptrUSARTx->CR1 |= USART_CR1_TE;
 8003dd4:	687b      	ldr	r3, [r7, #4]
 8003dd6:	681b      	ldr	r3, [r3, #0]
 8003dd8:	68da      	ldr	r2, [r3, #12]
 8003dda:	687b      	ldr	r3, [r7, #4]
 8003ddc:	681b      	ldr	r3, [r3, #0]
 8003dde:	f042 0208 	orr.w	r2, r2, #8
 8003de2:	60da      	str	r2, [r3, #12]
			break;
 8003de4:	e023      	b.n	8003e2e <USART_Config+0x1fa>
		}
		case USART_MODE_RX:
		{
			// Activamos la parte del sistema encargada de recibir
			ptrUsartHandler->ptrUSARTx->CR1 |= USART_CR1_RE;
 8003de6:	687b      	ldr	r3, [r7, #4]
 8003de8:	681b      	ldr	r3, [r3, #0]
 8003dea:	68da      	ldr	r2, [r3, #12]
 8003dec:	687b      	ldr	r3, [r7, #4]
 8003dee:	681b      	ldr	r3, [r3, #0]
 8003df0:	f042 0204 	orr.w	r2, r2, #4
 8003df4:	60da      	str	r2, [r3, #12]
			break;
 8003df6:	e01a      	b.n	8003e2e <USART_Config+0x1fa>
		}
		case USART_MODE_RXTX:
		{
			// Activamos ambas partes, tanto transmision como recepcion
			ptrUsartHandler->ptrUSARTx->CR1 |= (USART_CR1_TE | USART_CR1_RE);
 8003df8:	687b      	ldr	r3, [r7, #4]
 8003dfa:	681b      	ldr	r3, [r3, #0]
 8003dfc:	68da      	ldr	r2, [r3, #12]
 8003dfe:	687b      	ldr	r3, [r7, #4]
 8003e00:	681b      	ldr	r3, [r3, #0]
 8003e02:	f042 020c 	orr.w	r2, r2, #12
 8003e06:	60da      	str	r2, [r3, #12]
			break;
 8003e08:	e011      	b.n	8003e2e <USART_Config+0x1fa>
		}
		case USART_MODE_DISABLE:
		{
			// Desactivamos ambos canales
			ptrUsartHandler->ptrUSARTx->CR1 &= ~(USART_CR1_TE | USART_CR1_RE);
 8003e0a:	687b      	ldr	r3, [r7, #4]
 8003e0c:	681b      	ldr	r3, [r3, #0]
 8003e0e:	68da      	ldr	r2, [r3, #12]
 8003e10:	687b      	ldr	r3, [r7, #4]
 8003e12:	681b      	ldr	r3, [r3, #0]
 8003e14:	f022 020c 	bic.w	r2, r2, #12
 8003e18:	60da      	str	r2, [r3, #12]
			break;
 8003e1a:	e008      	b.n	8003e2e <USART_Config+0x1fa>
		}

		default:
		{
			// Actuando por defecto, desactivamos ambos canales
			ptrUsartHandler->ptrUSARTx->CR1 &= ~(USART_CR1_TE | USART_CR1_RE);
 8003e1c:	687b      	ldr	r3, [r7, #4]
 8003e1e:	681b      	ldr	r3, [r3, #0]
 8003e20:	68da      	ldr	r2, [r3, #12]
 8003e22:	687b      	ldr	r3, [r7, #4]
 8003e24:	681b      	ldr	r3, [r3, #0]
 8003e26:	f022 020c 	bic.w	r2, r2, #12
 8003e2a:	60da      	str	r2, [r3, #12]
			break;
 8003e2c:	bf00      	nop
		}
	}

	// 2.7 Activamos el modulo serial.
	if(ptrUsartHandler->USART_Config.USART_mode != USART_MODE_DISABLE){
 8003e2e:	687b      	ldr	r3, [r7, #4]
 8003e30:	799b      	ldrb	r3, [r3, #6]
 8003e32:	2b03      	cmp	r3, #3
 8003e34:	d008      	beq.n	8003e48 <USART_Config+0x214>
		ptrUsartHandler->ptrUSARTx->CR1 |= USART_CR1_UE;
 8003e36:	687b      	ldr	r3, [r7, #4]
 8003e38:	681b      	ldr	r3, [r3, #0]
 8003e3a:	68da      	ldr	r2, [r3, #12]
 8003e3c:	687b      	ldr	r3, [r7, #4]
 8003e3e:	681b      	ldr	r3, [r3, #0]
 8003e40:	f442 5200 	orr.w	r2, r2, #8192	; 0x2000
 8003e44:	60da      	str	r2, [r3, #12]
 8003e46:	e007      	b.n	8003e58 <USART_Config+0x224>
	}else{
		ptrUsartHandler->ptrUSARTx->CR1 &= ~USART_CR1_UE;
 8003e48:	687b      	ldr	r3, [r7, #4]
 8003e4a:	681b      	ldr	r3, [r3, #0]
 8003e4c:	68da      	ldr	r2, [r3, #12]
 8003e4e:	687b      	ldr	r3, [r7, #4]
 8003e50:	681b      	ldr	r3, [r3, #0]
 8003e52:	f422 5200 	bic.w	r2, r2, #8192	; 0x2000
 8003e56:	60da      	str	r2, [r3, #12]
	}

	//Habilitamos las interrupciones de recepcion RXNEIE
	if (ptrUsartHandler->USART_Config.USART_enableInRx == USART_INTERRUPT_RX_ENABLE){
 8003e58:	687b      	ldr	r3, [r7, #4]
 8003e5a:	795b      	ldrb	r3, [r3, #5]
 8003e5c:	2b01      	cmp	r3, #1
 8003e5e:	d12d      	bne.n	8003ebc <USART_Config+0x288>
		ptrUsartHandler->ptrUSARTx->CR1 |= USART_CR1_RXNEIE;
 8003e60:	687b      	ldr	r3, [r7, #4]
 8003e62:	681b      	ldr	r3, [r3, #0]
 8003e64:	68da      	ldr	r2, [r3, #12]
 8003e66:	687b      	ldr	r3, [r7, #4]
 8003e68:	681b      	ldr	r3, [r3, #0]
 8003e6a:	f042 0220 	orr.w	r2, r2, #32
 8003e6e:	60da      	str	r2, [r3, #12]

		if(ptrUsartHandler->ptrUSARTx == USART1){
 8003e70:	687b      	ldr	r3, [r7, #4]
 8003e72:	681b      	ldr	r3, [r3, #0]
 8003e74:	4a03      	ldr	r2, [pc, #12]	; (8003e84 <USART_Config+0x250>)
 8003e76:	4293      	cmp	r3, r2
 8003e78:	d10c      	bne.n	8003e94 <USART_Config+0x260>
					// Activando en NVIC para la interrupcin del USART1
					__NVIC_EnableIRQ(USART1_IRQn);
 8003e7a:	2025      	movs	r0, #37	; 0x25
 8003e7c:	f7ff febc 	bl	8003bf8 <__NVIC_EnableIRQ>
 8003e80:	e024      	b.n	8003ecc <USART_Config+0x298>
 8003e82:	bf00      	nop
 8003e84:	40011000 	.word	0x40011000
 8003e88:	40023800 	.word	0x40023800
 8003e8c:	40004400 	.word	0x40004400
 8003e90:	40011400 	.word	0x40011400
		}
		else if(ptrUsartHandler->ptrUSARTx == USART2){
 8003e94:	687b      	ldr	r3, [r7, #4]
 8003e96:	681b      	ldr	r3, [r3, #0]
 8003e98:	4a28      	ldr	r2, [pc, #160]	; (8003f3c <USART_Config+0x308>)
 8003e9a:	4293      	cmp	r3, r2
 8003e9c:	d103      	bne.n	8003ea6 <USART_Config+0x272>
					// Activando en NVIC para la interrupcin del USART2
					__NVIC_EnableIRQ(USART2_IRQn);
 8003e9e:	2026      	movs	r0, #38	; 0x26
 8003ea0:	f7ff feaa 	bl	8003bf8 <__NVIC_EnableIRQ>
 8003ea4:	e012      	b.n	8003ecc <USART_Config+0x298>
		}
		else if(ptrUsartHandler->ptrUSARTx == USART6){
 8003ea6:	687b      	ldr	r3, [r7, #4]
 8003ea8:	681b      	ldr	r3, [r3, #0]
 8003eaa:	4a25      	ldr	r2, [pc, #148]	; (8003f40 <USART_Config+0x30c>)
 8003eac:	4293      	cmp	r3, r2
 8003eae:	d103      	bne.n	8003eb8 <USART_Config+0x284>
				// Activando en NVIC para la interrupcin del USART6
					__NVIC_EnableIRQ(USART6_IRQn);
 8003eb0:	2047      	movs	r0, #71	; 0x47
 8003eb2:	f7ff fea1 	bl	8003bf8 <__NVIC_EnableIRQ>
 8003eb6:	e009      	b.n	8003ecc <USART_Config+0x298>
		}
		else{
				__NOP();
 8003eb8:	bf00      	nop
 8003eba:	e007      	b.n	8003ecc <USART_Config+0x298>
		}
	}else{
		ptrUsartHandler->ptrUSARTx->CR1 &= ~USART_CR1_RXNEIE;
 8003ebc:	687b      	ldr	r3, [r7, #4]
 8003ebe:	681b      	ldr	r3, [r3, #0]
 8003ec0:	68da      	ldr	r2, [r3, #12]
 8003ec2:	687b      	ldr	r3, [r7, #4]
 8003ec4:	681b      	ldr	r3, [r3, #0]
 8003ec6:	f022 0220 	bic.w	r2, r2, #32
 8003eca:	60da      	str	r2, [r3, #12]
	}

	//Habilitamos las interrupciones de  Transmisin
	if (ptrUsartHandler->USART_Config.USART_enableInTx == USART_INTERRUPT_TX_ENABLE){
 8003ecc:	687b      	ldr	r3, [r7, #4]
 8003ece:	791b      	ldrb	r3, [r3, #4]
 8003ed0:	2b01      	cmp	r3, #1
 8003ed2:	d124      	bne.n	8003f1e <USART_Config+0x2ea>
		ptrUsartHandler->ptrUSARTx->CR1 |= USART_CR1_TXEIE;;
 8003ed4:	687b      	ldr	r3, [r7, #4]
 8003ed6:	681b      	ldr	r3, [r3, #0]
 8003ed8:	68da      	ldr	r2, [r3, #12]
 8003eda:	687b      	ldr	r3, [r7, #4]
 8003edc:	681b      	ldr	r3, [r3, #0]
 8003ede:	f042 0280 	orr.w	r2, r2, #128	; 0x80
 8003ee2:	60da      	str	r2, [r3, #12]

		if(ptrUsartHandler->ptrUSARTx == USART1){
 8003ee4:	687b      	ldr	r3, [r7, #4]
 8003ee6:	681b      	ldr	r3, [r3, #0]
 8003ee8:	4a16      	ldr	r2, [pc, #88]	; (8003f44 <USART_Config+0x310>)
 8003eea:	4293      	cmp	r3, r2
 8003eec:	d103      	bne.n	8003ef6 <USART_Config+0x2c2>
					// Activando en NVIC para la interrupcin del USART1
					__NVIC_EnableIRQ(USART1_IRQn);
 8003eee:	2025      	movs	r0, #37	; 0x25
 8003ef0:	f7ff fe82 	bl	8003bf8 <__NVIC_EnableIRQ>
 8003ef4:	e01b      	b.n	8003f2e <USART_Config+0x2fa>
		}
		else if(ptrUsartHandler->ptrUSARTx == USART2){
 8003ef6:	687b      	ldr	r3, [r7, #4]
 8003ef8:	681b      	ldr	r3, [r3, #0]
 8003efa:	4a10      	ldr	r2, [pc, #64]	; (8003f3c <USART_Config+0x308>)
 8003efc:	4293      	cmp	r3, r2
 8003efe:	d103      	bne.n	8003f08 <USART_Config+0x2d4>
					// Activando en NVIC para la interrupcin del USART2
					__NVIC_EnableIRQ(USART2_IRQn);
 8003f00:	2026      	movs	r0, #38	; 0x26
 8003f02:	f7ff fe79 	bl	8003bf8 <__NVIC_EnableIRQ>
 8003f06:	e012      	b.n	8003f2e <USART_Config+0x2fa>
		}
		else if(ptrUsartHandler->ptrUSARTx == USART6){
 8003f08:	687b      	ldr	r3, [r7, #4]
 8003f0a:	681b      	ldr	r3, [r3, #0]
 8003f0c:	4a0c      	ldr	r2, [pc, #48]	; (8003f40 <USART_Config+0x30c>)
 8003f0e:	4293      	cmp	r3, r2
 8003f10:	d103      	bne.n	8003f1a <USART_Config+0x2e6>
				// Activando en NVIC para la interrupcin del USART6
					__NVIC_EnableIRQ(USART6_IRQn);
 8003f12:	2047      	movs	r0, #71	; 0x47
 8003f14:	f7ff fe70 	bl	8003bf8 <__NVIC_EnableIRQ>
 8003f18:	e009      	b.n	8003f2e <USART_Config+0x2fa>
		}
		else{
				__NOP();
 8003f1a:	bf00      	nop
 8003f1c:	e007      	b.n	8003f2e <USART_Config+0x2fa>
		}
	}else{
		ptrUsartHandler->ptrUSARTx->CR1 &= ~USART_CR1_TXEIE;
 8003f1e:	687b      	ldr	r3, [r7, #4]
 8003f20:	681b      	ldr	r3, [r3, #0]
 8003f22:	68da      	ldr	r2, [r3, #12]
 8003f24:	687b      	ldr	r3, [r7, #4]
 8003f26:	681b      	ldr	r3, [r3, #0]
 8003f28:	f022 0280 	bic.w	r2, r2, #128	; 0x80
 8003f2c:	60da      	str	r2, [r3, #12]
  __ASM volatile ("cpsie i" : : : "memory");
 8003f2e:	b662      	cpsie	i
}
 8003f30:	bf00      	nop
	}

	__enable_irq();
}
 8003f32:	bf00      	nop
 8003f34:	370c      	adds	r7, #12
 8003f36:	46bd      	mov	sp, r7
 8003f38:	bd90      	pop	{r4, r7, pc}
 8003f3a:	bf00      	nop
 8003f3c:	40004400 	.word	0x40004400
 8003f40:	40011400 	.word	0x40011400
 8003f44:	40011000 	.word	0x40011000

08003f48 <brrCalculus>:



uint32_t brrCalculus (USART_Handler_t *ptrUsartHandler, uint32_t MCUvelocity){
 8003f48:	b5b0      	push	{r4, r5, r7, lr}
 8003f4a:	b082      	sub	sp, #8
 8003f4c:	af00      	add	r7, sp, #0
 8003f4e:	6078      	str	r0, [r7, #4]
 8003f50:	6039      	str	r1, [r7, #0]


	switch(ptrUsartHandler->USART_Config.USART_baudrate){
 8003f52:	687b      	ldr	r3, [r7, #4]
 8003f54:	79db      	ldrb	r3, [r3, #7]
 8003f56:	2b03      	cmp	r3, #3
 8003f58:	f200 8217 	bhi.w	800438a <brrCalculus+0x442>
 8003f5c:	a201      	add	r2, pc, #4	; (adr r2, 8003f64 <brrCalculus+0x1c>)
 8003f5e:	f852 f023 	ldr.w	pc, [r2, r3, lsl #2]
 8003f62:	bf00      	nop
 8003f64:	08003f75 	.word	0x08003f75
 8003f68:	0800406f 	.word	0x0800406f
 8003f6c:	08004189 	.word	0x08004189
 8003f70:	08004291 	.word	0x08004291

	case USART_BAUDRATE_9600:{

		 value = 1/(16.0 * 9600);
 8003f74:	4980      	ldr	r1, [pc, #512]	; (8004178 <brrCalculus+0x230>)
 8003f76:	a37c      	add	r3, pc, #496	; (adr r3, 8004168 <brrCalculus+0x220>)
 8003f78:	e9d3 2300 	ldrd	r2, r3, [r3]
 8003f7c:	e9c1 2300 	strd	r2, r3, [r1]

		 value = ((float) MCUvelocity ) *value;
 8003f80:	683b      	ldr	r3, [r7, #0]
 8003f82:	ee07 3a90 	vmov	s15, r3
 8003f86:	eef8 7a67 	vcvt.f32.u32	s15, s15
 8003f8a:	ee17 0a90 	vmov	r0, s15
 8003f8e:	f7fc faf3 	bl	8000578 <__aeabi_f2d>
 8003f92:	4b79      	ldr	r3, [pc, #484]	; (8004178 <brrCalculus+0x230>)
 8003f94:	e9d3 2300 	ldrd	r2, r3, [r3]
 8003f98:	f7fc fb46 	bl	8000628 <__aeabi_dmul>
 8003f9c:	4602      	mov	r2, r0
 8003f9e:	460b      	mov	r3, r1
 8003fa0:	4975      	ldr	r1, [pc, #468]	; (8004178 <brrCalculus+0x230>)
 8003fa2:	e9c1 2300 	strd	r2, r3, [r1]

		 mant = (int) value;
 8003fa6:	4b74      	ldr	r3, [pc, #464]	; (8004178 <brrCalculus+0x230>)
 8003fa8:	e9d3 2300 	ldrd	r2, r3, [r3]
 8003fac:	4610      	mov	r0, r2
 8003fae:	4619      	mov	r1, r3
 8003fb0:	f7fc fdea 	bl	8000b88 <__aeabi_d2iz>
 8003fb4:	4603      	mov	r3, r0
 8003fb6:	b29a      	uxth	r2, r3
 8003fb8:	4b70      	ldr	r3, [pc, #448]	; (800417c <brrCalculus+0x234>)
 8003fba:	801a      	strh	r2, [r3, #0]

		 DIVfrac = value -(int) value;
 8003fbc:	4b6e      	ldr	r3, [pc, #440]	; (8004178 <brrCalculus+0x230>)
 8003fbe:	e9d3 4500 	ldrd	r4, r5, [r3]
 8003fc2:	4b6d      	ldr	r3, [pc, #436]	; (8004178 <brrCalculus+0x230>)
 8003fc4:	e9d3 2300 	ldrd	r2, r3, [r3]
 8003fc8:	4610      	mov	r0, r2
 8003fca:	4619      	mov	r1, r3
 8003fcc:	f7fc fddc 	bl	8000b88 <__aeabi_d2iz>
 8003fd0:	4603      	mov	r3, r0
 8003fd2:	4618      	mov	r0, r3
 8003fd4:	f7fc fabe 	bl	8000554 <__aeabi_i2d>
 8003fd8:	4602      	mov	r2, r0
 8003fda:	460b      	mov	r3, r1
 8003fdc:	4620      	mov	r0, r4
 8003fde:	4629      	mov	r1, r5
 8003fe0:	f7fc f96a 	bl	80002b8 <__aeabi_dsub>
 8003fe4:	4602      	mov	r2, r0
 8003fe6:	460b      	mov	r3, r1
 8003fe8:	4610      	mov	r0, r2
 8003fea:	4619      	mov	r1, r3
 8003fec:	f7fc fdf4 	bl	8000bd8 <__aeabi_d2f>
 8003ff0:	4603      	mov	r3, r0
 8003ff2:	4a63      	ldr	r2, [pc, #396]	; (8004180 <brrCalculus+0x238>)
 8003ff4:	6013      	str	r3, [r2, #0]

		 DIVfrac = roundToNDecimals(DIVfrac, 4 );
 8003ff6:	4b62      	ldr	r3, [pc, #392]	; (8004180 <brrCalculus+0x238>)
 8003ff8:	edd3 7a00 	vldr	s15, [r3]
 8003ffc:	2004      	movs	r0, #4
 8003ffe:	eeb0 0a67 	vmov.f32	s0, s15
 8004002:	f000 fa6d 	bl	80044e0 <roundToNDecimals>
 8004006:	eef0 7a40 	vmov.f32	s15, s0
 800400a:	4b5d      	ldr	r3, [pc, #372]	; (8004180 <brrCalculus+0x238>)
 800400c:	edc3 7a00 	vstr	s15, [r3]

		 DIVfrac = 16*DIVfrac;
 8004010:	4b5b      	ldr	r3, [pc, #364]	; (8004180 <brrCalculus+0x238>)
 8004012:	edd3 7a00 	vldr	s15, [r3]
 8004016:	eeb3 7a00 	vmov.f32	s14, #48	; 0x41800000  16.0
 800401a:	ee67 7a87 	vmul.f32	s15, s15, s14
 800401e:	4b58      	ldr	r3, [pc, #352]	; (8004180 <brrCalculus+0x238>)
 8004020:	edc3 7a00 	vstr	s15, [r3]

		 DIVfrac = round(DIVfrac);
 8004024:	4b56      	ldr	r3, [pc, #344]	; (8004180 <brrCalculus+0x238>)
 8004026:	681b      	ldr	r3, [r3, #0]
 8004028:	4618      	mov	r0, r3
 800402a:	f7fc faa5 	bl	8000578 <__aeabi_f2d>
 800402e:	4602      	mov	r2, r0
 8004030:	460b      	mov	r3, r1
 8004032:	ec43 2b10 	vmov	d0, r2, r3
 8004036:	f003 fe71 	bl	8007d1c <round>
 800403a:	ec53 2b10 	vmov	r2, r3, d0
 800403e:	4610      	mov	r0, r2
 8004040:	4619      	mov	r1, r3
 8004042:	f7fc fdc9 	bl	8000bd8 <__aeabi_d2f>
 8004046:	4603      	mov	r3, r0
 8004048:	4a4d      	ldr	r2, [pc, #308]	; (8004180 <brrCalculus+0x238>)
 800404a:	6013      	str	r3, [r2, #0]

		 mant_DIVfrac = (mant << 4) | ((unsigned int) DIVfrac);
 800404c:	4b4b      	ldr	r3, [pc, #300]	; (800417c <brrCalculus+0x234>)
 800404e:	881b      	ldrh	r3, [r3, #0]
 8004050:	011b      	lsls	r3, r3, #4
 8004052:	b29a      	uxth	r2, r3
 8004054:	4b4a      	ldr	r3, [pc, #296]	; (8004180 <brrCalculus+0x238>)
 8004056:	edd3 7a00 	vldr	s15, [r3]
 800405a:	eefc 7ae7 	vcvt.u32.f32	s15, s15
 800405e:	ee17 3a90 	vmov	r3, s15
 8004062:	b29b      	uxth	r3, r3
 8004064:	4313      	orrs	r3, r2
 8004066:	b29a      	uxth	r2, r3
 8004068:	4b46      	ldr	r3, [pc, #280]	; (8004184 <brrCalculus+0x23c>)
 800406a:	801a      	strh	r2, [r3, #0]


		break;
 800406c:	e18f      	b.n	800438e <brrCalculus+0x446>
	}
	case USART_BAUDRATE_19200:{

		 value = 1/(16.0 * 19200);
 800406e:	4942      	ldr	r1, [pc, #264]	; (8004178 <brrCalculus+0x230>)
 8004070:	a33f      	add	r3, pc, #252	; (adr r3, 8004170 <brrCalculus+0x228>)
 8004072:	e9d3 2300 	ldrd	r2, r3, [r3]
 8004076:	e9c1 2300 	strd	r2, r3, [r1]

		 value = ((float) MCUvelocity ) *value;
 800407a:	683b      	ldr	r3, [r7, #0]
 800407c:	ee07 3a90 	vmov	s15, r3
 8004080:	eef8 7a67 	vcvt.f32.u32	s15, s15
 8004084:	ee17 0a90 	vmov	r0, s15
 8004088:	f7fc fa76 	bl	8000578 <__aeabi_f2d>
 800408c:	4b3a      	ldr	r3, [pc, #232]	; (8004178 <brrCalculus+0x230>)
 800408e:	e9d3 2300 	ldrd	r2, r3, [r3]
 8004092:	f7fc fac9 	bl	8000628 <__aeabi_dmul>
 8004096:	4602      	mov	r2, r0
 8004098:	460b      	mov	r3, r1
 800409a:	4937      	ldr	r1, [pc, #220]	; (8004178 <brrCalculus+0x230>)
 800409c:	e9c1 2300 	strd	r2, r3, [r1]

		 mant = (int) value;
 80040a0:	4b35      	ldr	r3, [pc, #212]	; (8004178 <brrCalculus+0x230>)
 80040a2:	e9d3 2300 	ldrd	r2, r3, [r3]
 80040a6:	4610      	mov	r0, r2
 80040a8:	4619      	mov	r1, r3
 80040aa:	f7fc fd6d 	bl	8000b88 <__aeabi_d2iz>
 80040ae:	4603      	mov	r3, r0
 80040b0:	b29a      	uxth	r2, r3
 80040b2:	4b32      	ldr	r3, [pc, #200]	; (800417c <brrCalculus+0x234>)
 80040b4:	801a      	strh	r2, [r3, #0]

		 DIVfrac = value -(int) value;
 80040b6:	4b30      	ldr	r3, [pc, #192]	; (8004178 <brrCalculus+0x230>)
 80040b8:	e9d3 4500 	ldrd	r4, r5, [r3]
 80040bc:	4b2e      	ldr	r3, [pc, #184]	; (8004178 <brrCalculus+0x230>)
 80040be:	e9d3 2300 	ldrd	r2, r3, [r3]
 80040c2:	4610      	mov	r0, r2
 80040c4:	4619      	mov	r1, r3
 80040c6:	f7fc fd5f 	bl	8000b88 <__aeabi_d2iz>
 80040ca:	4603      	mov	r3, r0
 80040cc:	4618      	mov	r0, r3
 80040ce:	f7fc fa41 	bl	8000554 <__aeabi_i2d>
 80040d2:	4602      	mov	r2, r0
 80040d4:	460b      	mov	r3, r1
 80040d6:	4620      	mov	r0, r4
 80040d8:	4629      	mov	r1, r5
 80040da:	f7fc f8ed 	bl	80002b8 <__aeabi_dsub>
 80040de:	4602      	mov	r2, r0
 80040e0:	460b      	mov	r3, r1
 80040e2:	4610      	mov	r0, r2
 80040e4:	4619      	mov	r1, r3
 80040e6:	f7fc fd77 	bl	8000bd8 <__aeabi_d2f>
 80040ea:	4603      	mov	r3, r0
 80040ec:	4a24      	ldr	r2, [pc, #144]	; (8004180 <brrCalculus+0x238>)
 80040ee:	6013      	str	r3, [r2, #0]

		 DIVfrac = roundToNDecimals(DIVfrac, 4 );
 80040f0:	4b23      	ldr	r3, [pc, #140]	; (8004180 <brrCalculus+0x238>)
 80040f2:	edd3 7a00 	vldr	s15, [r3]
 80040f6:	2004      	movs	r0, #4
 80040f8:	eeb0 0a67 	vmov.f32	s0, s15
 80040fc:	f000 f9f0 	bl	80044e0 <roundToNDecimals>
 8004100:	eef0 7a40 	vmov.f32	s15, s0
 8004104:	4b1e      	ldr	r3, [pc, #120]	; (8004180 <brrCalculus+0x238>)
 8004106:	edc3 7a00 	vstr	s15, [r3]

		 DIVfrac = 16*DIVfrac;
 800410a:	4b1d      	ldr	r3, [pc, #116]	; (8004180 <brrCalculus+0x238>)
 800410c:	edd3 7a00 	vldr	s15, [r3]
 8004110:	eeb3 7a00 	vmov.f32	s14, #48	; 0x41800000  16.0
 8004114:	ee67 7a87 	vmul.f32	s15, s15, s14
 8004118:	4b19      	ldr	r3, [pc, #100]	; (8004180 <brrCalculus+0x238>)
 800411a:	edc3 7a00 	vstr	s15, [r3]

		 DIVfrac = round(DIVfrac);
 800411e:	4b18      	ldr	r3, [pc, #96]	; (8004180 <brrCalculus+0x238>)
 8004120:	681b      	ldr	r3, [r3, #0]
 8004122:	4618      	mov	r0, r3
 8004124:	f7fc fa28 	bl	8000578 <__aeabi_f2d>
 8004128:	4602      	mov	r2, r0
 800412a:	460b      	mov	r3, r1
 800412c:	ec43 2b10 	vmov	d0, r2, r3
 8004130:	f003 fdf4 	bl	8007d1c <round>
 8004134:	ec53 2b10 	vmov	r2, r3, d0
 8004138:	4610      	mov	r0, r2
 800413a:	4619      	mov	r1, r3
 800413c:	f7fc fd4c 	bl	8000bd8 <__aeabi_d2f>
 8004140:	4603      	mov	r3, r0
 8004142:	4a0f      	ldr	r2, [pc, #60]	; (8004180 <brrCalculus+0x238>)
 8004144:	6013      	str	r3, [r2, #0]

		 mant_DIVfrac = (mant << 4) | ((unsigned int) DIVfrac);
 8004146:	4b0d      	ldr	r3, [pc, #52]	; (800417c <brrCalculus+0x234>)
 8004148:	881b      	ldrh	r3, [r3, #0]
 800414a:	011b      	lsls	r3, r3, #4
 800414c:	b29a      	uxth	r2, r3
 800414e:	4b0c      	ldr	r3, [pc, #48]	; (8004180 <brrCalculus+0x238>)
 8004150:	edd3 7a00 	vldr	s15, [r3]
 8004154:	eefc 7ae7 	vcvt.u32.f32	s15, s15
 8004158:	ee17 3a90 	vmov	r3, s15
 800415c:	b29b      	uxth	r3, r3
 800415e:	4313      	orrs	r3, r2
 8004160:	b29a      	uxth	r2, r3
 8004162:	4b08      	ldr	r3, [pc, #32]	; (8004184 <brrCalculus+0x23c>)
 8004164:	801a      	strh	r2, [r3, #0]


		break;
 8004166:	e112      	b.n	800438e <brrCalculus+0x446>
 8004168:	b4e81b4f 	.word	0xb4e81b4f
 800416c:	3edb4e81 	.word	0x3edb4e81
 8004170:	b4e81b4f 	.word	0xb4e81b4f
 8004174:	3ecb4e81 	.word	0x3ecb4e81
 8004178:	20011a80 	.word	0x20011a80
 800417c:	20011a76 	.word	0x20011a76
 8004180:	20011a78 	.word	0x20011a78
 8004184:	20011a74 	.word	0x20011a74
	}
	case USART_BAUDRATE_28800:{

		 value = 1/(16.0 * 28800);
 8004188:	4989      	ldr	r1, [pc, #548]	; (80043b0 <brrCalculus+0x468>)
 800418a:	a385      	add	r3, pc, #532	; (adr r3, 80043a0 <brrCalculus+0x458>)
 800418c:	e9d3 2300 	ldrd	r2, r3, [r3]
 8004190:	e9c1 2300 	strd	r2, r3, [r1]

		 value = ((float) MCUvelocity ) *value;
 8004194:	683b      	ldr	r3, [r7, #0]
 8004196:	ee07 3a90 	vmov	s15, r3
 800419a:	eef8 7a67 	vcvt.f32.u32	s15, s15
 800419e:	ee17 0a90 	vmov	r0, s15
 80041a2:	f7fc f9e9 	bl	8000578 <__aeabi_f2d>
 80041a6:	4b82      	ldr	r3, [pc, #520]	; (80043b0 <brrCalculus+0x468>)
 80041a8:	e9d3 2300 	ldrd	r2, r3, [r3]
 80041ac:	f7fc fa3c 	bl	8000628 <__aeabi_dmul>
 80041b0:	4602      	mov	r2, r0
 80041b2:	460b      	mov	r3, r1
 80041b4:	497e      	ldr	r1, [pc, #504]	; (80043b0 <brrCalculus+0x468>)
 80041b6:	e9c1 2300 	strd	r2, r3, [r1]

		 mant = (int) value;
 80041ba:	4b7d      	ldr	r3, [pc, #500]	; (80043b0 <brrCalculus+0x468>)
 80041bc:	e9d3 2300 	ldrd	r2, r3, [r3]
 80041c0:	4610      	mov	r0, r2
 80041c2:	4619      	mov	r1, r3
 80041c4:	f7fc fce0 	bl	8000b88 <__aeabi_d2iz>
 80041c8:	4603      	mov	r3, r0
 80041ca:	b29a      	uxth	r2, r3
 80041cc:	4b79      	ldr	r3, [pc, #484]	; (80043b4 <brrCalculus+0x46c>)
 80041ce:	801a      	strh	r2, [r3, #0]

		 DIVfrac = value -(int) value;
 80041d0:	4b77      	ldr	r3, [pc, #476]	; (80043b0 <brrCalculus+0x468>)
 80041d2:	e9d3 4500 	ldrd	r4, r5, [r3]
 80041d6:	4b76      	ldr	r3, [pc, #472]	; (80043b0 <brrCalculus+0x468>)
 80041d8:	e9d3 2300 	ldrd	r2, r3, [r3]
 80041dc:	4610      	mov	r0, r2
 80041de:	4619      	mov	r1, r3
 80041e0:	f7fc fcd2 	bl	8000b88 <__aeabi_d2iz>
 80041e4:	4603      	mov	r3, r0
 80041e6:	4618      	mov	r0, r3
 80041e8:	f7fc f9b4 	bl	8000554 <__aeabi_i2d>
 80041ec:	4602      	mov	r2, r0
 80041ee:	460b      	mov	r3, r1
 80041f0:	4620      	mov	r0, r4
 80041f2:	4629      	mov	r1, r5
 80041f4:	f7fc f860 	bl	80002b8 <__aeabi_dsub>
 80041f8:	4602      	mov	r2, r0
 80041fa:	460b      	mov	r3, r1
 80041fc:	4610      	mov	r0, r2
 80041fe:	4619      	mov	r1, r3
 8004200:	f7fc fcea 	bl	8000bd8 <__aeabi_d2f>
 8004204:	4603      	mov	r3, r0
 8004206:	4a6c      	ldr	r2, [pc, #432]	; (80043b8 <brrCalculus+0x470>)
 8004208:	6013      	str	r3, [r2, #0]

		 DIVfrac = roundToNDecimals(DIVfrac, 4 );
 800420a:	4b6b      	ldr	r3, [pc, #428]	; (80043b8 <brrCalculus+0x470>)
 800420c:	edd3 7a00 	vldr	s15, [r3]
 8004210:	2004      	movs	r0, #4
 8004212:	eeb0 0a67 	vmov.f32	s0, s15
 8004216:	f000 f963 	bl	80044e0 <roundToNDecimals>
 800421a:	eef0 7a40 	vmov.f32	s15, s0
 800421e:	4b66      	ldr	r3, [pc, #408]	; (80043b8 <brrCalculus+0x470>)
 8004220:	edc3 7a00 	vstr	s15, [r3]

		 DIVfrac = 16*DIVfrac;
 8004224:	4b64      	ldr	r3, [pc, #400]	; (80043b8 <brrCalculus+0x470>)
 8004226:	edd3 7a00 	vldr	s15, [r3]
 800422a:	eeb3 7a00 	vmov.f32	s14, #48	; 0x41800000  16.0
 800422e:	ee67 7a87 	vmul.f32	s15, s15, s14
 8004232:	4b61      	ldr	r3, [pc, #388]	; (80043b8 <brrCalculus+0x470>)
 8004234:	edc3 7a00 	vstr	s15, [r3]

		 DIVfrac = round(DIVfrac) + 1;
 8004238:	4b5f      	ldr	r3, [pc, #380]	; (80043b8 <brrCalculus+0x470>)
 800423a:	681b      	ldr	r3, [r3, #0]
 800423c:	4618      	mov	r0, r3
 800423e:	f7fc f99b 	bl	8000578 <__aeabi_f2d>
 8004242:	4602      	mov	r2, r0
 8004244:	460b      	mov	r3, r1
 8004246:	ec43 2b10 	vmov	d0, r2, r3
 800424a:	f003 fd67 	bl	8007d1c <round>
 800424e:	ec51 0b10 	vmov	r0, r1, d0
 8004252:	f04f 0200 	mov.w	r2, #0
 8004256:	4b59      	ldr	r3, [pc, #356]	; (80043bc <brrCalculus+0x474>)
 8004258:	f7fc f830 	bl	80002bc <__adddf3>
 800425c:	4602      	mov	r2, r0
 800425e:	460b      	mov	r3, r1
 8004260:	4610      	mov	r0, r2
 8004262:	4619      	mov	r1, r3
 8004264:	f7fc fcb8 	bl	8000bd8 <__aeabi_d2f>
 8004268:	4603      	mov	r3, r0
 800426a:	4a53      	ldr	r2, [pc, #332]	; (80043b8 <brrCalculus+0x470>)
 800426c:	6013      	str	r3, [r2, #0]

		 mant_DIVfrac = (mant << 4) | ((unsigned int) DIVfrac);
 800426e:	4b51      	ldr	r3, [pc, #324]	; (80043b4 <brrCalculus+0x46c>)
 8004270:	881b      	ldrh	r3, [r3, #0]
 8004272:	011b      	lsls	r3, r3, #4
 8004274:	b29a      	uxth	r2, r3
 8004276:	4b50      	ldr	r3, [pc, #320]	; (80043b8 <brrCalculus+0x470>)
 8004278:	edd3 7a00 	vldr	s15, [r3]
 800427c:	eefc 7ae7 	vcvt.u32.f32	s15, s15
 8004280:	ee17 3a90 	vmov	r3, s15
 8004284:	b29b      	uxth	r3, r3
 8004286:	4313      	orrs	r3, r2
 8004288:	b29a      	uxth	r2, r3
 800428a:	4b4d      	ldr	r3, [pc, #308]	; (80043c0 <brrCalculus+0x478>)
 800428c:	801a      	strh	r2, [r3, #0]


		break;
 800428e:	e07e      	b.n	800438e <brrCalculus+0x446>
	}
	case USART_BAUDRATE_115200:{

		 value = 1/(16.0 * 115200);
 8004290:	4947      	ldr	r1, [pc, #284]	; (80043b0 <brrCalculus+0x468>)
 8004292:	a345      	add	r3, pc, #276	; (adr r3, 80043a8 <brrCalculus+0x460>)
 8004294:	e9d3 2300 	ldrd	r2, r3, [r3]
 8004298:	e9c1 2300 	strd	r2, r3, [r1]

		 value = ((float) MCUvelocity ) *value;
 800429c:	683b      	ldr	r3, [r7, #0]
 800429e:	ee07 3a90 	vmov	s15, r3
 80042a2:	eef8 7a67 	vcvt.f32.u32	s15, s15
 80042a6:	ee17 0a90 	vmov	r0, s15
 80042aa:	f7fc f965 	bl	8000578 <__aeabi_f2d>
 80042ae:	4b40      	ldr	r3, [pc, #256]	; (80043b0 <brrCalculus+0x468>)
 80042b0:	e9d3 2300 	ldrd	r2, r3, [r3]
 80042b4:	f7fc f9b8 	bl	8000628 <__aeabi_dmul>
 80042b8:	4602      	mov	r2, r0
 80042ba:	460b      	mov	r3, r1
 80042bc:	493c      	ldr	r1, [pc, #240]	; (80043b0 <brrCalculus+0x468>)
 80042be:	e9c1 2300 	strd	r2, r3, [r1]

		 mant = (int) value;
 80042c2:	4b3b      	ldr	r3, [pc, #236]	; (80043b0 <brrCalculus+0x468>)
 80042c4:	e9d3 2300 	ldrd	r2, r3, [r3]
 80042c8:	4610      	mov	r0, r2
 80042ca:	4619      	mov	r1, r3
 80042cc:	f7fc fc5c 	bl	8000b88 <__aeabi_d2iz>
 80042d0:	4603      	mov	r3, r0
 80042d2:	b29a      	uxth	r2, r3
 80042d4:	4b37      	ldr	r3, [pc, #220]	; (80043b4 <brrCalculus+0x46c>)
 80042d6:	801a      	strh	r2, [r3, #0]

		 DIVfrac = value -(int) value;
 80042d8:	4b35      	ldr	r3, [pc, #212]	; (80043b0 <brrCalculus+0x468>)
 80042da:	e9d3 4500 	ldrd	r4, r5, [r3]
 80042de:	4b34      	ldr	r3, [pc, #208]	; (80043b0 <brrCalculus+0x468>)
 80042e0:	e9d3 2300 	ldrd	r2, r3, [r3]
 80042e4:	4610      	mov	r0, r2
 80042e6:	4619      	mov	r1, r3
 80042e8:	f7fc fc4e 	bl	8000b88 <__aeabi_d2iz>
 80042ec:	4603      	mov	r3, r0
 80042ee:	4618      	mov	r0, r3
 80042f0:	f7fc f930 	bl	8000554 <__aeabi_i2d>
 80042f4:	4602      	mov	r2, r0
 80042f6:	460b      	mov	r3, r1
 80042f8:	4620      	mov	r0, r4
 80042fa:	4629      	mov	r1, r5
 80042fc:	f7fb ffdc 	bl	80002b8 <__aeabi_dsub>
 8004300:	4602      	mov	r2, r0
 8004302:	460b      	mov	r3, r1
 8004304:	4610      	mov	r0, r2
 8004306:	4619      	mov	r1, r3
 8004308:	f7fc fc66 	bl	8000bd8 <__aeabi_d2f>
 800430c:	4603      	mov	r3, r0
 800430e:	4a2a      	ldr	r2, [pc, #168]	; (80043b8 <brrCalculus+0x470>)
 8004310:	6013      	str	r3, [r2, #0]

		 DIVfrac = roundToNDecimals(DIVfrac, 4 );
 8004312:	4b29      	ldr	r3, [pc, #164]	; (80043b8 <brrCalculus+0x470>)
 8004314:	edd3 7a00 	vldr	s15, [r3]
 8004318:	2004      	movs	r0, #4
 800431a:	eeb0 0a67 	vmov.f32	s0, s15
 800431e:	f000 f8df 	bl	80044e0 <roundToNDecimals>
 8004322:	eef0 7a40 	vmov.f32	s15, s0
 8004326:	4b24      	ldr	r3, [pc, #144]	; (80043b8 <brrCalculus+0x470>)
 8004328:	edc3 7a00 	vstr	s15, [r3]

		 DIVfrac = 16*DIVfrac;
 800432c:	4b22      	ldr	r3, [pc, #136]	; (80043b8 <brrCalculus+0x470>)
 800432e:	edd3 7a00 	vldr	s15, [r3]
 8004332:	eeb3 7a00 	vmov.f32	s14, #48	; 0x41800000  16.0
 8004336:	ee67 7a87 	vmul.f32	s15, s15, s14
 800433a:	4b1f      	ldr	r3, [pc, #124]	; (80043b8 <brrCalculus+0x470>)
 800433c:	edc3 7a00 	vstr	s15, [r3]

		 DIVfrac = round(DIVfrac);
 8004340:	4b1d      	ldr	r3, [pc, #116]	; (80043b8 <brrCalculus+0x470>)
 8004342:	681b      	ldr	r3, [r3, #0]
 8004344:	4618      	mov	r0, r3
 8004346:	f7fc f917 	bl	8000578 <__aeabi_f2d>
 800434a:	4602      	mov	r2, r0
 800434c:	460b      	mov	r3, r1
 800434e:	ec43 2b10 	vmov	d0, r2, r3
 8004352:	f003 fce3 	bl	8007d1c <round>
 8004356:	ec53 2b10 	vmov	r2, r3, d0
 800435a:	4610      	mov	r0, r2
 800435c:	4619      	mov	r1, r3
 800435e:	f7fc fc3b 	bl	8000bd8 <__aeabi_d2f>
 8004362:	4603      	mov	r3, r0
 8004364:	4a14      	ldr	r2, [pc, #80]	; (80043b8 <brrCalculus+0x470>)
 8004366:	6013      	str	r3, [r2, #0]

		 mant_DIVfrac = (mant << 4) | ((unsigned int) DIVfrac);
 8004368:	4b12      	ldr	r3, [pc, #72]	; (80043b4 <brrCalculus+0x46c>)
 800436a:	881b      	ldrh	r3, [r3, #0]
 800436c:	011b      	lsls	r3, r3, #4
 800436e:	b29a      	uxth	r2, r3
 8004370:	4b11      	ldr	r3, [pc, #68]	; (80043b8 <brrCalculus+0x470>)
 8004372:	edd3 7a00 	vldr	s15, [r3]
 8004376:	eefc 7ae7 	vcvt.u32.f32	s15, s15
 800437a:	ee17 3a90 	vmov	r3, s15
 800437e:	b29b      	uxth	r3, r3
 8004380:	4313      	orrs	r3, r2
 8004382:	b29a      	uxth	r2, r3
 8004384:	4b0e      	ldr	r3, [pc, #56]	; (80043c0 <brrCalculus+0x478>)
 8004386:	801a      	strh	r2, [r3, #0]


		break;
 8004388:	e001      	b.n	800438e <brrCalculus+0x446>
	}
	default:{

		__NOP();
 800438a:	bf00      	nop
		break;
 800438c:	bf00      	nop
	}

	}


	return mant_DIVfrac;
 800438e:	4b0c      	ldr	r3, [pc, #48]	; (80043c0 <brrCalculus+0x478>)
 8004390:	881b      	ldrh	r3, [r3, #0]
}
 8004392:	4618      	mov	r0, r3
 8004394:	3708      	adds	r7, #8
 8004396:	46bd      	mov	sp, r7
 8004398:	bdb0      	pop	{r4, r5, r7, pc}
 800439a:	bf00      	nop
 800439c:	f3af 8000 	nop.w
 80043a0:	789abcdf 	.word	0x789abcdf
 80043a4:	3ec23456 	.word	0x3ec23456
 80043a8:	789abcdf 	.word	0x789abcdf
 80043ac:	3ea23456 	.word	0x3ea23456
 80043b0:	20011a80 	.word	0x20011a80
 80043b4:	20011a76 	.word	0x20011a76
 80043b8:	20011a78 	.word	0x20011a78
 80043bc:	3ff00000 	.word	0x3ff00000
 80043c0:	20011a74 	.word	0x20011a74

080043c4 <writeChar>:


/* funcion para escribir un solo char */
void writeChar(USART_Handler_t *ptrUsartHandler, int dataToSend ){
 80043c4:	b480      	push	{r7}
 80043c6:	b083      	sub	sp, #12
 80043c8:	af00      	add	r7, sp, #0
 80043ca:	6078      	str	r0, [r7, #4]
 80043cc:	6039      	str	r1, [r7, #0]
	while( !(ptrUsartHandler->ptrUSARTx->SR & USART_SR_TXE)){
 80043ce:	e000      	b.n	80043d2 <writeChar+0xe>
		__NOP();
 80043d0:	bf00      	nop
	while( !(ptrUsartHandler->ptrUSARTx->SR & USART_SR_TXE)){
 80043d2:	687b      	ldr	r3, [r7, #4]
 80043d4:	681b      	ldr	r3, [r3, #0]
 80043d6:	681b      	ldr	r3, [r3, #0]
 80043d8:	f003 0380 	and.w	r3, r3, #128	; 0x80
 80043dc:	2b00      	cmp	r3, #0
 80043de:	d0f7      	beq.n	80043d0 <writeChar+0xc>
	}

	ptrUsartHandler->ptrUSARTx->DR = dataToSend;
 80043e0:	687b      	ldr	r3, [r7, #4]
 80043e2:	681b      	ldr	r3, [r3, #0]
 80043e4:	683a      	ldr	r2, [r7, #0]
 80043e6:	605a      	str	r2, [r3, #4]

}
 80043e8:	bf00      	nop
 80043ea:	370c      	adds	r7, #12
 80043ec:	46bd      	mov	sp, r7
 80043ee:	f85d 7b04 	ldr.w	r7, [sp], #4
 80043f2:	4770      	bx	lr

080043f4 <writeMsg>:


void writeMsg(USART_Handler_t *ptrUsartHandler, const char* msgToSend){
 80043f4:	b580      	push	{r7, lr}
 80043f6:	b082      	sub	sp, #8
 80043f8:	af00      	add	r7, sp, #0
 80043fa:	6078      	str	r0, [r7, #4]
 80043fc:	6039      	str	r1, [r7, #0]

	while(*msgToSend != '\0'){
 80043fe:	e008      	b.n	8004412 <writeMsg+0x1e>
		writeChar(ptrUsartHandler, *msgToSend);
 8004400:	683b      	ldr	r3, [r7, #0]
 8004402:	781b      	ldrb	r3, [r3, #0]
 8004404:	4619      	mov	r1, r3
 8004406:	6878      	ldr	r0, [r7, #4]
 8004408:	f7ff ffdc 	bl	80043c4 <writeChar>
		msgToSend ++ ;
 800440c:	683b      	ldr	r3, [r7, #0]
 800440e:	3301      	adds	r3, #1
 8004410:	603b      	str	r3, [r7, #0]
	while(*msgToSend != '\0'){
 8004412:	683b      	ldr	r3, [r7, #0]
 8004414:	781b      	ldrb	r3, [r3, #0]
 8004416:	2b00      	cmp	r3, #0
 8004418:	d1f2      	bne.n	8004400 <writeMsg+0xc>
	}
}
 800441a:	bf00      	nop
 800441c:	bf00      	nop
 800441e:	3708      	adds	r7, #8
 8004420:	46bd      	mov	sp, r7
 8004422:	bd80      	pop	{r7, pc}

08004424 <usart1Rx_Callback>:

__attribute__((weak))	void usart2Rx_Callback(void){
	__NOP();
}
__attribute__((weak))	void usart1Rx_Callback(void){
 8004424:	b480      	push	{r7}
 8004426:	af00      	add	r7, sp, #0
	__NOP();
 8004428:	bf00      	nop
}
 800442a:	bf00      	nop
 800442c:	46bd      	mov	sp, r7
 800442e:	f85d 7b04 	ldr.w	r7, [sp], #4
 8004432:	4770      	bx	lr

08004434 <usart6Rx_Callback>:
__attribute__((weak))	void usart6Rx_Callback(void){
 8004434:	b480      	push	{r7}
 8004436:	af00      	add	r7, sp, #0
	__NOP();
 8004438:	bf00      	nop
}
 800443a:	bf00      	nop
 800443c:	46bd      	mov	sp, r7
 800443e:	f85d 7b04 	ldr.w	r7, [sp], #4
 8004442:	4770      	bx	lr

08004444 <getRxData>:

uint8_t auxRxData = 0;

uint8_t getRxData(void){
 8004444:	b480      	push	{r7}
 8004446:	af00      	add	r7, sp, #0
	return auxRxData;
 8004448:	4b03      	ldr	r3, [pc, #12]	; (8004458 <getRxData+0x14>)
 800444a:	781b      	ldrb	r3, [r3, #0]
}
 800444c:	4618      	mov	r0, r3
 800444e:	46bd      	mov	sp, r7
 8004450:	f85d 7b04 	ldr.w	r7, [sp], #4
 8004454:	4770      	bx	lr
 8004456:	bf00      	nop
 8004458:	20011a88 	.word	0x20011a88

0800445c <USART2_IRQHandler>:

void USART2_IRQHandler(void){
 800445c:	b580      	push	{r7, lr}
 800445e:	af00      	add	r7, sp, #0

	if(USART2->SR & USART_SR_RXNE){
 8004460:	4b07      	ldr	r3, [pc, #28]	; (8004480 <USART2_IRQHandler+0x24>)
 8004462:	681b      	ldr	r3, [r3, #0]
 8004464:	f003 0320 	and.w	r3, r3, #32
 8004468:	2b00      	cmp	r3, #0
 800446a:	d006      	beq.n	800447a <USART2_IRQHandler+0x1e>
		auxRxData = (uint8_t) USART2->DR;
 800446c:	4b04      	ldr	r3, [pc, #16]	; (8004480 <USART2_IRQHandler+0x24>)
 800446e:	685b      	ldr	r3, [r3, #4]
 8004470:	b2da      	uxtb	r2, r3
 8004472:	4b04      	ldr	r3, [pc, #16]	; (8004484 <USART2_IRQHandler+0x28>)
 8004474:	701a      	strb	r2, [r3, #0]
		usart2Rx_Callback();
 8004476:	f7fc fe11 	bl	800109c <usart2Rx_Callback>
	}

}
 800447a:	bf00      	nop
 800447c:	bd80      	pop	{r7, pc}
 800447e:	bf00      	nop
 8004480:	40004400 	.word	0x40004400
 8004484:	20011a88 	.word	0x20011a88

08004488 <USART1_IRQHandler>:
//	}
//	if(USART2->SR & USART_SR_TXE){
//		usart2Rx_Callback();
//	}

void USART1_IRQHandler(void){
 8004488:	b580      	push	{r7, lr}
 800448a:	af00      	add	r7, sp, #0


	if(USART1->SR & USART_SR_RXNE){
 800448c:	4b07      	ldr	r3, [pc, #28]	; (80044ac <USART1_IRQHandler+0x24>)
 800448e:	681b      	ldr	r3, [r3, #0]
 8004490:	f003 0320 	and.w	r3, r3, #32
 8004494:	2b00      	cmp	r3, #0
 8004496:	d006      	beq.n	80044a6 <USART1_IRQHandler+0x1e>
		auxRxData = (uint8_t) USART1->DR;
 8004498:	4b04      	ldr	r3, [pc, #16]	; (80044ac <USART1_IRQHandler+0x24>)
 800449a:	685b      	ldr	r3, [r3, #4]
 800449c:	b2da      	uxtb	r2, r3
 800449e:	4b04      	ldr	r3, [pc, #16]	; (80044b0 <USART1_IRQHandler+0x28>)
 80044a0:	701a      	strb	r2, [r3, #0]
		usart1Rx_Callback();
 80044a2:	f7ff ffbf 	bl	8004424 <usart1Rx_Callback>
	}
}
 80044a6:	bf00      	nop
 80044a8:	bd80      	pop	{r7, pc}
 80044aa:	bf00      	nop
 80044ac:	40011000 	.word	0x40011000
 80044b0:	20011a88 	.word	0x20011a88

080044b4 <USART6_IRQHandler>:
//		usart1Rx_Callback();
//	}



void USART6_IRQHandler(void){
 80044b4:	b580      	push	{r7, lr}
 80044b6:	af00      	add	r7, sp, #0

	if(USART6->SR & USART_SR_RXNE){
 80044b8:	4b07      	ldr	r3, [pc, #28]	; (80044d8 <USART6_IRQHandler+0x24>)
 80044ba:	681b      	ldr	r3, [r3, #0]
 80044bc:	f003 0320 	and.w	r3, r3, #32
 80044c0:	2b00      	cmp	r3, #0
 80044c2:	d006      	beq.n	80044d2 <USART6_IRQHandler+0x1e>
		auxRxData = (uint8_t) USART6->DR;
 80044c4:	4b04      	ldr	r3, [pc, #16]	; (80044d8 <USART6_IRQHandler+0x24>)
 80044c6:	685b      	ldr	r3, [r3, #4]
 80044c8:	b2da      	uxtb	r2, r3
 80044ca:	4b04      	ldr	r3, [pc, #16]	; (80044dc <USART6_IRQHandler+0x28>)
 80044cc:	701a      	strb	r2, [r3, #0]
		usart6Rx_Callback();
 80044ce:	f7ff ffb1 	bl	8004434 <usart6Rx_Callback>
	}

}
 80044d2:	bf00      	nop
 80044d4:	bd80      	pop	{r7, pc}
 80044d6:	bf00      	nop
 80044d8:	40011400 	.word	0x40011400
 80044dc:	20011a88 	.word	0x20011a88

080044e0 <roundToNDecimals>:


float roundToNDecimals(float number, int n) {
 80044e0:	b580      	push	{r7, lr}
 80044e2:	b084      	sub	sp, #16
 80044e4:	af00      	add	r7, sp, #0
 80044e6:	ed87 0a01 	vstr	s0, [r7, #4]
 80044ea:	6038      	str	r0, [r7, #0]

    double factor = pow(10, n);
 80044ec:	6838      	ldr	r0, [r7, #0]
 80044ee:	f7fc f831 	bl	8000554 <__aeabi_i2d>
 80044f2:	4602      	mov	r2, r0
 80044f4:	460b      	mov	r3, r1
 80044f6:	ec43 2b11 	vmov	d1, r2, r3
 80044fa:	ed9f 0b1f 	vldr	d0, [pc, #124]	; 8004578 <roundToNDecimals+0x98>
 80044fe:	f003 fc53 	bl	8007da8 <pow>
 8004502:	ed87 0b02 	vstr	d0, [r7, #8]

    number *= factor;
 8004506:	6878      	ldr	r0, [r7, #4]
 8004508:	f7fc f836 	bl	8000578 <__aeabi_f2d>
 800450c:	e9d7 2302 	ldrd	r2, r3, [r7, #8]
 8004510:	f7fc f88a 	bl	8000628 <__aeabi_dmul>
 8004514:	4602      	mov	r2, r0
 8004516:	460b      	mov	r3, r1
 8004518:	4610      	mov	r0, r2
 800451a:	4619      	mov	r1, r3
 800451c:	f7fc fb5c 	bl	8000bd8 <__aeabi_d2f>
 8004520:	4603      	mov	r3, r0
 8004522:	607b      	str	r3, [r7, #4]

    number = round(number);
 8004524:	6878      	ldr	r0, [r7, #4]
 8004526:	f7fc f827 	bl	8000578 <__aeabi_f2d>
 800452a:	4602      	mov	r2, r0
 800452c:	460b      	mov	r3, r1
 800452e:	ec43 2b10 	vmov	d0, r2, r3
 8004532:	f003 fbf3 	bl	8007d1c <round>
 8004536:	ec53 2b10 	vmov	r2, r3, d0
 800453a:	4610      	mov	r0, r2
 800453c:	4619      	mov	r1, r3
 800453e:	f7fc fb4b 	bl	8000bd8 <__aeabi_d2f>
 8004542:	4603      	mov	r3, r0
 8004544:	607b      	str	r3, [r7, #4]

    number /= factor;
 8004546:	6878      	ldr	r0, [r7, #4]
 8004548:	f7fc f816 	bl	8000578 <__aeabi_f2d>
 800454c:	e9d7 2302 	ldrd	r2, r3, [r7, #8]
 8004550:	f7fc f994 	bl	800087c <__aeabi_ddiv>
 8004554:	4602      	mov	r2, r0
 8004556:	460b      	mov	r3, r1
 8004558:	4610      	mov	r0, r2
 800455a:	4619      	mov	r1, r3
 800455c:	f7fc fb3c 	bl	8000bd8 <__aeabi_d2f>
 8004560:	4603      	mov	r3, r0
 8004562:	607b      	str	r3, [r7, #4]

    return number;
 8004564:	687b      	ldr	r3, [r7, #4]
 8004566:	ee07 3a90 	vmov	s15, r3
}
 800456a:	eeb0 0a67 	vmov.f32	s0, s15
 800456e:	3710      	adds	r7, #16
 8004570:	46bd      	mov	sp, r7
 8004572:	bd80      	pop	{r7, pc}
 8004574:	f3af 8000 	nop.w
 8004578:	00000000 	.word	0x00000000
 800457c:	40240000 	.word	0x40240000

08004580 <__errno>:
 8004580:	4b01      	ldr	r3, [pc, #4]	; (8004588 <__errno+0x8>)
 8004582:	6818      	ldr	r0, [r3, #0]
 8004584:	4770      	bx	lr
 8004586:	bf00      	nop
 8004588:	20000008 	.word	0x20000008

0800458c <__libc_init_array>:
 800458c:	b570      	push	{r4, r5, r6, lr}
 800458e:	4d0d      	ldr	r5, [pc, #52]	; (80045c4 <__libc_init_array+0x38>)
 8004590:	4c0d      	ldr	r4, [pc, #52]	; (80045c8 <__libc_init_array+0x3c>)
 8004592:	1b64      	subs	r4, r4, r5
 8004594:	10a4      	asrs	r4, r4, #2
 8004596:	2600      	movs	r6, #0
 8004598:	42a6      	cmp	r6, r4
 800459a:	d109      	bne.n	80045b0 <__libc_init_array+0x24>
 800459c:	4d0b      	ldr	r5, [pc, #44]	; (80045cc <__libc_init_array+0x40>)
 800459e:	4c0c      	ldr	r4, [pc, #48]	; (80045d0 <__libc_init_array+0x44>)
 80045a0:	f004 fb2a 	bl	8008bf8 <_init>
 80045a4:	1b64      	subs	r4, r4, r5
 80045a6:	10a4      	asrs	r4, r4, #2
 80045a8:	2600      	movs	r6, #0
 80045aa:	42a6      	cmp	r6, r4
 80045ac:	d105      	bne.n	80045ba <__libc_init_array+0x2e>
 80045ae:	bd70      	pop	{r4, r5, r6, pc}
 80045b0:	f855 3b04 	ldr.w	r3, [r5], #4
 80045b4:	4798      	blx	r3
 80045b6:	3601      	adds	r6, #1
 80045b8:	e7ee      	b.n	8004598 <__libc_init_array+0xc>
 80045ba:	f855 3b04 	ldr.w	r3, [r5], #4
 80045be:	4798      	blx	r3
 80045c0:	3601      	adds	r6, #1
 80045c2:	e7f2      	b.n	80045aa <__libc_init_array+0x1e>
 80045c4:	08009240 	.word	0x08009240
 80045c8:	08009240 	.word	0x08009240
 80045cc:	08009240 	.word	0x08009240
 80045d0:	08009244 	.word	0x08009244

080045d4 <malloc>:
 80045d4:	4b02      	ldr	r3, [pc, #8]	; (80045e0 <malloc+0xc>)
 80045d6:	4601      	mov	r1, r0
 80045d8:	6818      	ldr	r0, [r3, #0]
 80045da:	f000 b877 	b.w	80046cc <_malloc_r>
 80045de:	bf00      	nop
 80045e0:	20000008 	.word	0x20000008

080045e4 <memset>:
 80045e4:	4402      	add	r2, r0
 80045e6:	4603      	mov	r3, r0
 80045e8:	4293      	cmp	r3, r2
 80045ea:	d100      	bne.n	80045ee <memset+0xa>
 80045ec:	4770      	bx	lr
 80045ee:	f803 1b01 	strb.w	r1, [r3], #1
 80045f2:	e7f9      	b.n	80045e8 <memset+0x4>

080045f4 <_free_r>:
 80045f4:	b537      	push	{r0, r1, r2, r4, r5, lr}
 80045f6:	2900      	cmp	r1, #0
 80045f8:	d044      	beq.n	8004684 <_free_r+0x90>
 80045fa:	f851 3c04 	ldr.w	r3, [r1, #-4]
 80045fe:	9001      	str	r0, [sp, #4]
 8004600:	2b00      	cmp	r3, #0
 8004602:	f1a1 0404 	sub.w	r4, r1, #4
 8004606:	bfb8      	it	lt
 8004608:	18e4      	addlt	r4, r4, r3
 800460a:	f001 fc9f 	bl	8005f4c <__malloc_lock>
 800460e:	4a1e      	ldr	r2, [pc, #120]	; (8004688 <_free_r+0x94>)
 8004610:	9801      	ldr	r0, [sp, #4]
 8004612:	6813      	ldr	r3, [r2, #0]
 8004614:	b933      	cbnz	r3, 8004624 <_free_r+0x30>
 8004616:	6063      	str	r3, [r4, #4]
 8004618:	6014      	str	r4, [r2, #0]
 800461a:	b003      	add	sp, #12
 800461c:	e8bd 4030 	ldmia.w	sp!, {r4, r5, lr}
 8004620:	f001 bc9a 	b.w	8005f58 <__malloc_unlock>
 8004624:	42a3      	cmp	r3, r4
 8004626:	d908      	bls.n	800463a <_free_r+0x46>
 8004628:	6825      	ldr	r5, [r4, #0]
 800462a:	1961      	adds	r1, r4, r5
 800462c:	428b      	cmp	r3, r1
 800462e:	bf01      	itttt	eq
 8004630:	6819      	ldreq	r1, [r3, #0]
 8004632:	685b      	ldreq	r3, [r3, #4]
 8004634:	1949      	addeq	r1, r1, r5
 8004636:	6021      	streq	r1, [r4, #0]
 8004638:	e7ed      	b.n	8004616 <_free_r+0x22>
 800463a:	461a      	mov	r2, r3
 800463c:	685b      	ldr	r3, [r3, #4]
 800463e:	b10b      	cbz	r3, 8004644 <_free_r+0x50>
 8004640:	42a3      	cmp	r3, r4
 8004642:	d9fa      	bls.n	800463a <_free_r+0x46>
 8004644:	6811      	ldr	r1, [r2, #0]
 8004646:	1855      	adds	r5, r2, r1
 8004648:	42a5      	cmp	r5, r4
 800464a:	d10b      	bne.n	8004664 <_free_r+0x70>
 800464c:	6824      	ldr	r4, [r4, #0]
 800464e:	4421      	add	r1, r4
 8004650:	1854      	adds	r4, r2, r1
 8004652:	42a3      	cmp	r3, r4
 8004654:	6011      	str	r1, [r2, #0]
 8004656:	d1e0      	bne.n	800461a <_free_r+0x26>
 8004658:	681c      	ldr	r4, [r3, #0]
 800465a:	685b      	ldr	r3, [r3, #4]
 800465c:	6053      	str	r3, [r2, #4]
 800465e:	4421      	add	r1, r4
 8004660:	6011      	str	r1, [r2, #0]
 8004662:	e7da      	b.n	800461a <_free_r+0x26>
 8004664:	d902      	bls.n	800466c <_free_r+0x78>
 8004666:	230c      	movs	r3, #12
 8004668:	6003      	str	r3, [r0, #0]
 800466a:	e7d6      	b.n	800461a <_free_r+0x26>
 800466c:	6825      	ldr	r5, [r4, #0]
 800466e:	1961      	adds	r1, r4, r5
 8004670:	428b      	cmp	r3, r1
 8004672:	bf04      	itt	eq
 8004674:	6819      	ldreq	r1, [r3, #0]
 8004676:	685b      	ldreq	r3, [r3, #4]
 8004678:	6063      	str	r3, [r4, #4]
 800467a:	bf04      	itt	eq
 800467c:	1949      	addeq	r1, r1, r5
 800467e:	6021      	streq	r1, [r4, #0]
 8004680:	6054      	str	r4, [r2, #4]
 8004682:	e7ca      	b.n	800461a <_free_r+0x26>
 8004684:	b003      	add	sp, #12
 8004686:	bd30      	pop	{r4, r5, pc}
 8004688:	20011a8c 	.word	0x20011a8c

0800468c <sbrk_aligned>:
 800468c:	b570      	push	{r4, r5, r6, lr}
 800468e:	4e0e      	ldr	r6, [pc, #56]	; (80046c8 <sbrk_aligned+0x3c>)
 8004690:	460c      	mov	r4, r1
 8004692:	6831      	ldr	r1, [r6, #0]
 8004694:	4605      	mov	r5, r0
 8004696:	b911      	cbnz	r1, 800469e <sbrk_aligned+0x12>
 8004698:	f000 fcf6 	bl	8005088 <_sbrk_r>
 800469c:	6030      	str	r0, [r6, #0]
 800469e:	4621      	mov	r1, r4
 80046a0:	4628      	mov	r0, r5
 80046a2:	f000 fcf1 	bl	8005088 <_sbrk_r>
 80046a6:	1c43      	adds	r3, r0, #1
 80046a8:	d00a      	beq.n	80046c0 <sbrk_aligned+0x34>
 80046aa:	1cc4      	adds	r4, r0, #3
 80046ac:	f024 0403 	bic.w	r4, r4, #3
 80046b0:	42a0      	cmp	r0, r4
 80046b2:	d007      	beq.n	80046c4 <sbrk_aligned+0x38>
 80046b4:	1a21      	subs	r1, r4, r0
 80046b6:	4628      	mov	r0, r5
 80046b8:	f000 fce6 	bl	8005088 <_sbrk_r>
 80046bc:	3001      	adds	r0, #1
 80046be:	d101      	bne.n	80046c4 <sbrk_aligned+0x38>
 80046c0:	f04f 34ff 	mov.w	r4, #4294967295	; 0xffffffff
 80046c4:	4620      	mov	r0, r4
 80046c6:	bd70      	pop	{r4, r5, r6, pc}
 80046c8:	20011a90 	.word	0x20011a90

080046cc <_malloc_r>:
 80046cc:	e92d 41f0 	stmdb	sp!, {r4, r5, r6, r7, r8, lr}
 80046d0:	1ccd      	adds	r5, r1, #3
 80046d2:	f025 0503 	bic.w	r5, r5, #3
 80046d6:	3508      	adds	r5, #8
 80046d8:	2d0c      	cmp	r5, #12
 80046da:	bf38      	it	cc
 80046dc:	250c      	movcc	r5, #12
 80046de:	2d00      	cmp	r5, #0
 80046e0:	4607      	mov	r7, r0
 80046e2:	db01      	blt.n	80046e8 <_malloc_r+0x1c>
 80046e4:	42a9      	cmp	r1, r5
 80046e6:	d905      	bls.n	80046f4 <_malloc_r+0x28>
 80046e8:	230c      	movs	r3, #12
 80046ea:	603b      	str	r3, [r7, #0]
 80046ec:	2600      	movs	r6, #0
 80046ee:	4630      	mov	r0, r6
 80046f0:	e8bd 81f0 	ldmia.w	sp!, {r4, r5, r6, r7, r8, pc}
 80046f4:	4e2e      	ldr	r6, [pc, #184]	; (80047b0 <_malloc_r+0xe4>)
 80046f6:	f001 fc29 	bl	8005f4c <__malloc_lock>
 80046fa:	6833      	ldr	r3, [r6, #0]
 80046fc:	461c      	mov	r4, r3
 80046fe:	bb34      	cbnz	r4, 800474e <_malloc_r+0x82>
 8004700:	4629      	mov	r1, r5
 8004702:	4638      	mov	r0, r7
 8004704:	f7ff ffc2 	bl	800468c <sbrk_aligned>
 8004708:	1c43      	adds	r3, r0, #1
 800470a:	4604      	mov	r4, r0
 800470c:	d14d      	bne.n	80047aa <_malloc_r+0xde>
 800470e:	6834      	ldr	r4, [r6, #0]
 8004710:	4626      	mov	r6, r4
 8004712:	2e00      	cmp	r6, #0
 8004714:	d140      	bne.n	8004798 <_malloc_r+0xcc>
 8004716:	6823      	ldr	r3, [r4, #0]
 8004718:	4631      	mov	r1, r6
 800471a:	4638      	mov	r0, r7
 800471c:	eb04 0803 	add.w	r8, r4, r3
 8004720:	f000 fcb2 	bl	8005088 <_sbrk_r>
 8004724:	4580      	cmp	r8, r0
 8004726:	d13a      	bne.n	800479e <_malloc_r+0xd2>
 8004728:	6821      	ldr	r1, [r4, #0]
 800472a:	3503      	adds	r5, #3
 800472c:	1a6d      	subs	r5, r5, r1
 800472e:	f025 0503 	bic.w	r5, r5, #3
 8004732:	3508      	adds	r5, #8
 8004734:	2d0c      	cmp	r5, #12
 8004736:	bf38      	it	cc
 8004738:	250c      	movcc	r5, #12
 800473a:	4629      	mov	r1, r5
 800473c:	4638      	mov	r0, r7
 800473e:	f7ff ffa5 	bl	800468c <sbrk_aligned>
 8004742:	3001      	adds	r0, #1
 8004744:	d02b      	beq.n	800479e <_malloc_r+0xd2>
 8004746:	6823      	ldr	r3, [r4, #0]
 8004748:	442b      	add	r3, r5
 800474a:	6023      	str	r3, [r4, #0]
 800474c:	e00e      	b.n	800476c <_malloc_r+0xa0>
 800474e:	6822      	ldr	r2, [r4, #0]
 8004750:	1b52      	subs	r2, r2, r5
 8004752:	d41e      	bmi.n	8004792 <_malloc_r+0xc6>
 8004754:	2a0b      	cmp	r2, #11
 8004756:	d916      	bls.n	8004786 <_malloc_r+0xba>
 8004758:	1961      	adds	r1, r4, r5
 800475a:	42a3      	cmp	r3, r4
 800475c:	6025      	str	r5, [r4, #0]
 800475e:	bf18      	it	ne
 8004760:	6059      	strne	r1, [r3, #4]
 8004762:	6863      	ldr	r3, [r4, #4]
 8004764:	bf08      	it	eq
 8004766:	6031      	streq	r1, [r6, #0]
 8004768:	5162      	str	r2, [r4, r5]
 800476a:	604b      	str	r3, [r1, #4]
 800476c:	4638      	mov	r0, r7
 800476e:	f104 060b 	add.w	r6, r4, #11
 8004772:	f001 fbf1 	bl	8005f58 <__malloc_unlock>
 8004776:	f026 0607 	bic.w	r6, r6, #7
 800477a:	1d23      	adds	r3, r4, #4
 800477c:	1af2      	subs	r2, r6, r3
 800477e:	d0b6      	beq.n	80046ee <_malloc_r+0x22>
 8004780:	1b9b      	subs	r3, r3, r6
 8004782:	50a3      	str	r3, [r4, r2]
 8004784:	e7b3      	b.n	80046ee <_malloc_r+0x22>
 8004786:	6862      	ldr	r2, [r4, #4]
 8004788:	42a3      	cmp	r3, r4
 800478a:	bf0c      	ite	eq
 800478c:	6032      	streq	r2, [r6, #0]
 800478e:	605a      	strne	r2, [r3, #4]
 8004790:	e7ec      	b.n	800476c <_malloc_r+0xa0>
 8004792:	4623      	mov	r3, r4
 8004794:	6864      	ldr	r4, [r4, #4]
 8004796:	e7b2      	b.n	80046fe <_malloc_r+0x32>
 8004798:	4634      	mov	r4, r6
 800479a:	6876      	ldr	r6, [r6, #4]
 800479c:	e7b9      	b.n	8004712 <_malloc_r+0x46>
 800479e:	230c      	movs	r3, #12
 80047a0:	603b      	str	r3, [r7, #0]
 80047a2:	4638      	mov	r0, r7
 80047a4:	f001 fbd8 	bl	8005f58 <__malloc_unlock>
 80047a8:	e7a1      	b.n	80046ee <_malloc_r+0x22>
 80047aa:	6025      	str	r5, [r4, #0]
 80047ac:	e7de      	b.n	800476c <_malloc_r+0xa0>
 80047ae:	bf00      	nop
 80047b0:	20011a8c 	.word	0x20011a8c

080047b4 <__cvt>:
 80047b4:	e92d 47ff 	stmdb	sp!, {r0, r1, r2, r3, r4, r5, r6, r7, r8, r9, sl, lr}
 80047b8:	ec55 4b10 	vmov	r4, r5, d0
 80047bc:	2d00      	cmp	r5, #0
 80047be:	460e      	mov	r6, r1
 80047c0:	4619      	mov	r1, r3
 80047c2:	462b      	mov	r3, r5
 80047c4:	bfbb      	ittet	lt
 80047c6:	f105 4300 	addlt.w	r3, r5, #2147483648	; 0x80000000
 80047ca:	461d      	movlt	r5, r3
 80047cc:	2300      	movge	r3, #0
 80047ce:	232d      	movlt	r3, #45	; 0x2d
 80047d0:	700b      	strb	r3, [r1, #0]
 80047d2:	9b0d      	ldr	r3, [sp, #52]	; 0x34
 80047d4:	f8dd a030 	ldr.w	sl, [sp, #48]	; 0x30
 80047d8:	4691      	mov	r9, r2
 80047da:	f023 0820 	bic.w	r8, r3, #32
 80047de:	bfbc      	itt	lt
 80047e0:	4622      	movlt	r2, r4
 80047e2:	4614      	movlt	r4, r2
 80047e4:	f1b8 0f46 	cmp.w	r8, #70	; 0x46
 80047e8:	d005      	beq.n	80047f6 <__cvt+0x42>
 80047ea:	f1b8 0f45 	cmp.w	r8, #69	; 0x45
 80047ee:	d100      	bne.n	80047f2 <__cvt+0x3e>
 80047f0:	3601      	adds	r6, #1
 80047f2:	2102      	movs	r1, #2
 80047f4:	e000      	b.n	80047f8 <__cvt+0x44>
 80047f6:	2103      	movs	r1, #3
 80047f8:	ab03      	add	r3, sp, #12
 80047fa:	9301      	str	r3, [sp, #4]
 80047fc:	ab02      	add	r3, sp, #8
 80047fe:	9300      	str	r3, [sp, #0]
 8004800:	ec45 4b10 	vmov	d0, r4, r5
 8004804:	4653      	mov	r3, sl
 8004806:	4632      	mov	r2, r6
 8004808:	f000 fd8e 	bl	8005328 <_dtoa_r>
 800480c:	f1b8 0f47 	cmp.w	r8, #71	; 0x47
 8004810:	4607      	mov	r7, r0
 8004812:	d102      	bne.n	800481a <__cvt+0x66>
 8004814:	f019 0f01 	tst.w	r9, #1
 8004818:	d022      	beq.n	8004860 <__cvt+0xac>
 800481a:	f1b8 0f46 	cmp.w	r8, #70	; 0x46
 800481e:	eb07 0906 	add.w	r9, r7, r6
 8004822:	d110      	bne.n	8004846 <__cvt+0x92>
 8004824:	783b      	ldrb	r3, [r7, #0]
 8004826:	2b30      	cmp	r3, #48	; 0x30
 8004828:	d10a      	bne.n	8004840 <__cvt+0x8c>
 800482a:	2200      	movs	r2, #0
 800482c:	2300      	movs	r3, #0
 800482e:	4620      	mov	r0, r4
 8004830:	4629      	mov	r1, r5
 8004832:	f7fc f961 	bl	8000af8 <__aeabi_dcmpeq>
 8004836:	b918      	cbnz	r0, 8004840 <__cvt+0x8c>
 8004838:	f1c6 0601 	rsb	r6, r6, #1
 800483c:	f8ca 6000 	str.w	r6, [sl]
 8004840:	f8da 3000 	ldr.w	r3, [sl]
 8004844:	4499      	add	r9, r3
 8004846:	2200      	movs	r2, #0
 8004848:	2300      	movs	r3, #0
 800484a:	4620      	mov	r0, r4
 800484c:	4629      	mov	r1, r5
 800484e:	f7fc f953 	bl	8000af8 <__aeabi_dcmpeq>
 8004852:	b108      	cbz	r0, 8004858 <__cvt+0xa4>
 8004854:	f8cd 900c 	str.w	r9, [sp, #12]
 8004858:	2230      	movs	r2, #48	; 0x30
 800485a:	9b03      	ldr	r3, [sp, #12]
 800485c:	454b      	cmp	r3, r9
 800485e:	d307      	bcc.n	8004870 <__cvt+0xbc>
 8004860:	9b03      	ldr	r3, [sp, #12]
 8004862:	9a0e      	ldr	r2, [sp, #56]	; 0x38
 8004864:	1bdb      	subs	r3, r3, r7
 8004866:	4638      	mov	r0, r7
 8004868:	6013      	str	r3, [r2, #0]
 800486a:	b004      	add	sp, #16
 800486c:	e8bd 87f0 	ldmia.w	sp!, {r4, r5, r6, r7, r8, r9, sl, pc}
 8004870:	1c59      	adds	r1, r3, #1
 8004872:	9103      	str	r1, [sp, #12]
 8004874:	701a      	strb	r2, [r3, #0]
 8004876:	e7f0      	b.n	800485a <__cvt+0xa6>

08004878 <__exponent>:
 8004878:	b5f7      	push	{r0, r1, r2, r4, r5, r6, r7, lr}
 800487a:	4603      	mov	r3, r0
 800487c:	2900      	cmp	r1, #0
 800487e:	bfb8      	it	lt
 8004880:	4249      	neglt	r1, r1
 8004882:	f803 2b02 	strb.w	r2, [r3], #2
 8004886:	bfb4      	ite	lt
 8004888:	222d      	movlt	r2, #45	; 0x2d
 800488a:	222b      	movge	r2, #43	; 0x2b
 800488c:	2909      	cmp	r1, #9
 800488e:	7042      	strb	r2, [r0, #1]
 8004890:	dd2a      	ble.n	80048e8 <__exponent+0x70>
 8004892:	f10d 0407 	add.w	r4, sp, #7
 8004896:	46a4      	mov	ip, r4
 8004898:	270a      	movs	r7, #10
 800489a:	46a6      	mov	lr, r4
 800489c:	460a      	mov	r2, r1
 800489e:	fb91 f6f7 	sdiv	r6, r1, r7
 80048a2:	fb07 1516 	mls	r5, r7, r6, r1
 80048a6:	3530      	adds	r5, #48	; 0x30
 80048a8:	2a63      	cmp	r2, #99	; 0x63
 80048aa:	f104 34ff 	add.w	r4, r4, #4294967295	; 0xffffffff
 80048ae:	f80e 5c01 	strb.w	r5, [lr, #-1]
 80048b2:	4631      	mov	r1, r6
 80048b4:	dcf1      	bgt.n	800489a <__exponent+0x22>
 80048b6:	3130      	adds	r1, #48	; 0x30
 80048b8:	f1ae 0502 	sub.w	r5, lr, #2
 80048bc:	f804 1c01 	strb.w	r1, [r4, #-1]
 80048c0:	1c44      	adds	r4, r0, #1
 80048c2:	4629      	mov	r1, r5
 80048c4:	4561      	cmp	r1, ip
 80048c6:	d30a      	bcc.n	80048de <__exponent+0x66>
 80048c8:	f10d 0209 	add.w	r2, sp, #9
 80048cc:	eba2 020e 	sub.w	r2, r2, lr
 80048d0:	4565      	cmp	r5, ip
 80048d2:	bf88      	it	hi
 80048d4:	2200      	movhi	r2, #0
 80048d6:	4413      	add	r3, r2
 80048d8:	1a18      	subs	r0, r3, r0
 80048da:	b003      	add	sp, #12
 80048dc:	bdf0      	pop	{r4, r5, r6, r7, pc}
 80048de:	f811 2b01 	ldrb.w	r2, [r1], #1
 80048e2:	f804 2f01 	strb.w	r2, [r4, #1]!
 80048e6:	e7ed      	b.n	80048c4 <__exponent+0x4c>
 80048e8:	2330      	movs	r3, #48	; 0x30
 80048ea:	3130      	adds	r1, #48	; 0x30
 80048ec:	7083      	strb	r3, [r0, #2]
 80048ee:	70c1      	strb	r1, [r0, #3]
 80048f0:	1d03      	adds	r3, r0, #4
 80048f2:	e7f1      	b.n	80048d8 <__exponent+0x60>

080048f4 <_printf_float>:
 80048f4:	e92d 4ff0 	stmdb	sp!, {r4, r5, r6, r7, r8, r9, sl, fp, lr}
 80048f8:	ed2d 8b02 	vpush	{d8}
 80048fc:	b08d      	sub	sp, #52	; 0x34
 80048fe:	460c      	mov	r4, r1
 8004900:	f8dd 8060 	ldr.w	r8, [sp, #96]	; 0x60
 8004904:	4616      	mov	r6, r2
 8004906:	461f      	mov	r7, r3
 8004908:	4605      	mov	r5, r0
 800490a:	f001 fafb 	bl	8005f04 <_localeconv_r>
 800490e:	f8d0 a000 	ldr.w	sl, [r0]
 8004912:	4650      	mov	r0, sl
 8004914:	f7fb fc6e 	bl	80001f4 <strlen>
 8004918:	2300      	movs	r3, #0
 800491a:	930a      	str	r3, [sp, #40]	; 0x28
 800491c:	6823      	ldr	r3, [r4, #0]
 800491e:	9305      	str	r3, [sp, #20]
 8004920:	f8d8 3000 	ldr.w	r3, [r8]
 8004924:	f894 b018 	ldrb.w	fp, [r4, #24]
 8004928:	3307      	adds	r3, #7
 800492a:	f023 0307 	bic.w	r3, r3, #7
 800492e:	f103 0208 	add.w	r2, r3, #8
 8004932:	f8c8 2000 	str.w	r2, [r8]
 8004936:	e9d3 2300 	ldrd	r2, r3, [r3]
 800493a:	e9c4 2312 	strd	r2, r3, [r4, #72]	; 0x48
 800493e:	e9d4 8912 	ldrd	r8, r9, [r4, #72]	; 0x48
 8004942:	f029 4300 	bic.w	r3, r9, #2147483648	; 0x80000000
 8004946:	9307      	str	r3, [sp, #28]
 8004948:	f8cd 8018 	str.w	r8, [sp, #24]
 800494c:	ee08 0a10 	vmov	s16, r0
 8004950:	4b9f      	ldr	r3, [pc, #636]	; (8004bd0 <_printf_float+0x2dc>)
 8004952:	e9dd 0106 	ldrd	r0, r1, [sp, #24]
 8004956:	f04f 32ff 	mov.w	r2, #4294967295	; 0xffffffff
 800495a:	f7fc f8ff 	bl	8000b5c <__aeabi_dcmpun>
 800495e:	bb88      	cbnz	r0, 80049c4 <_printf_float+0xd0>
 8004960:	e9dd 0106 	ldrd	r0, r1, [sp, #24]
 8004964:	4b9a      	ldr	r3, [pc, #616]	; (8004bd0 <_printf_float+0x2dc>)
 8004966:	f04f 32ff 	mov.w	r2, #4294967295	; 0xffffffff
 800496a:	f7fc f8d9 	bl	8000b20 <__aeabi_dcmple>
 800496e:	bb48      	cbnz	r0, 80049c4 <_printf_float+0xd0>
 8004970:	2200      	movs	r2, #0
 8004972:	2300      	movs	r3, #0
 8004974:	4640      	mov	r0, r8
 8004976:	4649      	mov	r1, r9
 8004978:	f7fc f8c8 	bl	8000b0c <__aeabi_dcmplt>
 800497c:	b110      	cbz	r0, 8004984 <_printf_float+0x90>
 800497e:	232d      	movs	r3, #45	; 0x2d
 8004980:	f884 3043 	strb.w	r3, [r4, #67]	; 0x43
 8004984:	4b93      	ldr	r3, [pc, #588]	; (8004bd4 <_printf_float+0x2e0>)
 8004986:	4894      	ldr	r0, [pc, #592]	; (8004bd8 <_printf_float+0x2e4>)
 8004988:	f1bb 0f47 	cmp.w	fp, #71	; 0x47
 800498c:	bf94      	ite	ls
 800498e:	4698      	movls	r8, r3
 8004990:	4680      	movhi	r8, r0
 8004992:	2303      	movs	r3, #3
 8004994:	6123      	str	r3, [r4, #16]
 8004996:	9b05      	ldr	r3, [sp, #20]
 8004998:	f023 0204 	bic.w	r2, r3, #4
 800499c:	6022      	str	r2, [r4, #0]
 800499e:	f04f 0900 	mov.w	r9, #0
 80049a2:	9700      	str	r7, [sp, #0]
 80049a4:	4633      	mov	r3, r6
 80049a6:	aa0b      	add	r2, sp, #44	; 0x2c
 80049a8:	4621      	mov	r1, r4
 80049aa:	4628      	mov	r0, r5
 80049ac:	f000 f9d8 	bl	8004d60 <_printf_common>
 80049b0:	3001      	adds	r0, #1
 80049b2:	f040 8090 	bne.w	8004ad6 <_printf_float+0x1e2>
 80049b6:	f04f 30ff 	mov.w	r0, #4294967295	; 0xffffffff
 80049ba:	b00d      	add	sp, #52	; 0x34
 80049bc:	ecbd 8b02 	vpop	{d8}
 80049c0:	e8bd 8ff0 	ldmia.w	sp!, {r4, r5, r6, r7, r8, r9, sl, fp, pc}
 80049c4:	4642      	mov	r2, r8
 80049c6:	464b      	mov	r3, r9
 80049c8:	4640      	mov	r0, r8
 80049ca:	4649      	mov	r1, r9
 80049cc:	f7fc f8c6 	bl	8000b5c <__aeabi_dcmpun>
 80049d0:	b140      	cbz	r0, 80049e4 <_printf_float+0xf0>
 80049d2:	464b      	mov	r3, r9
 80049d4:	2b00      	cmp	r3, #0
 80049d6:	bfbc      	itt	lt
 80049d8:	232d      	movlt	r3, #45	; 0x2d
 80049da:	f884 3043 	strblt.w	r3, [r4, #67]	; 0x43
 80049de:	487f      	ldr	r0, [pc, #508]	; (8004bdc <_printf_float+0x2e8>)
 80049e0:	4b7f      	ldr	r3, [pc, #508]	; (8004be0 <_printf_float+0x2ec>)
 80049e2:	e7d1      	b.n	8004988 <_printf_float+0x94>
 80049e4:	6863      	ldr	r3, [r4, #4]
 80049e6:	f00b 02df 	and.w	r2, fp, #223	; 0xdf
 80049ea:	9206      	str	r2, [sp, #24]
 80049ec:	1c5a      	adds	r2, r3, #1
 80049ee:	d13f      	bne.n	8004a70 <_printf_float+0x17c>
 80049f0:	2306      	movs	r3, #6
 80049f2:	6063      	str	r3, [r4, #4]
 80049f4:	9b05      	ldr	r3, [sp, #20]
 80049f6:	6861      	ldr	r1, [r4, #4]
 80049f8:	f443 6280 	orr.w	r2, r3, #1024	; 0x400
 80049fc:	2300      	movs	r3, #0
 80049fe:	9303      	str	r3, [sp, #12]
 8004a00:	ab0a      	add	r3, sp, #40	; 0x28
 8004a02:	e9cd b301 	strd	fp, r3, [sp, #4]
 8004a06:	ab09      	add	r3, sp, #36	; 0x24
 8004a08:	ec49 8b10 	vmov	d0, r8, r9
 8004a0c:	9300      	str	r3, [sp, #0]
 8004a0e:	6022      	str	r2, [r4, #0]
 8004a10:	f10d 0323 	add.w	r3, sp, #35	; 0x23
 8004a14:	4628      	mov	r0, r5
 8004a16:	f7ff fecd 	bl	80047b4 <__cvt>
 8004a1a:	9b06      	ldr	r3, [sp, #24]
 8004a1c:	9909      	ldr	r1, [sp, #36]	; 0x24
 8004a1e:	2b47      	cmp	r3, #71	; 0x47
 8004a20:	4680      	mov	r8, r0
 8004a22:	d108      	bne.n	8004a36 <_printf_float+0x142>
 8004a24:	1cc8      	adds	r0, r1, #3
 8004a26:	db02      	blt.n	8004a2e <_printf_float+0x13a>
 8004a28:	6863      	ldr	r3, [r4, #4]
 8004a2a:	4299      	cmp	r1, r3
 8004a2c:	dd41      	ble.n	8004ab2 <_printf_float+0x1be>
 8004a2e:	f1ab 0b02 	sub.w	fp, fp, #2
 8004a32:	fa5f fb8b 	uxtb.w	fp, fp
 8004a36:	f1bb 0f65 	cmp.w	fp, #101	; 0x65
 8004a3a:	d820      	bhi.n	8004a7e <_printf_float+0x18a>
 8004a3c:	3901      	subs	r1, #1
 8004a3e:	465a      	mov	r2, fp
 8004a40:	f104 0050 	add.w	r0, r4, #80	; 0x50
 8004a44:	9109      	str	r1, [sp, #36]	; 0x24
 8004a46:	f7ff ff17 	bl	8004878 <__exponent>
 8004a4a:	9a0a      	ldr	r2, [sp, #40]	; 0x28
 8004a4c:	1813      	adds	r3, r2, r0
 8004a4e:	2a01      	cmp	r2, #1
 8004a50:	4681      	mov	r9, r0
 8004a52:	6123      	str	r3, [r4, #16]
 8004a54:	dc02      	bgt.n	8004a5c <_printf_float+0x168>
 8004a56:	6822      	ldr	r2, [r4, #0]
 8004a58:	07d2      	lsls	r2, r2, #31
 8004a5a:	d501      	bpl.n	8004a60 <_printf_float+0x16c>
 8004a5c:	3301      	adds	r3, #1
 8004a5e:	6123      	str	r3, [r4, #16]
 8004a60:	f89d 3023 	ldrb.w	r3, [sp, #35]	; 0x23
 8004a64:	2b00      	cmp	r3, #0
 8004a66:	d09c      	beq.n	80049a2 <_printf_float+0xae>
 8004a68:	232d      	movs	r3, #45	; 0x2d
 8004a6a:	f884 3043 	strb.w	r3, [r4, #67]	; 0x43
 8004a6e:	e798      	b.n	80049a2 <_printf_float+0xae>
 8004a70:	9a06      	ldr	r2, [sp, #24]
 8004a72:	2a47      	cmp	r2, #71	; 0x47
 8004a74:	d1be      	bne.n	80049f4 <_printf_float+0x100>
 8004a76:	2b00      	cmp	r3, #0
 8004a78:	d1bc      	bne.n	80049f4 <_printf_float+0x100>
 8004a7a:	2301      	movs	r3, #1
 8004a7c:	e7b9      	b.n	80049f2 <_printf_float+0xfe>
 8004a7e:	f1bb 0f66 	cmp.w	fp, #102	; 0x66
 8004a82:	d118      	bne.n	8004ab6 <_printf_float+0x1c2>
 8004a84:	2900      	cmp	r1, #0
 8004a86:	6863      	ldr	r3, [r4, #4]
 8004a88:	dd0b      	ble.n	8004aa2 <_printf_float+0x1ae>
 8004a8a:	6121      	str	r1, [r4, #16]
 8004a8c:	b913      	cbnz	r3, 8004a94 <_printf_float+0x1a0>
 8004a8e:	6822      	ldr	r2, [r4, #0]
 8004a90:	07d0      	lsls	r0, r2, #31
 8004a92:	d502      	bpl.n	8004a9a <_printf_float+0x1a6>
 8004a94:	3301      	adds	r3, #1
 8004a96:	440b      	add	r3, r1
 8004a98:	6123      	str	r3, [r4, #16]
 8004a9a:	65a1      	str	r1, [r4, #88]	; 0x58
 8004a9c:	f04f 0900 	mov.w	r9, #0
 8004aa0:	e7de      	b.n	8004a60 <_printf_float+0x16c>
 8004aa2:	b913      	cbnz	r3, 8004aaa <_printf_float+0x1b6>
 8004aa4:	6822      	ldr	r2, [r4, #0]
 8004aa6:	07d2      	lsls	r2, r2, #31
 8004aa8:	d501      	bpl.n	8004aae <_printf_float+0x1ba>
 8004aaa:	3302      	adds	r3, #2
 8004aac:	e7f4      	b.n	8004a98 <_printf_float+0x1a4>
 8004aae:	2301      	movs	r3, #1
 8004ab0:	e7f2      	b.n	8004a98 <_printf_float+0x1a4>
 8004ab2:	f04f 0b67 	mov.w	fp, #103	; 0x67
 8004ab6:	9b0a      	ldr	r3, [sp, #40]	; 0x28
 8004ab8:	4299      	cmp	r1, r3
 8004aba:	db05      	blt.n	8004ac8 <_printf_float+0x1d4>
 8004abc:	6823      	ldr	r3, [r4, #0]
 8004abe:	6121      	str	r1, [r4, #16]
 8004ac0:	07d8      	lsls	r0, r3, #31
 8004ac2:	d5ea      	bpl.n	8004a9a <_printf_float+0x1a6>
 8004ac4:	1c4b      	adds	r3, r1, #1
 8004ac6:	e7e7      	b.n	8004a98 <_printf_float+0x1a4>
 8004ac8:	2900      	cmp	r1, #0
 8004aca:	bfd4      	ite	le
 8004acc:	f1c1 0202 	rsble	r2, r1, #2
 8004ad0:	2201      	movgt	r2, #1
 8004ad2:	4413      	add	r3, r2
 8004ad4:	e7e0      	b.n	8004a98 <_printf_float+0x1a4>
 8004ad6:	6823      	ldr	r3, [r4, #0]
 8004ad8:	055a      	lsls	r2, r3, #21
 8004ada:	d407      	bmi.n	8004aec <_printf_float+0x1f8>
 8004adc:	6923      	ldr	r3, [r4, #16]
 8004ade:	4642      	mov	r2, r8
 8004ae0:	4631      	mov	r1, r6
 8004ae2:	4628      	mov	r0, r5
 8004ae4:	47b8      	blx	r7
 8004ae6:	3001      	adds	r0, #1
 8004ae8:	d12c      	bne.n	8004b44 <_printf_float+0x250>
 8004aea:	e764      	b.n	80049b6 <_printf_float+0xc2>
 8004aec:	f1bb 0f65 	cmp.w	fp, #101	; 0x65
 8004af0:	f240 80e0 	bls.w	8004cb4 <_printf_float+0x3c0>
 8004af4:	e9d4 0112 	ldrd	r0, r1, [r4, #72]	; 0x48
 8004af8:	2200      	movs	r2, #0
 8004afa:	2300      	movs	r3, #0
 8004afc:	f7fb fffc 	bl	8000af8 <__aeabi_dcmpeq>
 8004b00:	2800      	cmp	r0, #0
 8004b02:	d034      	beq.n	8004b6e <_printf_float+0x27a>
 8004b04:	4a37      	ldr	r2, [pc, #220]	; (8004be4 <_printf_float+0x2f0>)
 8004b06:	2301      	movs	r3, #1
 8004b08:	4631      	mov	r1, r6
 8004b0a:	4628      	mov	r0, r5
 8004b0c:	47b8      	blx	r7
 8004b0e:	3001      	adds	r0, #1
 8004b10:	f43f af51 	beq.w	80049b6 <_printf_float+0xc2>
 8004b14:	e9dd 2309 	ldrd	r2, r3, [sp, #36]	; 0x24
 8004b18:	429a      	cmp	r2, r3
 8004b1a:	db02      	blt.n	8004b22 <_printf_float+0x22e>
 8004b1c:	6823      	ldr	r3, [r4, #0]
 8004b1e:	07d8      	lsls	r0, r3, #31
 8004b20:	d510      	bpl.n	8004b44 <_printf_float+0x250>
 8004b22:	ee18 3a10 	vmov	r3, s16
 8004b26:	4652      	mov	r2, sl
 8004b28:	4631      	mov	r1, r6
 8004b2a:	4628      	mov	r0, r5
 8004b2c:	47b8      	blx	r7
 8004b2e:	3001      	adds	r0, #1
 8004b30:	f43f af41 	beq.w	80049b6 <_printf_float+0xc2>
 8004b34:	f04f 0800 	mov.w	r8, #0
 8004b38:	f104 091a 	add.w	r9, r4, #26
 8004b3c:	9b0a      	ldr	r3, [sp, #40]	; 0x28
 8004b3e:	3b01      	subs	r3, #1
 8004b40:	4543      	cmp	r3, r8
 8004b42:	dc09      	bgt.n	8004b58 <_printf_float+0x264>
 8004b44:	6823      	ldr	r3, [r4, #0]
 8004b46:	079b      	lsls	r3, r3, #30
 8004b48:	f100 8105 	bmi.w	8004d56 <_printf_float+0x462>
 8004b4c:	68e0      	ldr	r0, [r4, #12]
 8004b4e:	9b0b      	ldr	r3, [sp, #44]	; 0x2c
 8004b50:	4298      	cmp	r0, r3
 8004b52:	bfb8      	it	lt
 8004b54:	4618      	movlt	r0, r3
 8004b56:	e730      	b.n	80049ba <_printf_float+0xc6>
 8004b58:	2301      	movs	r3, #1
 8004b5a:	464a      	mov	r2, r9
 8004b5c:	4631      	mov	r1, r6
 8004b5e:	4628      	mov	r0, r5
 8004b60:	47b8      	blx	r7
 8004b62:	3001      	adds	r0, #1
 8004b64:	f43f af27 	beq.w	80049b6 <_printf_float+0xc2>
 8004b68:	f108 0801 	add.w	r8, r8, #1
 8004b6c:	e7e6      	b.n	8004b3c <_printf_float+0x248>
 8004b6e:	9b09      	ldr	r3, [sp, #36]	; 0x24
 8004b70:	2b00      	cmp	r3, #0
 8004b72:	dc39      	bgt.n	8004be8 <_printf_float+0x2f4>
 8004b74:	4a1b      	ldr	r2, [pc, #108]	; (8004be4 <_printf_float+0x2f0>)
 8004b76:	2301      	movs	r3, #1
 8004b78:	4631      	mov	r1, r6
 8004b7a:	4628      	mov	r0, r5
 8004b7c:	47b8      	blx	r7
 8004b7e:	3001      	adds	r0, #1
 8004b80:	f43f af19 	beq.w	80049b6 <_printf_float+0xc2>
 8004b84:	e9dd 2309 	ldrd	r2, r3, [sp, #36]	; 0x24
 8004b88:	4313      	orrs	r3, r2
 8004b8a:	d102      	bne.n	8004b92 <_printf_float+0x29e>
 8004b8c:	6823      	ldr	r3, [r4, #0]
 8004b8e:	07d9      	lsls	r1, r3, #31
 8004b90:	d5d8      	bpl.n	8004b44 <_printf_float+0x250>
 8004b92:	ee18 3a10 	vmov	r3, s16
 8004b96:	4652      	mov	r2, sl
 8004b98:	4631      	mov	r1, r6
 8004b9a:	4628      	mov	r0, r5
 8004b9c:	47b8      	blx	r7
 8004b9e:	3001      	adds	r0, #1
 8004ba0:	f43f af09 	beq.w	80049b6 <_printf_float+0xc2>
 8004ba4:	f04f 0900 	mov.w	r9, #0
 8004ba8:	f104 0a1a 	add.w	sl, r4, #26
 8004bac:	9b09      	ldr	r3, [sp, #36]	; 0x24
 8004bae:	425b      	negs	r3, r3
 8004bb0:	454b      	cmp	r3, r9
 8004bb2:	dc01      	bgt.n	8004bb8 <_printf_float+0x2c4>
 8004bb4:	9b0a      	ldr	r3, [sp, #40]	; 0x28
 8004bb6:	e792      	b.n	8004ade <_printf_float+0x1ea>
 8004bb8:	2301      	movs	r3, #1
 8004bba:	4652      	mov	r2, sl
 8004bbc:	4631      	mov	r1, r6
 8004bbe:	4628      	mov	r0, r5
 8004bc0:	47b8      	blx	r7
 8004bc2:	3001      	adds	r0, #1
 8004bc4:	f43f aef7 	beq.w	80049b6 <_printf_float+0xc2>
 8004bc8:	f109 0901 	add.w	r9, r9, #1
 8004bcc:	e7ee      	b.n	8004bac <_printf_float+0x2b8>
 8004bce:	bf00      	nop
 8004bd0:	7fefffff 	.word	0x7fefffff
 8004bd4:	08008e18 	.word	0x08008e18
 8004bd8:	08008e1c 	.word	0x08008e1c
 8004bdc:	08008e24 	.word	0x08008e24
 8004be0:	08008e20 	.word	0x08008e20
 8004be4:	08009049 	.word	0x08009049
 8004be8:	9a0a      	ldr	r2, [sp, #40]	; 0x28
 8004bea:	6da3      	ldr	r3, [r4, #88]	; 0x58
 8004bec:	429a      	cmp	r2, r3
 8004bee:	bfa8      	it	ge
 8004bf0:	461a      	movge	r2, r3
 8004bf2:	2a00      	cmp	r2, #0
 8004bf4:	4691      	mov	r9, r2
 8004bf6:	dc37      	bgt.n	8004c68 <_printf_float+0x374>
 8004bf8:	f04f 0b00 	mov.w	fp, #0
 8004bfc:	ea29 79e9 	bic.w	r9, r9, r9, asr #31
 8004c00:	f104 021a 	add.w	r2, r4, #26
 8004c04:	6da3      	ldr	r3, [r4, #88]	; 0x58
 8004c06:	9305      	str	r3, [sp, #20]
 8004c08:	eba3 0309 	sub.w	r3, r3, r9
 8004c0c:	455b      	cmp	r3, fp
 8004c0e:	dc33      	bgt.n	8004c78 <_printf_float+0x384>
 8004c10:	e9dd 2309 	ldrd	r2, r3, [sp, #36]	; 0x24
 8004c14:	429a      	cmp	r2, r3
 8004c16:	db3b      	blt.n	8004c90 <_printf_float+0x39c>
 8004c18:	6823      	ldr	r3, [r4, #0]
 8004c1a:	07da      	lsls	r2, r3, #31
 8004c1c:	d438      	bmi.n	8004c90 <_printf_float+0x39c>
 8004c1e:	9b0a      	ldr	r3, [sp, #40]	; 0x28
 8004c20:	9a05      	ldr	r2, [sp, #20]
 8004c22:	9909      	ldr	r1, [sp, #36]	; 0x24
 8004c24:	1a9a      	subs	r2, r3, r2
 8004c26:	eba3 0901 	sub.w	r9, r3, r1
 8004c2a:	4591      	cmp	r9, r2
 8004c2c:	bfa8      	it	ge
 8004c2e:	4691      	movge	r9, r2
 8004c30:	f1b9 0f00 	cmp.w	r9, #0
 8004c34:	dc35      	bgt.n	8004ca2 <_printf_float+0x3ae>
 8004c36:	f04f 0800 	mov.w	r8, #0
 8004c3a:	ea29 79e9 	bic.w	r9, r9, r9, asr #31
 8004c3e:	f104 0a1a 	add.w	sl, r4, #26
 8004c42:	e9dd 2309 	ldrd	r2, r3, [sp, #36]	; 0x24
 8004c46:	1a9b      	subs	r3, r3, r2
 8004c48:	eba3 0309 	sub.w	r3, r3, r9
 8004c4c:	4543      	cmp	r3, r8
 8004c4e:	f77f af79 	ble.w	8004b44 <_printf_float+0x250>
 8004c52:	2301      	movs	r3, #1
 8004c54:	4652      	mov	r2, sl
 8004c56:	4631      	mov	r1, r6
 8004c58:	4628      	mov	r0, r5
 8004c5a:	47b8      	blx	r7
 8004c5c:	3001      	adds	r0, #1
 8004c5e:	f43f aeaa 	beq.w	80049b6 <_printf_float+0xc2>
 8004c62:	f108 0801 	add.w	r8, r8, #1
 8004c66:	e7ec      	b.n	8004c42 <_printf_float+0x34e>
 8004c68:	4613      	mov	r3, r2
 8004c6a:	4631      	mov	r1, r6
 8004c6c:	4642      	mov	r2, r8
 8004c6e:	4628      	mov	r0, r5
 8004c70:	47b8      	blx	r7
 8004c72:	3001      	adds	r0, #1
 8004c74:	d1c0      	bne.n	8004bf8 <_printf_float+0x304>
 8004c76:	e69e      	b.n	80049b6 <_printf_float+0xc2>
 8004c78:	2301      	movs	r3, #1
 8004c7a:	4631      	mov	r1, r6
 8004c7c:	4628      	mov	r0, r5
 8004c7e:	9205      	str	r2, [sp, #20]
 8004c80:	47b8      	blx	r7
 8004c82:	3001      	adds	r0, #1
 8004c84:	f43f ae97 	beq.w	80049b6 <_printf_float+0xc2>
 8004c88:	9a05      	ldr	r2, [sp, #20]
 8004c8a:	f10b 0b01 	add.w	fp, fp, #1
 8004c8e:	e7b9      	b.n	8004c04 <_printf_float+0x310>
 8004c90:	ee18 3a10 	vmov	r3, s16
 8004c94:	4652      	mov	r2, sl
 8004c96:	4631      	mov	r1, r6
 8004c98:	4628      	mov	r0, r5
 8004c9a:	47b8      	blx	r7
 8004c9c:	3001      	adds	r0, #1
 8004c9e:	d1be      	bne.n	8004c1e <_printf_float+0x32a>
 8004ca0:	e689      	b.n	80049b6 <_printf_float+0xc2>
 8004ca2:	9a05      	ldr	r2, [sp, #20]
 8004ca4:	464b      	mov	r3, r9
 8004ca6:	4442      	add	r2, r8
 8004ca8:	4631      	mov	r1, r6
 8004caa:	4628      	mov	r0, r5
 8004cac:	47b8      	blx	r7
 8004cae:	3001      	adds	r0, #1
 8004cb0:	d1c1      	bne.n	8004c36 <_printf_float+0x342>
 8004cb2:	e680      	b.n	80049b6 <_printf_float+0xc2>
 8004cb4:	9a0a      	ldr	r2, [sp, #40]	; 0x28
 8004cb6:	2a01      	cmp	r2, #1
 8004cb8:	dc01      	bgt.n	8004cbe <_printf_float+0x3ca>
 8004cba:	07db      	lsls	r3, r3, #31
 8004cbc:	d538      	bpl.n	8004d30 <_printf_float+0x43c>
 8004cbe:	2301      	movs	r3, #1
 8004cc0:	4642      	mov	r2, r8
 8004cc2:	4631      	mov	r1, r6
 8004cc4:	4628      	mov	r0, r5
 8004cc6:	47b8      	blx	r7
 8004cc8:	3001      	adds	r0, #1
 8004cca:	f43f ae74 	beq.w	80049b6 <_printf_float+0xc2>
 8004cce:	ee18 3a10 	vmov	r3, s16
 8004cd2:	4652      	mov	r2, sl
 8004cd4:	4631      	mov	r1, r6
 8004cd6:	4628      	mov	r0, r5
 8004cd8:	47b8      	blx	r7
 8004cda:	3001      	adds	r0, #1
 8004cdc:	f43f ae6b 	beq.w	80049b6 <_printf_float+0xc2>
 8004ce0:	e9d4 0112 	ldrd	r0, r1, [r4, #72]	; 0x48
 8004ce4:	2200      	movs	r2, #0
 8004ce6:	2300      	movs	r3, #0
 8004ce8:	f7fb ff06 	bl	8000af8 <__aeabi_dcmpeq>
 8004cec:	b9d8      	cbnz	r0, 8004d26 <_printf_float+0x432>
 8004cee:	9b0a      	ldr	r3, [sp, #40]	; 0x28
 8004cf0:	f108 0201 	add.w	r2, r8, #1
 8004cf4:	3b01      	subs	r3, #1
 8004cf6:	4631      	mov	r1, r6
 8004cf8:	4628      	mov	r0, r5
 8004cfa:	47b8      	blx	r7
 8004cfc:	3001      	adds	r0, #1
 8004cfe:	d10e      	bne.n	8004d1e <_printf_float+0x42a>
 8004d00:	e659      	b.n	80049b6 <_printf_float+0xc2>
 8004d02:	2301      	movs	r3, #1
 8004d04:	4652      	mov	r2, sl
 8004d06:	4631      	mov	r1, r6
 8004d08:	4628      	mov	r0, r5
 8004d0a:	47b8      	blx	r7
 8004d0c:	3001      	adds	r0, #1
 8004d0e:	f43f ae52 	beq.w	80049b6 <_printf_float+0xc2>
 8004d12:	f108 0801 	add.w	r8, r8, #1
 8004d16:	9b0a      	ldr	r3, [sp, #40]	; 0x28
 8004d18:	3b01      	subs	r3, #1
 8004d1a:	4543      	cmp	r3, r8
 8004d1c:	dcf1      	bgt.n	8004d02 <_printf_float+0x40e>
 8004d1e:	464b      	mov	r3, r9
 8004d20:	f104 0250 	add.w	r2, r4, #80	; 0x50
 8004d24:	e6dc      	b.n	8004ae0 <_printf_float+0x1ec>
 8004d26:	f04f 0800 	mov.w	r8, #0
 8004d2a:	f104 0a1a 	add.w	sl, r4, #26
 8004d2e:	e7f2      	b.n	8004d16 <_printf_float+0x422>
 8004d30:	2301      	movs	r3, #1
 8004d32:	4642      	mov	r2, r8
 8004d34:	e7df      	b.n	8004cf6 <_printf_float+0x402>
 8004d36:	2301      	movs	r3, #1
 8004d38:	464a      	mov	r2, r9
 8004d3a:	4631      	mov	r1, r6
 8004d3c:	4628      	mov	r0, r5
 8004d3e:	47b8      	blx	r7
 8004d40:	3001      	adds	r0, #1
 8004d42:	f43f ae38 	beq.w	80049b6 <_printf_float+0xc2>
 8004d46:	f108 0801 	add.w	r8, r8, #1
 8004d4a:	68e3      	ldr	r3, [r4, #12]
 8004d4c:	990b      	ldr	r1, [sp, #44]	; 0x2c
 8004d4e:	1a5b      	subs	r3, r3, r1
 8004d50:	4543      	cmp	r3, r8
 8004d52:	dcf0      	bgt.n	8004d36 <_printf_float+0x442>
 8004d54:	e6fa      	b.n	8004b4c <_printf_float+0x258>
 8004d56:	f04f 0800 	mov.w	r8, #0
 8004d5a:	f104 0919 	add.w	r9, r4, #25
 8004d5e:	e7f4      	b.n	8004d4a <_printf_float+0x456>

08004d60 <_printf_common>:
 8004d60:	e92d 47f0 	stmdb	sp!, {r4, r5, r6, r7, r8, r9, sl, lr}
 8004d64:	4616      	mov	r6, r2
 8004d66:	4699      	mov	r9, r3
 8004d68:	688a      	ldr	r2, [r1, #8]
 8004d6a:	690b      	ldr	r3, [r1, #16]
 8004d6c:	f8dd 8020 	ldr.w	r8, [sp, #32]
 8004d70:	4293      	cmp	r3, r2
 8004d72:	bfb8      	it	lt
 8004d74:	4613      	movlt	r3, r2
 8004d76:	6033      	str	r3, [r6, #0]
 8004d78:	f891 2043 	ldrb.w	r2, [r1, #67]	; 0x43
 8004d7c:	4607      	mov	r7, r0
 8004d7e:	460c      	mov	r4, r1
 8004d80:	b10a      	cbz	r2, 8004d86 <_printf_common+0x26>
 8004d82:	3301      	adds	r3, #1
 8004d84:	6033      	str	r3, [r6, #0]
 8004d86:	6823      	ldr	r3, [r4, #0]
 8004d88:	0699      	lsls	r1, r3, #26
 8004d8a:	bf42      	ittt	mi
 8004d8c:	6833      	ldrmi	r3, [r6, #0]
 8004d8e:	3302      	addmi	r3, #2
 8004d90:	6033      	strmi	r3, [r6, #0]
 8004d92:	6825      	ldr	r5, [r4, #0]
 8004d94:	f015 0506 	ands.w	r5, r5, #6
 8004d98:	d106      	bne.n	8004da8 <_printf_common+0x48>
 8004d9a:	f104 0a19 	add.w	sl, r4, #25
 8004d9e:	68e3      	ldr	r3, [r4, #12]
 8004da0:	6832      	ldr	r2, [r6, #0]
 8004da2:	1a9b      	subs	r3, r3, r2
 8004da4:	42ab      	cmp	r3, r5
 8004da6:	dc26      	bgt.n	8004df6 <_printf_common+0x96>
 8004da8:	f894 2043 	ldrb.w	r2, [r4, #67]	; 0x43
 8004dac:	1e13      	subs	r3, r2, #0
 8004dae:	6822      	ldr	r2, [r4, #0]
 8004db0:	bf18      	it	ne
 8004db2:	2301      	movne	r3, #1
 8004db4:	0692      	lsls	r2, r2, #26
 8004db6:	d42b      	bmi.n	8004e10 <_printf_common+0xb0>
 8004db8:	f104 0243 	add.w	r2, r4, #67	; 0x43
 8004dbc:	4649      	mov	r1, r9
 8004dbe:	4638      	mov	r0, r7
 8004dc0:	47c0      	blx	r8
 8004dc2:	3001      	adds	r0, #1
 8004dc4:	d01e      	beq.n	8004e04 <_printf_common+0xa4>
 8004dc6:	6823      	ldr	r3, [r4, #0]
 8004dc8:	68e5      	ldr	r5, [r4, #12]
 8004dca:	6832      	ldr	r2, [r6, #0]
 8004dcc:	f003 0306 	and.w	r3, r3, #6
 8004dd0:	2b04      	cmp	r3, #4
 8004dd2:	bf08      	it	eq
 8004dd4:	1aad      	subeq	r5, r5, r2
 8004dd6:	68a3      	ldr	r3, [r4, #8]
 8004dd8:	6922      	ldr	r2, [r4, #16]
 8004dda:	bf0c      	ite	eq
 8004ddc:	ea25 75e5 	biceq.w	r5, r5, r5, asr #31
 8004de0:	2500      	movne	r5, #0
 8004de2:	4293      	cmp	r3, r2
 8004de4:	bfc4      	itt	gt
 8004de6:	1a9b      	subgt	r3, r3, r2
 8004de8:	18ed      	addgt	r5, r5, r3
 8004dea:	2600      	movs	r6, #0
 8004dec:	341a      	adds	r4, #26
 8004dee:	42b5      	cmp	r5, r6
 8004df0:	d11a      	bne.n	8004e28 <_printf_common+0xc8>
 8004df2:	2000      	movs	r0, #0
 8004df4:	e008      	b.n	8004e08 <_printf_common+0xa8>
 8004df6:	2301      	movs	r3, #1
 8004df8:	4652      	mov	r2, sl
 8004dfa:	4649      	mov	r1, r9
 8004dfc:	4638      	mov	r0, r7
 8004dfe:	47c0      	blx	r8
 8004e00:	3001      	adds	r0, #1
 8004e02:	d103      	bne.n	8004e0c <_printf_common+0xac>
 8004e04:	f04f 30ff 	mov.w	r0, #4294967295	; 0xffffffff
 8004e08:	e8bd 87f0 	ldmia.w	sp!, {r4, r5, r6, r7, r8, r9, sl, pc}
 8004e0c:	3501      	adds	r5, #1
 8004e0e:	e7c6      	b.n	8004d9e <_printf_common+0x3e>
 8004e10:	18e1      	adds	r1, r4, r3
 8004e12:	1c5a      	adds	r2, r3, #1
 8004e14:	2030      	movs	r0, #48	; 0x30
 8004e16:	f881 0043 	strb.w	r0, [r1, #67]	; 0x43
 8004e1a:	4422      	add	r2, r4
 8004e1c:	f894 1045 	ldrb.w	r1, [r4, #69]	; 0x45
 8004e20:	f882 1043 	strb.w	r1, [r2, #67]	; 0x43
 8004e24:	3302      	adds	r3, #2
 8004e26:	e7c7      	b.n	8004db8 <_printf_common+0x58>
 8004e28:	2301      	movs	r3, #1
 8004e2a:	4622      	mov	r2, r4
 8004e2c:	4649      	mov	r1, r9
 8004e2e:	4638      	mov	r0, r7
 8004e30:	47c0      	blx	r8
 8004e32:	3001      	adds	r0, #1
 8004e34:	d0e6      	beq.n	8004e04 <_printf_common+0xa4>
 8004e36:	3601      	adds	r6, #1
 8004e38:	e7d9      	b.n	8004dee <_printf_common+0x8e>
	...

08004e3c <_printf_i>:
 8004e3c:	e92d 47ff 	stmdb	sp!, {r0, r1, r2, r3, r4, r5, r6, r7, r8, r9, sl, lr}
 8004e40:	7e0f      	ldrb	r7, [r1, #24]
 8004e42:	9d0c      	ldr	r5, [sp, #48]	; 0x30
 8004e44:	2f78      	cmp	r7, #120	; 0x78
 8004e46:	4691      	mov	r9, r2
 8004e48:	4680      	mov	r8, r0
 8004e4a:	460c      	mov	r4, r1
 8004e4c:	469a      	mov	sl, r3
 8004e4e:	f101 0243 	add.w	r2, r1, #67	; 0x43
 8004e52:	d807      	bhi.n	8004e64 <_printf_i+0x28>
 8004e54:	2f62      	cmp	r7, #98	; 0x62
 8004e56:	d80a      	bhi.n	8004e6e <_printf_i+0x32>
 8004e58:	2f00      	cmp	r7, #0
 8004e5a:	f000 80d8 	beq.w	800500e <_printf_i+0x1d2>
 8004e5e:	2f58      	cmp	r7, #88	; 0x58
 8004e60:	f000 80a3 	beq.w	8004faa <_printf_i+0x16e>
 8004e64:	f104 0542 	add.w	r5, r4, #66	; 0x42
 8004e68:	f884 7042 	strb.w	r7, [r4, #66]	; 0x42
 8004e6c:	e03a      	b.n	8004ee4 <_printf_i+0xa8>
 8004e6e:	f1a7 0363 	sub.w	r3, r7, #99	; 0x63
 8004e72:	2b15      	cmp	r3, #21
 8004e74:	d8f6      	bhi.n	8004e64 <_printf_i+0x28>
 8004e76:	a101      	add	r1, pc, #4	; (adr r1, 8004e7c <_printf_i+0x40>)
 8004e78:	f851 f023 	ldr.w	pc, [r1, r3, lsl #2]
 8004e7c:	08004ed5 	.word	0x08004ed5
 8004e80:	08004ee9 	.word	0x08004ee9
 8004e84:	08004e65 	.word	0x08004e65
 8004e88:	08004e65 	.word	0x08004e65
 8004e8c:	08004e65 	.word	0x08004e65
 8004e90:	08004e65 	.word	0x08004e65
 8004e94:	08004ee9 	.word	0x08004ee9
 8004e98:	08004e65 	.word	0x08004e65
 8004e9c:	08004e65 	.word	0x08004e65
 8004ea0:	08004e65 	.word	0x08004e65
 8004ea4:	08004e65 	.word	0x08004e65
 8004ea8:	08004ff5 	.word	0x08004ff5
 8004eac:	08004f19 	.word	0x08004f19
 8004eb0:	08004fd7 	.word	0x08004fd7
 8004eb4:	08004e65 	.word	0x08004e65
 8004eb8:	08004e65 	.word	0x08004e65
 8004ebc:	08005017 	.word	0x08005017
 8004ec0:	08004e65 	.word	0x08004e65
 8004ec4:	08004f19 	.word	0x08004f19
 8004ec8:	08004e65 	.word	0x08004e65
 8004ecc:	08004e65 	.word	0x08004e65
 8004ed0:	08004fdf 	.word	0x08004fdf
 8004ed4:	682b      	ldr	r3, [r5, #0]
 8004ed6:	1d1a      	adds	r2, r3, #4
 8004ed8:	681b      	ldr	r3, [r3, #0]
 8004eda:	602a      	str	r2, [r5, #0]
 8004edc:	f104 0542 	add.w	r5, r4, #66	; 0x42
 8004ee0:	f884 3042 	strb.w	r3, [r4, #66]	; 0x42
 8004ee4:	2301      	movs	r3, #1
 8004ee6:	e0a3      	b.n	8005030 <_printf_i+0x1f4>
 8004ee8:	6820      	ldr	r0, [r4, #0]
 8004eea:	6829      	ldr	r1, [r5, #0]
 8004eec:	0606      	lsls	r6, r0, #24
 8004eee:	f101 0304 	add.w	r3, r1, #4
 8004ef2:	d50a      	bpl.n	8004f0a <_printf_i+0xce>
 8004ef4:	680e      	ldr	r6, [r1, #0]
 8004ef6:	602b      	str	r3, [r5, #0]
 8004ef8:	2e00      	cmp	r6, #0
 8004efa:	da03      	bge.n	8004f04 <_printf_i+0xc8>
 8004efc:	232d      	movs	r3, #45	; 0x2d
 8004efe:	4276      	negs	r6, r6
 8004f00:	f884 3043 	strb.w	r3, [r4, #67]	; 0x43
 8004f04:	485e      	ldr	r0, [pc, #376]	; (8005080 <_printf_i+0x244>)
 8004f06:	230a      	movs	r3, #10
 8004f08:	e019      	b.n	8004f3e <_printf_i+0x102>
 8004f0a:	680e      	ldr	r6, [r1, #0]
 8004f0c:	602b      	str	r3, [r5, #0]
 8004f0e:	f010 0f40 	tst.w	r0, #64	; 0x40
 8004f12:	bf18      	it	ne
 8004f14:	b236      	sxthne	r6, r6
 8004f16:	e7ef      	b.n	8004ef8 <_printf_i+0xbc>
 8004f18:	682b      	ldr	r3, [r5, #0]
 8004f1a:	6820      	ldr	r0, [r4, #0]
 8004f1c:	1d19      	adds	r1, r3, #4
 8004f1e:	6029      	str	r1, [r5, #0]
 8004f20:	0601      	lsls	r1, r0, #24
 8004f22:	d501      	bpl.n	8004f28 <_printf_i+0xec>
 8004f24:	681e      	ldr	r6, [r3, #0]
 8004f26:	e002      	b.n	8004f2e <_printf_i+0xf2>
 8004f28:	0646      	lsls	r6, r0, #25
 8004f2a:	d5fb      	bpl.n	8004f24 <_printf_i+0xe8>
 8004f2c:	881e      	ldrh	r6, [r3, #0]
 8004f2e:	4854      	ldr	r0, [pc, #336]	; (8005080 <_printf_i+0x244>)
 8004f30:	2f6f      	cmp	r7, #111	; 0x6f
 8004f32:	bf0c      	ite	eq
 8004f34:	2308      	moveq	r3, #8
 8004f36:	230a      	movne	r3, #10
 8004f38:	2100      	movs	r1, #0
 8004f3a:	f884 1043 	strb.w	r1, [r4, #67]	; 0x43
 8004f3e:	6865      	ldr	r5, [r4, #4]
 8004f40:	60a5      	str	r5, [r4, #8]
 8004f42:	2d00      	cmp	r5, #0
 8004f44:	bfa2      	ittt	ge
 8004f46:	6821      	ldrge	r1, [r4, #0]
 8004f48:	f021 0104 	bicge.w	r1, r1, #4
 8004f4c:	6021      	strge	r1, [r4, #0]
 8004f4e:	b90e      	cbnz	r6, 8004f54 <_printf_i+0x118>
 8004f50:	2d00      	cmp	r5, #0
 8004f52:	d04d      	beq.n	8004ff0 <_printf_i+0x1b4>
 8004f54:	4615      	mov	r5, r2
 8004f56:	fbb6 f1f3 	udiv	r1, r6, r3
 8004f5a:	fb03 6711 	mls	r7, r3, r1, r6
 8004f5e:	5dc7      	ldrb	r7, [r0, r7]
 8004f60:	f805 7d01 	strb.w	r7, [r5, #-1]!
 8004f64:	4637      	mov	r7, r6
 8004f66:	42bb      	cmp	r3, r7
 8004f68:	460e      	mov	r6, r1
 8004f6a:	d9f4      	bls.n	8004f56 <_printf_i+0x11a>
 8004f6c:	2b08      	cmp	r3, #8
 8004f6e:	d10b      	bne.n	8004f88 <_printf_i+0x14c>
 8004f70:	6823      	ldr	r3, [r4, #0]
 8004f72:	07de      	lsls	r6, r3, #31
 8004f74:	d508      	bpl.n	8004f88 <_printf_i+0x14c>
 8004f76:	6923      	ldr	r3, [r4, #16]
 8004f78:	6861      	ldr	r1, [r4, #4]
 8004f7a:	4299      	cmp	r1, r3
 8004f7c:	bfde      	ittt	le
 8004f7e:	2330      	movle	r3, #48	; 0x30
 8004f80:	f805 3c01 	strble.w	r3, [r5, #-1]
 8004f84:	f105 35ff 	addle.w	r5, r5, #4294967295	; 0xffffffff
 8004f88:	1b52      	subs	r2, r2, r5
 8004f8a:	6122      	str	r2, [r4, #16]
 8004f8c:	f8cd a000 	str.w	sl, [sp]
 8004f90:	464b      	mov	r3, r9
 8004f92:	aa03      	add	r2, sp, #12
 8004f94:	4621      	mov	r1, r4
 8004f96:	4640      	mov	r0, r8
 8004f98:	f7ff fee2 	bl	8004d60 <_printf_common>
 8004f9c:	3001      	adds	r0, #1
 8004f9e:	d14c      	bne.n	800503a <_printf_i+0x1fe>
 8004fa0:	f04f 30ff 	mov.w	r0, #4294967295	; 0xffffffff
 8004fa4:	b004      	add	sp, #16
 8004fa6:	e8bd 87f0 	ldmia.w	sp!, {r4, r5, r6, r7, r8, r9, sl, pc}
 8004faa:	4835      	ldr	r0, [pc, #212]	; (8005080 <_printf_i+0x244>)
 8004fac:	f881 7045 	strb.w	r7, [r1, #69]	; 0x45
 8004fb0:	6829      	ldr	r1, [r5, #0]
 8004fb2:	6823      	ldr	r3, [r4, #0]
 8004fb4:	f851 6b04 	ldr.w	r6, [r1], #4
 8004fb8:	6029      	str	r1, [r5, #0]
 8004fba:	061d      	lsls	r5, r3, #24
 8004fbc:	d514      	bpl.n	8004fe8 <_printf_i+0x1ac>
 8004fbe:	07df      	lsls	r7, r3, #31
 8004fc0:	bf44      	itt	mi
 8004fc2:	f043 0320 	orrmi.w	r3, r3, #32
 8004fc6:	6023      	strmi	r3, [r4, #0]
 8004fc8:	b91e      	cbnz	r6, 8004fd2 <_printf_i+0x196>
 8004fca:	6823      	ldr	r3, [r4, #0]
 8004fcc:	f023 0320 	bic.w	r3, r3, #32
 8004fd0:	6023      	str	r3, [r4, #0]
 8004fd2:	2310      	movs	r3, #16
 8004fd4:	e7b0      	b.n	8004f38 <_printf_i+0xfc>
 8004fd6:	6823      	ldr	r3, [r4, #0]
 8004fd8:	f043 0320 	orr.w	r3, r3, #32
 8004fdc:	6023      	str	r3, [r4, #0]
 8004fde:	2378      	movs	r3, #120	; 0x78
 8004fe0:	4828      	ldr	r0, [pc, #160]	; (8005084 <_printf_i+0x248>)
 8004fe2:	f884 3045 	strb.w	r3, [r4, #69]	; 0x45
 8004fe6:	e7e3      	b.n	8004fb0 <_printf_i+0x174>
 8004fe8:	0659      	lsls	r1, r3, #25
 8004fea:	bf48      	it	mi
 8004fec:	b2b6      	uxthmi	r6, r6
 8004fee:	e7e6      	b.n	8004fbe <_printf_i+0x182>
 8004ff0:	4615      	mov	r5, r2
 8004ff2:	e7bb      	b.n	8004f6c <_printf_i+0x130>
 8004ff4:	682b      	ldr	r3, [r5, #0]
 8004ff6:	6826      	ldr	r6, [r4, #0]
 8004ff8:	6961      	ldr	r1, [r4, #20]
 8004ffa:	1d18      	adds	r0, r3, #4
 8004ffc:	6028      	str	r0, [r5, #0]
 8004ffe:	0635      	lsls	r5, r6, #24
 8005000:	681b      	ldr	r3, [r3, #0]
 8005002:	d501      	bpl.n	8005008 <_printf_i+0x1cc>
 8005004:	6019      	str	r1, [r3, #0]
 8005006:	e002      	b.n	800500e <_printf_i+0x1d2>
 8005008:	0670      	lsls	r0, r6, #25
 800500a:	d5fb      	bpl.n	8005004 <_printf_i+0x1c8>
 800500c:	8019      	strh	r1, [r3, #0]
 800500e:	2300      	movs	r3, #0
 8005010:	6123      	str	r3, [r4, #16]
 8005012:	4615      	mov	r5, r2
 8005014:	e7ba      	b.n	8004f8c <_printf_i+0x150>
 8005016:	682b      	ldr	r3, [r5, #0]
 8005018:	1d1a      	adds	r2, r3, #4
 800501a:	602a      	str	r2, [r5, #0]
 800501c:	681d      	ldr	r5, [r3, #0]
 800501e:	6862      	ldr	r2, [r4, #4]
 8005020:	2100      	movs	r1, #0
 8005022:	4628      	mov	r0, r5
 8005024:	f7fb f8f4 	bl	8000210 <memchr>
 8005028:	b108      	cbz	r0, 800502e <_printf_i+0x1f2>
 800502a:	1b40      	subs	r0, r0, r5
 800502c:	6060      	str	r0, [r4, #4]
 800502e:	6863      	ldr	r3, [r4, #4]
 8005030:	6123      	str	r3, [r4, #16]
 8005032:	2300      	movs	r3, #0
 8005034:	f884 3043 	strb.w	r3, [r4, #67]	; 0x43
 8005038:	e7a8      	b.n	8004f8c <_printf_i+0x150>
 800503a:	6923      	ldr	r3, [r4, #16]
 800503c:	462a      	mov	r2, r5
 800503e:	4649      	mov	r1, r9
 8005040:	4640      	mov	r0, r8
 8005042:	47d0      	blx	sl
 8005044:	3001      	adds	r0, #1
 8005046:	d0ab      	beq.n	8004fa0 <_printf_i+0x164>
 8005048:	6823      	ldr	r3, [r4, #0]
 800504a:	079b      	lsls	r3, r3, #30
 800504c:	d413      	bmi.n	8005076 <_printf_i+0x23a>
 800504e:	68e0      	ldr	r0, [r4, #12]
 8005050:	9b03      	ldr	r3, [sp, #12]
 8005052:	4298      	cmp	r0, r3
 8005054:	bfb8      	it	lt
 8005056:	4618      	movlt	r0, r3
 8005058:	e7a4      	b.n	8004fa4 <_printf_i+0x168>
 800505a:	2301      	movs	r3, #1
 800505c:	4632      	mov	r2, r6
 800505e:	4649      	mov	r1, r9
 8005060:	4640      	mov	r0, r8
 8005062:	47d0      	blx	sl
 8005064:	3001      	adds	r0, #1
 8005066:	d09b      	beq.n	8004fa0 <_printf_i+0x164>
 8005068:	3501      	adds	r5, #1
 800506a:	68e3      	ldr	r3, [r4, #12]
 800506c:	9903      	ldr	r1, [sp, #12]
 800506e:	1a5b      	subs	r3, r3, r1
 8005070:	42ab      	cmp	r3, r5
 8005072:	dcf2      	bgt.n	800505a <_printf_i+0x21e>
 8005074:	e7eb      	b.n	800504e <_printf_i+0x212>
 8005076:	2500      	movs	r5, #0
 8005078:	f104 0619 	add.w	r6, r4, #25
 800507c:	e7f5      	b.n	800506a <_printf_i+0x22e>
 800507e:	bf00      	nop
 8005080:	08008e28 	.word	0x08008e28
 8005084:	08008e39 	.word	0x08008e39

08005088 <_sbrk_r>:
 8005088:	b538      	push	{r3, r4, r5, lr}
 800508a:	4d06      	ldr	r5, [pc, #24]	; (80050a4 <_sbrk_r+0x1c>)
 800508c:	2300      	movs	r3, #0
 800508e:	4604      	mov	r4, r0
 8005090:	4608      	mov	r0, r1
 8005092:	602b      	str	r3, [r5, #0]
 8005094:	f003 fda2 	bl	8008bdc <_sbrk>
 8005098:	1c43      	adds	r3, r0, #1
 800509a:	d102      	bne.n	80050a2 <_sbrk_r+0x1a>
 800509c:	682b      	ldr	r3, [r5, #0]
 800509e:	b103      	cbz	r3, 80050a2 <_sbrk_r+0x1a>
 80050a0:	6023      	str	r3, [r4, #0]
 80050a2:	bd38      	pop	{r3, r4, r5, pc}
 80050a4:	20011a94 	.word	0x20011a94

080050a8 <siprintf>:
 80050a8:	b40e      	push	{r1, r2, r3}
 80050aa:	b500      	push	{lr}
 80050ac:	b09c      	sub	sp, #112	; 0x70
 80050ae:	ab1d      	add	r3, sp, #116	; 0x74
 80050b0:	9002      	str	r0, [sp, #8]
 80050b2:	9006      	str	r0, [sp, #24]
 80050b4:	f06f 4100 	mvn.w	r1, #2147483648	; 0x80000000
 80050b8:	4809      	ldr	r0, [pc, #36]	; (80050e0 <siprintf+0x38>)
 80050ba:	9107      	str	r1, [sp, #28]
 80050bc:	9104      	str	r1, [sp, #16]
 80050be:	4909      	ldr	r1, [pc, #36]	; (80050e4 <siprintf+0x3c>)
 80050c0:	f853 2b04 	ldr.w	r2, [r3], #4
 80050c4:	9105      	str	r1, [sp, #20]
 80050c6:	6800      	ldr	r0, [r0, #0]
 80050c8:	9301      	str	r3, [sp, #4]
 80050ca:	a902      	add	r1, sp, #8
 80050cc:	f001 fb40 	bl	8006750 <_svfiprintf_r>
 80050d0:	9b02      	ldr	r3, [sp, #8]
 80050d2:	2200      	movs	r2, #0
 80050d4:	701a      	strb	r2, [r3, #0]
 80050d6:	b01c      	add	sp, #112	; 0x70
 80050d8:	f85d eb04 	ldr.w	lr, [sp], #4
 80050dc:	b003      	add	sp, #12
 80050de:	4770      	bx	lr
 80050e0:	20000008 	.word	0x20000008
 80050e4:	ffff0208 	.word	0xffff0208

080050e8 <siscanf>:
 80050e8:	b40e      	push	{r1, r2, r3}
 80050ea:	b510      	push	{r4, lr}
 80050ec:	b09f      	sub	sp, #124	; 0x7c
 80050ee:	ac21      	add	r4, sp, #132	; 0x84
 80050f0:	f44f 7101 	mov.w	r1, #516	; 0x204
 80050f4:	f854 2b04 	ldr.w	r2, [r4], #4
 80050f8:	9201      	str	r2, [sp, #4]
 80050fa:	f8ad 101c 	strh.w	r1, [sp, #28]
 80050fe:	9004      	str	r0, [sp, #16]
 8005100:	9008      	str	r0, [sp, #32]
 8005102:	f7fb f877 	bl	80001f4 <strlen>
 8005106:	4b0c      	ldr	r3, [pc, #48]	; (8005138 <siscanf+0x50>)
 8005108:	9005      	str	r0, [sp, #20]
 800510a:	9009      	str	r0, [sp, #36]	; 0x24
 800510c:	930d      	str	r3, [sp, #52]	; 0x34
 800510e:	480b      	ldr	r0, [pc, #44]	; (800513c <siscanf+0x54>)
 8005110:	9a01      	ldr	r2, [sp, #4]
 8005112:	6800      	ldr	r0, [r0, #0]
 8005114:	9403      	str	r4, [sp, #12]
 8005116:	2300      	movs	r3, #0
 8005118:	9311      	str	r3, [sp, #68]	; 0x44
 800511a:	9316      	str	r3, [sp, #88]	; 0x58
 800511c:	f64f 73ff 	movw	r3, #65535	; 0xffff
 8005120:	f8ad 301e 	strh.w	r3, [sp, #30]
 8005124:	a904      	add	r1, sp, #16
 8005126:	4623      	mov	r3, r4
 8005128:	f001 fc6c 	bl	8006a04 <__ssvfiscanf_r>
 800512c:	b01f      	add	sp, #124	; 0x7c
 800512e:	e8bd 4010 	ldmia.w	sp!, {r4, lr}
 8005132:	b003      	add	sp, #12
 8005134:	4770      	bx	lr
 8005136:	bf00      	nop
 8005138:	08005163 	.word	0x08005163
 800513c:	20000008 	.word	0x20000008

08005140 <__sread>:
 8005140:	b510      	push	{r4, lr}
 8005142:	460c      	mov	r4, r1
 8005144:	f9b1 100e 	ldrsh.w	r1, [r1, #14]
 8005148:	f001 ff26 	bl	8006f98 <_read_r>
 800514c:	2800      	cmp	r0, #0
 800514e:	bfab      	itete	ge
 8005150:	6d63      	ldrge	r3, [r4, #84]	; 0x54
 8005152:	89a3      	ldrhlt	r3, [r4, #12]
 8005154:	181b      	addge	r3, r3, r0
 8005156:	f423 5380 	biclt.w	r3, r3, #4096	; 0x1000
 800515a:	bfac      	ite	ge
 800515c:	6563      	strge	r3, [r4, #84]	; 0x54
 800515e:	81a3      	strhlt	r3, [r4, #12]
 8005160:	bd10      	pop	{r4, pc}

08005162 <__seofread>:
 8005162:	2000      	movs	r0, #0
 8005164:	4770      	bx	lr

08005166 <__swrite>:
 8005166:	e92d 41f0 	stmdb	sp!, {r4, r5, r6, r7, r8, lr}
 800516a:	461f      	mov	r7, r3
 800516c:	898b      	ldrh	r3, [r1, #12]
 800516e:	05db      	lsls	r3, r3, #23
 8005170:	4605      	mov	r5, r0
 8005172:	460c      	mov	r4, r1
 8005174:	4616      	mov	r6, r2
 8005176:	d505      	bpl.n	8005184 <__swrite+0x1e>
 8005178:	f9b1 100e 	ldrsh.w	r1, [r1, #14]
 800517c:	2302      	movs	r3, #2
 800517e:	2200      	movs	r2, #0
 8005180:	f000 fec4 	bl	8005f0c <_lseek_r>
 8005184:	89a3      	ldrh	r3, [r4, #12]
 8005186:	f9b4 100e 	ldrsh.w	r1, [r4, #14]
 800518a:	f423 5380 	bic.w	r3, r3, #4096	; 0x1000
 800518e:	81a3      	strh	r3, [r4, #12]
 8005190:	4632      	mov	r2, r6
 8005192:	463b      	mov	r3, r7
 8005194:	4628      	mov	r0, r5
 8005196:	e8bd 41f0 	ldmia.w	sp!, {r4, r5, r6, r7, r8, lr}
 800519a:	f000 b817 	b.w	80051cc <_write_r>

0800519e <__sseek>:
 800519e:	b510      	push	{r4, lr}
 80051a0:	460c      	mov	r4, r1
 80051a2:	f9b1 100e 	ldrsh.w	r1, [r1, #14]
 80051a6:	f000 feb1 	bl	8005f0c <_lseek_r>
 80051aa:	1c43      	adds	r3, r0, #1
 80051ac:	89a3      	ldrh	r3, [r4, #12]
 80051ae:	bf15      	itete	ne
 80051b0:	6560      	strne	r0, [r4, #84]	; 0x54
 80051b2:	f423 5380 	biceq.w	r3, r3, #4096	; 0x1000
 80051b6:	f443 5380 	orrne.w	r3, r3, #4096	; 0x1000
 80051ba:	81a3      	strheq	r3, [r4, #12]
 80051bc:	bf18      	it	ne
 80051be:	81a3      	strhne	r3, [r4, #12]
 80051c0:	bd10      	pop	{r4, pc}

080051c2 <__sclose>:
 80051c2:	f9b1 100e 	ldrsh.w	r1, [r1, #14]
 80051c6:	f000 b813 	b.w	80051f0 <_close_r>
	...

080051cc <_write_r>:
 80051cc:	b538      	push	{r3, r4, r5, lr}
 80051ce:	4d07      	ldr	r5, [pc, #28]	; (80051ec <_write_r+0x20>)
 80051d0:	4604      	mov	r4, r0
 80051d2:	4608      	mov	r0, r1
 80051d4:	4611      	mov	r1, r2
 80051d6:	2200      	movs	r2, #0
 80051d8:	602a      	str	r2, [r5, #0]
 80051da:	461a      	mov	r2, r3
 80051dc:	f7fb ffdb 	bl	8001196 <_write>
 80051e0:	1c43      	adds	r3, r0, #1
 80051e2:	d102      	bne.n	80051ea <_write_r+0x1e>
 80051e4:	682b      	ldr	r3, [r5, #0]
 80051e6:	b103      	cbz	r3, 80051ea <_write_r+0x1e>
 80051e8:	6023      	str	r3, [r4, #0]
 80051ea:	bd38      	pop	{r3, r4, r5, pc}
 80051ec:	20011a94 	.word	0x20011a94

080051f0 <_close_r>:
 80051f0:	b538      	push	{r3, r4, r5, lr}
 80051f2:	4d06      	ldr	r5, [pc, #24]	; (800520c <_close_r+0x1c>)
 80051f4:	2300      	movs	r3, #0
 80051f6:	4604      	mov	r4, r0
 80051f8:	4608      	mov	r0, r1
 80051fa:	602b      	str	r3, [r5, #0]
 80051fc:	f7fb ffe7 	bl	80011ce <_close>
 8005200:	1c43      	adds	r3, r0, #1
 8005202:	d102      	bne.n	800520a <_close_r+0x1a>
 8005204:	682b      	ldr	r3, [r5, #0]
 8005206:	b103      	cbz	r3, 800520a <_close_r+0x1a>
 8005208:	6023      	str	r3, [r4, #0]
 800520a:	bd38      	pop	{r3, r4, r5, pc}
 800520c:	20011a94 	.word	0x20011a94

08005210 <quorem>:
 8005210:	e92d 4ff7 	stmdb	sp!, {r0, r1, r2, r4, r5, r6, r7, r8, r9, sl, fp, lr}
 8005214:	6903      	ldr	r3, [r0, #16]
 8005216:	690c      	ldr	r4, [r1, #16]
 8005218:	42a3      	cmp	r3, r4
 800521a:	4607      	mov	r7, r0
 800521c:	f2c0 8081 	blt.w	8005322 <quorem+0x112>
 8005220:	3c01      	subs	r4, #1
 8005222:	f101 0814 	add.w	r8, r1, #20
 8005226:	f100 0514 	add.w	r5, r0, #20
 800522a:	eb05 0384 	add.w	r3, r5, r4, lsl #2
 800522e:	9301      	str	r3, [sp, #4]
 8005230:	f858 3024 	ldr.w	r3, [r8, r4, lsl #2]
 8005234:	f855 2024 	ldr.w	r2, [r5, r4, lsl #2]
 8005238:	3301      	adds	r3, #1
 800523a:	429a      	cmp	r2, r3
 800523c:	ea4f 0b84 	mov.w	fp, r4, lsl #2
 8005240:	eb08 0984 	add.w	r9, r8, r4, lsl #2
 8005244:	fbb2 f6f3 	udiv	r6, r2, r3
 8005248:	d331      	bcc.n	80052ae <quorem+0x9e>
 800524a:	f04f 0e00 	mov.w	lr, #0
 800524e:	4640      	mov	r0, r8
 8005250:	46ac      	mov	ip, r5
 8005252:	46f2      	mov	sl, lr
 8005254:	f850 2b04 	ldr.w	r2, [r0], #4
 8005258:	b293      	uxth	r3, r2
 800525a:	fb06 e303 	mla	r3, r6, r3, lr
 800525e:	ea4f 4e13 	mov.w	lr, r3, lsr #16
 8005262:	b29b      	uxth	r3, r3
 8005264:	ebaa 0303 	sub.w	r3, sl, r3
 8005268:	f8dc a000 	ldr.w	sl, [ip]
 800526c:	0c12      	lsrs	r2, r2, #16
 800526e:	fa13 f38a 	uxtah	r3, r3, sl
 8005272:	fb06 e202 	mla	r2, r6, r2, lr
 8005276:	9300      	str	r3, [sp, #0]
 8005278:	9b00      	ldr	r3, [sp, #0]
 800527a:	ea4f 4e12 	mov.w	lr, r2, lsr #16
 800527e:	b292      	uxth	r2, r2
 8005280:	ebc2 421a 	rsb	r2, r2, sl, lsr #16
 8005284:	eb02 4223 	add.w	r2, r2, r3, asr #16
 8005288:	f8bd 3000 	ldrh.w	r3, [sp]
 800528c:	4581      	cmp	r9, r0
 800528e:	ea43 4302 	orr.w	r3, r3, r2, lsl #16
 8005292:	f84c 3b04 	str.w	r3, [ip], #4
 8005296:	ea4f 4a22 	mov.w	sl, r2, asr #16
 800529a:	d2db      	bcs.n	8005254 <quorem+0x44>
 800529c:	f855 300b 	ldr.w	r3, [r5, fp]
 80052a0:	b92b      	cbnz	r3, 80052ae <quorem+0x9e>
 80052a2:	9b01      	ldr	r3, [sp, #4]
 80052a4:	3b04      	subs	r3, #4
 80052a6:	429d      	cmp	r5, r3
 80052a8:	461a      	mov	r2, r3
 80052aa:	d32e      	bcc.n	800530a <quorem+0xfa>
 80052ac:	613c      	str	r4, [r7, #16]
 80052ae:	4638      	mov	r0, r7
 80052b0:	f001 f8da 	bl	8006468 <__mcmp>
 80052b4:	2800      	cmp	r0, #0
 80052b6:	db24      	blt.n	8005302 <quorem+0xf2>
 80052b8:	3601      	adds	r6, #1
 80052ba:	4628      	mov	r0, r5
 80052bc:	f04f 0c00 	mov.w	ip, #0
 80052c0:	f858 2b04 	ldr.w	r2, [r8], #4
 80052c4:	f8d0 e000 	ldr.w	lr, [r0]
 80052c8:	b293      	uxth	r3, r2
 80052ca:	ebac 0303 	sub.w	r3, ip, r3
 80052ce:	0c12      	lsrs	r2, r2, #16
 80052d0:	fa13 f38e 	uxtah	r3, r3, lr
 80052d4:	ebc2 421e 	rsb	r2, r2, lr, lsr #16
 80052d8:	eb02 4223 	add.w	r2, r2, r3, asr #16
 80052dc:	b29b      	uxth	r3, r3
 80052de:	ea43 4302 	orr.w	r3, r3, r2, lsl #16
 80052e2:	45c1      	cmp	r9, r8
 80052e4:	f840 3b04 	str.w	r3, [r0], #4
 80052e8:	ea4f 4c22 	mov.w	ip, r2, asr #16
 80052ec:	d2e8      	bcs.n	80052c0 <quorem+0xb0>
 80052ee:	f855 2024 	ldr.w	r2, [r5, r4, lsl #2]
 80052f2:	eb05 0384 	add.w	r3, r5, r4, lsl #2
 80052f6:	b922      	cbnz	r2, 8005302 <quorem+0xf2>
 80052f8:	3b04      	subs	r3, #4
 80052fa:	429d      	cmp	r5, r3
 80052fc:	461a      	mov	r2, r3
 80052fe:	d30a      	bcc.n	8005316 <quorem+0x106>
 8005300:	613c      	str	r4, [r7, #16]
 8005302:	4630      	mov	r0, r6
 8005304:	b003      	add	sp, #12
 8005306:	e8bd 8ff0 	ldmia.w	sp!, {r4, r5, r6, r7, r8, r9, sl, fp, pc}
 800530a:	6812      	ldr	r2, [r2, #0]
 800530c:	3b04      	subs	r3, #4
 800530e:	2a00      	cmp	r2, #0
 8005310:	d1cc      	bne.n	80052ac <quorem+0x9c>
 8005312:	3c01      	subs	r4, #1
 8005314:	e7c7      	b.n	80052a6 <quorem+0x96>
 8005316:	6812      	ldr	r2, [r2, #0]
 8005318:	3b04      	subs	r3, #4
 800531a:	2a00      	cmp	r2, #0
 800531c:	d1f0      	bne.n	8005300 <quorem+0xf0>
 800531e:	3c01      	subs	r4, #1
 8005320:	e7eb      	b.n	80052fa <quorem+0xea>
 8005322:	2000      	movs	r0, #0
 8005324:	e7ee      	b.n	8005304 <quorem+0xf4>
	...

08005328 <_dtoa_r>:
 8005328:	e92d 4ff0 	stmdb	sp!, {r4, r5, r6, r7, r8, r9, sl, fp, lr}
 800532c:	ed2d 8b04 	vpush	{d8-d9}
 8005330:	ec57 6b10 	vmov	r6, r7, d0
 8005334:	b093      	sub	sp, #76	; 0x4c
 8005336:	6a45      	ldr	r5, [r0, #36]	; 0x24
 8005338:	f8dd 8080 	ldr.w	r8, [sp, #128]	; 0x80
 800533c:	9106      	str	r1, [sp, #24]
 800533e:	ee10 aa10 	vmov	sl, s0
 8005342:	4604      	mov	r4, r0
 8005344:	9209      	str	r2, [sp, #36]	; 0x24
 8005346:	930c      	str	r3, [sp, #48]	; 0x30
 8005348:	46bb      	mov	fp, r7
 800534a:	b975      	cbnz	r5, 800536a <_dtoa_r+0x42>
 800534c:	2010      	movs	r0, #16
 800534e:	f7ff f941 	bl	80045d4 <malloc>
 8005352:	4602      	mov	r2, r0
 8005354:	6260      	str	r0, [r4, #36]	; 0x24
 8005356:	b920      	cbnz	r0, 8005362 <_dtoa_r+0x3a>
 8005358:	4ba7      	ldr	r3, [pc, #668]	; (80055f8 <_dtoa_r+0x2d0>)
 800535a:	21ea      	movs	r1, #234	; 0xea
 800535c:	48a7      	ldr	r0, [pc, #668]	; (80055fc <_dtoa_r+0x2d4>)
 800535e:	f001 ff97 	bl	8007290 <__assert_func>
 8005362:	e9c0 5501 	strd	r5, r5, [r0, #4]
 8005366:	6005      	str	r5, [r0, #0]
 8005368:	60c5      	str	r5, [r0, #12]
 800536a:	6a63      	ldr	r3, [r4, #36]	; 0x24
 800536c:	6819      	ldr	r1, [r3, #0]
 800536e:	b151      	cbz	r1, 8005386 <_dtoa_r+0x5e>
 8005370:	685a      	ldr	r2, [r3, #4]
 8005372:	604a      	str	r2, [r1, #4]
 8005374:	2301      	movs	r3, #1
 8005376:	4093      	lsls	r3, r2
 8005378:	608b      	str	r3, [r1, #8]
 800537a:	4620      	mov	r0, r4
 800537c:	f000 fe32 	bl	8005fe4 <_Bfree>
 8005380:	6a63      	ldr	r3, [r4, #36]	; 0x24
 8005382:	2200      	movs	r2, #0
 8005384:	601a      	str	r2, [r3, #0]
 8005386:	1e3b      	subs	r3, r7, #0
 8005388:	bfaa      	itet	ge
 800538a:	2300      	movge	r3, #0
 800538c:	f023 4b00 	biclt.w	fp, r3, #2147483648	; 0x80000000
 8005390:	f8c8 3000 	strge.w	r3, [r8]
 8005394:	4b9a      	ldr	r3, [pc, #616]	; (8005600 <_dtoa_r+0x2d8>)
 8005396:	bfbc      	itt	lt
 8005398:	2201      	movlt	r2, #1
 800539a:	f8c8 2000 	strlt.w	r2, [r8]
 800539e:	ea33 030b 	bics.w	r3, r3, fp
 80053a2:	d11b      	bne.n	80053dc <_dtoa_r+0xb4>
 80053a4:	9a0c      	ldr	r2, [sp, #48]	; 0x30
 80053a6:	f242 730f 	movw	r3, #9999	; 0x270f
 80053aa:	6013      	str	r3, [r2, #0]
 80053ac:	f3cb 0313 	ubfx	r3, fp, #0, #20
 80053b0:	4333      	orrs	r3, r6
 80053b2:	f000 8592 	beq.w	8005eda <_dtoa_r+0xbb2>
 80053b6:	9b21      	ldr	r3, [sp, #132]	; 0x84
 80053b8:	b963      	cbnz	r3, 80053d4 <_dtoa_r+0xac>
 80053ba:	4b92      	ldr	r3, [pc, #584]	; (8005604 <_dtoa_r+0x2dc>)
 80053bc:	e022      	b.n	8005404 <_dtoa_r+0xdc>
 80053be:	4b92      	ldr	r3, [pc, #584]	; (8005608 <_dtoa_r+0x2e0>)
 80053c0:	9301      	str	r3, [sp, #4]
 80053c2:	3308      	adds	r3, #8
 80053c4:	9a21      	ldr	r2, [sp, #132]	; 0x84
 80053c6:	6013      	str	r3, [r2, #0]
 80053c8:	9801      	ldr	r0, [sp, #4]
 80053ca:	b013      	add	sp, #76	; 0x4c
 80053cc:	ecbd 8b04 	vpop	{d8-d9}
 80053d0:	e8bd 8ff0 	ldmia.w	sp!, {r4, r5, r6, r7, r8, r9, sl, fp, pc}
 80053d4:	4b8b      	ldr	r3, [pc, #556]	; (8005604 <_dtoa_r+0x2dc>)
 80053d6:	9301      	str	r3, [sp, #4]
 80053d8:	3303      	adds	r3, #3
 80053da:	e7f3      	b.n	80053c4 <_dtoa_r+0x9c>
 80053dc:	2200      	movs	r2, #0
 80053de:	2300      	movs	r3, #0
 80053e0:	4650      	mov	r0, sl
 80053e2:	4659      	mov	r1, fp
 80053e4:	f7fb fb88 	bl	8000af8 <__aeabi_dcmpeq>
 80053e8:	ec4b ab19 	vmov	d9, sl, fp
 80053ec:	4680      	mov	r8, r0
 80053ee:	b158      	cbz	r0, 8005408 <_dtoa_r+0xe0>
 80053f0:	9a0c      	ldr	r2, [sp, #48]	; 0x30
 80053f2:	2301      	movs	r3, #1
 80053f4:	6013      	str	r3, [r2, #0]
 80053f6:	9b21      	ldr	r3, [sp, #132]	; 0x84
 80053f8:	2b00      	cmp	r3, #0
 80053fa:	f000 856b 	beq.w	8005ed4 <_dtoa_r+0xbac>
 80053fe:	4883      	ldr	r0, [pc, #524]	; (800560c <_dtoa_r+0x2e4>)
 8005400:	6018      	str	r0, [r3, #0]
 8005402:	1e43      	subs	r3, r0, #1
 8005404:	9301      	str	r3, [sp, #4]
 8005406:	e7df      	b.n	80053c8 <_dtoa_r+0xa0>
 8005408:	ec4b ab10 	vmov	d0, sl, fp
 800540c:	aa10      	add	r2, sp, #64	; 0x40
 800540e:	a911      	add	r1, sp, #68	; 0x44
 8005410:	4620      	mov	r0, r4
 8005412:	f001 f8cf 	bl	80065b4 <__d2b>
 8005416:	f3cb 550a 	ubfx	r5, fp, #20, #11
 800541a:	ee08 0a10 	vmov	s16, r0
 800541e:	2d00      	cmp	r5, #0
 8005420:	f000 8084 	beq.w	800552c <_dtoa_r+0x204>
 8005424:	ee19 3a90 	vmov	r3, s19
 8005428:	f3c3 0313 	ubfx	r3, r3, #0, #20
 800542c:	f043 577f 	orr.w	r7, r3, #1069547520	; 0x3fc00000
 8005430:	4656      	mov	r6, sl
 8005432:	f447 1740 	orr.w	r7, r7, #3145728	; 0x300000
 8005436:	f2a5 35ff 	subw	r5, r5, #1023	; 0x3ff
 800543a:	f8cd 8038 	str.w	r8, [sp, #56]	; 0x38
 800543e:	4b74      	ldr	r3, [pc, #464]	; (8005610 <_dtoa_r+0x2e8>)
 8005440:	2200      	movs	r2, #0
 8005442:	4630      	mov	r0, r6
 8005444:	4639      	mov	r1, r7
 8005446:	f7fa ff37 	bl	80002b8 <__aeabi_dsub>
 800544a:	a365      	add	r3, pc, #404	; (adr r3, 80055e0 <_dtoa_r+0x2b8>)
 800544c:	e9d3 2300 	ldrd	r2, r3, [r3]
 8005450:	f7fb f8ea 	bl	8000628 <__aeabi_dmul>
 8005454:	a364      	add	r3, pc, #400	; (adr r3, 80055e8 <_dtoa_r+0x2c0>)
 8005456:	e9d3 2300 	ldrd	r2, r3, [r3]
 800545a:	f7fa ff2f 	bl	80002bc <__adddf3>
 800545e:	4606      	mov	r6, r0
 8005460:	4628      	mov	r0, r5
 8005462:	460f      	mov	r7, r1
 8005464:	f7fb f876 	bl	8000554 <__aeabi_i2d>
 8005468:	a361      	add	r3, pc, #388	; (adr r3, 80055f0 <_dtoa_r+0x2c8>)
 800546a:	e9d3 2300 	ldrd	r2, r3, [r3]
 800546e:	f7fb f8db 	bl	8000628 <__aeabi_dmul>
 8005472:	4602      	mov	r2, r0
 8005474:	460b      	mov	r3, r1
 8005476:	4630      	mov	r0, r6
 8005478:	4639      	mov	r1, r7
 800547a:	f7fa ff1f 	bl	80002bc <__adddf3>
 800547e:	4606      	mov	r6, r0
 8005480:	460f      	mov	r7, r1
 8005482:	f7fb fb81 	bl	8000b88 <__aeabi_d2iz>
 8005486:	2200      	movs	r2, #0
 8005488:	9000      	str	r0, [sp, #0]
 800548a:	2300      	movs	r3, #0
 800548c:	4630      	mov	r0, r6
 800548e:	4639      	mov	r1, r7
 8005490:	f7fb fb3c 	bl	8000b0c <__aeabi_dcmplt>
 8005494:	b150      	cbz	r0, 80054ac <_dtoa_r+0x184>
 8005496:	9800      	ldr	r0, [sp, #0]
 8005498:	f7fb f85c 	bl	8000554 <__aeabi_i2d>
 800549c:	4632      	mov	r2, r6
 800549e:	463b      	mov	r3, r7
 80054a0:	f7fb fb2a 	bl	8000af8 <__aeabi_dcmpeq>
 80054a4:	b910      	cbnz	r0, 80054ac <_dtoa_r+0x184>
 80054a6:	9b00      	ldr	r3, [sp, #0]
 80054a8:	3b01      	subs	r3, #1
 80054aa:	9300      	str	r3, [sp, #0]
 80054ac:	9b00      	ldr	r3, [sp, #0]
 80054ae:	2b16      	cmp	r3, #22
 80054b0:	d85a      	bhi.n	8005568 <_dtoa_r+0x240>
 80054b2:	9a00      	ldr	r2, [sp, #0]
 80054b4:	4b57      	ldr	r3, [pc, #348]	; (8005614 <_dtoa_r+0x2ec>)
 80054b6:	eb03 03c2 	add.w	r3, r3, r2, lsl #3
 80054ba:	e9d3 2300 	ldrd	r2, r3, [r3]
 80054be:	ec51 0b19 	vmov	r0, r1, d9
 80054c2:	f7fb fb23 	bl	8000b0c <__aeabi_dcmplt>
 80054c6:	2800      	cmp	r0, #0
 80054c8:	d050      	beq.n	800556c <_dtoa_r+0x244>
 80054ca:	9b00      	ldr	r3, [sp, #0]
 80054cc:	3b01      	subs	r3, #1
 80054ce:	9300      	str	r3, [sp, #0]
 80054d0:	2300      	movs	r3, #0
 80054d2:	930b      	str	r3, [sp, #44]	; 0x2c
 80054d4:	9b10      	ldr	r3, [sp, #64]	; 0x40
 80054d6:	1b5d      	subs	r5, r3, r5
 80054d8:	1e6b      	subs	r3, r5, #1
 80054da:	9305      	str	r3, [sp, #20]
 80054dc:	bf45      	ittet	mi
 80054de:	f1c5 0301 	rsbmi	r3, r5, #1
 80054e2:	9304      	strmi	r3, [sp, #16]
 80054e4:	2300      	movpl	r3, #0
 80054e6:	2300      	movmi	r3, #0
 80054e8:	bf4c      	ite	mi
 80054ea:	9305      	strmi	r3, [sp, #20]
 80054ec:	9304      	strpl	r3, [sp, #16]
 80054ee:	9b00      	ldr	r3, [sp, #0]
 80054f0:	2b00      	cmp	r3, #0
 80054f2:	db3d      	blt.n	8005570 <_dtoa_r+0x248>
 80054f4:	9b05      	ldr	r3, [sp, #20]
 80054f6:	9a00      	ldr	r2, [sp, #0]
 80054f8:	920a      	str	r2, [sp, #40]	; 0x28
 80054fa:	4413      	add	r3, r2
 80054fc:	9305      	str	r3, [sp, #20]
 80054fe:	2300      	movs	r3, #0
 8005500:	9307      	str	r3, [sp, #28]
 8005502:	9b06      	ldr	r3, [sp, #24]
 8005504:	2b09      	cmp	r3, #9
 8005506:	f200 8089 	bhi.w	800561c <_dtoa_r+0x2f4>
 800550a:	2b05      	cmp	r3, #5
 800550c:	bfc4      	itt	gt
 800550e:	3b04      	subgt	r3, #4
 8005510:	9306      	strgt	r3, [sp, #24]
 8005512:	9b06      	ldr	r3, [sp, #24]
 8005514:	f1a3 0302 	sub.w	r3, r3, #2
 8005518:	bfcc      	ite	gt
 800551a:	2500      	movgt	r5, #0
 800551c:	2501      	movle	r5, #1
 800551e:	2b03      	cmp	r3, #3
 8005520:	f200 8087 	bhi.w	8005632 <_dtoa_r+0x30a>
 8005524:	e8df f003 	tbb	[pc, r3]
 8005528:	59383a2d 	.word	0x59383a2d
 800552c:	e9dd 5310 	ldrd	r5, r3, [sp, #64]	; 0x40
 8005530:	441d      	add	r5, r3
 8005532:	f205 4332 	addw	r3, r5, #1074	; 0x432
 8005536:	2b20      	cmp	r3, #32
 8005538:	bfc1      	itttt	gt
 800553a:	f1c3 0340 	rsbgt	r3, r3, #64	; 0x40
 800553e:	f205 4012 	addwgt	r0, r5, #1042	; 0x412
 8005542:	fa0b f303 	lslgt.w	r3, fp, r3
 8005546:	fa26 f000 	lsrgt.w	r0, r6, r0
 800554a:	bfda      	itte	le
 800554c:	f1c3 0320 	rsble	r3, r3, #32
 8005550:	fa06 f003 	lslle.w	r0, r6, r3
 8005554:	4318      	orrgt	r0, r3
 8005556:	f7fa ffed 	bl	8000534 <__aeabi_ui2d>
 800555a:	2301      	movs	r3, #1
 800555c:	4606      	mov	r6, r0
 800555e:	f1a1 77f8 	sub.w	r7, r1, #32505856	; 0x1f00000
 8005562:	3d01      	subs	r5, #1
 8005564:	930e      	str	r3, [sp, #56]	; 0x38
 8005566:	e76a      	b.n	800543e <_dtoa_r+0x116>
 8005568:	2301      	movs	r3, #1
 800556a:	e7b2      	b.n	80054d2 <_dtoa_r+0x1aa>
 800556c:	900b      	str	r0, [sp, #44]	; 0x2c
 800556e:	e7b1      	b.n	80054d4 <_dtoa_r+0x1ac>
 8005570:	9b04      	ldr	r3, [sp, #16]
 8005572:	9a00      	ldr	r2, [sp, #0]
 8005574:	1a9b      	subs	r3, r3, r2
 8005576:	9304      	str	r3, [sp, #16]
 8005578:	4253      	negs	r3, r2
 800557a:	9307      	str	r3, [sp, #28]
 800557c:	2300      	movs	r3, #0
 800557e:	930a      	str	r3, [sp, #40]	; 0x28
 8005580:	e7bf      	b.n	8005502 <_dtoa_r+0x1da>
 8005582:	2300      	movs	r3, #0
 8005584:	9308      	str	r3, [sp, #32]
 8005586:	9b09      	ldr	r3, [sp, #36]	; 0x24
 8005588:	2b00      	cmp	r3, #0
 800558a:	dc55      	bgt.n	8005638 <_dtoa_r+0x310>
 800558c:	2301      	movs	r3, #1
 800558e:	e9cd 3302 	strd	r3, r3, [sp, #8]
 8005592:	461a      	mov	r2, r3
 8005594:	9209      	str	r2, [sp, #36]	; 0x24
 8005596:	e00c      	b.n	80055b2 <_dtoa_r+0x28a>
 8005598:	2301      	movs	r3, #1
 800559a:	e7f3      	b.n	8005584 <_dtoa_r+0x25c>
 800559c:	2300      	movs	r3, #0
 800559e:	9a09      	ldr	r2, [sp, #36]	; 0x24
 80055a0:	9308      	str	r3, [sp, #32]
 80055a2:	9b00      	ldr	r3, [sp, #0]
 80055a4:	4413      	add	r3, r2
 80055a6:	9302      	str	r3, [sp, #8]
 80055a8:	3301      	adds	r3, #1
 80055aa:	2b01      	cmp	r3, #1
 80055ac:	9303      	str	r3, [sp, #12]
 80055ae:	bfb8      	it	lt
 80055b0:	2301      	movlt	r3, #1
 80055b2:	6a60      	ldr	r0, [r4, #36]	; 0x24
 80055b4:	2200      	movs	r2, #0
 80055b6:	6042      	str	r2, [r0, #4]
 80055b8:	2204      	movs	r2, #4
 80055ba:	f102 0614 	add.w	r6, r2, #20
 80055be:	429e      	cmp	r6, r3
 80055c0:	6841      	ldr	r1, [r0, #4]
 80055c2:	d93d      	bls.n	8005640 <_dtoa_r+0x318>
 80055c4:	4620      	mov	r0, r4
 80055c6:	f000 fccd 	bl	8005f64 <_Balloc>
 80055ca:	9001      	str	r0, [sp, #4]
 80055cc:	2800      	cmp	r0, #0
 80055ce:	d13b      	bne.n	8005648 <_dtoa_r+0x320>
 80055d0:	4b11      	ldr	r3, [pc, #68]	; (8005618 <_dtoa_r+0x2f0>)
 80055d2:	4602      	mov	r2, r0
 80055d4:	f44f 71d5 	mov.w	r1, #426	; 0x1aa
 80055d8:	e6c0      	b.n	800535c <_dtoa_r+0x34>
 80055da:	2301      	movs	r3, #1
 80055dc:	e7df      	b.n	800559e <_dtoa_r+0x276>
 80055de:	bf00      	nop
 80055e0:	636f4361 	.word	0x636f4361
 80055e4:	3fd287a7 	.word	0x3fd287a7
 80055e8:	8b60c8b3 	.word	0x8b60c8b3
 80055ec:	3fc68a28 	.word	0x3fc68a28
 80055f0:	509f79fb 	.word	0x509f79fb
 80055f4:	3fd34413 	.word	0x3fd34413
 80055f8:	08008e57 	.word	0x08008e57
 80055fc:	08008e6e 	.word	0x08008e6e
 8005600:	7ff00000 	.word	0x7ff00000
 8005604:	08008e53 	.word	0x08008e53
 8005608:	08008e4a 	.word	0x08008e4a
 800560c:	0800904a 	.word	0x0800904a
 8005610:	3ff80000 	.word	0x3ff80000
 8005614:	08008f60 	.word	0x08008f60
 8005618:	08008ec9 	.word	0x08008ec9
 800561c:	2501      	movs	r5, #1
 800561e:	2300      	movs	r3, #0
 8005620:	9306      	str	r3, [sp, #24]
 8005622:	9508      	str	r5, [sp, #32]
 8005624:	f04f 33ff 	mov.w	r3, #4294967295	; 0xffffffff
 8005628:	e9cd 3302 	strd	r3, r3, [sp, #8]
 800562c:	2200      	movs	r2, #0
 800562e:	2312      	movs	r3, #18
 8005630:	e7b0      	b.n	8005594 <_dtoa_r+0x26c>
 8005632:	2301      	movs	r3, #1
 8005634:	9308      	str	r3, [sp, #32]
 8005636:	e7f5      	b.n	8005624 <_dtoa_r+0x2fc>
 8005638:	9b09      	ldr	r3, [sp, #36]	; 0x24
 800563a:	e9cd 3302 	strd	r3, r3, [sp, #8]
 800563e:	e7b8      	b.n	80055b2 <_dtoa_r+0x28a>
 8005640:	3101      	adds	r1, #1
 8005642:	6041      	str	r1, [r0, #4]
 8005644:	0052      	lsls	r2, r2, #1
 8005646:	e7b8      	b.n	80055ba <_dtoa_r+0x292>
 8005648:	6a63      	ldr	r3, [r4, #36]	; 0x24
 800564a:	9a01      	ldr	r2, [sp, #4]
 800564c:	601a      	str	r2, [r3, #0]
 800564e:	9b03      	ldr	r3, [sp, #12]
 8005650:	2b0e      	cmp	r3, #14
 8005652:	f200 809d 	bhi.w	8005790 <_dtoa_r+0x468>
 8005656:	2d00      	cmp	r5, #0
 8005658:	f000 809a 	beq.w	8005790 <_dtoa_r+0x468>
 800565c:	9b00      	ldr	r3, [sp, #0]
 800565e:	2b00      	cmp	r3, #0
 8005660:	dd32      	ble.n	80056c8 <_dtoa_r+0x3a0>
 8005662:	4ab7      	ldr	r2, [pc, #732]	; (8005940 <_dtoa_r+0x618>)
 8005664:	f003 030f 	and.w	r3, r3, #15
 8005668:	eb02 03c3 	add.w	r3, r2, r3, lsl #3
 800566c:	e9d3 8900 	ldrd	r8, r9, [r3]
 8005670:	9b00      	ldr	r3, [sp, #0]
 8005672:	05d8      	lsls	r0, r3, #23
 8005674:	ea4f 1723 	mov.w	r7, r3, asr #4
 8005678:	d516      	bpl.n	80056a8 <_dtoa_r+0x380>
 800567a:	4bb2      	ldr	r3, [pc, #712]	; (8005944 <_dtoa_r+0x61c>)
 800567c:	ec51 0b19 	vmov	r0, r1, d9
 8005680:	e9d3 2308 	ldrd	r2, r3, [r3, #32]
 8005684:	f7fb f8fa 	bl	800087c <__aeabi_ddiv>
 8005688:	f007 070f 	and.w	r7, r7, #15
 800568c:	4682      	mov	sl, r0
 800568e:	468b      	mov	fp, r1
 8005690:	2503      	movs	r5, #3
 8005692:	4eac      	ldr	r6, [pc, #688]	; (8005944 <_dtoa_r+0x61c>)
 8005694:	b957      	cbnz	r7, 80056ac <_dtoa_r+0x384>
 8005696:	4642      	mov	r2, r8
 8005698:	464b      	mov	r3, r9
 800569a:	4650      	mov	r0, sl
 800569c:	4659      	mov	r1, fp
 800569e:	f7fb f8ed 	bl	800087c <__aeabi_ddiv>
 80056a2:	4682      	mov	sl, r0
 80056a4:	468b      	mov	fp, r1
 80056a6:	e028      	b.n	80056fa <_dtoa_r+0x3d2>
 80056a8:	2502      	movs	r5, #2
 80056aa:	e7f2      	b.n	8005692 <_dtoa_r+0x36a>
 80056ac:	07f9      	lsls	r1, r7, #31
 80056ae:	d508      	bpl.n	80056c2 <_dtoa_r+0x39a>
 80056b0:	4640      	mov	r0, r8
 80056b2:	4649      	mov	r1, r9
 80056b4:	e9d6 2300 	ldrd	r2, r3, [r6]
 80056b8:	f7fa ffb6 	bl	8000628 <__aeabi_dmul>
 80056bc:	3501      	adds	r5, #1
 80056be:	4680      	mov	r8, r0
 80056c0:	4689      	mov	r9, r1
 80056c2:	107f      	asrs	r7, r7, #1
 80056c4:	3608      	adds	r6, #8
 80056c6:	e7e5      	b.n	8005694 <_dtoa_r+0x36c>
 80056c8:	f000 809b 	beq.w	8005802 <_dtoa_r+0x4da>
 80056cc:	9b00      	ldr	r3, [sp, #0]
 80056ce:	4f9d      	ldr	r7, [pc, #628]	; (8005944 <_dtoa_r+0x61c>)
 80056d0:	425e      	negs	r6, r3
 80056d2:	4b9b      	ldr	r3, [pc, #620]	; (8005940 <_dtoa_r+0x618>)
 80056d4:	f006 020f 	and.w	r2, r6, #15
 80056d8:	eb03 03c2 	add.w	r3, r3, r2, lsl #3
 80056dc:	e9d3 2300 	ldrd	r2, r3, [r3]
 80056e0:	ec51 0b19 	vmov	r0, r1, d9
 80056e4:	f7fa ffa0 	bl	8000628 <__aeabi_dmul>
 80056e8:	1136      	asrs	r6, r6, #4
 80056ea:	4682      	mov	sl, r0
 80056ec:	468b      	mov	fp, r1
 80056ee:	2300      	movs	r3, #0
 80056f0:	2502      	movs	r5, #2
 80056f2:	2e00      	cmp	r6, #0
 80056f4:	d17a      	bne.n	80057ec <_dtoa_r+0x4c4>
 80056f6:	2b00      	cmp	r3, #0
 80056f8:	d1d3      	bne.n	80056a2 <_dtoa_r+0x37a>
 80056fa:	9b0b      	ldr	r3, [sp, #44]	; 0x2c
 80056fc:	2b00      	cmp	r3, #0
 80056fe:	f000 8082 	beq.w	8005806 <_dtoa_r+0x4de>
 8005702:	4b91      	ldr	r3, [pc, #580]	; (8005948 <_dtoa_r+0x620>)
 8005704:	2200      	movs	r2, #0
 8005706:	4650      	mov	r0, sl
 8005708:	4659      	mov	r1, fp
 800570a:	f7fb f9ff 	bl	8000b0c <__aeabi_dcmplt>
 800570e:	2800      	cmp	r0, #0
 8005710:	d079      	beq.n	8005806 <_dtoa_r+0x4de>
 8005712:	9b03      	ldr	r3, [sp, #12]
 8005714:	2b00      	cmp	r3, #0
 8005716:	d076      	beq.n	8005806 <_dtoa_r+0x4de>
 8005718:	9b02      	ldr	r3, [sp, #8]
 800571a:	2b00      	cmp	r3, #0
 800571c:	dd36      	ble.n	800578c <_dtoa_r+0x464>
 800571e:	9b00      	ldr	r3, [sp, #0]
 8005720:	4650      	mov	r0, sl
 8005722:	4659      	mov	r1, fp
 8005724:	1e5f      	subs	r7, r3, #1
 8005726:	2200      	movs	r2, #0
 8005728:	4b88      	ldr	r3, [pc, #544]	; (800594c <_dtoa_r+0x624>)
 800572a:	f7fa ff7d 	bl	8000628 <__aeabi_dmul>
 800572e:	9e02      	ldr	r6, [sp, #8]
 8005730:	4682      	mov	sl, r0
 8005732:	468b      	mov	fp, r1
 8005734:	3501      	adds	r5, #1
 8005736:	4628      	mov	r0, r5
 8005738:	f7fa ff0c 	bl	8000554 <__aeabi_i2d>
 800573c:	4652      	mov	r2, sl
 800573e:	465b      	mov	r3, fp
 8005740:	f7fa ff72 	bl	8000628 <__aeabi_dmul>
 8005744:	4b82      	ldr	r3, [pc, #520]	; (8005950 <_dtoa_r+0x628>)
 8005746:	2200      	movs	r2, #0
 8005748:	f7fa fdb8 	bl	80002bc <__adddf3>
 800574c:	46d0      	mov	r8, sl
 800574e:	46d9      	mov	r9, fp
 8005750:	4682      	mov	sl, r0
 8005752:	f1a1 7b50 	sub.w	fp, r1, #54525952	; 0x3400000
 8005756:	2e00      	cmp	r6, #0
 8005758:	d158      	bne.n	800580c <_dtoa_r+0x4e4>
 800575a:	4b7e      	ldr	r3, [pc, #504]	; (8005954 <_dtoa_r+0x62c>)
 800575c:	2200      	movs	r2, #0
 800575e:	4640      	mov	r0, r8
 8005760:	4649      	mov	r1, r9
 8005762:	f7fa fda9 	bl	80002b8 <__aeabi_dsub>
 8005766:	4652      	mov	r2, sl
 8005768:	465b      	mov	r3, fp
 800576a:	4680      	mov	r8, r0
 800576c:	4689      	mov	r9, r1
 800576e:	f7fb f9eb 	bl	8000b48 <__aeabi_dcmpgt>
 8005772:	2800      	cmp	r0, #0
 8005774:	f040 8295 	bne.w	8005ca2 <_dtoa_r+0x97a>
 8005778:	4652      	mov	r2, sl
 800577a:	f10b 4300 	add.w	r3, fp, #2147483648	; 0x80000000
 800577e:	4640      	mov	r0, r8
 8005780:	4649      	mov	r1, r9
 8005782:	f7fb f9c3 	bl	8000b0c <__aeabi_dcmplt>
 8005786:	2800      	cmp	r0, #0
 8005788:	f040 8289 	bne.w	8005c9e <_dtoa_r+0x976>
 800578c:	ec5b ab19 	vmov	sl, fp, d9
 8005790:	9b11      	ldr	r3, [sp, #68]	; 0x44
 8005792:	2b00      	cmp	r3, #0
 8005794:	f2c0 8148 	blt.w	8005a28 <_dtoa_r+0x700>
 8005798:	9a00      	ldr	r2, [sp, #0]
 800579a:	2a0e      	cmp	r2, #14
 800579c:	f300 8144 	bgt.w	8005a28 <_dtoa_r+0x700>
 80057a0:	4b67      	ldr	r3, [pc, #412]	; (8005940 <_dtoa_r+0x618>)
 80057a2:	eb03 03c2 	add.w	r3, r3, r2, lsl #3
 80057a6:	e9d3 8900 	ldrd	r8, r9, [r3]
 80057aa:	9b09      	ldr	r3, [sp, #36]	; 0x24
 80057ac:	2b00      	cmp	r3, #0
 80057ae:	f280 80d5 	bge.w	800595c <_dtoa_r+0x634>
 80057b2:	9b03      	ldr	r3, [sp, #12]
 80057b4:	2b00      	cmp	r3, #0
 80057b6:	f300 80d1 	bgt.w	800595c <_dtoa_r+0x634>
 80057ba:	f040 826f 	bne.w	8005c9c <_dtoa_r+0x974>
 80057be:	4b65      	ldr	r3, [pc, #404]	; (8005954 <_dtoa_r+0x62c>)
 80057c0:	2200      	movs	r2, #0
 80057c2:	4640      	mov	r0, r8
 80057c4:	4649      	mov	r1, r9
 80057c6:	f7fa ff2f 	bl	8000628 <__aeabi_dmul>
 80057ca:	4652      	mov	r2, sl
 80057cc:	465b      	mov	r3, fp
 80057ce:	f7fb f9b1 	bl	8000b34 <__aeabi_dcmpge>
 80057d2:	9e03      	ldr	r6, [sp, #12]
 80057d4:	4637      	mov	r7, r6
 80057d6:	2800      	cmp	r0, #0
 80057d8:	f040 8245 	bne.w	8005c66 <_dtoa_r+0x93e>
 80057dc:	9d01      	ldr	r5, [sp, #4]
 80057de:	2331      	movs	r3, #49	; 0x31
 80057e0:	f805 3b01 	strb.w	r3, [r5], #1
 80057e4:	9b00      	ldr	r3, [sp, #0]
 80057e6:	3301      	adds	r3, #1
 80057e8:	9300      	str	r3, [sp, #0]
 80057ea:	e240      	b.n	8005c6e <_dtoa_r+0x946>
 80057ec:	07f2      	lsls	r2, r6, #31
 80057ee:	d505      	bpl.n	80057fc <_dtoa_r+0x4d4>
 80057f0:	e9d7 2300 	ldrd	r2, r3, [r7]
 80057f4:	f7fa ff18 	bl	8000628 <__aeabi_dmul>
 80057f8:	3501      	adds	r5, #1
 80057fa:	2301      	movs	r3, #1
 80057fc:	1076      	asrs	r6, r6, #1
 80057fe:	3708      	adds	r7, #8
 8005800:	e777      	b.n	80056f2 <_dtoa_r+0x3ca>
 8005802:	2502      	movs	r5, #2
 8005804:	e779      	b.n	80056fa <_dtoa_r+0x3d2>
 8005806:	9f00      	ldr	r7, [sp, #0]
 8005808:	9e03      	ldr	r6, [sp, #12]
 800580a:	e794      	b.n	8005736 <_dtoa_r+0x40e>
 800580c:	9901      	ldr	r1, [sp, #4]
 800580e:	4b4c      	ldr	r3, [pc, #304]	; (8005940 <_dtoa_r+0x618>)
 8005810:	4431      	add	r1, r6
 8005812:	910d      	str	r1, [sp, #52]	; 0x34
 8005814:	9908      	ldr	r1, [sp, #32]
 8005816:	eb03 03c6 	add.w	r3, r3, r6, lsl #3
 800581a:	e953 2302 	ldrd	r2, r3, [r3, #-8]
 800581e:	2900      	cmp	r1, #0
 8005820:	d043      	beq.n	80058aa <_dtoa_r+0x582>
 8005822:	494d      	ldr	r1, [pc, #308]	; (8005958 <_dtoa_r+0x630>)
 8005824:	2000      	movs	r0, #0
 8005826:	f7fb f829 	bl	800087c <__aeabi_ddiv>
 800582a:	4652      	mov	r2, sl
 800582c:	465b      	mov	r3, fp
 800582e:	f7fa fd43 	bl	80002b8 <__aeabi_dsub>
 8005832:	9d01      	ldr	r5, [sp, #4]
 8005834:	4682      	mov	sl, r0
 8005836:	468b      	mov	fp, r1
 8005838:	4649      	mov	r1, r9
 800583a:	4640      	mov	r0, r8
 800583c:	f7fb f9a4 	bl	8000b88 <__aeabi_d2iz>
 8005840:	4606      	mov	r6, r0
 8005842:	f7fa fe87 	bl	8000554 <__aeabi_i2d>
 8005846:	4602      	mov	r2, r0
 8005848:	460b      	mov	r3, r1
 800584a:	4640      	mov	r0, r8
 800584c:	4649      	mov	r1, r9
 800584e:	f7fa fd33 	bl	80002b8 <__aeabi_dsub>
 8005852:	3630      	adds	r6, #48	; 0x30
 8005854:	f805 6b01 	strb.w	r6, [r5], #1
 8005858:	4652      	mov	r2, sl
 800585a:	465b      	mov	r3, fp
 800585c:	4680      	mov	r8, r0
 800585e:	4689      	mov	r9, r1
 8005860:	f7fb f954 	bl	8000b0c <__aeabi_dcmplt>
 8005864:	2800      	cmp	r0, #0
 8005866:	d163      	bne.n	8005930 <_dtoa_r+0x608>
 8005868:	4642      	mov	r2, r8
 800586a:	464b      	mov	r3, r9
 800586c:	4936      	ldr	r1, [pc, #216]	; (8005948 <_dtoa_r+0x620>)
 800586e:	2000      	movs	r0, #0
 8005870:	f7fa fd22 	bl	80002b8 <__aeabi_dsub>
 8005874:	4652      	mov	r2, sl
 8005876:	465b      	mov	r3, fp
 8005878:	f7fb f948 	bl	8000b0c <__aeabi_dcmplt>
 800587c:	2800      	cmp	r0, #0
 800587e:	f040 80b5 	bne.w	80059ec <_dtoa_r+0x6c4>
 8005882:	9b0d      	ldr	r3, [sp, #52]	; 0x34
 8005884:	429d      	cmp	r5, r3
 8005886:	d081      	beq.n	800578c <_dtoa_r+0x464>
 8005888:	4b30      	ldr	r3, [pc, #192]	; (800594c <_dtoa_r+0x624>)
 800588a:	2200      	movs	r2, #0
 800588c:	4650      	mov	r0, sl
 800588e:	4659      	mov	r1, fp
 8005890:	f7fa feca 	bl	8000628 <__aeabi_dmul>
 8005894:	4b2d      	ldr	r3, [pc, #180]	; (800594c <_dtoa_r+0x624>)
 8005896:	4682      	mov	sl, r0
 8005898:	468b      	mov	fp, r1
 800589a:	4640      	mov	r0, r8
 800589c:	4649      	mov	r1, r9
 800589e:	2200      	movs	r2, #0
 80058a0:	f7fa fec2 	bl	8000628 <__aeabi_dmul>
 80058a4:	4680      	mov	r8, r0
 80058a6:	4689      	mov	r9, r1
 80058a8:	e7c6      	b.n	8005838 <_dtoa_r+0x510>
 80058aa:	4650      	mov	r0, sl
 80058ac:	4659      	mov	r1, fp
 80058ae:	f7fa febb 	bl	8000628 <__aeabi_dmul>
 80058b2:	9b0d      	ldr	r3, [sp, #52]	; 0x34
 80058b4:	9d01      	ldr	r5, [sp, #4]
 80058b6:	930f      	str	r3, [sp, #60]	; 0x3c
 80058b8:	4682      	mov	sl, r0
 80058ba:	468b      	mov	fp, r1
 80058bc:	4649      	mov	r1, r9
 80058be:	4640      	mov	r0, r8
 80058c0:	f7fb f962 	bl	8000b88 <__aeabi_d2iz>
 80058c4:	4606      	mov	r6, r0
 80058c6:	f7fa fe45 	bl	8000554 <__aeabi_i2d>
 80058ca:	3630      	adds	r6, #48	; 0x30
 80058cc:	4602      	mov	r2, r0
 80058ce:	460b      	mov	r3, r1
 80058d0:	4640      	mov	r0, r8
 80058d2:	4649      	mov	r1, r9
 80058d4:	f7fa fcf0 	bl	80002b8 <__aeabi_dsub>
 80058d8:	f805 6b01 	strb.w	r6, [r5], #1
 80058dc:	9b0d      	ldr	r3, [sp, #52]	; 0x34
 80058de:	429d      	cmp	r5, r3
 80058e0:	4680      	mov	r8, r0
 80058e2:	4689      	mov	r9, r1
 80058e4:	f04f 0200 	mov.w	r2, #0
 80058e8:	d124      	bne.n	8005934 <_dtoa_r+0x60c>
 80058ea:	4b1b      	ldr	r3, [pc, #108]	; (8005958 <_dtoa_r+0x630>)
 80058ec:	4650      	mov	r0, sl
 80058ee:	4659      	mov	r1, fp
 80058f0:	f7fa fce4 	bl	80002bc <__adddf3>
 80058f4:	4602      	mov	r2, r0
 80058f6:	460b      	mov	r3, r1
 80058f8:	4640      	mov	r0, r8
 80058fa:	4649      	mov	r1, r9
 80058fc:	f7fb f924 	bl	8000b48 <__aeabi_dcmpgt>
 8005900:	2800      	cmp	r0, #0
 8005902:	d173      	bne.n	80059ec <_dtoa_r+0x6c4>
 8005904:	4652      	mov	r2, sl
 8005906:	465b      	mov	r3, fp
 8005908:	4913      	ldr	r1, [pc, #76]	; (8005958 <_dtoa_r+0x630>)
 800590a:	2000      	movs	r0, #0
 800590c:	f7fa fcd4 	bl	80002b8 <__aeabi_dsub>
 8005910:	4602      	mov	r2, r0
 8005912:	460b      	mov	r3, r1
 8005914:	4640      	mov	r0, r8
 8005916:	4649      	mov	r1, r9
 8005918:	f7fb f8f8 	bl	8000b0c <__aeabi_dcmplt>
 800591c:	2800      	cmp	r0, #0
 800591e:	f43f af35 	beq.w	800578c <_dtoa_r+0x464>
 8005922:	9d0f      	ldr	r5, [sp, #60]	; 0x3c
 8005924:	1e6b      	subs	r3, r5, #1
 8005926:	930f      	str	r3, [sp, #60]	; 0x3c
 8005928:	f815 3c01 	ldrb.w	r3, [r5, #-1]
 800592c:	2b30      	cmp	r3, #48	; 0x30
 800592e:	d0f8      	beq.n	8005922 <_dtoa_r+0x5fa>
 8005930:	9700      	str	r7, [sp, #0]
 8005932:	e049      	b.n	80059c8 <_dtoa_r+0x6a0>
 8005934:	4b05      	ldr	r3, [pc, #20]	; (800594c <_dtoa_r+0x624>)
 8005936:	f7fa fe77 	bl	8000628 <__aeabi_dmul>
 800593a:	4680      	mov	r8, r0
 800593c:	4689      	mov	r9, r1
 800593e:	e7bd      	b.n	80058bc <_dtoa_r+0x594>
 8005940:	08008f60 	.word	0x08008f60
 8005944:	08008f38 	.word	0x08008f38
 8005948:	3ff00000 	.word	0x3ff00000
 800594c:	40240000 	.word	0x40240000
 8005950:	401c0000 	.word	0x401c0000
 8005954:	40140000 	.word	0x40140000
 8005958:	3fe00000 	.word	0x3fe00000
 800595c:	9d01      	ldr	r5, [sp, #4]
 800595e:	4656      	mov	r6, sl
 8005960:	465f      	mov	r7, fp
 8005962:	4642      	mov	r2, r8
 8005964:	464b      	mov	r3, r9
 8005966:	4630      	mov	r0, r6
 8005968:	4639      	mov	r1, r7
 800596a:	f7fa ff87 	bl	800087c <__aeabi_ddiv>
 800596e:	f7fb f90b 	bl	8000b88 <__aeabi_d2iz>
 8005972:	4682      	mov	sl, r0
 8005974:	f7fa fdee 	bl	8000554 <__aeabi_i2d>
 8005978:	4642      	mov	r2, r8
 800597a:	464b      	mov	r3, r9
 800597c:	f7fa fe54 	bl	8000628 <__aeabi_dmul>
 8005980:	4602      	mov	r2, r0
 8005982:	460b      	mov	r3, r1
 8005984:	4630      	mov	r0, r6
 8005986:	4639      	mov	r1, r7
 8005988:	f10a 0630 	add.w	r6, sl, #48	; 0x30
 800598c:	f7fa fc94 	bl	80002b8 <__aeabi_dsub>
 8005990:	f805 6b01 	strb.w	r6, [r5], #1
 8005994:	9e01      	ldr	r6, [sp, #4]
 8005996:	9f03      	ldr	r7, [sp, #12]
 8005998:	1bae      	subs	r6, r5, r6
 800599a:	42b7      	cmp	r7, r6
 800599c:	4602      	mov	r2, r0
 800599e:	460b      	mov	r3, r1
 80059a0:	d135      	bne.n	8005a0e <_dtoa_r+0x6e6>
 80059a2:	f7fa fc8b 	bl	80002bc <__adddf3>
 80059a6:	4642      	mov	r2, r8
 80059a8:	464b      	mov	r3, r9
 80059aa:	4606      	mov	r6, r0
 80059ac:	460f      	mov	r7, r1
 80059ae:	f7fb f8cb 	bl	8000b48 <__aeabi_dcmpgt>
 80059b2:	b9d0      	cbnz	r0, 80059ea <_dtoa_r+0x6c2>
 80059b4:	4642      	mov	r2, r8
 80059b6:	464b      	mov	r3, r9
 80059b8:	4630      	mov	r0, r6
 80059ba:	4639      	mov	r1, r7
 80059bc:	f7fb f89c 	bl	8000af8 <__aeabi_dcmpeq>
 80059c0:	b110      	cbz	r0, 80059c8 <_dtoa_r+0x6a0>
 80059c2:	f01a 0f01 	tst.w	sl, #1
 80059c6:	d110      	bne.n	80059ea <_dtoa_r+0x6c2>
 80059c8:	4620      	mov	r0, r4
 80059ca:	ee18 1a10 	vmov	r1, s16
 80059ce:	f000 fb09 	bl	8005fe4 <_Bfree>
 80059d2:	2300      	movs	r3, #0
 80059d4:	9800      	ldr	r0, [sp, #0]
 80059d6:	702b      	strb	r3, [r5, #0]
 80059d8:	9b0c      	ldr	r3, [sp, #48]	; 0x30
 80059da:	3001      	adds	r0, #1
 80059dc:	6018      	str	r0, [r3, #0]
 80059de:	9b21      	ldr	r3, [sp, #132]	; 0x84
 80059e0:	2b00      	cmp	r3, #0
 80059e2:	f43f acf1 	beq.w	80053c8 <_dtoa_r+0xa0>
 80059e6:	601d      	str	r5, [r3, #0]
 80059e8:	e4ee      	b.n	80053c8 <_dtoa_r+0xa0>
 80059ea:	9f00      	ldr	r7, [sp, #0]
 80059ec:	462b      	mov	r3, r5
 80059ee:	461d      	mov	r5, r3
 80059f0:	f813 2d01 	ldrb.w	r2, [r3, #-1]!
 80059f4:	2a39      	cmp	r2, #57	; 0x39
 80059f6:	d106      	bne.n	8005a06 <_dtoa_r+0x6de>
 80059f8:	9a01      	ldr	r2, [sp, #4]
 80059fa:	429a      	cmp	r2, r3
 80059fc:	d1f7      	bne.n	80059ee <_dtoa_r+0x6c6>
 80059fe:	9901      	ldr	r1, [sp, #4]
 8005a00:	2230      	movs	r2, #48	; 0x30
 8005a02:	3701      	adds	r7, #1
 8005a04:	700a      	strb	r2, [r1, #0]
 8005a06:	781a      	ldrb	r2, [r3, #0]
 8005a08:	3201      	adds	r2, #1
 8005a0a:	701a      	strb	r2, [r3, #0]
 8005a0c:	e790      	b.n	8005930 <_dtoa_r+0x608>
 8005a0e:	4ba6      	ldr	r3, [pc, #664]	; (8005ca8 <_dtoa_r+0x980>)
 8005a10:	2200      	movs	r2, #0
 8005a12:	f7fa fe09 	bl	8000628 <__aeabi_dmul>
 8005a16:	2200      	movs	r2, #0
 8005a18:	2300      	movs	r3, #0
 8005a1a:	4606      	mov	r6, r0
 8005a1c:	460f      	mov	r7, r1
 8005a1e:	f7fb f86b 	bl	8000af8 <__aeabi_dcmpeq>
 8005a22:	2800      	cmp	r0, #0
 8005a24:	d09d      	beq.n	8005962 <_dtoa_r+0x63a>
 8005a26:	e7cf      	b.n	80059c8 <_dtoa_r+0x6a0>
 8005a28:	9a08      	ldr	r2, [sp, #32]
 8005a2a:	2a00      	cmp	r2, #0
 8005a2c:	f000 80d7 	beq.w	8005bde <_dtoa_r+0x8b6>
 8005a30:	9a06      	ldr	r2, [sp, #24]
 8005a32:	2a01      	cmp	r2, #1
 8005a34:	f300 80ba 	bgt.w	8005bac <_dtoa_r+0x884>
 8005a38:	9a0e      	ldr	r2, [sp, #56]	; 0x38
 8005a3a:	2a00      	cmp	r2, #0
 8005a3c:	f000 80b2 	beq.w	8005ba4 <_dtoa_r+0x87c>
 8005a40:	f203 4333 	addw	r3, r3, #1075	; 0x433
 8005a44:	9e07      	ldr	r6, [sp, #28]
 8005a46:	9d04      	ldr	r5, [sp, #16]
 8005a48:	9a04      	ldr	r2, [sp, #16]
 8005a4a:	441a      	add	r2, r3
 8005a4c:	9204      	str	r2, [sp, #16]
 8005a4e:	9a05      	ldr	r2, [sp, #20]
 8005a50:	2101      	movs	r1, #1
 8005a52:	441a      	add	r2, r3
 8005a54:	4620      	mov	r0, r4
 8005a56:	9205      	str	r2, [sp, #20]
 8005a58:	f000 fb7c 	bl	8006154 <__i2b>
 8005a5c:	4607      	mov	r7, r0
 8005a5e:	2d00      	cmp	r5, #0
 8005a60:	dd0c      	ble.n	8005a7c <_dtoa_r+0x754>
 8005a62:	9b05      	ldr	r3, [sp, #20]
 8005a64:	2b00      	cmp	r3, #0
 8005a66:	dd09      	ble.n	8005a7c <_dtoa_r+0x754>
 8005a68:	42ab      	cmp	r3, r5
 8005a6a:	9a04      	ldr	r2, [sp, #16]
 8005a6c:	bfa8      	it	ge
 8005a6e:	462b      	movge	r3, r5
 8005a70:	1ad2      	subs	r2, r2, r3
 8005a72:	9204      	str	r2, [sp, #16]
 8005a74:	9a05      	ldr	r2, [sp, #20]
 8005a76:	1aed      	subs	r5, r5, r3
 8005a78:	1ad3      	subs	r3, r2, r3
 8005a7a:	9305      	str	r3, [sp, #20]
 8005a7c:	9b07      	ldr	r3, [sp, #28]
 8005a7e:	b31b      	cbz	r3, 8005ac8 <_dtoa_r+0x7a0>
 8005a80:	9b08      	ldr	r3, [sp, #32]
 8005a82:	2b00      	cmp	r3, #0
 8005a84:	f000 80af 	beq.w	8005be6 <_dtoa_r+0x8be>
 8005a88:	2e00      	cmp	r6, #0
 8005a8a:	dd13      	ble.n	8005ab4 <_dtoa_r+0x78c>
 8005a8c:	4639      	mov	r1, r7
 8005a8e:	4632      	mov	r2, r6
 8005a90:	4620      	mov	r0, r4
 8005a92:	f000 fc1f 	bl	80062d4 <__pow5mult>
 8005a96:	ee18 2a10 	vmov	r2, s16
 8005a9a:	4601      	mov	r1, r0
 8005a9c:	4607      	mov	r7, r0
 8005a9e:	4620      	mov	r0, r4
 8005aa0:	f000 fb6e 	bl	8006180 <__multiply>
 8005aa4:	ee18 1a10 	vmov	r1, s16
 8005aa8:	4680      	mov	r8, r0
 8005aaa:	4620      	mov	r0, r4
 8005aac:	f000 fa9a 	bl	8005fe4 <_Bfree>
 8005ab0:	ee08 8a10 	vmov	s16, r8
 8005ab4:	9b07      	ldr	r3, [sp, #28]
 8005ab6:	1b9a      	subs	r2, r3, r6
 8005ab8:	d006      	beq.n	8005ac8 <_dtoa_r+0x7a0>
 8005aba:	ee18 1a10 	vmov	r1, s16
 8005abe:	4620      	mov	r0, r4
 8005ac0:	f000 fc08 	bl	80062d4 <__pow5mult>
 8005ac4:	ee08 0a10 	vmov	s16, r0
 8005ac8:	2101      	movs	r1, #1
 8005aca:	4620      	mov	r0, r4
 8005acc:	f000 fb42 	bl	8006154 <__i2b>
 8005ad0:	9b0a      	ldr	r3, [sp, #40]	; 0x28
 8005ad2:	2b00      	cmp	r3, #0
 8005ad4:	4606      	mov	r6, r0
 8005ad6:	f340 8088 	ble.w	8005bea <_dtoa_r+0x8c2>
 8005ada:	461a      	mov	r2, r3
 8005adc:	4601      	mov	r1, r0
 8005ade:	4620      	mov	r0, r4
 8005ae0:	f000 fbf8 	bl	80062d4 <__pow5mult>
 8005ae4:	9b06      	ldr	r3, [sp, #24]
 8005ae6:	2b01      	cmp	r3, #1
 8005ae8:	4606      	mov	r6, r0
 8005aea:	f340 8081 	ble.w	8005bf0 <_dtoa_r+0x8c8>
 8005aee:	f04f 0800 	mov.w	r8, #0
 8005af2:	6933      	ldr	r3, [r6, #16]
 8005af4:	eb06 0383 	add.w	r3, r6, r3, lsl #2
 8005af8:	6918      	ldr	r0, [r3, #16]
 8005afa:	f000 fadb 	bl	80060b4 <__hi0bits>
 8005afe:	f1c0 0020 	rsb	r0, r0, #32
 8005b02:	9b05      	ldr	r3, [sp, #20]
 8005b04:	4418      	add	r0, r3
 8005b06:	f010 001f 	ands.w	r0, r0, #31
 8005b0a:	f000 8092 	beq.w	8005c32 <_dtoa_r+0x90a>
 8005b0e:	f1c0 0320 	rsb	r3, r0, #32
 8005b12:	2b04      	cmp	r3, #4
 8005b14:	f340 808a 	ble.w	8005c2c <_dtoa_r+0x904>
 8005b18:	f1c0 001c 	rsb	r0, r0, #28
 8005b1c:	9b04      	ldr	r3, [sp, #16]
 8005b1e:	4403      	add	r3, r0
 8005b20:	9304      	str	r3, [sp, #16]
 8005b22:	9b05      	ldr	r3, [sp, #20]
 8005b24:	4403      	add	r3, r0
 8005b26:	4405      	add	r5, r0
 8005b28:	9305      	str	r3, [sp, #20]
 8005b2a:	9b04      	ldr	r3, [sp, #16]
 8005b2c:	2b00      	cmp	r3, #0
 8005b2e:	dd07      	ble.n	8005b40 <_dtoa_r+0x818>
 8005b30:	ee18 1a10 	vmov	r1, s16
 8005b34:	461a      	mov	r2, r3
 8005b36:	4620      	mov	r0, r4
 8005b38:	f000 fc26 	bl	8006388 <__lshift>
 8005b3c:	ee08 0a10 	vmov	s16, r0
 8005b40:	9b05      	ldr	r3, [sp, #20]
 8005b42:	2b00      	cmp	r3, #0
 8005b44:	dd05      	ble.n	8005b52 <_dtoa_r+0x82a>
 8005b46:	4631      	mov	r1, r6
 8005b48:	461a      	mov	r2, r3
 8005b4a:	4620      	mov	r0, r4
 8005b4c:	f000 fc1c 	bl	8006388 <__lshift>
 8005b50:	4606      	mov	r6, r0
 8005b52:	9b0b      	ldr	r3, [sp, #44]	; 0x2c
 8005b54:	2b00      	cmp	r3, #0
 8005b56:	d06e      	beq.n	8005c36 <_dtoa_r+0x90e>
 8005b58:	ee18 0a10 	vmov	r0, s16
 8005b5c:	4631      	mov	r1, r6
 8005b5e:	f000 fc83 	bl	8006468 <__mcmp>
 8005b62:	2800      	cmp	r0, #0
 8005b64:	da67      	bge.n	8005c36 <_dtoa_r+0x90e>
 8005b66:	9b00      	ldr	r3, [sp, #0]
 8005b68:	3b01      	subs	r3, #1
 8005b6a:	ee18 1a10 	vmov	r1, s16
 8005b6e:	9300      	str	r3, [sp, #0]
 8005b70:	220a      	movs	r2, #10
 8005b72:	2300      	movs	r3, #0
 8005b74:	4620      	mov	r0, r4
 8005b76:	f000 fa57 	bl	8006028 <__multadd>
 8005b7a:	9b08      	ldr	r3, [sp, #32]
 8005b7c:	ee08 0a10 	vmov	s16, r0
 8005b80:	2b00      	cmp	r3, #0
 8005b82:	f000 81b1 	beq.w	8005ee8 <_dtoa_r+0xbc0>
 8005b86:	2300      	movs	r3, #0
 8005b88:	4639      	mov	r1, r7
 8005b8a:	220a      	movs	r2, #10
 8005b8c:	4620      	mov	r0, r4
 8005b8e:	f000 fa4b 	bl	8006028 <__multadd>
 8005b92:	9b02      	ldr	r3, [sp, #8]
 8005b94:	2b00      	cmp	r3, #0
 8005b96:	4607      	mov	r7, r0
 8005b98:	f300 808e 	bgt.w	8005cb8 <_dtoa_r+0x990>
 8005b9c:	9b06      	ldr	r3, [sp, #24]
 8005b9e:	2b02      	cmp	r3, #2
 8005ba0:	dc51      	bgt.n	8005c46 <_dtoa_r+0x91e>
 8005ba2:	e089      	b.n	8005cb8 <_dtoa_r+0x990>
 8005ba4:	9b10      	ldr	r3, [sp, #64]	; 0x40
 8005ba6:	f1c3 0336 	rsb	r3, r3, #54	; 0x36
 8005baa:	e74b      	b.n	8005a44 <_dtoa_r+0x71c>
 8005bac:	9b03      	ldr	r3, [sp, #12]
 8005bae:	1e5e      	subs	r6, r3, #1
 8005bb0:	9b07      	ldr	r3, [sp, #28]
 8005bb2:	42b3      	cmp	r3, r6
 8005bb4:	bfbf      	itttt	lt
 8005bb6:	9b07      	ldrlt	r3, [sp, #28]
 8005bb8:	9607      	strlt	r6, [sp, #28]
 8005bba:	1af2      	sublt	r2, r6, r3
 8005bbc:	9b0a      	ldrlt	r3, [sp, #40]	; 0x28
 8005bbe:	bfb6      	itet	lt
 8005bc0:	189b      	addlt	r3, r3, r2
 8005bc2:	1b9e      	subge	r6, r3, r6
 8005bc4:	930a      	strlt	r3, [sp, #40]	; 0x28
 8005bc6:	9b03      	ldr	r3, [sp, #12]
 8005bc8:	bfb8      	it	lt
 8005bca:	2600      	movlt	r6, #0
 8005bcc:	2b00      	cmp	r3, #0
 8005bce:	bfb7      	itett	lt
 8005bd0:	e9dd 2303 	ldrdlt	r2, r3, [sp, #12]
 8005bd4:	e9dd 3503 	ldrdge	r3, r5, [sp, #12]
 8005bd8:	1a9d      	sublt	r5, r3, r2
 8005bda:	2300      	movlt	r3, #0
 8005bdc:	e734      	b.n	8005a48 <_dtoa_r+0x720>
 8005bde:	9e07      	ldr	r6, [sp, #28]
 8005be0:	9d04      	ldr	r5, [sp, #16]
 8005be2:	9f08      	ldr	r7, [sp, #32]
 8005be4:	e73b      	b.n	8005a5e <_dtoa_r+0x736>
 8005be6:	9a07      	ldr	r2, [sp, #28]
 8005be8:	e767      	b.n	8005aba <_dtoa_r+0x792>
 8005bea:	9b06      	ldr	r3, [sp, #24]
 8005bec:	2b01      	cmp	r3, #1
 8005bee:	dc18      	bgt.n	8005c22 <_dtoa_r+0x8fa>
 8005bf0:	f1ba 0f00 	cmp.w	sl, #0
 8005bf4:	d115      	bne.n	8005c22 <_dtoa_r+0x8fa>
 8005bf6:	f3cb 0313 	ubfx	r3, fp, #0, #20
 8005bfa:	b993      	cbnz	r3, 8005c22 <_dtoa_r+0x8fa>
 8005bfc:	f02b 4300 	bic.w	r3, fp, #2147483648	; 0x80000000
 8005c00:	0d1b      	lsrs	r3, r3, #20
 8005c02:	051b      	lsls	r3, r3, #20
 8005c04:	b183      	cbz	r3, 8005c28 <_dtoa_r+0x900>
 8005c06:	9b04      	ldr	r3, [sp, #16]
 8005c08:	3301      	adds	r3, #1
 8005c0a:	9304      	str	r3, [sp, #16]
 8005c0c:	9b05      	ldr	r3, [sp, #20]
 8005c0e:	3301      	adds	r3, #1
 8005c10:	9305      	str	r3, [sp, #20]
 8005c12:	f04f 0801 	mov.w	r8, #1
 8005c16:	9b0a      	ldr	r3, [sp, #40]	; 0x28
 8005c18:	2b00      	cmp	r3, #0
 8005c1a:	f47f af6a 	bne.w	8005af2 <_dtoa_r+0x7ca>
 8005c1e:	2001      	movs	r0, #1
 8005c20:	e76f      	b.n	8005b02 <_dtoa_r+0x7da>
 8005c22:	f04f 0800 	mov.w	r8, #0
 8005c26:	e7f6      	b.n	8005c16 <_dtoa_r+0x8ee>
 8005c28:	4698      	mov	r8, r3
 8005c2a:	e7f4      	b.n	8005c16 <_dtoa_r+0x8ee>
 8005c2c:	f43f af7d 	beq.w	8005b2a <_dtoa_r+0x802>
 8005c30:	4618      	mov	r0, r3
 8005c32:	301c      	adds	r0, #28
 8005c34:	e772      	b.n	8005b1c <_dtoa_r+0x7f4>
 8005c36:	9b03      	ldr	r3, [sp, #12]
 8005c38:	2b00      	cmp	r3, #0
 8005c3a:	dc37      	bgt.n	8005cac <_dtoa_r+0x984>
 8005c3c:	9b06      	ldr	r3, [sp, #24]
 8005c3e:	2b02      	cmp	r3, #2
 8005c40:	dd34      	ble.n	8005cac <_dtoa_r+0x984>
 8005c42:	9b03      	ldr	r3, [sp, #12]
 8005c44:	9302      	str	r3, [sp, #8]
 8005c46:	9b02      	ldr	r3, [sp, #8]
 8005c48:	b96b      	cbnz	r3, 8005c66 <_dtoa_r+0x93e>
 8005c4a:	4631      	mov	r1, r6
 8005c4c:	2205      	movs	r2, #5
 8005c4e:	4620      	mov	r0, r4
 8005c50:	f000 f9ea 	bl	8006028 <__multadd>
 8005c54:	4601      	mov	r1, r0
 8005c56:	4606      	mov	r6, r0
 8005c58:	ee18 0a10 	vmov	r0, s16
 8005c5c:	f000 fc04 	bl	8006468 <__mcmp>
 8005c60:	2800      	cmp	r0, #0
 8005c62:	f73f adbb 	bgt.w	80057dc <_dtoa_r+0x4b4>
 8005c66:	9b09      	ldr	r3, [sp, #36]	; 0x24
 8005c68:	9d01      	ldr	r5, [sp, #4]
 8005c6a:	43db      	mvns	r3, r3
 8005c6c:	9300      	str	r3, [sp, #0]
 8005c6e:	f04f 0800 	mov.w	r8, #0
 8005c72:	4631      	mov	r1, r6
 8005c74:	4620      	mov	r0, r4
 8005c76:	f000 f9b5 	bl	8005fe4 <_Bfree>
 8005c7a:	2f00      	cmp	r7, #0
 8005c7c:	f43f aea4 	beq.w	80059c8 <_dtoa_r+0x6a0>
 8005c80:	f1b8 0f00 	cmp.w	r8, #0
 8005c84:	d005      	beq.n	8005c92 <_dtoa_r+0x96a>
 8005c86:	45b8      	cmp	r8, r7
 8005c88:	d003      	beq.n	8005c92 <_dtoa_r+0x96a>
 8005c8a:	4641      	mov	r1, r8
 8005c8c:	4620      	mov	r0, r4
 8005c8e:	f000 f9a9 	bl	8005fe4 <_Bfree>
 8005c92:	4639      	mov	r1, r7
 8005c94:	4620      	mov	r0, r4
 8005c96:	f000 f9a5 	bl	8005fe4 <_Bfree>
 8005c9a:	e695      	b.n	80059c8 <_dtoa_r+0x6a0>
 8005c9c:	2600      	movs	r6, #0
 8005c9e:	4637      	mov	r7, r6
 8005ca0:	e7e1      	b.n	8005c66 <_dtoa_r+0x93e>
 8005ca2:	9700      	str	r7, [sp, #0]
 8005ca4:	4637      	mov	r7, r6
 8005ca6:	e599      	b.n	80057dc <_dtoa_r+0x4b4>
 8005ca8:	40240000 	.word	0x40240000
 8005cac:	9b08      	ldr	r3, [sp, #32]
 8005cae:	2b00      	cmp	r3, #0
 8005cb0:	f000 80ca 	beq.w	8005e48 <_dtoa_r+0xb20>
 8005cb4:	9b03      	ldr	r3, [sp, #12]
 8005cb6:	9302      	str	r3, [sp, #8]
 8005cb8:	2d00      	cmp	r5, #0
 8005cba:	dd05      	ble.n	8005cc8 <_dtoa_r+0x9a0>
 8005cbc:	4639      	mov	r1, r7
 8005cbe:	462a      	mov	r2, r5
 8005cc0:	4620      	mov	r0, r4
 8005cc2:	f000 fb61 	bl	8006388 <__lshift>
 8005cc6:	4607      	mov	r7, r0
 8005cc8:	f1b8 0f00 	cmp.w	r8, #0
 8005ccc:	d05b      	beq.n	8005d86 <_dtoa_r+0xa5e>
 8005cce:	6879      	ldr	r1, [r7, #4]
 8005cd0:	4620      	mov	r0, r4
 8005cd2:	f000 f947 	bl	8005f64 <_Balloc>
 8005cd6:	4605      	mov	r5, r0
 8005cd8:	b928      	cbnz	r0, 8005ce6 <_dtoa_r+0x9be>
 8005cda:	4b87      	ldr	r3, [pc, #540]	; (8005ef8 <_dtoa_r+0xbd0>)
 8005cdc:	4602      	mov	r2, r0
 8005cde:	f240 21ea 	movw	r1, #746	; 0x2ea
 8005ce2:	f7ff bb3b 	b.w	800535c <_dtoa_r+0x34>
 8005ce6:	693a      	ldr	r2, [r7, #16]
 8005ce8:	3202      	adds	r2, #2
 8005cea:	0092      	lsls	r2, r2, #2
 8005cec:	f107 010c 	add.w	r1, r7, #12
 8005cf0:	300c      	adds	r0, #12
 8005cf2:	f000 f91d 	bl	8005f30 <memcpy>
 8005cf6:	2201      	movs	r2, #1
 8005cf8:	4629      	mov	r1, r5
 8005cfa:	4620      	mov	r0, r4
 8005cfc:	f000 fb44 	bl	8006388 <__lshift>
 8005d00:	9b01      	ldr	r3, [sp, #4]
 8005d02:	f103 0901 	add.w	r9, r3, #1
 8005d06:	e9dd 2301 	ldrd	r2, r3, [sp, #4]
 8005d0a:	4413      	add	r3, r2
 8005d0c:	9305      	str	r3, [sp, #20]
 8005d0e:	f00a 0301 	and.w	r3, sl, #1
 8005d12:	46b8      	mov	r8, r7
 8005d14:	9304      	str	r3, [sp, #16]
 8005d16:	4607      	mov	r7, r0
 8005d18:	4631      	mov	r1, r6
 8005d1a:	ee18 0a10 	vmov	r0, s16
 8005d1e:	f7ff fa77 	bl	8005210 <quorem>
 8005d22:	4641      	mov	r1, r8
 8005d24:	9002      	str	r0, [sp, #8]
 8005d26:	f100 0a30 	add.w	sl, r0, #48	; 0x30
 8005d2a:	ee18 0a10 	vmov	r0, s16
 8005d2e:	f000 fb9b 	bl	8006468 <__mcmp>
 8005d32:	463a      	mov	r2, r7
 8005d34:	9003      	str	r0, [sp, #12]
 8005d36:	4631      	mov	r1, r6
 8005d38:	4620      	mov	r0, r4
 8005d3a:	f000 fbb1 	bl	80064a0 <__mdiff>
 8005d3e:	68c2      	ldr	r2, [r0, #12]
 8005d40:	f109 3bff 	add.w	fp, r9, #4294967295	; 0xffffffff
 8005d44:	4605      	mov	r5, r0
 8005d46:	bb02      	cbnz	r2, 8005d8a <_dtoa_r+0xa62>
 8005d48:	4601      	mov	r1, r0
 8005d4a:	ee18 0a10 	vmov	r0, s16
 8005d4e:	f000 fb8b 	bl	8006468 <__mcmp>
 8005d52:	4602      	mov	r2, r0
 8005d54:	4629      	mov	r1, r5
 8005d56:	4620      	mov	r0, r4
 8005d58:	9207      	str	r2, [sp, #28]
 8005d5a:	f000 f943 	bl	8005fe4 <_Bfree>
 8005d5e:	e9dd 3206 	ldrd	r3, r2, [sp, #24]
 8005d62:	ea43 0102 	orr.w	r1, r3, r2
 8005d66:	9b04      	ldr	r3, [sp, #16]
 8005d68:	430b      	orrs	r3, r1
 8005d6a:	464d      	mov	r5, r9
 8005d6c:	d10f      	bne.n	8005d8e <_dtoa_r+0xa66>
 8005d6e:	f1ba 0f39 	cmp.w	sl, #57	; 0x39
 8005d72:	d02a      	beq.n	8005dca <_dtoa_r+0xaa2>
 8005d74:	9b03      	ldr	r3, [sp, #12]
 8005d76:	2b00      	cmp	r3, #0
 8005d78:	dd02      	ble.n	8005d80 <_dtoa_r+0xa58>
 8005d7a:	9b02      	ldr	r3, [sp, #8]
 8005d7c:	f103 0a31 	add.w	sl, r3, #49	; 0x31
 8005d80:	f88b a000 	strb.w	sl, [fp]
 8005d84:	e775      	b.n	8005c72 <_dtoa_r+0x94a>
 8005d86:	4638      	mov	r0, r7
 8005d88:	e7ba      	b.n	8005d00 <_dtoa_r+0x9d8>
 8005d8a:	2201      	movs	r2, #1
 8005d8c:	e7e2      	b.n	8005d54 <_dtoa_r+0xa2c>
 8005d8e:	9b03      	ldr	r3, [sp, #12]
 8005d90:	2b00      	cmp	r3, #0
 8005d92:	db04      	blt.n	8005d9e <_dtoa_r+0xa76>
 8005d94:	9906      	ldr	r1, [sp, #24]
 8005d96:	430b      	orrs	r3, r1
 8005d98:	9904      	ldr	r1, [sp, #16]
 8005d9a:	430b      	orrs	r3, r1
 8005d9c:	d122      	bne.n	8005de4 <_dtoa_r+0xabc>
 8005d9e:	2a00      	cmp	r2, #0
 8005da0:	ddee      	ble.n	8005d80 <_dtoa_r+0xa58>
 8005da2:	ee18 1a10 	vmov	r1, s16
 8005da6:	2201      	movs	r2, #1
 8005da8:	4620      	mov	r0, r4
 8005daa:	f000 faed 	bl	8006388 <__lshift>
 8005dae:	4631      	mov	r1, r6
 8005db0:	ee08 0a10 	vmov	s16, r0
 8005db4:	f000 fb58 	bl	8006468 <__mcmp>
 8005db8:	2800      	cmp	r0, #0
 8005dba:	dc03      	bgt.n	8005dc4 <_dtoa_r+0xa9c>
 8005dbc:	d1e0      	bne.n	8005d80 <_dtoa_r+0xa58>
 8005dbe:	f01a 0f01 	tst.w	sl, #1
 8005dc2:	d0dd      	beq.n	8005d80 <_dtoa_r+0xa58>
 8005dc4:	f1ba 0f39 	cmp.w	sl, #57	; 0x39
 8005dc8:	d1d7      	bne.n	8005d7a <_dtoa_r+0xa52>
 8005dca:	2339      	movs	r3, #57	; 0x39
 8005dcc:	f88b 3000 	strb.w	r3, [fp]
 8005dd0:	462b      	mov	r3, r5
 8005dd2:	461d      	mov	r5, r3
 8005dd4:	3b01      	subs	r3, #1
 8005dd6:	f815 2c01 	ldrb.w	r2, [r5, #-1]
 8005dda:	2a39      	cmp	r2, #57	; 0x39
 8005ddc:	d071      	beq.n	8005ec2 <_dtoa_r+0xb9a>
 8005dde:	3201      	adds	r2, #1
 8005de0:	701a      	strb	r2, [r3, #0]
 8005de2:	e746      	b.n	8005c72 <_dtoa_r+0x94a>
 8005de4:	2a00      	cmp	r2, #0
 8005de6:	dd07      	ble.n	8005df8 <_dtoa_r+0xad0>
 8005de8:	f1ba 0f39 	cmp.w	sl, #57	; 0x39
 8005dec:	d0ed      	beq.n	8005dca <_dtoa_r+0xaa2>
 8005dee:	f10a 0301 	add.w	r3, sl, #1
 8005df2:	f88b 3000 	strb.w	r3, [fp]
 8005df6:	e73c      	b.n	8005c72 <_dtoa_r+0x94a>
 8005df8:	9b05      	ldr	r3, [sp, #20]
 8005dfa:	f809 ac01 	strb.w	sl, [r9, #-1]
 8005dfe:	4599      	cmp	r9, r3
 8005e00:	d047      	beq.n	8005e92 <_dtoa_r+0xb6a>
 8005e02:	ee18 1a10 	vmov	r1, s16
 8005e06:	2300      	movs	r3, #0
 8005e08:	220a      	movs	r2, #10
 8005e0a:	4620      	mov	r0, r4
 8005e0c:	f000 f90c 	bl	8006028 <__multadd>
 8005e10:	45b8      	cmp	r8, r7
 8005e12:	ee08 0a10 	vmov	s16, r0
 8005e16:	f04f 0300 	mov.w	r3, #0
 8005e1a:	f04f 020a 	mov.w	r2, #10
 8005e1e:	4641      	mov	r1, r8
 8005e20:	4620      	mov	r0, r4
 8005e22:	d106      	bne.n	8005e32 <_dtoa_r+0xb0a>
 8005e24:	f000 f900 	bl	8006028 <__multadd>
 8005e28:	4680      	mov	r8, r0
 8005e2a:	4607      	mov	r7, r0
 8005e2c:	f109 0901 	add.w	r9, r9, #1
 8005e30:	e772      	b.n	8005d18 <_dtoa_r+0x9f0>
 8005e32:	f000 f8f9 	bl	8006028 <__multadd>
 8005e36:	4639      	mov	r1, r7
 8005e38:	4680      	mov	r8, r0
 8005e3a:	2300      	movs	r3, #0
 8005e3c:	220a      	movs	r2, #10
 8005e3e:	4620      	mov	r0, r4
 8005e40:	f000 f8f2 	bl	8006028 <__multadd>
 8005e44:	4607      	mov	r7, r0
 8005e46:	e7f1      	b.n	8005e2c <_dtoa_r+0xb04>
 8005e48:	9b03      	ldr	r3, [sp, #12]
 8005e4a:	9302      	str	r3, [sp, #8]
 8005e4c:	9d01      	ldr	r5, [sp, #4]
 8005e4e:	ee18 0a10 	vmov	r0, s16
 8005e52:	4631      	mov	r1, r6
 8005e54:	f7ff f9dc 	bl	8005210 <quorem>
 8005e58:	f100 0a30 	add.w	sl, r0, #48	; 0x30
 8005e5c:	9b01      	ldr	r3, [sp, #4]
 8005e5e:	f805 ab01 	strb.w	sl, [r5], #1
 8005e62:	1aea      	subs	r2, r5, r3
 8005e64:	9b02      	ldr	r3, [sp, #8]
 8005e66:	4293      	cmp	r3, r2
 8005e68:	dd09      	ble.n	8005e7e <_dtoa_r+0xb56>
 8005e6a:	ee18 1a10 	vmov	r1, s16
 8005e6e:	2300      	movs	r3, #0
 8005e70:	220a      	movs	r2, #10
 8005e72:	4620      	mov	r0, r4
 8005e74:	f000 f8d8 	bl	8006028 <__multadd>
 8005e78:	ee08 0a10 	vmov	s16, r0
 8005e7c:	e7e7      	b.n	8005e4e <_dtoa_r+0xb26>
 8005e7e:	9b02      	ldr	r3, [sp, #8]
 8005e80:	2b00      	cmp	r3, #0
 8005e82:	bfc8      	it	gt
 8005e84:	461d      	movgt	r5, r3
 8005e86:	9b01      	ldr	r3, [sp, #4]
 8005e88:	bfd8      	it	le
 8005e8a:	2501      	movle	r5, #1
 8005e8c:	441d      	add	r5, r3
 8005e8e:	f04f 0800 	mov.w	r8, #0
 8005e92:	ee18 1a10 	vmov	r1, s16
 8005e96:	2201      	movs	r2, #1
 8005e98:	4620      	mov	r0, r4
 8005e9a:	f000 fa75 	bl	8006388 <__lshift>
 8005e9e:	4631      	mov	r1, r6
 8005ea0:	ee08 0a10 	vmov	s16, r0
 8005ea4:	f000 fae0 	bl	8006468 <__mcmp>
 8005ea8:	2800      	cmp	r0, #0
 8005eaa:	dc91      	bgt.n	8005dd0 <_dtoa_r+0xaa8>
 8005eac:	d102      	bne.n	8005eb4 <_dtoa_r+0xb8c>
 8005eae:	f01a 0f01 	tst.w	sl, #1
 8005eb2:	d18d      	bne.n	8005dd0 <_dtoa_r+0xaa8>
 8005eb4:	462b      	mov	r3, r5
 8005eb6:	461d      	mov	r5, r3
 8005eb8:	f813 2d01 	ldrb.w	r2, [r3, #-1]!
 8005ebc:	2a30      	cmp	r2, #48	; 0x30
 8005ebe:	d0fa      	beq.n	8005eb6 <_dtoa_r+0xb8e>
 8005ec0:	e6d7      	b.n	8005c72 <_dtoa_r+0x94a>
 8005ec2:	9a01      	ldr	r2, [sp, #4]
 8005ec4:	429a      	cmp	r2, r3
 8005ec6:	d184      	bne.n	8005dd2 <_dtoa_r+0xaaa>
 8005ec8:	9b00      	ldr	r3, [sp, #0]
 8005eca:	3301      	adds	r3, #1
 8005ecc:	9300      	str	r3, [sp, #0]
 8005ece:	2331      	movs	r3, #49	; 0x31
 8005ed0:	7013      	strb	r3, [r2, #0]
 8005ed2:	e6ce      	b.n	8005c72 <_dtoa_r+0x94a>
 8005ed4:	4b09      	ldr	r3, [pc, #36]	; (8005efc <_dtoa_r+0xbd4>)
 8005ed6:	f7ff ba95 	b.w	8005404 <_dtoa_r+0xdc>
 8005eda:	9b21      	ldr	r3, [sp, #132]	; 0x84
 8005edc:	2b00      	cmp	r3, #0
 8005ede:	f47f aa6e 	bne.w	80053be <_dtoa_r+0x96>
 8005ee2:	4b07      	ldr	r3, [pc, #28]	; (8005f00 <_dtoa_r+0xbd8>)
 8005ee4:	f7ff ba8e 	b.w	8005404 <_dtoa_r+0xdc>
 8005ee8:	9b02      	ldr	r3, [sp, #8]
 8005eea:	2b00      	cmp	r3, #0
 8005eec:	dcae      	bgt.n	8005e4c <_dtoa_r+0xb24>
 8005eee:	9b06      	ldr	r3, [sp, #24]
 8005ef0:	2b02      	cmp	r3, #2
 8005ef2:	f73f aea8 	bgt.w	8005c46 <_dtoa_r+0x91e>
 8005ef6:	e7a9      	b.n	8005e4c <_dtoa_r+0xb24>
 8005ef8:	08008ec9 	.word	0x08008ec9
 8005efc:	08009049 	.word	0x08009049
 8005f00:	08008e4a 	.word	0x08008e4a

08005f04 <_localeconv_r>:
 8005f04:	4800      	ldr	r0, [pc, #0]	; (8005f08 <_localeconv_r+0x4>)
 8005f06:	4770      	bx	lr
 8005f08:	2000015c 	.word	0x2000015c

08005f0c <_lseek_r>:
 8005f0c:	b538      	push	{r3, r4, r5, lr}
 8005f0e:	4d07      	ldr	r5, [pc, #28]	; (8005f2c <_lseek_r+0x20>)
 8005f10:	4604      	mov	r4, r0
 8005f12:	4608      	mov	r0, r1
 8005f14:	4611      	mov	r1, r2
 8005f16:	2200      	movs	r2, #0
 8005f18:	602a      	str	r2, [r5, #0]
 8005f1a:	461a      	mov	r2, r3
 8005f1c:	f7fb f97e 	bl	800121c <_lseek>
 8005f20:	1c43      	adds	r3, r0, #1
 8005f22:	d102      	bne.n	8005f2a <_lseek_r+0x1e>
 8005f24:	682b      	ldr	r3, [r5, #0]
 8005f26:	b103      	cbz	r3, 8005f2a <_lseek_r+0x1e>
 8005f28:	6023      	str	r3, [r4, #0]
 8005f2a:	bd38      	pop	{r3, r4, r5, pc}
 8005f2c:	20011a94 	.word	0x20011a94

08005f30 <memcpy>:
 8005f30:	440a      	add	r2, r1
 8005f32:	4291      	cmp	r1, r2
 8005f34:	f100 33ff 	add.w	r3, r0, #4294967295	; 0xffffffff
 8005f38:	d100      	bne.n	8005f3c <memcpy+0xc>
 8005f3a:	4770      	bx	lr
 8005f3c:	b510      	push	{r4, lr}
 8005f3e:	f811 4b01 	ldrb.w	r4, [r1], #1
 8005f42:	f803 4f01 	strb.w	r4, [r3, #1]!
 8005f46:	4291      	cmp	r1, r2
 8005f48:	d1f9      	bne.n	8005f3e <memcpy+0xe>
 8005f4a:	bd10      	pop	{r4, pc}

08005f4c <__malloc_lock>:
 8005f4c:	4801      	ldr	r0, [pc, #4]	; (8005f54 <__malloc_lock+0x8>)
 8005f4e:	f001 bb87 	b.w	8007660 <__retarget_lock_acquire_recursive>
 8005f52:	bf00      	nop
 8005f54:	20011a98 	.word	0x20011a98

08005f58 <__malloc_unlock>:
 8005f58:	4801      	ldr	r0, [pc, #4]	; (8005f60 <__malloc_unlock+0x8>)
 8005f5a:	f001 bb82 	b.w	8007662 <__retarget_lock_release_recursive>
 8005f5e:	bf00      	nop
 8005f60:	20011a98 	.word	0x20011a98

08005f64 <_Balloc>:
 8005f64:	b570      	push	{r4, r5, r6, lr}
 8005f66:	6a46      	ldr	r6, [r0, #36]	; 0x24
 8005f68:	4604      	mov	r4, r0
 8005f6a:	460d      	mov	r5, r1
 8005f6c:	b976      	cbnz	r6, 8005f8c <_Balloc+0x28>
 8005f6e:	2010      	movs	r0, #16
 8005f70:	f7fe fb30 	bl	80045d4 <malloc>
 8005f74:	4602      	mov	r2, r0
 8005f76:	6260      	str	r0, [r4, #36]	; 0x24
 8005f78:	b920      	cbnz	r0, 8005f84 <_Balloc+0x20>
 8005f7a:	4b18      	ldr	r3, [pc, #96]	; (8005fdc <_Balloc+0x78>)
 8005f7c:	4818      	ldr	r0, [pc, #96]	; (8005fe0 <_Balloc+0x7c>)
 8005f7e:	2166      	movs	r1, #102	; 0x66
 8005f80:	f001 f986 	bl	8007290 <__assert_func>
 8005f84:	e9c0 6601 	strd	r6, r6, [r0, #4]
 8005f88:	6006      	str	r6, [r0, #0]
 8005f8a:	60c6      	str	r6, [r0, #12]
 8005f8c:	6a66      	ldr	r6, [r4, #36]	; 0x24
 8005f8e:	68f3      	ldr	r3, [r6, #12]
 8005f90:	b183      	cbz	r3, 8005fb4 <_Balloc+0x50>
 8005f92:	6a63      	ldr	r3, [r4, #36]	; 0x24
 8005f94:	68db      	ldr	r3, [r3, #12]
 8005f96:	f853 0025 	ldr.w	r0, [r3, r5, lsl #2]
 8005f9a:	b9b8      	cbnz	r0, 8005fcc <_Balloc+0x68>
 8005f9c:	2101      	movs	r1, #1
 8005f9e:	fa01 f605 	lsl.w	r6, r1, r5
 8005fa2:	1d72      	adds	r2, r6, #5
 8005fa4:	0092      	lsls	r2, r2, #2
 8005fa6:	4620      	mov	r0, r4
 8005fa8:	f000 fb60 	bl	800666c <_calloc_r>
 8005fac:	b160      	cbz	r0, 8005fc8 <_Balloc+0x64>
 8005fae:	e9c0 5601 	strd	r5, r6, [r0, #4]
 8005fb2:	e00e      	b.n	8005fd2 <_Balloc+0x6e>
 8005fb4:	2221      	movs	r2, #33	; 0x21
 8005fb6:	2104      	movs	r1, #4
 8005fb8:	4620      	mov	r0, r4
 8005fba:	f000 fb57 	bl	800666c <_calloc_r>
 8005fbe:	6a63      	ldr	r3, [r4, #36]	; 0x24
 8005fc0:	60f0      	str	r0, [r6, #12]
 8005fc2:	68db      	ldr	r3, [r3, #12]
 8005fc4:	2b00      	cmp	r3, #0
 8005fc6:	d1e4      	bne.n	8005f92 <_Balloc+0x2e>
 8005fc8:	2000      	movs	r0, #0
 8005fca:	bd70      	pop	{r4, r5, r6, pc}
 8005fcc:	6802      	ldr	r2, [r0, #0]
 8005fce:	f843 2025 	str.w	r2, [r3, r5, lsl #2]
 8005fd2:	2300      	movs	r3, #0
 8005fd4:	e9c0 3303 	strd	r3, r3, [r0, #12]
 8005fd8:	e7f7      	b.n	8005fca <_Balloc+0x66>
 8005fda:	bf00      	nop
 8005fdc:	08008e57 	.word	0x08008e57
 8005fe0:	08008eda 	.word	0x08008eda

08005fe4 <_Bfree>:
 8005fe4:	b570      	push	{r4, r5, r6, lr}
 8005fe6:	6a46      	ldr	r6, [r0, #36]	; 0x24
 8005fe8:	4605      	mov	r5, r0
 8005fea:	460c      	mov	r4, r1
 8005fec:	b976      	cbnz	r6, 800600c <_Bfree+0x28>
 8005fee:	2010      	movs	r0, #16
 8005ff0:	f7fe faf0 	bl	80045d4 <malloc>
 8005ff4:	4602      	mov	r2, r0
 8005ff6:	6268      	str	r0, [r5, #36]	; 0x24
 8005ff8:	b920      	cbnz	r0, 8006004 <_Bfree+0x20>
 8005ffa:	4b09      	ldr	r3, [pc, #36]	; (8006020 <_Bfree+0x3c>)
 8005ffc:	4809      	ldr	r0, [pc, #36]	; (8006024 <_Bfree+0x40>)
 8005ffe:	218a      	movs	r1, #138	; 0x8a
 8006000:	f001 f946 	bl	8007290 <__assert_func>
 8006004:	e9c0 6601 	strd	r6, r6, [r0, #4]
 8006008:	6006      	str	r6, [r0, #0]
 800600a:	60c6      	str	r6, [r0, #12]
 800600c:	b13c      	cbz	r4, 800601e <_Bfree+0x3a>
 800600e:	6a6b      	ldr	r3, [r5, #36]	; 0x24
 8006010:	6862      	ldr	r2, [r4, #4]
 8006012:	68db      	ldr	r3, [r3, #12]
 8006014:	f853 1022 	ldr.w	r1, [r3, r2, lsl #2]
 8006018:	6021      	str	r1, [r4, #0]
 800601a:	f843 4022 	str.w	r4, [r3, r2, lsl #2]
 800601e:	bd70      	pop	{r4, r5, r6, pc}
 8006020:	08008e57 	.word	0x08008e57
 8006024:	08008eda 	.word	0x08008eda

08006028 <__multadd>:
 8006028:	e92d 41f0 	stmdb	sp!, {r4, r5, r6, r7, r8, lr}
 800602c:	690d      	ldr	r5, [r1, #16]
 800602e:	4607      	mov	r7, r0
 8006030:	460c      	mov	r4, r1
 8006032:	461e      	mov	r6, r3
 8006034:	f101 0c14 	add.w	ip, r1, #20
 8006038:	2000      	movs	r0, #0
 800603a:	f8dc 3000 	ldr.w	r3, [ip]
 800603e:	b299      	uxth	r1, r3
 8006040:	fb02 6101 	mla	r1, r2, r1, r6
 8006044:	0c1e      	lsrs	r6, r3, #16
 8006046:	0c0b      	lsrs	r3, r1, #16
 8006048:	fb02 3306 	mla	r3, r2, r6, r3
 800604c:	b289      	uxth	r1, r1
 800604e:	3001      	adds	r0, #1
 8006050:	eb01 4103 	add.w	r1, r1, r3, lsl #16
 8006054:	4285      	cmp	r5, r0
 8006056:	f84c 1b04 	str.w	r1, [ip], #4
 800605a:	ea4f 4613 	mov.w	r6, r3, lsr #16
 800605e:	dcec      	bgt.n	800603a <__multadd+0x12>
 8006060:	b30e      	cbz	r6, 80060a6 <__multadd+0x7e>
 8006062:	68a3      	ldr	r3, [r4, #8]
 8006064:	42ab      	cmp	r3, r5
 8006066:	dc19      	bgt.n	800609c <__multadd+0x74>
 8006068:	6861      	ldr	r1, [r4, #4]
 800606a:	4638      	mov	r0, r7
 800606c:	3101      	adds	r1, #1
 800606e:	f7ff ff79 	bl	8005f64 <_Balloc>
 8006072:	4680      	mov	r8, r0
 8006074:	b928      	cbnz	r0, 8006082 <__multadd+0x5a>
 8006076:	4602      	mov	r2, r0
 8006078:	4b0c      	ldr	r3, [pc, #48]	; (80060ac <__multadd+0x84>)
 800607a:	480d      	ldr	r0, [pc, #52]	; (80060b0 <__multadd+0x88>)
 800607c:	21b5      	movs	r1, #181	; 0xb5
 800607e:	f001 f907 	bl	8007290 <__assert_func>
 8006082:	6922      	ldr	r2, [r4, #16]
 8006084:	3202      	adds	r2, #2
 8006086:	f104 010c 	add.w	r1, r4, #12
 800608a:	0092      	lsls	r2, r2, #2
 800608c:	300c      	adds	r0, #12
 800608e:	f7ff ff4f 	bl	8005f30 <memcpy>
 8006092:	4621      	mov	r1, r4
 8006094:	4638      	mov	r0, r7
 8006096:	f7ff ffa5 	bl	8005fe4 <_Bfree>
 800609a:	4644      	mov	r4, r8
 800609c:	eb04 0385 	add.w	r3, r4, r5, lsl #2
 80060a0:	3501      	adds	r5, #1
 80060a2:	615e      	str	r6, [r3, #20]
 80060a4:	6125      	str	r5, [r4, #16]
 80060a6:	4620      	mov	r0, r4
 80060a8:	e8bd 81f0 	ldmia.w	sp!, {r4, r5, r6, r7, r8, pc}
 80060ac:	08008ec9 	.word	0x08008ec9
 80060b0:	08008eda 	.word	0x08008eda

080060b4 <__hi0bits>:
 80060b4:	0c03      	lsrs	r3, r0, #16
 80060b6:	041b      	lsls	r3, r3, #16
 80060b8:	b9d3      	cbnz	r3, 80060f0 <__hi0bits+0x3c>
 80060ba:	0400      	lsls	r0, r0, #16
 80060bc:	2310      	movs	r3, #16
 80060be:	f010 4f7f 	tst.w	r0, #4278190080	; 0xff000000
 80060c2:	bf04      	itt	eq
 80060c4:	0200      	lsleq	r0, r0, #8
 80060c6:	3308      	addeq	r3, #8
 80060c8:	f010 4f70 	tst.w	r0, #4026531840	; 0xf0000000
 80060cc:	bf04      	itt	eq
 80060ce:	0100      	lsleq	r0, r0, #4
 80060d0:	3304      	addeq	r3, #4
 80060d2:	f010 4f40 	tst.w	r0, #3221225472	; 0xc0000000
 80060d6:	bf04      	itt	eq
 80060d8:	0080      	lsleq	r0, r0, #2
 80060da:	3302      	addeq	r3, #2
 80060dc:	2800      	cmp	r0, #0
 80060de:	db05      	blt.n	80060ec <__hi0bits+0x38>
 80060e0:	f010 4f80 	tst.w	r0, #1073741824	; 0x40000000
 80060e4:	f103 0301 	add.w	r3, r3, #1
 80060e8:	bf08      	it	eq
 80060ea:	2320      	moveq	r3, #32
 80060ec:	4618      	mov	r0, r3
 80060ee:	4770      	bx	lr
 80060f0:	2300      	movs	r3, #0
 80060f2:	e7e4      	b.n	80060be <__hi0bits+0xa>

080060f4 <__lo0bits>:
 80060f4:	6803      	ldr	r3, [r0, #0]
 80060f6:	f013 0207 	ands.w	r2, r3, #7
 80060fa:	4601      	mov	r1, r0
 80060fc:	d00b      	beq.n	8006116 <__lo0bits+0x22>
 80060fe:	07da      	lsls	r2, r3, #31
 8006100:	d423      	bmi.n	800614a <__lo0bits+0x56>
 8006102:	0798      	lsls	r0, r3, #30
 8006104:	bf49      	itett	mi
 8006106:	085b      	lsrmi	r3, r3, #1
 8006108:	089b      	lsrpl	r3, r3, #2
 800610a:	2001      	movmi	r0, #1
 800610c:	600b      	strmi	r3, [r1, #0]
 800610e:	bf5c      	itt	pl
 8006110:	600b      	strpl	r3, [r1, #0]
 8006112:	2002      	movpl	r0, #2
 8006114:	4770      	bx	lr
 8006116:	b298      	uxth	r0, r3
 8006118:	b9a8      	cbnz	r0, 8006146 <__lo0bits+0x52>
 800611a:	0c1b      	lsrs	r3, r3, #16
 800611c:	2010      	movs	r0, #16
 800611e:	b2da      	uxtb	r2, r3
 8006120:	b90a      	cbnz	r2, 8006126 <__lo0bits+0x32>
 8006122:	3008      	adds	r0, #8
 8006124:	0a1b      	lsrs	r3, r3, #8
 8006126:	071a      	lsls	r2, r3, #28
 8006128:	bf04      	itt	eq
 800612a:	091b      	lsreq	r3, r3, #4
 800612c:	3004      	addeq	r0, #4
 800612e:	079a      	lsls	r2, r3, #30
 8006130:	bf04      	itt	eq
 8006132:	089b      	lsreq	r3, r3, #2
 8006134:	3002      	addeq	r0, #2
 8006136:	07da      	lsls	r2, r3, #31
 8006138:	d403      	bmi.n	8006142 <__lo0bits+0x4e>
 800613a:	085b      	lsrs	r3, r3, #1
 800613c:	f100 0001 	add.w	r0, r0, #1
 8006140:	d005      	beq.n	800614e <__lo0bits+0x5a>
 8006142:	600b      	str	r3, [r1, #0]
 8006144:	4770      	bx	lr
 8006146:	4610      	mov	r0, r2
 8006148:	e7e9      	b.n	800611e <__lo0bits+0x2a>
 800614a:	2000      	movs	r0, #0
 800614c:	4770      	bx	lr
 800614e:	2020      	movs	r0, #32
 8006150:	4770      	bx	lr
	...

08006154 <__i2b>:
 8006154:	b510      	push	{r4, lr}
 8006156:	460c      	mov	r4, r1
 8006158:	2101      	movs	r1, #1
 800615a:	f7ff ff03 	bl	8005f64 <_Balloc>
 800615e:	4602      	mov	r2, r0
 8006160:	b928      	cbnz	r0, 800616e <__i2b+0x1a>
 8006162:	4b05      	ldr	r3, [pc, #20]	; (8006178 <__i2b+0x24>)
 8006164:	4805      	ldr	r0, [pc, #20]	; (800617c <__i2b+0x28>)
 8006166:	f44f 71a0 	mov.w	r1, #320	; 0x140
 800616a:	f001 f891 	bl	8007290 <__assert_func>
 800616e:	2301      	movs	r3, #1
 8006170:	6144      	str	r4, [r0, #20]
 8006172:	6103      	str	r3, [r0, #16]
 8006174:	bd10      	pop	{r4, pc}
 8006176:	bf00      	nop
 8006178:	08008ec9 	.word	0x08008ec9
 800617c:	08008eda 	.word	0x08008eda

08006180 <__multiply>:
 8006180:	e92d 4ff0 	stmdb	sp!, {r4, r5, r6, r7, r8, r9, sl, fp, lr}
 8006184:	4691      	mov	r9, r2
 8006186:	690a      	ldr	r2, [r1, #16]
 8006188:	f8d9 3010 	ldr.w	r3, [r9, #16]
 800618c:	429a      	cmp	r2, r3
 800618e:	bfb8      	it	lt
 8006190:	460b      	movlt	r3, r1
 8006192:	460c      	mov	r4, r1
 8006194:	bfbc      	itt	lt
 8006196:	464c      	movlt	r4, r9
 8006198:	4699      	movlt	r9, r3
 800619a:	6927      	ldr	r7, [r4, #16]
 800619c:	f8d9 a010 	ldr.w	sl, [r9, #16]
 80061a0:	68a3      	ldr	r3, [r4, #8]
 80061a2:	6861      	ldr	r1, [r4, #4]
 80061a4:	eb07 060a 	add.w	r6, r7, sl
 80061a8:	42b3      	cmp	r3, r6
 80061aa:	b085      	sub	sp, #20
 80061ac:	bfb8      	it	lt
 80061ae:	3101      	addlt	r1, #1
 80061b0:	f7ff fed8 	bl	8005f64 <_Balloc>
 80061b4:	b930      	cbnz	r0, 80061c4 <__multiply+0x44>
 80061b6:	4602      	mov	r2, r0
 80061b8:	4b44      	ldr	r3, [pc, #272]	; (80062cc <__multiply+0x14c>)
 80061ba:	4845      	ldr	r0, [pc, #276]	; (80062d0 <__multiply+0x150>)
 80061bc:	f240 115d 	movw	r1, #349	; 0x15d
 80061c0:	f001 f866 	bl	8007290 <__assert_func>
 80061c4:	f100 0514 	add.w	r5, r0, #20
 80061c8:	eb05 0886 	add.w	r8, r5, r6, lsl #2
 80061cc:	462b      	mov	r3, r5
 80061ce:	2200      	movs	r2, #0
 80061d0:	4543      	cmp	r3, r8
 80061d2:	d321      	bcc.n	8006218 <__multiply+0x98>
 80061d4:	f104 0314 	add.w	r3, r4, #20
 80061d8:	eb03 0787 	add.w	r7, r3, r7, lsl #2
 80061dc:	f109 0314 	add.w	r3, r9, #20
 80061e0:	eb03 028a 	add.w	r2, r3, sl, lsl #2
 80061e4:	9202      	str	r2, [sp, #8]
 80061e6:	1b3a      	subs	r2, r7, r4
 80061e8:	3a15      	subs	r2, #21
 80061ea:	f022 0203 	bic.w	r2, r2, #3
 80061ee:	3204      	adds	r2, #4
 80061f0:	f104 0115 	add.w	r1, r4, #21
 80061f4:	428f      	cmp	r7, r1
 80061f6:	bf38      	it	cc
 80061f8:	2204      	movcc	r2, #4
 80061fa:	9201      	str	r2, [sp, #4]
 80061fc:	9a02      	ldr	r2, [sp, #8]
 80061fe:	9303      	str	r3, [sp, #12]
 8006200:	429a      	cmp	r2, r3
 8006202:	d80c      	bhi.n	800621e <__multiply+0x9e>
 8006204:	2e00      	cmp	r6, #0
 8006206:	dd03      	ble.n	8006210 <__multiply+0x90>
 8006208:	f858 3d04 	ldr.w	r3, [r8, #-4]!
 800620c:	2b00      	cmp	r3, #0
 800620e:	d05a      	beq.n	80062c6 <__multiply+0x146>
 8006210:	6106      	str	r6, [r0, #16]
 8006212:	b005      	add	sp, #20
 8006214:	e8bd 8ff0 	ldmia.w	sp!, {r4, r5, r6, r7, r8, r9, sl, fp, pc}
 8006218:	f843 2b04 	str.w	r2, [r3], #4
 800621c:	e7d8      	b.n	80061d0 <__multiply+0x50>
 800621e:	f8b3 a000 	ldrh.w	sl, [r3]
 8006222:	f1ba 0f00 	cmp.w	sl, #0
 8006226:	d024      	beq.n	8006272 <__multiply+0xf2>
 8006228:	f104 0e14 	add.w	lr, r4, #20
 800622c:	46a9      	mov	r9, r5
 800622e:	f04f 0c00 	mov.w	ip, #0
 8006232:	f85e 2b04 	ldr.w	r2, [lr], #4
 8006236:	f8d9 1000 	ldr.w	r1, [r9]
 800623a:	fa1f fb82 	uxth.w	fp, r2
 800623e:	b289      	uxth	r1, r1
 8006240:	fb0a 110b 	mla	r1, sl, fp, r1
 8006244:	ea4f 4b12 	mov.w	fp, r2, lsr #16
 8006248:	f8d9 2000 	ldr.w	r2, [r9]
 800624c:	4461      	add	r1, ip
 800624e:	ea4f 4c12 	mov.w	ip, r2, lsr #16
 8006252:	fb0a c20b 	mla	r2, sl, fp, ip
 8006256:	eb02 4211 	add.w	r2, r2, r1, lsr #16
 800625a:	b289      	uxth	r1, r1
 800625c:	ea41 4102 	orr.w	r1, r1, r2, lsl #16
 8006260:	4577      	cmp	r7, lr
 8006262:	f849 1b04 	str.w	r1, [r9], #4
 8006266:	ea4f 4c12 	mov.w	ip, r2, lsr #16
 800626a:	d8e2      	bhi.n	8006232 <__multiply+0xb2>
 800626c:	9a01      	ldr	r2, [sp, #4]
 800626e:	f845 c002 	str.w	ip, [r5, r2]
 8006272:	9a03      	ldr	r2, [sp, #12]
 8006274:	f8b2 9002 	ldrh.w	r9, [r2, #2]
 8006278:	3304      	adds	r3, #4
 800627a:	f1b9 0f00 	cmp.w	r9, #0
 800627e:	d020      	beq.n	80062c2 <__multiply+0x142>
 8006280:	6829      	ldr	r1, [r5, #0]
 8006282:	f104 0c14 	add.w	ip, r4, #20
 8006286:	46ae      	mov	lr, r5
 8006288:	f04f 0a00 	mov.w	sl, #0
 800628c:	f8bc b000 	ldrh.w	fp, [ip]
 8006290:	f8be 2002 	ldrh.w	r2, [lr, #2]
 8006294:	fb09 220b 	mla	r2, r9, fp, r2
 8006298:	4492      	add	sl, r2
 800629a:	b289      	uxth	r1, r1
 800629c:	ea41 410a 	orr.w	r1, r1, sl, lsl #16
 80062a0:	f84e 1b04 	str.w	r1, [lr], #4
 80062a4:	f85c 2b04 	ldr.w	r2, [ip], #4
 80062a8:	f8be 1000 	ldrh.w	r1, [lr]
 80062ac:	0c12      	lsrs	r2, r2, #16
 80062ae:	fb09 1102 	mla	r1, r9, r2, r1
 80062b2:	eb01 411a 	add.w	r1, r1, sl, lsr #16
 80062b6:	4567      	cmp	r7, ip
 80062b8:	ea4f 4a11 	mov.w	sl, r1, lsr #16
 80062bc:	d8e6      	bhi.n	800628c <__multiply+0x10c>
 80062be:	9a01      	ldr	r2, [sp, #4]
 80062c0:	50a9      	str	r1, [r5, r2]
 80062c2:	3504      	adds	r5, #4
 80062c4:	e79a      	b.n	80061fc <__multiply+0x7c>
 80062c6:	3e01      	subs	r6, #1
 80062c8:	e79c      	b.n	8006204 <__multiply+0x84>
 80062ca:	bf00      	nop
 80062cc:	08008ec9 	.word	0x08008ec9
 80062d0:	08008eda 	.word	0x08008eda

080062d4 <__pow5mult>:
 80062d4:	e92d 43f8 	stmdb	sp!, {r3, r4, r5, r6, r7, r8, r9, lr}
 80062d8:	4615      	mov	r5, r2
 80062da:	f012 0203 	ands.w	r2, r2, #3
 80062de:	4606      	mov	r6, r0
 80062e0:	460f      	mov	r7, r1
 80062e2:	d007      	beq.n	80062f4 <__pow5mult+0x20>
 80062e4:	4c25      	ldr	r4, [pc, #148]	; (800637c <__pow5mult+0xa8>)
 80062e6:	3a01      	subs	r2, #1
 80062e8:	2300      	movs	r3, #0
 80062ea:	f854 2022 	ldr.w	r2, [r4, r2, lsl #2]
 80062ee:	f7ff fe9b 	bl	8006028 <__multadd>
 80062f2:	4607      	mov	r7, r0
 80062f4:	10ad      	asrs	r5, r5, #2
 80062f6:	d03d      	beq.n	8006374 <__pow5mult+0xa0>
 80062f8:	6a74      	ldr	r4, [r6, #36]	; 0x24
 80062fa:	b97c      	cbnz	r4, 800631c <__pow5mult+0x48>
 80062fc:	2010      	movs	r0, #16
 80062fe:	f7fe f969 	bl	80045d4 <malloc>
 8006302:	4602      	mov	r2, r0
 8006304:	6270      	str	r0, [r6, #36]	; 0x24
 8006306:	b928      	cbnz	r0, 8006314 <__pow5mult+0x40>
 8006308:	4b1d      	ldr	r3, [pc, #116]	; (8006380 <__pow5mult+0xac>)
 800630a:	481e      	ldr	r0, [pc, #120]	; (8006384 <__pow5mult+0xb0>)
 800630c:	f44f 71d7 	mov.w	r1, #430	; 0x1ae
 8006310:	f000 ffbe 	bl	8007290 <__assert_func>
 8006314:	e9c0 4401 	strd	r4, r4, [r0, #4]
 8006318:	6004      	str	r4, [r0, #0]
 800631a:	60c4      	str	r4, [r0, #12]
 800631c:	f8d6 8024 	ldr.w	r8, [r6, #36]	; 0x24
 8006320:	f8d8 4008 	ldr.w	r4, [r8, #8]
 8006324:	b94c      	cbnz	r4, 800633a <__pow5mult+0x66>
 8006326:	f240 2171 	movw	r1, #625	; 0x271
 800632a:	4630      	mov	r0, r6
 800632c:	f7ff ff12 	bl	8006154 <__i2b>
 8006330:	2300      	movs	r3, #0
 8006332:	f8c8 0008 	str.w	r0, [r8, #8]
 8006336:	4604      	mov	r4, r0
 8006338:	6003      	str	r3, [r0, #0]
 800633a:	f04f 0900 	mov.w	r9, #0
 800633e:	07eb      	lsls	r3, r5, #31
 8006340:	d50a      	bpl.n	8006358 <__pow5mult+0x84>
 8006342:	4639      	mov	r1, r7
 8006344:	4622      	mov	r2, r4
 8006346:	4630      	mov	r0, r6
 8006348:	f7ff ff1a 	bl	8006180 <__multiply>
 800634c:	4639      	mov	r1, r7
 800634e:	4680      	mov	r8, r0
 8006350:	4630      	mov	r0, r6
 8006352:	f7ff fe47 	bl	8005fe4 <_Bfree>
 8006356:	4647      	mov	r7, r8
 8006358:	106d      	asrs	r5, r5, #1
 800635a:	d00b      	beq.n	8006374 <__pow5mult+0xa0>
 800635c:	6820      	ldr	r0, [r4, #0]
 800635e:	b938      	cbnz	r0, 8006370 <__pow5mult+0x9c>
 8006360:	4622      	mov	r2, r4
 8006362:	4621      	mov	r1, r4
 8006364:	4630      	mov	r0, r6
 8006366:	f7ff ff0b 	bl	8006180 <__multiply>
 800636a:	6020      	str	r0, [r4, #0]
 800636c:	f8c0 9000 	str.w	r9, [r0]
 8006370:	4604      	mov	r4, r0
 8006372:	e7e4      	b.n	800633e <__pow5mult+0x6a>
 8006374:	4638      	mov	r0, r7
 8006376:	e8bd 83f8 	ldmia.w	sp!, {r3, r4, r5, r6, r7, r8, r9, pc}
 800637a:	bf00      	nop
 800637c:	08009028 	.word	0x08009028
 8006380:	08008e57 	.word	0x08008e57
 8006384:	08008eda 	.word	0x08008eda

08006388 <__lshift>:
 8006388:	e92d 47f0 	stmdb	sp!, {r4, r5, r6, r7, r8, r9, sl, lr}
 800638c:	460c      	mov	r4, r1
 800638e:	6849      	ldr	r1, [r1, #4]
 8006390:	6923      	ldr	r3, [r4, #16]
 8006392:	eb03 1862 	add.w	r8, r3, r2, asr #5
 8006396:	68a3      	ldr	r3, [r4, #8]
 8006398:	4607      	mov	r7, r0
 800639a:	4691      	mov	r9, r2
 800639c:	ea4f 1a62 	mov.w	sl, r2, asr #5
 80063a0:	f108 0601 	add.w	r6, r8, #1
 80063a4:	42b3      	cmp	r3, r6
 80063a6:	db0b      	blt.n	80063c0 <__lshift+0x38>
 80063a8:	4638      	mov	r0, r7
 80063aa:	f7ff fddb 	bl	8005f64 <_Balloc>
 80063ae:	4605      	mov	r5, r0
 80063b0:	b948      	cbnz	r0, 80063c6 <__lshift+0x3e>
 80063b2:	4602      	mov	r2, r0
 80063b4:	4b2a      	ldr	r3, [pc, #168]	; (8006460 <__lshift+0xd8>)
 80063b6:	482b      	ldr	r0, [pc, #172]	; (8006464 <__lshift+0xdc>)
 80063b8:	f240 11d9 	movw	r1, #473	; 0x1d9
 80063bc:	f000 ff68 	bl	8007290 <__assert_func>
 80063c0:	3101      	adds	r1, #1
 80063c2:	005b      	lsls	r3, r3, #1
 80063c4:	e7ee      	b.n	80063a4 <__lshift+0x1c>
 80063c6:	2300      	movs	r3, #0
 80063c8:	f100 0114 	add.w	r1, r0, #20
 80063cc:	f100 0210 	add.w	r2, r0, #16
 80063d0:	4618      	mov	r0, r3
 80063d2:	4553      	cmp	r3, sl
 80063d4:	db37      	blt.n	8006446 <__lshift+0xbe>
 80063d6:	6920      	ldr	r0, [r4, #16]
 80063d8:	ea2a 7aea 	bic.w	sl, sl, sl, asr #31
 80063dc:	f104 0314 	add.w	r3, r4, #20
 80063e0:	f019 091f 	ands.w	r9, r9, #31
 80063e4:	eb01 018a 	add.w	r1, r1, sl, lsl #2
 80063e8:	eb03 0080 	add.w	r0, r3, r0, lsl #2
 80063ec:	d02f      	beq.n	800644e <__lshift+0xc6>
 80063ee:	f1c9 0e20 	rsb	lr, r9, #32
 80063f2:	468a      	mov	sl, r1
 80063f4:	f04f 0c00 	mov.w	ip, #0
 80063f8:	681a      	ldr	r2, [r3, #0]
 80063fa:	fa02 f209 	lsl.w	r2, r2, r9
 80063fe:	ea42 020c 	orr.w	r2, r2, ip
 8006402:	f84a 2b04 	str.w	r2, [sl], #4
 8006406:	f853 2b04 	ldr.w	r2, [r3], #4
 800640a:	4298      	cmp	r0, r3
 800640c:	fa22 fc0e 	lsr.w	ip, r2, lr
 8006410:	d8f2      	bhi.n	80063f8 <__lshift+0x70>
 8006412:	1b03      	subs	r3, r0, r4
 8006414:	3b15      	subs	r3, #21
 8006416:	f023 0303 	bic.w	r3, r3, #3
 800641a:	3304      	adds	r3, #4
 800641c:	f104 0215 	add.w	r2, r4, #21
 8006420:	4290      	cmp	r0, r2
 8006422:	bf38      	it	cc
 8006424:	2304      	movcc	r3, #4
 8006426:	f841 c003 	str.w	ip, [r1, r3]
 800642a:	f1bc 0f00 	cmp.w	ip, #0
 800642e:	d001      	beq.n	8006434 <__lshift+0xac>
 8006430:	f108 0602 	add.w	r6, r8, #2
 8006434:	3e01      	subs	r6, #1
 8006436:	4638      	mov	r0, r7
 8006438:	612e      	str	r6, [r5, #16]
 800643a:	4621      	mov	r1, r4
 800643c:	f7ff fdd2 	bl	8005fe4 <_Bfree>
 8006440:	4628      	mov	r0, r5
 8006442:	e8bd 87f0 	ldmia.w	sp!, {r4, r5, r6, r7, r8, r9, sl, pc}
 8006446:	f842 0f04 	str.w	r0, [r2, #4]!
 800644a:	3301      	adds	r3, #1
 800644c:	e7c1      	b.n	80063d2 <__lshift+0x4a>
 800644e:	3904      	subs	r1, #4
 8006450:	f853 2b04 	ldr.w	r2, [r3], #4
 8006454:	f841 2f04 	str.w	r2, [r1, #4]!
 8006458:	4298      	cmp	r0, r3
 800645a:	d8f9      	bhi.n	8006450 <__lshift+0xc8>
 800645c:	e7ea      	b.n	8006434 <__lshift+0xac>
 800645e:	bf00      	nop
 8006460:	08008ec9 	.word	0x08008ec9
 8006464:	08008eda 	.word	0x08008eda

08006468 <__mcmp>:
 8006468:	b530      	push	{r4, r5, lr}
 800646a:	6902      	ldr	r2, [r0, #16]
 800646c:	690c      	ldr	r4, [r1, #16]
 800646e:	1b12      	subs	r2, r2, r4
 8006470:	d10e      	bne.n	8006490 <__mcmp+0x28>
 8006472:	f100 0314 	add.w	r3, r0, #20
 8006476:	3114      	adds	r1, #20
 8006478:	eb03 0084 	add.w	r0, r3, r4, lsl #2
 800647c:	eb01 0184 	add.w	r1, r1, r4, lsl #2
 8006480:	f850 5d04 	ldr.w	r5, [r0, #-4]!
 8006484:	f851 4d04 	ldr.w	r4, [r1, #-4]!
 8006488:	42a5      	cmp	r5, r4
 800648a:	d003      	beq.n	8006494 <__mcmp+0x2c>
 800648c:	d305      	bcc.n	800649a <__mcmp+0x32>
 800648e:	2201      	movs	r2, #1
 8006490:	4610      	mov	r0, r2
 8006492:	bd30      	pop	{r4, r5, pc}
 8006494:	4283      	cmp	r3, r0
 8006496:	d3f3      	bcc.n	8006480 <__mcmp+0x18>
 8006498:	e7fa      	b.n	8006490 <__mcmp+0x28>
 800649a:	f04f 32ff 	mov.w	r2, #4294967295	; 0xffffffff
 800649e:	e7f7      	b.n	8006490 <__mcmp+0x28>

080064a0 <__mdiff>:
 80064a0:	e92d 4ff8 	stmdb	sp!, {r3, r4, r5, r6, r7, r8, r9, sl, fp, lr}
 80064a4:	460c      	mov	r4, r1
 80064a6:	4606      	mov	r6, r0
 80064a8:	4611      	mov	r1, r2
 80064aa:	4620      	mov	r0, r4
 80064ac:	4690      	mov	r8, r2
 80064ae:	f7ff ffdb 	bl	8006468 <__mcmp>
 80064b2:	1e05      	subs	r5, r0, #0
 80064b4:	d110      	bne.n	80064d8 <__mdiff+0x38>
 80064b6:	4629      	mov	r1, r5
 80064b8:	4630      	mov	r0, r6
 80064ba:	f7ff fd53 	bl	8005f64 <_Balloc>
 80064be:	b930      	cbnz	r0, 80064ce <__mdiff+0x2e>
 80064c0:	4b3a      	ldr	r3, [pc, #232]	; (80065ac <__mdiff+0x10c>)
 80064c2:	4602      	mov	r2, r0
 80064c4:	f240 2132 	movw	r1, #562	; 0x232
 80064c8:	4839      	ldr	r0, [pc, #228]	; (80065b0 <__mdiff+0x110>)
 80064ca:	f000 fee1 	bl	8007290 <__assert_func>
 80064ce:	2301      	movs	r3, #1
 80064d0:	e9c0 3504 	strd	r3, r5, [r0, #16]
 80064d4:	e8bd 8ff8 	ldmia.w	sp!, {r3, r4, r5, r6, r7, r8, r9, sl, fp, pc}
 80064d8:	bfa4      	itt	ge
 80064da:	4643      	movge	r3, r8
 80064dc:	46a0      	movge	r8, r4
 80064de:	4630      	mov	r0, r6
 80064e0:	f8d8 1004 	ldr.w	r1, [r8, #4]
 80064e4:	bfa6      	itte	ge
 80064e6:	461c      	movge	r4, r3
 80064e8:	2500      	movge	r5, #0
 80064ea:	2501      	movlt	r5, #1
 80064ec:	f7ff fd3a 	bl	8005f64 <_Balloc>
 80064f0:	b920      	cbnz	r0, 80064fc <__mdiff+0x5c>
 80064f2:	4b2e      	ldr	r3, [pc, #184]	; (80065ac <__mdiff+0x10c>)
 80064f4:	4602      	mov	r2, r0
 80064f6:	f44f 7110 	mov.w	r1, #576	; 0x240
 80064fa:	e7e5      	b.n	80064c8 <__mdiff+0x28>
 80064fc:	f8d8 7010 	ldr.w	r7, [r8, #16]
 8006500:	6926      	ldr	r6, [r4, #16]
 8006502:	60c5      	str	r5, [r0, #12]
 8006504:	f104 0914 	add.w	r9, r4, #20
 8006508:	f108 0514 	add.w	r5, r8, #20
 800650c:	f100 0e14 	add.w	lr, r0, #20
 8006510:	eb05 0c87 	add.w	ip, r5, r7, lsl #2
 8006514:	eb09 0686 	add.w	r6, r9, r6, lsl #2
 8006518:	f108 0210 	add.w	r2, r8, #16
 800651c:	46f2      	mov	sl, lr
 800651e:	2100      	movs	r1, #0
 8006520:	f859 3b04 	ldr.w	r3, [r9], #4
 8006524:	f852 bf04 	ldr.w	fp, [r2, #4]!
 8006528:	fa1f f883 	uxth.w	r8, r3
 800652c:	fa11 f18b 	uxtah	r1, r1, fp
 8006530:	0c1b      	lsrs	r3, r3, #16
 8006532:	eba1 0808 	sub.w	r8, r1, r8
 8006536:	ebc3 431b 	rsb	r3, r3, fp, lsr #16
 800653a:	eb03 4328 	add.w	r3, r3, r8, asr #16
 800653e:	fa1f f888 	uxth.w	r8, r8
 8006542:	1419      	asrs	r1, r3, #16
 8006544:	454e      	cmp	r6, r9
 8006546:	ea48 4303 	orr.w	r3, r8, r3, lsl #16
 800654a:	f84a 3b04 	str.w	r3, [sl], #4
 800654e:	d8e7      	bhi.n	8006520 <__mdiff+0x80>
 8006550:	1b33      	subs	r3, r6, r4
 8006552:	3b15      	subs	r3, #21
 8006554:	f023 0303 	bic.w	r3, r3, #3
 8006558:	3304      	adds	r3, #4
 800655a:	3415      	adds	r4, #21
 800655c:	42a6      	cmp	r6, r4
 800655e:	bf38      	it	cc
 8006560:	2304      	movcc	r3, #4
 8006562:	441d      	add	r5, r3
 8006564:	4473      	add	r3, lr
 8006566:	469e      	mov	lr, r3
 8006568:	462e      	mov	r6, r5
 800656a:	4566      	cmp	r6, ip
 800656c:	d30e      	bcc.n	800658c <__mdiff+0xec>
 800656e:	f10c 0203 	add.w	r2, ip, #3
 8006572:	1b52      	subs	r2, r2, r5
 8006574:	f022 0203 	bic.w	r2, r2, #3
 8006578:	3d03      	subs	r5, #3
 800657a:	45ac      	cmp	ip, r5
 800657c:	bf38      	it	cc
 800657e:	2200      	movcc	r2, #0
 8006580:	441a      	add	r2, r3
 8006582:	f852 3d04 	ldr.w	r3, [r2, #-4]!
 8006586:	b17b      	cbz	r3, 80065a8 <__mdiff+0x108>
 8006588:	6107      	str	r7, [r0, #16]
 800658a:	e7a3      	b.n	80064d4 <__mdiff+0x34>
 800658c:	f856 8b04 	ldr.w	r8, [r6], #4
 8006590:	fa11 f288 	uxtah	r2, r1, r8
 8006594:	1414      	asrs	r4, r2, #16
 8006596:	eb04 4418 	add.w	r4, r4, r8, lsr #16
 800659a:	b292      	uxth	r2, r2
 800659c:	ea42 4204 	orr.w	r2, r2, r4, lsl #16
 80065a0:	f84e 2b04 	str.w	r2, [lr], #4
 80065a4:	1421      	asrs	r1, r4, #16
 80065a6:	e7e0      	b.n	800656a <__mdiff+0xca>
 80065a8:	3f01      	subs	r7, #1
 80065aa:	e7ea      	b.n	8006582 <__mdiff+0xe2>
 80065ac:	08008ec9 	.word	0x08008ec9
 80065b0:	08008eda 	.word	0x08008eda

080065b4 <__d2b>:
 80065b4:	e92d 43f7 	stmdb	sp!, {r0, r1, r2, r4, r5, r6, r7, r8, r9, lr}
 80065b8:	4689      	mov	r9, r1
 80065ba:	2101      	movs	r1, #1
 80065bc:	ec57 6b10 	vmov	r6, r7, d0
 80065c0:	4690      	mov	r8, r2
 80065c2:	f7ff fccf 	bl	8005f64 <_Balloc>
 80065c6:	4604      	mov	r4, r0
 80065c8:	b930      	cbnz	r0, 80065d8 <__d2b+0x24>
 80065ca:	4602      	mov	r2, r0
 80065cc:	4b25      	ldr	r3, [pc, #148]	; (8006664 <__d2b+0xb0>)
 80065ce:	4826      	ldr	r0, [pc, #152]	; (8006668 <__d2b+0xb4>)
 80065d0:	f240 310a 	movw	r1, #778	; 0x30a
 80065d4:	f000 fe5c 	bl	8007290 <__assert_func>
 80065d8:	f3c7 550a 	ubfx	r5, r7, #20, #11
 80065dc:	f3c7 0313 	ubfx	r3, r7, #0, #20
 80065e0:	bb35      	cbnz	r5, 8006630 <__d2b+0x7c>
 80065e2:	2e00      	cmp	r6, #0
 80065e4:	9301      	str	r3, [sp, #4]
 80065e6:	d028      	beq.n	800663a <__d2b+0x86>
 80065e8:	4668      	mov	r0, sp
 80065ea:	9600      	str	r6, [sp, #0]
 80065ec:	f7ff fd82 	bl	80060f4 <__lo0bits>
 80065f0:	9900      	ldr	r1, [sp, #0]
 80065f2:	b300      	cbz	r0, 8006636 <__d2b+0x82>
 80065f4:	9a01      	ldr	r2, [sp, #4]
 80065f6:	f1c0 0320 	rsb	r3, r0, #32
 80065fa:	fa02 f303 	lsl.w	r3, r2, r3
 80065fe:	430b      	orrs	r3, r1
 8006600:	40c2      	lsrs	r2, r0
 8006602:	6163      	str	r3, [r4, #20]
 8006604:	9201      	str	r2, [sp, #4]
 8006606:	9b01      	ldr	r3, [sp, #4]
 8006608:	61a3      	str	r3, [r4, #24]
 800660a:	2b00      	cmp	r3, #0
 800660c:	bf14      	ite	ne
 800660e:	2202      	movne	r2, #2
 8006610:	2201      	moveq	r2, #1
 8006612:	6122      	str	r2, [r4, #16]
 8006614:	b1d5      	cbz	r5, 800664c <__d2b+0x98>
 8006616:	f2a5 4533 	subw	r5, r5, #1075	; 0x433
 800661a:	4405      	add	r5, r0
 800661c:	f8c9 5000 	str.w	r5, [r9]
 8006620:	f1c0 0035 	rsb	r0, r0, #53	; 0x35
 8006624:	f8c8 0000 	str.w	r0, [r8]
 8006628:	4620      	mov	r0, r4
 800662a:	b003      	add	sp, #12
 800662c:	e8bd 83f0 	ldmia.w	sp!, {r4, r5, r6, r7, r8, r9, pc}
 8006630:	f443 1380 	orr.w	r3, r3, #1048576	; 0x100000
 8006634:	e7d5      	b.n	80065e2 <__d2b+0x2e>
 8006636:	6161      	str	r1, [r4, #20]
 8006638:	e7e5      	b.n	8006606 <__d2b+0x52>
 800663a:	a801      	add	r0, sp, #4
 800663c:	f7ff fd5a 	bl	80060f4 <__lo0bits>
 8006640:	9b01      	ldr	r3, [sp, #4]
 8006642:	6163      	str	r3, [r4, #20]
 8006644:	2201      	movs	r2, #1
 8006646:	6122      	str	r2, [r4, #16]
 8006648:	3020      	adds	r0, #32
 800664a:	e7e3      	b.n	8006614 <__d2b+0x60>
 800664c:	eb04 0382 	add.w	r3, r4, r2, lsl #2
 8006650:	f2a0 4032 	subw	r0, r0, #1074	; 0x432
 8006654:	f8c9 0000 	str.w	r0, [r9]
 8006658:	6918      	ldr	r0, [r3, #16]
 800665a:	f7ff fd2b 	bl	80060b4 <__hi0bits>
 800665e:	ebc0 1042 	rsb	r0, r0, r2, lsl #5
 8006662:	e7df      	b.n	8006624 <__d2b+0x70>
 8006664:	08008ec9 	.word	0x08008ec9
 8006668:	08008eda 	.word	0x08008eda

0800666c <_calloc_r>:
 800666c:	b537      	push	{r0, r1, r2, r4, r5, lr}
 800666e:	fba1 2402 	umull	r2, r4, r1, r2
 8006672:	b94c      	cbnz	r4, 8006688 <_calloc_r+0x1c>
 8006674:	4611      	mov	r1, r2
 8006676:	9201      	str	r2, [sp, #4]
 8006678:	f7fe f828 	bl	80046cc <_malloc_r>
 800667c:	9a01      	ldr	r2, [sp, #4]
 800667e:	4605      	mov	r5, r0
 8006680:	b930      	cbnz	r0, 8006690 <_calloc_r+0x24>
 8006682:	4628      	mov	r0, r5
 8006684:	b003      	add	sp, #12
 8006686:	bd30      	pop	{r4, r5, pc}
 8006688:	220c      	movs	r2, #12
 800668a:	6002      	str	r2, [r0, #0]
 800668c:	2500      	movs	r5, #0
 800668e:	e7f8      	b.n	8006682 <_calloc_r+0x16>
 8006690:	4621      	mov	r1, r4
 8006692:	f7fd ffa7 	bl	80045e4 <memset>
 8006696:	e7f4      	b.n	8006682 <_calloc_r+0x16>

08006698 <__ssputs_r>:
 8006698:	e92d 47f0 	stmdb	sp!, {r4, r5, r6, r7, r8, r9, sl, lr}
 800669c:	688e      	ldr	r6, [r1, #8]
 800669e:	429e      	cmp	r6, r3
 80066a0:	4682      	mov	sl, r0
 80066a2:	460c      	mov	r4, r1
 80066a4:	4690      	mov	r8, r2
 80066a6:	461f      	mov	r7, r3
 80066a8:	d838      	bhi.n	800671c <__ssputs_r+0x84>
 80066aa:	898a      	ldrh	r2, [r1, #12]
 80066ac:	f412 6f90 	tst.w	r2, #1152	; 0x480
 80066b0:	d032      	beq.n	8006718 <__ssputs_r+0x80>
 80066b2:	6825      	ldr	r5, [r4, #0]
 80066b4:	6909      	ldr	r1, [r1, #16]
 80066b6:	eba5 0901 	sub.w	r9, r5, r1
 80066ba:	6965      	ldr	r5, [r4, #20]
 80066bc:	eb05 0545 	add.w	r5, r5, r5, lsl #1
 80066c0:	eb05 75d5 	add.w	r5, r5, r5, lsr #31
 80066c4:	3301      	adds	r3, #1
 80066c6:	444b      	add	r3, r9
 80066c8:	106d      	asrs	r5, r5, #1
 80066ca:	429d      	cmp	r5, r3
 80066cc:	bf38      	it	cc
 80066ce:	461d      	movcc	r5, r3
 80066d0:	0553      	lsls	r3, r2, #21
 80066d2:	d531      	bpl.n	8006738 <__ssputs_r+0xa0>
 80066d4:	4629      	mov	r1, r5
 80066d6:	f7fd fff9 	bl	80046cc <_malloc_r>
 80066da:	4606      	mov	r6, r0
 80066dc:	b950      	cbnz	r0, 80066f4 <__ssputs_r+0x5c>
 80066de:	230c      	movs	r3, #12
 80066e0:	f8ca 3000 	str.w	r3, [sl]
 80066e4:	89a3      	ldrh	r3, [r4, #12]
 80066e6:	f043 0340 	orr.w	r3, r3, #64	; 0x40
 80066ea:	81a3      	strh	r3, [r4, #12]
 80066ec:	f04f 30ff 	mov.w	r0, #4294967295	; 0xffffffff
 80066f0:	e8bd 87f0 	ldmia.w	sp!, {r4, r5, r6, r7, r8, r9, sl, pc}
 80066f4:	6921      	ldr	r1, [r4, #16]
 80066f6:	464a      	mov	r2, r9
 80066f8:	f7ff fc1a 	bl	8005f30 <memcpy>
 80066fc:	89a3      	ldrh	r3, [r4, #12]
 80066fe:	f423 6390 	bic.w	r3, r3, #1152	; 0x480
 8006702:	f043 0380 	orr.w	r3, r3, #128	; 0x80
 8006706:	81a3      	strh	r3, [r4, #12]
 8006708:	6126      	str	r6, [r4, #16]
 800670a:	6165      	str	r5, [r4, #20]
 800670c:	444e      	add	r6, r9
 800670e:	eba5 0509 	sub.w	r5, r5, r9
 8006712:	6026      	str	r6, [r4, #0]
 8006714:	60a5      	str	r5, [r4, #8]
 8006716:	463e      	mov	r6, r7
 8006718:	42be      	cmp	r6, r7
 800671a:	d900      	bls.n	800671e <__ssputs_r+0x86>
 800671c:	463e      	mov	r6, r7
 800671e:	6820      	ldr	r0, [r4, #0]
 8006720:	4632      	mov	r2, r6
 8006722:	4641      	mov	r1, r8
 8006724:	f000 ffb0 	bl	8007688 <memmove>
 8006728:	68a3      	ldr	r3, [r4, #8]
 800672a:	1b9b      	subs	r3, r3, r6
 800672c:	60a3      	str	r3, [r4, #8]
 800672e:	6823      	ldr	r3, [r4, #0]
 8006730:	4433      	add	r3, r6
 8006732:	6023      	str	r3, [r4, #0]
 8006734:	2000      	movs	r0, #0
 8006736:	e7db      	b.n	80066f0 <__ssputs_r+0x58>
 8006738:	462a      	mov	r2, r5
 800673a:	f000 ffbf 	bl	80076bc <_realloc_r>
 800673e:	4606      	mov	r6, r0
 8006740:	2800      	cmp	r0, #0
 8006742:	d1e1      	bne.n	8006708 <__ssputs_r+0x70>
 8006744:	6921      	ldr	r1, [r4, #16]
 8006746:	4650      	mov	r0, sl
 8006748:	f7fd ff54 	bl	80045f4 <_free_r>
 800674c:	e7c7      	b.n	80066de <__ssputs_r+0x46>
	...

08006750 <_svfiprintf_r>:
 8006750:	e92d 4ff0 	stmdb	sp!, {r4, r5, r6, r7, r8, r9, sl, fp, lr}
 8006754:	4698      	mov	r8, r3
 8006756:	898b      	ldrh	r3, [r1, #12]
 8006758:	061b      	lsls	r3, r3, #24
 800675a:	b09d      	sub	sp, #116	; 0x74
 800675c:	4607      	mov	r7, r0
 800675e:	460d      	mov	r5, r1
 8006760:	4614      	mov	r4, r2
 8006762:	d50e      	bpl.n	8006782 <_svfiprintf_r+0x32>
 8006764:	690b      	ldr	r3, [r1, #16]
 8006766:	b963      	cbnz	r3, 8006782 <_svfiprintf_r+0x32>
 8006768:	2140      	movs	r1, #64	; 0x40
 800676a:	f7fd ffaf 	bl	80046cc <_malloc_r>
 800676e:	6028      	str	r0, [r5, #0]
 8006770:	6128      	str	r0, [r5, #16]
 8006772:	b920      	cbnz	r0, 800677e <_svfiprintf_r+0x2e>
 8006774:	230c      	movs	r3, #12
 8006776:	603b      	str	r3, [r7, #0]
 8006778:	f04f 30ff 	mov.w	r0, #4294967295	; 0xffffffff
 800677c:	e0d1      	b.n	8006922 <_svfiprintf_r+0x1d2>
 800677e:	2340      	movs	r3, #64	; 0x40
 8006780:	616b      	str	r3, [r5, #20]
 8006782:	2300      	movs	r3, #0
 8006784:	9309      	str	r3, [sp, #36]	; 0x24
 8006786:	2320      	movs	r3, #32
 8006788:	f88d 3029 	strb.w	r3, [sp, #41]	; 0x29
 800678c:	f8cd 800c 	str.w	r8, [sp, #12]
 8006790:	2330      	movs	r3, #48	; 0x30
 8006792:	f8df 81a8 	ldr.w	r8, [pc, #424]	; 800693c <_svfiprintf_r+0x1ec>
 8006796:	f88d 302a 	strb.w	r3, [sp, #42]	; 0x2a
 800679a:	f04f 0901 	mov.w	r9, #1
 800679e:	4623      	mov	r3, r4
 80067a0:	469a      	mov	sl, r3
 80067a2:	f813 2b01 	ldrb.w	r2, [r3], #1
 80067a6:	b10a      	cbz	r2, 80067ac <_svfiprintf_r+0x5c>
 80067a8:	2a25      	cmp	r2, #37	; 0x25
 80067aa:	d1f9      	bne.n	80067a0 <_svfiprintf_r+0x50>
 80067ac:	ebba 0b04 	subs.w	fp, sl, r4
 80067b0:	d00b      	beq.n	80067ca <_svfiprintf_r+0x7a>
 80067b2:	465b      	mov	r3, fp
 80067b4:	4622      	mov	r2, r4
 80067b6:	4629      	mov	r1, r5
 80067b8:	4638      	mov	r0, r7
 80067ba:	f7ff ff6d 	bl	8006698 <__ssputs_r>
 80067be:	3001      	adds	r0, #1
 80067c0:	f000 80aa 	beq.w	8006918 <_svfiprintf_r+0x1c8>
 80067c4:	9a09      	ldr	r2, [sp, #36]	; 0x24
 80067c6:	445a      	add	r2, fp
 80067c8:	9209      	str	r2, [sp, #36]	; 0x24
 80067ca:	f89a 3000 	ldrb.w	r3, [sl]
 80067ce:	2b00      	cmp	r3, #0
 80067d0:	f000 80a2 	beq.w	8006918 <_svfiprintf_r+0x1c8>
 80067d4:	2300      	movs	r3, #0
 80067d6:	f04f 32ff 	mov.w	r2, #4294967295	; 0xffffffff
 80067da:	e9cd 2305 	strd	r2, r3, [sp, #20]
 80067de:	f10a 0a01 	add.w	sl, sl, #1
 80067e2:	9304      	str	r3, [sp, #16]
 80067e4:	9307      	str	r3, [sp, #28]
 80067e6:	f88d 3053 	strb.w	r3, [sp, #83]	; 0x53
 80067ea:	931a      	str	r3, [sp, #104]	; 0x68
 80067ec:	4654      	mov	r4, sl
 80067ee:	2205      	movs	r2, #5
 80067f0:	f814 1b01 	ldrb.w	r1, [r4], #1
 80067f4:	4851      	ldr	r0, [pc, #324]	; (800693c <_svfiprintf_r+0x1ec>)
 80067f6:	f7f9 fd0b 	bl	8000210 <memchr>
 80067fa:	9a04      	ldr	r2, [sp, #16]
 80067fc:	b9d8      	cbnz	r0, 8006836 <_svfiprintf_r+0xe6>
 80067fe:	06d0      	lsls	r0, r2, #27
 8006800:	bf44      	itt	mi
 8006802:	2320      	movmi	r3, #32
 8006804:	f88d 3053 	strbmi.w	r3, [sp, #83]	; 0x53
 8006808:	0711      	lsls	r1, r2, #28
 800680a:	bf44      	itt	mi
 800680c:	232b      	movmi	r3, #43	; 0x2b
 800680e:	f88d 3053 	strbmi.w	r3, [sp, #83]	; 0x53
 8006812:	f89a 3000 	ldrb.w	r3, [sl]
 8006816:	2b2a      	cmp	r3, #42	; 0x2a
 8006818:	d015      	beq.n	8006846 <_svfiprintf_r+0xf6>
 800681a:	9a07      	ldr	r2, [sp, #28]
 800681c:	4654      	mov	r4, sl
 800681e:	2000      	movs	r0, #0
 8006820:	f04f 0c0a 	mov.w	ip, #10
 8006824:	4621      	mov	r1, r4
 8006826:	f811 3b01 	ldrb.w	r3, [r1], #1
 800682a:	3b30      	subs	r3, #48	; 0x30
 800682c:	2b09      	cmp	r3, #9
 800682e:	d94e      	bls.n	80068ce <_svfiprintf_r+0x17e>
 8006830:	b1b0      	cbz	r0, 8006860 <_svfiprintf_r+0x110>
 8006832:	9207      	str	r2, [sp, #28]
 8006834:	e014      	b.n	8006860 <_svfiprintf_r+0x110>
 8006836:	eba0 0308 	sub.w	r3, r0, r8
 800683a:	fa09 f303 	lsl.w	r3, r9, r3
 800683e:	4313      	orrs	r3, r2
 8006840:	9304      	str	r3, [sp, #16]
 8006842:	46a2      	mov	sl, r4
 8006844:	e7d2      	b.n	80067ec <_svfiprintf_r+0x9c>
 8006846:	9b03      	ldr	r3, [sp, #12]
 8006848:	1d19      	adds	r1, r3, #4
 800684a:	681b      	ldr	r3, [r3, #0]
 800684c:	9103      	str	r1, [sp, #12]
 800684e:	2b00      	cmp	r3, #0
 8006850:	bfbb      	ittet	lt
 8006852:	425b      	neglt	r3, r3
 8006854:	f042 0202 	orrlt.w	r2, r2, #2
 8006858:	9307      	strge	r3, [sp, #28]
 800685a:	9307      	strlt	r3, [sp, #28]
 800685c:	bfb8      	it	lt
 800685e:	9204      	strlt	r2, [sp, #16]
 8006860:	7823      	ldrb	r3, [r4, #0]
 8006862:	2b2e      	cmp	r3, #46	; 0x2e
 8006864:	d10c      	bne.n	8006880 <_svfiprintf_r+0x130>
 8006866:	7863      	ldrb	r3, [r4, #1]
 8006868:	2b2a      	cmp	r3, #42	; 0x2a
 800686a:	d135      	bne.n	80068d8 <_svfiprintf_r+0x188>
 800686c:	9b03      	ldr	r3, [sp, #12]
 800686e:	1d1a      	adds	r2, r3, #4
 8006870:	681b      	ldr	r3, [r3, #0]
 8006872:	9203      	str	r2, [sp, #12]
 8006874:	2b00      	cmp	r3, #0
 8006876:	bfb8      	it	lt
 8006878:	f04f 33ff 	movlt.w	r3, #4294967295	; 0xffffffff
 800687c:	3402      	adds	r4, #2
 800687e:	9305      	str	r3, [sp, #20]
 8006880:	f8df a0c8 	ldr.w	sl, [pc, #200]	; 800694c <_svfiprintf_r+0x1fc>
 8006884:	7821      	ldrb	r1, [r4, #0]
 8006886:	2203      	movs	r2, #3
 8006888:	4650      	mov	r0, sl
 800688a:	f7f9 fcc1 	bl	8000210 <memchr>
 800688e:	b140      	cbz	r0, 80068a2 <_svfiprintf_r+0x152>
 8006890:	2340      	movs	r3, #64	; 0x40
 8006892:	eba0 000a 	sub.w	r0, r0, sl
 8006896:	fa03 f000 	lsl.w	r0, r3, r0
 800689a:	9b04      	ldr	r3, [sp, #16]
 800689c:	4303      	orrs	r3, r0
 800689e:	3401      	adds	r4, #1
 80068a0:	9304      	str	r3, [sp, #16]
 80068a2:	f814 1b01 	ldrb.w	r1, [r4], #1
 80068a6:	4826      	ldr	r0, [pc, #152]	; (8006940 <_svfiprintf_r+0x1f0>)
 80068a8:	f88d 1028 	strb.w	r1, [sp, #40]	; 0x28
 80068ac:	2206      	movs	r2, #6
 80068ae:	f7f9 fcaf 	bl	8000210 <memchr>
 80068b2:	2800      	cmp	r0, #0
 80068b4:	d038      	beq.n	8006928 <_svfiprintf_r+0x1d8>
 80068b6:	4b23      	ldr	r3, [pc, #140]	; (8006944 <_svfiprintf_r+0x1f4>)
 80068b8:	bb1b      	cbnz	r3, 8006902 <_svfiprintf_r+0x1b2>
 80068ba:	9b03      	ldr	r3, [sp, #12]
 80068bc:	3307      	adds	r3, #7
 80068be:	f023 0307 	bic.w	r3, r3, #7
 80068c2:	3308      	adds	r3, #8
 80068c4:	9303      	str	r3, [sp, #12]
 80068c6:	9b09      	ldr	r3, [sp, #36]	; 0x24
 80068c8:	4433      	add	r3, r6
 80068ca:	9309      	str	r3, [sp, #36]	; 0x24
 80068cc:	e767      	b.n	800679e <_svfiprintf_r+0x4e>
 80068ce:	fb0c 3202 	mla	r2, ip, r2, r3
 80068d2:	460c      	mov	r4, r1
 80068d4:	2001      	movs	r0, #1
 80068d6:	e7a5      	b.n	8006824 <_svfiprintf_r+0xd4>
 80068d8:	2300      	movs	r3, #0
 80068da:	3401      	adds	r4, #1
 80068dc:	9305      	str	r3, [sp, #20]
 80068de:	4619      	mov	r1, r3
 80068e0:	f04f 0c0a 	mov.w	ip, #10
 80068e4:	4620      	mov	r0, r4
 80068e6:	f810 2b01 	ldrb.w	r2, [r0], #1
 80068ea:	3a30      	subs	r2, #48	; 0x30
 80068ec:	2a09      	cmp	r2, #9
 80068ee:	d903      	bls.n	80068f8 <_svfiprintf_r+0x1a8>
 80068f0:	2b00      	cmp	r3, #0
 80068f2:	d0c5      	beq.n	8006880 <_svfiprintf_r+0x130>
 80068f4:	9105      	str	r1, [sp, #20]
 80068f6:	e7c3      	b.n	8006880 <_svfiprintf_r+0x130>
 80068f8:	fb0c 2101 	mla	r1, ip, r1, r2
 80068fc:	4604      	mov	r4, r0
 80068fe:	2301      	movs	r3, #1
 8006900:	e7f0      	b.n	80068e4 <_svfiprintf_r+0x194>
 8006902:	ab03      	add	r3, sp, #12
 8006904:	9300      	str	r3, [sp, #0]
 8006906:	462a      	mov	r2, r5
 8006908:	4b0f      	ldr	r3, [pc, #60]	; (8006948 <_svfiprintf_r+0x1f8>)
 800690a:	a904      	add	r1, sp, #16
 800690c:	4638      	mov	r0, r7
 800690e:	f7fd fff1 	bl	80048f4 <_printf_float>
 8006912:	1c42      	adds	r2, r0, #1
 8006914:	4606      	mov	r6, r0
 8006916:	d1d6      	bne.n	80068c6 <_svfiprintf_r+0x176>
 8006918:	89ab      	ldrh	r3, [r5, #12]
 800691a:	065b      	lsls	r3, r3, #25
 800691c:	f53f af2c 	bmi.w	8006778 <_svfiprintf_r+0x28>
 8006920:	9809      	ldr	r0, [sp, #36]	; 0x24
 8006922:	b01d      	add	sp, #116	; 0x74
 8006924:	e8bd 8ff0 	ldmia.w	sp!, {r4, r5, r6, r7, r8, r9, sl, fp, pc}
 8006928:	ab03      	add	r3, sp, #12
 800692a:	9300      	str	r3, [sp, #0]
 800692c:	462a      	mov	r2, r5
 800692e:	4b06      	ldr	r3, [pc, #24]	; (8006948 <_svfiprintf_r+0x1f8>)
 8006930:	a904      	add	r1, sp, #16
 8006932:	4638      	mov	r0, r7
 8006934:	f7fe fa82 	bl	8004e3c <_printf_i>
 8006938:	e7eb      	b.n	8006912 <_svfiprintf_r+0x1c2>
 800693a:	bf00      	nop
 800693c:	08009034 	.word	0x08009034
 8006940:	0800903e 	.word	0x0800903e
 8006944:	080048f5 	.word	0x080048f5
 8006948:	08006699 	.word	0x08006699
 800694c:	0800903a 	.word	0x0800903a

08006950 <_sungetc_r>:
 8006950:	b538      	push	{r3, r4, r5, lr}
 8006952:	1c4b      	adds	r3, r1, #1
 8006954:	4614      	mov	r4, r2
 8006956:	d103      	bne.n	8006960 <_sungetc_r+0x10>
 8006958:	f04f 35ff 	mov.w	r5, #4294967295	; 0xffffffff
 800695c:	4628      	mov	r0, r5
 800695e:	bd38      	pop	{r3, r4, r5, pc}
 8006960:	8993      	ldrh	r3, [r2, #12]
 8006962:	f023 0320 	bic.w	r3, r3, #32
 8006966:	8193      	strh	r3, [r2, #12]
 8006968:	6b63      	ldr	r3, [r4, #52]	; 0x34
 800696a:	6852      	ldr	r2, [r2, #4]
 800696c:	b2cd      	uxtb	r5, r1
 800696e:	b18b      	cbz	r3, 8006994 <_sungetc_r+0x44>
 8006970:	6ba3      	ldr	r3, [r4, #56]	; 0x38
 8006972:	4293      	cmp	r3, r2
 8006974:	dd08      	ble.n	8006988 <_sungetc_r+0x38>
 8006976:	6823      	ldr	r3, [r4, #0]
 8006978:	1e5a      	subs	r2, r3, #1
 800697a:	6022      	str	r2, [r4, #0]
 800697c:	f803 5c01 	strb.w	r5, [r3, #-1]
 8006980:	6863      	ldr	r3, [r4, #4]
 8006982:	3301      	adds	r3, #1
 8006984:	6063      	str	r3, [r4, #4]
 8006986:	e7e9      	b.n	800695c <_sungetc_r+0xc>
 8006988:	4621      	mov	r1, r4
 800698a:	f000 fc47 	bl	800721c <__submore>
 800698e:	2800      	cmp	r0, #0
 8006990:	d0f1      	beq.n	8006976 <_sungetc_r+0x26>
 8006992:	e7e1      	b.n	8006958 <_sungetc_r+0x8>
 8006994:	6921      	ldr	r1, [r4, #16]
 8006996:	6823      	ldr	r3, [r4, #0]
 8006998:	b151      	cbz	r1, 80069b0 <_sungetc_r+0x60>
 800699a:	4299      	cmp	r1, r3
 800699c:	d208      	bcs.n	80069b0 <_sungetc_r+0x60>
 800699e:	f813 1c01 	ldrb.w	r1, [r3, #-1]
 80069a2:	42a9      	cmp	r1, r5
 80069a4:	d104      	bne.n	80069b0 <_sungetc_r+0x60>
 80069a6:	3b01      	subs	r3, #1
 80069a8:	3201      	adds	r2, #1
 80069aa:	6023      	str	r3, [r4, #0]
 80069ac:	6062      	str	r2, [r4, #4]
 80069ae:	e7d5      	b.n	800695c <_sungetc_r+0xc>
 80069b0:	e9c4 320f 	strd	r3, r2, [r4, #60]	; 0x3c
 80069b4:	f104 0344 	add.w	r3, r4, #68	; 0x44
 80069b8:	6363      	str	r3, [r4, #52]	; 0x34
 80069ba:	2303      	movs	r3, #3
 80069bc:	63a3      	str	r3, [r4, #56]	; 0x38
 80069be:	4623      	mov	r3, r4
 80069c0:	f803 5f46 	strb.w	r5, [r3, #70]!
 80069c4:	6023      	str	r3, [r4, #0]
 80069c6:	2301      	movs	r3, #1
 80069c8:	e7dc      	b.n	8006984 <_sungetc_r+0x34>

080069ca <__ssrefill_r>:
 80069ca:	b510      	push	{r4, lr}
 80069cc:	460c      	mov	r4, r1
 80069ce:	6b49      	ldr	r1, [r1, #52]	; 0x34
 80069d0:	b169      	cbz	r1, 80069ee <__ssrefill_r+0x24>
 80069d2:	f104 0344 	add.w	r3, r4, #68	; 0x44
 80069d6:	4299      	cmp	r1, r3
 80069d8:	d001      	beq.n	80069de <__ssrefill_r+0x14>
 80069da:	f7fd fe0b 	bl	80045f4 <_free_r>
 80069de:	6c23      	ldr	r3, [r4, #64]	; 0x40
 80069e0:	6063      	str	r3, [r4, #4]
 80069e2:	2000      	movs	r0, #0
 80069e4:	6360      	str	r0, [r4, #52]	; 0x34
 80069e6:	b113      	cbz	r3, 80069ee <__ssrefill_r+0x24>
 80069e8:	6be3      	ldr	r3, [r4, #60]	; 0x3c
 80069ea:	6023      	str	r3, [r4, #0]
 80069ec:	bd10      	pop	{r4, pc}
 80069ee:	6923      	ldr	r3, [r4, #16]
 80069f0:	6023      	str	r3, [r4, #0]
 80069f2:	2300      	movs	r3, #0
 80069f4:	6063      	str	r3, [r4, #4]
 80069f6:	89a3      	ldrh	r3, [r4, #12]
 80069f8:	f043 0320 	orr.w	r3, r3, #32
 80069fc:	81a3      	strh	r3, [r4, #12]
 80069fe:	f04f 30ff 	mov.w	r0, #4294967295	; 0xffffffff
 8006a02:	e7f3      	b.n	80069ec <__ssrefill_r+0x22>

08006a04 <__ssvfiscanf_r>:
 8006a04:	e92d 47f0 	stmdb	sp!, {r4, r5, r6, r7, r8, r9, sl, lr}
 8006a08:	460c      	mov	r4, r1
 8006a0a:	f5ad 7d22 	sub.w	sp, sp, #648	; 0x288
 8006a0e:	2100      	movs	r1, #0
 8006a10:	e9cd 1144 	strd	r1, r1, [sp, #272]	; 0x110
 8006a14:	49a6      	ldr	r1, [pc, #664]	; (8006cb0 <__ssvfiscanf_r+0x2ac>)
 8006a16:	91a0      	str	r1, [sp, #640]	; 0x280
 8006a18:	f10d 0804 	add.w	r8, sp, #4
 8006a1c:	49a5      	ldr	r1, [pc, #660]	; (8006cb4 <__ssvfiscanf_r+0x2b0>)
 8006a1e:	4fa6      	ldr	r7, [pc, #664]	; (8006cb8 <__ssvfiscanf_r+0x2b4>)
 8006a20:	f8df 9298 	ldr.w	r9, [pc, #664]	; 8006cbc <__ssvfiscanf_r+0x2b8>
 8006a24:	f8cd 8118 	str.w	r8, [sp, #280]	; 0x118
 8006a28:	4606      	mov	r6, r0
 8006a2a:	91a1      	str	r1, [sp, #644]	; 0x284
 8006a2c:	9300      	str	r3, [sp, #0]
 8006a2e:	7813      	ldrb	r3, [r2, #0]
 8006a30:	2b00      	cmp	r3, #0
 8006a32:	f000 815a 	beq.w	8006cea <__ssvfiscanf_r+0x2e6>
 8006a36:	5dd9      	ldrb	r1, [r3, r7]
 8006a38:	f011 0108 	ands.w	r1, r1, #8
 8006a3c:	f102 0501 	add.w	r5, r2, #1
 8006a40:	d019      	beq.n	8006a76 <__ssvfiscanf_r+0x72>
 8006a42:	6863      	ldr	r3, [r4, #4]
 8006a44:	2b00      	cmp	r3, #0
 8006a46:	dd0f      	ble.n	8006a68 <__ssvfiscanf_r+0x64>
 8006a48:	6823      	ldr	r3, [r4, #0]
 8006a4a:	781a      	ldrb	r2, [r3, #0]
 8006a4c:	5cba      	ldrb	r2, [r7, r2]
 8006a4e:	0712      	lsls	r2, r2, #28
 8006a50:	d401      	bmi.n	8006a56 <__ssvfiscanf_r+0x52>
 8006a52:	462a      	mov	r2, r5
 8006a54:	e7eb      	b.n	8006a2e <__ssvfiscanf_r+0x2a>
 8006a56:	9a45      	ldr	r2, [sp, #276]	; 0x114
 8006a58:	3201      	adds	r2, #1
 8006a5a:	9245      	str	r2, [sp, #276]	; 0x114
 8006a5c:	6862      	ldr	r2, [r4, #4]
 8006a5e:	3301      	adds	r3, #1
 8006a60:	3a01      	subs	r2, #1
 8006a62:	6062      	str	r2, [r4, #4]
 8006a64:	6023      	str	r3, [r4, #0]
 8006a66:	e7ec      	b.n	8006a42 <__ssvfiscanf_r+0x3e>
 8006a68:	9ba1      	ldr	r3, [sp, #644]	; 0x284
 8006a6a:	4621      	mov	r1, r4
 8006a6c:	4630      	mov	r0, r6
 8006a6e:	4798      	blx	r3
 8006a70:	2800      	cmp	r0, #0
 8006a72:	d0e9      	beq.n	8006a48 <__ssvfiscanf_r+0x44>
 8006a74:	e7ed      	b.n	8006a52 <__ssvfiscanf_r+0x4e>
 8006a76:	2b25      	cmp	r3, #37	; 0x25
 8006a78:	d012      	beq.n	8006aa0 <__ssvfiscanf_r+0x9c>
 8006a7a:	469a      	mov	sl, r3
 8006a7c:	6863      	ldr	r3, [r4, #4]
 8006a7e:	2b00      	cmp	r3, #0
 8006a80:	f340 8091 	ble.w	8006ba6 <__ssvfiscanf_r+0x1a2>
 8006a84:	6822      	ldr	r2, [r4, #0]
 8006a86:	7813      	ldrb	r3, [r2, #0]
 8006a88:	4553      	cmp	r3, sl
 8006a8a:	f040 812e 	bne.w	8006cea <__ssvfiscanf_r+0x2e6>
 8006a8e:	6863      	ldr	r3, [r4, #4]
 8006a90:	3b01      	subs	r3, #1
 8006a92:	6063      	str	r3, [r4, #4]
 8006a94:	9b45      	ldr	r3, [sp, #276]	; 0x114
 8006a96:	3201      	adds	r2, #1
 8006a98:	3301      	adds	r3, #1
 8006a9a:	6022      	str	r2, [r4, #0]
 8006a9c:	9345      	str	r3, [sp, #276]	; 0x114
 8006a9e:	e7d8      	b.n	8006a52 <__ssvfiscanf_r+0x4e>
 8006aa0:	9141      	str	r1, [sp, #260]	; 0x104
 8006aa2:	9143      	str	r1, [sp, #268]	; 0x10c
 8006aa4:	7853      	ldrb	r3, [r2, #1]
 8006aa6:	2b2a      	cmp	r3, #42	; 0x2a
 8006aa8:	bf02      	ittt	eq
 8006aaa:	2310      	moveq	r3, #16
 8006aac:	1c95      	addeq	r5, r2, #2
 8006aae:	9341      	streq	r3, [sp, #260]	; 0x104
 8006ab0:	220a      	movs	r2, #10
 8006ab2:	46aa      	mov	sl, r5
 8006ab4:	f81a 1b01 	ldrb.w	r1, [sl], #1
 8006ab8:	f1a1 0330 	sub.w	r3, r1, #48	; 0x30
 8006abc:	2b09      	cmp	r3, #9
 8006abe:	d91d      	bls.n	8006afc <__ssvfiscanf_r+0xf8>
 8006ac0:	487e      	ldr	r0, [pc, #504]	; (8006cbc <__ssvfiscanf_r+0x2b8>)
 8006ac2:	2203      	movs	r2, #3
 8006ac4:	f7f9 fba4 	bl	8000210 <memchr>
 8006ac8:	b140      	cbz	r0, 8006adc <__ssvfiscanf_r+0xd8>
 8006aca:	2301      	movs	r3, #1
 8006acc:	eba0 0009 	sub.w	r0, r0, r9
 8006ad0:	fa03 f000 	lsl.w	r0, r3, r0
 8006ad4:	9b41      	ldr	r3, [sp, #260]	; 0x104
 8006ad6:	4318      	orrs	r0, r3
 8006ad8:	9041      	str	r0, [sp, #260]	; 0x104
 8006ada:	4655      	mov	r5, sl
 8006adc:	f815 3b01 	ldrb.w	r3, [r5], #1
 8006ae0:	2b78      	cmp	r3, #120	; 0x78
 8006ae2:	d806      	bhi.n	8006af2 <__ssvfiscanf_r+0xee>
 8006ae4:	2b57      	cmp	r3, #87	; 0x57
 8006ae6:	d810      	bhi.n	8006b0a <__ssvfiscanf_r+0x106>
 8006ae8:	2b25      	cmp	r3, #37	; 0x25
 8006aea:	d0c6      	beq.n	8006a7a <__ssvfiscanf_r+0x76>
 8006aec:	d856      	bhi.n	8006b9c <__ssvfiscanf_r+0x198>
 8006aee:	2b00      	cmp	r3, #0
 8006af0:	d064      	beq.n	8006bbc <__ssvfiscanf_r+0x1b8>
 8006af2:	2303      	movs	r3, #3
 8006af4:	9347      	str	r3, [sp, #284]	; 0x11c
 8006af6:	230a      	movs	r3, #10
 8006af8:	9342      	str	r3, [sp, #264]	; 0x108
 8006afa:	e071      	b.n	8006be0 <__ssvfiscanf_r+0x1dc>
 8006afc:	9b43      	ldr	r3, [sp, #268]	; 0x10c
 8006afe:	fb02 1103 	mla	r1, r2, r3, r1
 8006b02:	3930      	subs	r1, #48	; 0x30
 8006b04:	9143      	str	r1, [sp, #268]	; 0x10c
 8006b06:	4655      	mov	r5, sl
 8006b08:	e7d3      	b.n	8006ab2 <__ssvfiscanf_r+0xae>
 8006b0a:	f1a3 0258 	sub.w	r2, r3, #88	; 0x58
 8006b0e:	2a20      	cmp	r2, #32
 8006b10:	d8ef      	bhi.n	8006af2 <__ssvfiscanf_r+0xee>
 8006b12:	a101      	add	r1, pc, #4	; (adr r1, 8006b18 <__ssvfiscanf_r+0x114>)
 8006b14:	f851 f022 	ldr.w	pc, [r1, r2, lsl #2]
 8006b18:	08006bcb 	.word	0x08006bcb
 8006b1c:	08006af3 	.word	0x08006af3
 8006b20:	08006af3 	.word	0x08006af3
 8006b24:	08006c29 	.word	0x08006c29
 8006b28:	08006af3 	.word	0x08006af3
 8006b2c:	08006af3 	.word	0x08006af3
 8006b30:	08006af3 	.word	0x08006af3
 8006b34:	08006af3 	.word	0x08006af3
 8006b38:	08006af3 	.word	0x08006af3
 8006b3c:	08006af3 	.word	0x08006af3
 8006b40:	08006af3 	.word	0x08006af3
 8006b44:	08006c3f 	.word	0x08006c3f
 8006b48:	08006c15 	.word	0x08006c15
 8006b4c:	08006ba3 	.word	0x08006ba3
 8006b50:	08006ba3 	.word	0x08006ba3
 8006b54:	08006ba3 	.word	0x08006ba3
 8006b58:	08006af3 	.word	0x08006af3
 8006b5c:	08006c19 	.word	0x08006c19
 8006b60:	08006af3 	.word	0x08006af3
 8006b64:	08006af3 	.word	0x08006af3
 8006b68:	08006af3 	.word	0x08006af3
 8006b6c:	08006af3 	.word	0x08006af3
 8006b70:	08006c4f 	.word	0x08006c4f
 8006b74:	08006c21 	.word	0x08006c21
 8006b78:	08006bc3 	.word	0x08006bc3
 8006b7c:	08006af3 	.word	0x08006af3
 8006b80:	08006af3 	.word	0x08006af3
 8006b84:	08006c4b 	.word	0x08006c4b
 8006b88:	08006af3 	.word	0x08006af3
 8006b8c:	08006c15 	.word	0x08006c15
 8006b90:	08006af3 	.word	0x08006af3
 8006b94:	08006af3 	.word	0x08006af3
 8006b98:	08006bcb 	.word	0x08006bcb
 8006b9c:	3b45      	subs	r3, #69	; 0x45
 8006b9e:	2b02      	cmp	r3, #2
 8006ba0:	d8a7      	bhi.n	8006af2 <__ssvfiscanf_r+0xee>
 8006ba2:	2305      	movs	r3, #5
 8006ba4:	e01b      	b.n	8006bde <__ssvfiscanf_r+0x1da>
 8006ba6:	9ba1      	ldr	r3, [sp, #644]	; 0x284
 8006ba8:	4621      	mov	r1, r4
 8006baa:	4630      	mov	r0, r6
 8006bac:	4798      	blx	r3
 8006bae:	2800      	cmp	r0, #0
 8006bb0:	f43f af68 	beq.w	8006a84 <__ssvfiscanf_r+0x80>
 8006bb4:	9844      	ldr	r0, [sp, #272]	; 0x110
 8006bb6:	2800      	cmp	r0, #0
 8006bb8:	f040 808d 	bne.w	8006cd6 <__ssvfiscanf_r+0x2d2>
 8006bbc:	f04f 30ff 	mov.w	r0, #4294967295	; 0xffffffff
 8006bc0:	e08f      	b.n	8006ce2 <__ssvfiscanf_r+0x2de>
 8006bc2:	9a41      	ldr	r2, [sp, #260]	; 0x104
 8006bc4:	f042 0220 	orr.w	r2, r2, #32
 8006bc8:	9241      	str	r2, [sp, #260]	; 0x104
 8006bca:	9a41      	ldr	r2, [sp, #260]	; 0x104
 8006bcc:	f442 7200 	orr.w	r2, r2, #512	; 0x200
 8006bd0:	9241      	str	r2, [sp, #260]	; 0x104
 8006bd2:	2210      	movs	r2, #16
 8006bd4:	2b6f      	cmp	r3, #111	; 0x6f
 8006bd6:	9242      	str	r2, [sp, #264]	; 0x108
 8006bd8:	bf34      	ite	cc
 8006bda:	2303      	movcc	r3, #3
 8006bdc:	2304      	movcs	r3, #4
 8006bde:	9347      	str	r3, [sp, #284]	; 0x11c
 8006be0:	6863      	ldr	r3, [r4, #4]
 8006be2:	2b00      	cmp	r3, #0
 8006be4:	dd42      	ble.n	8006c6c <__ssvfiscanf_r+0x268>
 8006be6:	9b41      	ldr	r3, [sp, #260]	; 0x104
 8006be8:	0659      	lsls	r1, r3, #25
 8006bea:	d404      	bmi.n	8006bf6 <__ssvfiscanf_r+0x1f2>
 8006bec:	6823      	ldr	r3, [r4, #0]
 8006bee:	781a      	ldrb	r2, [r3, #0]
 8006bf0:	5cba      	ldrb	r2, [r7, r2]
 8006bf2:	0712      	lsls	r2, r2, #28
 8006bf4:	d441      	bmi.n	8006c7a <__ssvfiscanf_r+0x276>
 8006bf6:	9b47      	ldr	r3, [sp, #284]	; 0x11c
 8006bf8:	2b02      	cmp	r3, #2
 8006bfa:	dc50      	bgt.n	8006c9e <__ssvfiscanf_r+0x29a>
 8006bfc:	466b      	mov	r3, sp
 8006bfe:	4622      	mov	r2, r4
 8006c00:	a941      	add	r1, sp, #260	; 0x104
 8006c02:	4630      	mov	r0, r6
 8006c04:	f000 f876 	bl	8006cf4 <_scanf_chars>
 8006c08:	2801      	cmp	r0, #1
 8006c0a:	d06e      	beq.n	8006cea <__ssvfiscanf_r+0x2e6>
 8006c0c:	2802      	cmp	r0, #2
 8006c0e:	f47f af20 	bne.w	8006a52 <__ssvfiscanf_r+0x4e>
 8006c12:	e7cf      	b.n	8006bb4 <__ssvfiscanf_r+0x1b0>
 8006c14:	220a      	movs	r2, #10
 8006c16:	e7dd      	b.n	8006bd4 <__ssvfiscanf_r+0x1d0>
 8006c18:	2300      	movs	r3, #0
 8006c1a:	9342      	str	r3, [sp, #264]	; 0x108
 8006c1c:	2303      	movs	r3, #3
 8006c1e:	e7de      	b.n	8006bde <__ssvfiscanf_r+0x1da>
 8006c20:	2308      	movs	r3, #8
 8006c22:	9342      	str	r3, [sp, #264]	; 0x108
 8006c24:	2304      	movs	r3, #4
 8006c26:	e7da      	b.n	8006bde <__ssvfiscanf_r+0x1da>
 8006c28:	4629      	mov	r1, r5
 8006c2a:	4640      	mov	r0, r8
 8006c2c:	f000 f9c6 	bl	8006fbc <__sccl>
 8006c30:	9b41      	ldr	r3, [sp, #260]	; 0x104
 8006c32:	f043 0340 	orr.w	r3, r3, #64	; 0x40
 8006c36:	9341      	str	r3, [sp, #260]	; 0x104
 8006c38:	4605      	mov	r5, r0
 8006c3a:	2301      	movs	r3, #1
 8006c3c:	e7cf      	b.n	8006bde <__ssvfiscanf_r+0x1da>
 8006c3e:	9b41      	ldr	r3, [sp, #260]	; 0x104
 8006c40:	f043 0340 	orr.w	r3, r3, #64	; 0x40
 8006c44:	9341      	str	r3, [sp, #260]	; 0x104
 8006c46:	2300      	movs	r3, #0
 8006c48:	e7c9      	b.n	8006bde <__ssvfiscanf_r+0x1da>
 8006c4a:	2302      	movs	r3, #2
 8006c4c:	e7c7      	b.n	8006bde <__ssvfiscanf_r+0x1da>
 8006c4e:	9841      	ldr	r0, [sp, #260]	; 0x104
 8006c50:	06c3      	lsls	r3, r0, #27
 8006c52:	f53f aefe 	bmi.w	8006a52 <__ssvfiscanf_r+0x4e>
 8006c56:	9b00      	ldr	r3, [sp, #0]
 8006c58:	9a45      	ldr	r2, [sp, #276]	; 0x114
 8006c5a:	1d19      	adds	r1, r3, #4
 8006c5c:	9100      	str	r1, [sp, #0]
 8006c5e:	681b      	ldr	r3, [r3, #0]
 8006c60:	f010 0f01 	tst.w	r0, #1
 8006c64:	bf14      	ite	ne
 8006c66:	801a      	strhne	r2, [r3, #0]
 8006c68:	601a      	streq	r2, [r3, #0]
 8006c6a:	e6f2      	b.n	8006a52 <__ssvfiscanf_r+0x4e>
 8006c6c:	9ba1      	ldr	r3, [sp, #644]	; 0x284
 8006c6e:	4621      	mov	r1, r4
 8006c70:	4630      	mov	r0, r6
 8006c72:	4798      	blx	r3
 8006c74:	2800      	cmp	r0, #0
 8006c76:	d0b6      	beq.n	8006be6 <__ssvfiscanf_r+0x1e2>
 8006c78:	e79c      	b.n	8006bb4 <__ssvfiscanf_r+0x1b0>
 8006c7a:	9a45      	ldr	r2, [sp, #276]	; 0x114
 8006c7c:	3201      	adds	r2, #1
 8006c7e:	9245      	str	r2, [sp, #276]	; 0x114
 8006c80:	6862      	ldr	r2, [r4, #4]
 8006c82:	3a01      	subs	r2, #1
 8006c84:	2a00      	cmp	r2, #0
 8006c86:	6062      	str	r2, [r4, #4]
 8006c88:	dd02      	ble.n	8006c90 <__ssvfiscanf_r+0x28c>
 8006c8a:	3301      	adds	r3, #1
 8006c8c:	6023      	str	r3, [r4, #0]
 8006c8e:	e7ad      	b.n	8006bec <__ssvfiscanf_r+0x1e8>
 8006c90:	9ba1      	ldr	r3, [sp, #644]	; 0x284
 8006c92:	4621      	mov	r1, r4
 8006c94:	4630      	mov	r0, r6
 8006c96:	4798      	blx	r3
 8006c98:	2800      	cmp	r0, #0
 8006c9a:	d0a7      	beq.n	8006bec <__ssvfiscanf_r+0x1e8>
 8006c9c:	e78a      	b.n	8006bb4 <__ssvfiscanf_r+0x1b0>
 8006c9e:	2b04      	cmp	r3, #4
 8006ca0:	dc0e      	bgt.n	8006cc0 <__ssvfiscanf_r+0x2bc>
 8006ca2:	466b      	mov	r3, sp
 8006ca4:	4622      	mov	r2, r4
 8006ca6:	a941      	add	r1, sp, #260	; 0x104
 8006ca8:	4630      	mov	r0, r6
 8006caa:	f000 f87d 	bl	8006da8 <_scanf_i>
 8006cae:	e7ab      	b.n	8006c08 <__ssvfiscanf_r+0x204>
 8006cb0:	08006951 	.word	0x08006951
 8006cb4:	080069cb 	.word	0x080069cb
 8006cb8:	0800909d 	.word	0x0800909d
 8006cbc:	0800903a 	.word	0x0800903a
 8006cc0:	4b0b      	ldr	r3, [pc, #44]	; (8006cf0 <__ssvfiscanf_r+0x2ec>)
 8006cc2:	2b00      	cmp	r3, #0
 8006cc4:	f43f aec5 	beq.w	8006a52 <__ssvfiscanf_r+0x4e>
 8006cc8:	466b      	mov	r3, sp
 8006cca:	4622      	mov	r2, r4
 8006ccc:	a941      	add	r1, sp, #260	; 0x104
 8006cce:	4630      	mov	r0, r6
 8006cd0:	f3af 8000 	nop.w
 8006cd4:	e798      	b.n	8006c08 <__ssvfiscanf_r+0x204>
 8006cd6:	89a3      	ldrh	r3, [r4, #12]
 8006cd8:	f013 0f40 	tst.w	r3, #64	; 0x40
 8006cdc:	bf18      	it	ne
 8006cde:	f04f 30ff 	movne.w	r0, #4294967295	; 0xffffffff
 8006ce2:	f50d 7d22 	add.w	sp, sp, #648	; 0x288
 8006ce6:	e8bd 87f0 	ldmia.w	sp!, {r4, r5, r6, r7, r8, r9, sl, pc}
 8006cea:	9844      	ldr	r0, [sp, #272]	; 0x110
 8006cec:	e7f9      	b.n	8006ce2 <__ssvfiscanf_r+0x2de>
 8006cee:	bf00      	nop
 8006cf0:	00000000 	.word	0x00000000

08006cf4 <_scanf_chars>:
 8006cf4:	e92d 43f8 	stmdb	sp!, {r3, r4, r5, r6, r7, r8, r9, lr}
 8006cf8:	4615      	mov	r5, r2
 8006cfa:	688a      	ldr	r2, [r1, #8]
 8006cfc:	4680      	mov	r8, r0
 8006cfe:	460c      	mov	r4, r1
 8006d00:	b932      	cbnz	r2, 8006d10 <_scanf_chars+0x1c>
 8006d02:	698a      	ldr	r2, [r1, #24]
 8006d04:	2a00      	cmp	r2, #0
 8006d06:	bf0c      	ite	eq
 8006d08:	2201      	moveq	r2, #1
 8006d0a:	f04f 32ff 	movne.w	r2, #4294967295	; 0xffffffff
 8006d0e:	608a      	str	r2, [r1, #8]
 8006d10:	6822      	ldr	r2, [r4, #0]
 8006d12:	f8df 9090 	ldr.w	r9, [pc, #144]	; 8006da4 <_scanf_chars+0xb0>
 8006d16:	06d1      	lsls	r1, r2, #27
 8006d18:	bf5f      	itttt	pl
 8006d1a:	681a      	ldrpl	r2, [r3, #0]
 8006d1c:	1d11      	addpl	r1, r2, #4
 8006d1e:	6019      	strpl	r1, [r3, #0]
 8006d20:	6816      	ldrpl	r6, [r2, #0]
 8006d22:	2700      	movs	r7, #0
 8006d24:	69a0      	ldr	r0, [r4, #24]
 8006d26:	b188      	cbz	r0, 8006d4c <_scanf_chars+0x58>
 8006d28:	2801      	cmp	r0, #1
 8006d2a:	d107      	bne.n	8006d3c <_scanf_chars+0x48>
 8006d2c:	682a      	ldr	r2, [r5, #0]
 8006d2e:	7811      	ldrb	r1, [r2, #0]
 8006d30:	6962      	ldr	r2, [r4, #20]
 8006d32:	5c52      	ldrb	r2, [r2, r1]
 8006d34:	b952      	cbnz	r2, 8006d4c <_scanf_chars+0x58>
 8006d36:	2f00      	cmp	r7, #0
 8006d38:	d031      	beq.n	8006d9e <_scanf_chars+0xaa>
 8006d3a:	e022      	b.n	8006d82 <_scanf_chars+0x8e>
 8006d3c:	2802      	cmp	r0, #2
 8006d3e:	d120      	bne.n	8006d82 <_scanf_chars+0x8e>
 8006d40:	682b      	ldr	r3, [r5, #0]
 8006d42:	781b      	ldrb	r3, [r3, #0]
 8006d44:	f813 3009 	ldrb.w	r3, [r3, r9]
 8006d48:	071b      	lsls	r3, r3, #28
 8006d4a:	d41a      	bmi.n	8006d82 <_scanf_chars+0x8e>
 8006d4c:	6823      	ldr	r3, [r4, #0]
 8006d4e:	06da      	lsls	r2, r3, #27
 8006d50:	bf5e      	ittt	pl
 8006d52:	682b      	ldrpl	r3, [r5, #0]
 8006d54:	781b      	ldrbpl	r3, [r3, #0]
 8006d56:	f806 3b01 	strbpl.w	r3, [r6], #1
 8006d5a:	682a      	ldr	r2, [r5, #0]
 8006d5c:	686b      	ldr	r3, [r5, #4]
 8006d5e:	3201      	adds	r2, #1
 8006d60:	602a      	str	r2, [r5, #0]
 8006d62:	68a2      	ldr	r2, [r4, #8]
 8006d64:	3b01      	subs	r3, #1
 8006d66:	3a01      	subs	r2, #1
 8006d68:	606b      	str	r3, [r5, #4]
 8006d6a:	3701      	adds	r7, #1
 8006d6c:	60a2      	str	r2, [r4, #8]
 8006d6e:	b142      	cbz	r2, 8006d82 <_scanf_chars+0x8e>
 8006d70:	2b00      	cmp	r3, #0
 8006d72:	dcd7      	bgt.n	8006d24 <_scanf_chars+0x30>
 8006d74:	f8d4 3180 	ldr.w	r3, [r4, #384]	; 0x180
 8006d78:	4629      	mov	r1, r5
 8006d7a:	4640      	mov	r0, r8
 8006d7c:	4798      	blx	r3
 8006d7e:	2800      	cmp	r0, #0
 8006d80:	d0d0      	beq.n	8006d24 <_scanf_chars+0x30>
 8006d82:	6823      	ldr	r3, [r4, #0]
 8006d84:	f013 0310 	ands.w	r3, r3, #16
 8006d88:	d105      	bne.n	8006d96 <_scanf_chars+0xa2>
 8006d8a:	68e2      	ldr	r2, [r4, #12]
 8006d8c:	3201      	adds	r2, #1
 8006d8e:	60e2      	str	r2, [r4, #12]
 8006d90:	69a2      	ldr	r2, [r4, #24]
 8006d92:	b102      	cbz	r2, 8006d96 <_scanf_chars+0xa2>
 8006d94:	7033      	strb	r3, [r6, #0]
 8006d96:	6923      	ldr	r3, [r4, #16]
 8006d98:	443b      	add	r3, r7
 8006d9a:	6123      	str	r3, [r4, #16]
 8006d9c:	2000      	movs	r0, #0
 8006d9e:	e8bd 83f8 	ldmia.w	sp!, {r3, r4, r5, r6, r7, r8, r9, pc}
 8006da2:	bf00      	nop
 8006da4:	0800909d 	.word	0x0800909d

08006da8 <_scanf_i>:
 8006da8:	e92d 4ff0 	stmdb	sp!, {r4, r5, r6, r7, r8, r9, sl, fp, lr}
 8006dac:	4698      	mov	r8, r3
 8006dae:	4b76      	ldr	r3, [pc, #472]	; (8006f88 <_scanf_i+0x1e0>)
 8006db0:	460c      	mov	r4, r1
 8006db2:	4682      	mov	sl, r0
 8006db4:	4616      	mov	r6, r2
 8006db6:	e893 0007 	ldmia.w	r3, {r0, r1, r2}
 8006dba:	b087      	sub	sp, #28
 8006dbc:	ab03      	add	r3, sp, #12
 8006dbe:	e883 0007 	stmia.w	r3, {r0, r1, r2}
 8006dc2:	4b72      	ldr	r3, [pc, #456]	; (8006f8c <_scanf_i+0x1e4>)
 8006dc4:	69a1      	ldr	r1, [r4, #24]
 8006dc6:	4a72      	ldr	r2, [pc, #456]	; (8006f90 <_scanf_i+0x1e8>)
 8006dc8:	2903      	cmp	r1, #3
 8006dca:	bf18      	it	ne
 8006dcc:	461a      	movne	r2, r3
 8006dce:	68a3      	ldr	r3, [r4, #8]
 8006dd0:	9201      	str	r2, [sp, #4]
 8006dd2:	1e5a      	subs	r2, r3, #1
 8006dd4:	f5b2 7fae 	cmp.w	r2, #348	; 0x15c
 8006dd8:	bf88      	it	hi
 8006dda:	f46f 75ae 	mvnhi.w	r5, #348	; 0x15c
 8006dde:	4627      	mov	r7, r4
 8006de0:	bf82      	ittt	hi
 8006de2:	eb03 0905 	addhi.w	r9, r3, r5
 8006de6:	f240 135d 	movwhi	r3, #349	; 0x15d
 8006dea:	60a3      	strhi	r3, [r4, #8]
 8006dec:	f857 3b1c 	ldr.w	r3, [r7], #28
 8006df0:	f443 6350 	orr.w	r3, r3, #3328	; 0xd00
 8006df4:	bf98      	it	ls
 8006df6:	f04f 0900 	movls.w	r9, #0
 8006dfa:	6023      	str	r3, [r4, #0]
 8006dfc:	463d      	mov	r5, r7
 8006dfe:	f04f 0b00 	mov.w	fp, #0
 8006e02:	6831      	ldr	r1, [r6, #0]
 8006e04:	ab03      	add	r3, sp, #12
 8006e06:	7809      	ldrb	r1, [r1, #0]
 8006e08:	f853 002b 	ldr.w	r0, [r3, fp, lsl #2]
 8006e0c:	2202      	movs	r2, #2
 8006e0e:	f7f9 f9ff 	bl	8000210 <memchr>
 8006e12:	b328      	cbz	r0, 8006e60 <_scanf_i+0xb8>
 8006e14:	f1bb 0f01 	cmp.w	fp, #1
 8006e18:	d159      	bne.n	8006ece <_scanf_i+0x126>
 8006e1a:	6862      	ldr	r2, [r4, #4]
 8006e1c:	b92a      	cbnz	r2, 8006e2a <_scanf_i+0x82>
 8006e1e:	6822      	ldr	r2, [r4, #0]
 8006e20:	2308      	movs	r3, #8
 8006e22:	f442 7200 	orr.w	r2, r2, #512	; 0x200
 8006e26:	6063      	str	r3, [r4, #4]
 8006e28:	6022      	str	r2, [r4, #0]
 8006e2a:	6822      	ldr	r2, [r4, #0]
 8006e2c:	f422 62a0 	bic.w	r2, r2, #1280	; 0x500
 8006e30:	6022      	str	r2, [r4, #0]
 8006e32:	68a2      	ldr	r2, [r4, #8]
 8006e34:	1e51      	subs	r1, r2, #1
 8006e36:	60a1      	str	r1, [r4, #8]
 8006e38:	b192      	cbz	r2, 8006e60 <_scanf_i+0xb8>
 8006e3a:	6832      	ldr	r2, [r6, #0]
 8006e3c:	1c51      	adds	r1, r2, #1
 8006e3e:	6031      	str	r1, [r6, #0]
 8006e40:	7812      	ldrb	r2, [r2, #0]
 8006e42:	f805 2b01 	strb.w	r2, [r5], #1
 8006e46:	6872      	ldr	r2, [r6, #4]
 8006e48:	3a01      	subs	r2, #1
 8006e4a:	2a00      	cmp	r2, #0
 8006e4c:	6072      	str	r2, [r6, #4]
 8006e4e:	dc07      	bgt.n	8006e60 <_scanf_i+0xb8>
 8006e50:	f8d4 2180 	ldr.w	r2, [r4, #384]	; 0x180
 8006e54:	4631      	mov	r1, r6
 8006e56:	4650      	mov	r0, sl
 8006e58:	4790      	blx	r2
 8006e5a:	2800      	cmp	r0, #0
 8006e5c:	f040 8085 	bne.w	8006f6a <_scanf_i+0x1c2>
 8006e60:	f10b 0b01 	add.w	fp, fp, #1
 8006e64:	f1bb 0f03 	cmp.w	fp, #3
 8006e68:	d1cb      	bne.n	8006e02 <_scanf_i+0x5a>
 8006e6a:	6863      	ldr	r3, [r4, #4]
 8006e6c:	b90b      	cbnz	r3, 8006e72 <_scanf_i+0xca>
 8006e6e:	230a      	movs	r3, #10
 8006e70:	6063      	str	r3, [r4, #4]
 8006e72:	6863      	ldr	r3, [r4, #4]
 8006e74:	4947      	ldr	r1, [pc, #284]	; (8006f94 <_scanf_i+0x1ec>)
 8006e76:	6960      	ldr	r0, [r4, #20]
 8006e78:	1ac9      	subs	r1, r1, r3
 8006e7a:	f000 f89f 	bl	8006fbc <__sccl>
 8006e7e:	f04f 0b00 	mov.w	fp, #0
 8006e82:	68a3      	ldr	r3, [r4, #8]
 8006e84:	6822      	ldr	r2, [r4, #0]
 8006e86:	2b00      	cmp	r3, #0
 8006e88:	d03d      	beq.n	8006f06 <_scanf_i+0x15e>
 8006e8a:	6831      	ldr	r1, [r6, #0]
 8006e8c:	6960      	ldr	r0, [r4, #20]
 8006e8e:	f891 c000 	ldrb.w	ip, [r1]
 8006e92:	f810 000c 	ldrb.w	r0, [r0, ip]
 8006e96:	2800      	cmp	r0, #0
 8006e98:	d035      	beq.n	8006f06 <_scanf_i+0x15e>
 8006e9a:	f1bc 0f30 	cmp.w	ip, #48	; 0x30
 8006e9e:	d124      	bne.n	8006eea <_scanf_i+0x142>
 8006ea0:	0510      	lsls	r0, r2, #20
 8006ea2:	d522      	bpl.n	8006eea <_scanf_i+0x142>
 8006ea4:	f10b 0b01 	add.w	fp, fp, #1
 8006ea8:	f1b9 0f00 	cmp.w	r9, #0
 8006eac:	d003      	beq.n	8006eb6 <_scanf_i+0x10e>
 8006eae:	3301      	adds	r3, #1
 8006eb0:	f109 39ff 	add.w	r9, r9, #4294967295	; 0xffffffff
 8006eb4:	60a3      	str	r3, [r4, #8]
 8006eb6:	6873      	ldr	r3, [r6, #4]
 8006eb8:	3b01      	subs	r3, #1
 8006eba:	2b00      	cmp	r3, #0
 8006ebc:	6073      	str	r3, [r6, #4]
 8006ebe:	dd1b      	ble.n	8006ef8 <_scanf_i+0x150>
 8006ec0:	6833      	ldr	r3, [r6, #0]
 8006ec2:	3301      	adds	r3, #1
 8006ec4:	6033      	str	r3, [r6, #0]
 8006ec6:	68a3      	ldr	r3, [r4, #8]
 8006ec8:	3b01      	subs	r3, #1
 8006eca:	60a3      	str	r3, [r4, #8]
 8006ecc:	e7d9      	b.n	8006e82 <_scanf_i+0xda>
 8006ece:	f1bb 0f02 	cmp.w	fp, #2
 8006ed2:	d1ae      	bne.n	8006e32 <_scanf_i+0x8a>
 8006ed4:	6822      	ldr	r2, [r4, #0]
 8006ed6:	f402 61c0 	and.w	r1, r2, #1536	; 0x600
 8006eda:	f5b1 7f00 	cmp.w	r1, #512	; 0x200
 8006ede:	d1bf      	bne.n	8006e60 <_scanf_i+0xb8>
 8006ee0:	2310      	movs	r3, #16
 8006ee2:	6063      	str	r3, [r4, #4]
 8006ee4:	f442 7280 	orr.w	r2, r2, #256	; 0x100
 8006ee8:	e7a2      	b.n	8006e30 <_scanf_i+0x88>
 8006eea:	f422 6210 	bic.w	r2, r2, #2304	; 0x900
 8006eee:	6022      	str	r2, [r4, #0]
 8006ef0:	780b      	ldrb	r3, [r1, #0]
 8006ef2:	f805 3b01 	strb.w	r3, [r5], #1
 8006ef6:	e7de      	b.n	8006eb6 <_scanf_i+0x10e>
 8006ef8:	f8d4 3180 	ldr.w	r3, [r4, #384]	; 0x180
 8006efc:	4631      	mov	r1, r6
 8006efe:	4650      	mov	r0, sl
 8006f00:	4798      	blx	r3
 8006f02:	2800      	cmp	r0, #0
 8006f04:	d0df      	beq.n	8006ec6 <_scanf_i+0x11e>
 8006f06:	6823      	ldr	r3, [r4, #0]
 8006f08:	05db      	lsls	r3, r3, #23
 8006f0a:	d50d      	bpl.n	8006f28 <_scanf_i+0x180>
 8006f0c:	42bd      	cmp	r5, r7
 8006f0e:	d909      	bls.n	8006f24 <_scanf_i+0x17c>
 8006f10:	f815 1c01 	ldrb.w	r1, [r5, #-1]
 8006f14:	f8d4 317c 	ldr.w	r3, [r4, #380]	; 0x17c
 8006f18:	4632      	mov	r2, r6
 8006f1a:	4650      	mov	r0, sl
 8006f1c:	4798      	blx	r3
 8006f1e:	f105 39ff 	add.w	r9, r5, #4294967295	; 0xffffffff
 8006f22:	464d      	mov	r5, r9
 8006f24:	42bd      	cmp	r5, r7
 8006f26:	d02d      	beq.n	8006f84 <_scanf_i+0x1dc>
 8006f28:	6822      	ldr	r2, [r4, #0]
 8006f2a:	f012 0210 	ands.w	r2, r2, #16
 8006f2e:	d113      	bne.n	8006f58 <_scanf_i+0x1b0>
 8006f30:	702a      	strb	r2, [r5, #0]
 8006f32:	6863      	ldr	r3, [r4, #4]
 8006f34:	9e01      	ldr	r6, [sp, #4]
 8006f36:	4639      	mov	r1, r7
 8006f38:	4650      	mov	r0, sl
 8006f3a:	47b0      	blx	r6
 8006f3c:	6821      	ldr	r1, [r4, #0]
 8006f3e:	f8d8 3000 	ldr.w	r3, [r8]
 8006f42:	f011 0f20 	tst.w	r1, #32
 8006f46:	d013      	beq.n	8006f70 <_scanf_i+0x1c8>
 8006f48:	1d1a      	adds	r2, r3, #4
 8006f4a:	f8c8 2000 	str.w	r2, [r8]
 8006f4e:	681b      	ldr	r3, [r3, #0]
 8006f50:	6018      	str	r0, [r3, #0]
 8006f52:	68e3      	ldr	r3, [r4, #12]
 8006f54:	3301      	adds	r3, #1
 8006f56:	60e3      	str	r3, [r4, #12]
 8006f58:	1bed      	subs	r5, r5, r7
 8006f5a:	44ab      	add	fp, r5
 8006f5c:	6925      	ldr	r5, [r4, #16]
 8006f5e:	445d      	add	r5, fp
 8006f60:	6125      	str	r5, [r4, #16]
 8006f62:	2000      	movs	r0, #0
 8006f64:	b007      	add	sp, #28
 8006f66:	e8bd 8ff0 	ldmia.w	sp!, {r4, r5, r6, r7, r8, r9, sl, fp, pc}
 8006f6a:	f04f 0b00 	mov.w	fp, #0
 8006f6e:	e7ca      	b.n	8006f06 <_scanf_i+0x15e>
 8006f70:	1d1a      	adds	r2, r3, #4
 8006f72:	f8c8 2000 	str.w	r2, [r8]
 8006f76:	681b      	ldr	r3, [r3, #0]
 8006f78:	f011 0f01 	tst.w	r1, #1
 8006f7c:	bf14      	ite	ne
 8006f7e:	8018      	strhne	r0, [r3, #0]
 8006f80:	6018      	streq	r0, [r3, #0]
 8006f82:	e7e6      	b.n	8006f52 <_scanf_i+0x1aa>
 8006f84:	2001      	movs	r0, #1
 8006f86:	e7ed      	b.n	8006f64 <_scanf_i+0x1bc>
 8006f88:	08008e08 	.word	0x08008e08
 8006f8c:	08007219 	.word	0x08007219
 8006f90:	08007131 	.word	0x08007131
 8006f94:	0800905e 	.word	0x0800905e

08006f98 <_read_r>:
 8006f98:	b538      	push	{r3, r4, r5, lr}
 8006f9a:	4d07      	ldr	r5, [pc, #28]	; (8006fb8 <_read_r+0x20>)
 8006f9c:	4604      	mov	r4, r0
 8006f9e:	4608      	mov	r0, r1
 8006fa0:	4611      	mov	r1, r2
 8006fa2:	2200      	movs	r2, #0
 8006fa4:	602a      	str	r2, [r5, #0]
 8006fa6:	461a      	mov	r2, r3
 8006fa8:	f7fa f8d8 	bl	800115c <_read>
 8006fac:	1c43      	adds	r3, r0, #1
 8006fae:	d102      	bne.n	8006fb6 <_read_r+0x1e>
 8006fb0:	682b      	ldr	r3, [r5, #0]
 8006fb2:	b103      	cbz	r3, 8006fb6 <_read_r+0x1e>
 8006fb4:	6023      	str	r3, [r4, #0]
 8006fb6:	bd38      	pop	{r3, r4, r5, pc}
 8006fb8:	20011a94 	.word	0x20011a94

08006fbc <__sccl>:
 8006fbc:	b570      	push	{r4, r5, r6, lr}
 8006fbe:	780b      	ldrb	r3, [r1, #0]
 8006fc0:	4604      	mov	r4, r0
 8006fc2:	2b5e      	cmp	r3, #94	; 0x5e
 8006fc4:	bf0b      	itete	eq
 8006fc6:	784b      	ldrbeq	r3, [r1, #1]
 8006fc8:	1c48      	addne	r0, r1, #1
 8006fca:	1c88      	addeq	r0, r1, #2
 8006fcc:	2200      	movne	r2, #0
 8006fce:	bf08      	it	eq
 8006fd0:	2201      	moveq	r2, #1
 8006fd2:	1e61      	subs	r1, r4, #1
 8006fd4:	f104 05ff 	add.w	r5, r4, #255	; 0xff
 8006fd8:	f801 2f01 	strb.w	r2, [r1, #1]!
 8006fdc:	42a9      	cmp	r1, r5
 8006fde:	d1fb      	bne.n	8006fd8 <__sccl+0x1c>
 8006fe0:	b90b      	cbnz	r3, 8006fe6 <__sccl+0x2a>
 8006fe2:	3801      	subs	r0, #1
 8006fe4:	bd70      	pop	{r4, r5, r6, pc}
 8006fe6:	f082 0201 	eor.w	r2, r2, #1
 8006fea:	54e2      	strb	r2, [r4, r3]
 8006fec:	4605      	mov	r5, r0
 8006fee:	4628      	mov	r0, r5
 8006ff0:	f810 1b01 	ldrb.w	r1, [r0], #1
 8006ff4:	292d      	cmp	r1, #45	; 0x2d
 8006ff6:	d006      	beq.n	8007006 <__sccl+0x4a>
 8006ff8:	295d      	cmp	r1, #93	; 0x5d
 8006ffa:	d0f3      	beq.n	8006fe4 <__sccl+0x28>
 8006ffc:	b909      	cbnz	r1, 8007002 <__sccl+0x46>
 8006ffe:	4628      	mov	r0, r5
 8007000:	e7f0      	b.n	8006fe4 <__sccl+0x28>
 8007002:	460b      	mov	r3, r1
 8007004:	e7f1      	b.n	8006fea <__sccl+0x2e>
 8007006:	786e      	ldrb	r6, [r5, #1]
 8007008:	2e5d      	cmp	r6, #93	; 0x5d
 800700a:	d0fa      	beq.n	8007002 <__sccl+0x46>
 800700c:	42b3      	cmp	r3, r6
 800700e:	dcf8      	bgt.n	8007002 <__sccl+0x46>
 8007010:	3502      	adds	r5, #2
 8007012:	4619      	mov	r1, r3
 8007014:	3101      	adds	r1, #1
 8007016:	428e      	cmp	r6, r1
 8007018:	5462      	strb	r2, [r4, r1]
 800701a:	dcfb      	bgt.n	8007014 <__sccl+0x58>
 800701c:	1af1      	subs	r1, r6, r3
 800701e:	3901      	subs	r1, #1
 8007020:	1c58      	adds	r0, r3, #1
 8007022:	42b3      	cmp	r3, r6
 8007024:	bfa8      	it	ge
 8007026:	2100      	movge	r1, #0
 8007028:	1843      	adds	r3, r0, r1
 800702a:	e7e0      	b.n	8006fee <__sccl+0x32>

0800702c <_strtol_l.constprop.0>:
 800702c:	2b01      	cmp	r3, #1
 800702e:	e92d 47f0 	stmdb	sp!, {r4, r5, r6, r7, r8, r9, sl, lr}
 8007032:	d001      	beq.n	8007038 <_strtol_l.constprop.0+0xc>
 8007034:	2b24      	cmp	r3, #36	; 0x24
 8007036:	d906      	bls.n	8007046 <_strtol_l.constprop.0+0x1a>
 8007038:	f7fd faa2 	bl	8004580 <__errno>
 800703c:	2316      	movs	r3, #22
 800703e:	6003      	str	r3, [r0, #0]
 8007040:	2000      	movs	r0, #0
 8007042:	e8bd 87f0 	ldmia.w	sp!, {r4, r5, r6, r7, r8, r9, sl, pc}
 8007046:	f8df c0e4 	ldr.w	ip, [pc, #228]	; 800712c <_strtol_l.constprop.0+0x100>
 800704a:	460d      	mov	r5, r1
 800704c:	462e      	mov	r6, r5
 800704e:	f815 4b01 	ldrb.w	r4, [r5], #1
 8007052:	f814 700c 	ldrb.w	r7, [r4, ip]
 8007056:	f017 0708 	ands.w	r7, r7, #8
 800705a:	d1f7      	bne.n	800704c <_strtol_l.constprop.0+0x20>
 800705c:	2c2d      	cmp	r4, #45	; 0x2d
 800705e:	d132      	bne.n	80070c6 <_strtol_l.constprop.0+0x9a>
 8007060:	782c      	ldrb	r4, [r5, #0]
 8007062:	2701      	movs	r7, #1
 8007064:	1cb5      	adds	r5, r6, #2
 8007066:	2b00      	cmp	r3, #0
 8007068:	d05b      	beq.n	8007122 <_strtol_l.constprop.0+0xf6>
 800706a:	2b10      	cmp	r3, #16
 800706c:	d109      	bne.n	8007082 <_strtol_l.constprop.0+0x56>
 800706e:	2c30      	cmp	r4, #48	; 0x30
 8007070:	d107      	bne.n	8007082 <_strtol_l.constprop.0+0x56>
 8007072:	782c      	ldrb	r4, [r5, #0]
 8007074:	f004 04df 	and.w	r4, r4, #223	; 0xdf
 8007078:	2c58      	cmp	r4, #88	; 0x58
 800707a:	d14d      	bne.n	8007118 <_strtol_l.constprop.0+0xec>
 800707c:	786c      	ldrb	r4, [r5, #1]
 800707e:	2310      	movs	r3, #16
 8007080:	3502      	adds	r5, #2
 8007082:	f107 4800 	add.w	r8, r7, #2147483648	; 0x80000000
 8007086:	f108 38ff 	add.w	r8, r8, #4294967295	; 0xffffffff
 800708a:	f04f 0c00 	mov.w	ip, #0
 800708e:	fbb8 f9f3 	udiv	r9, r8, r3
 8007092:	4666      	mov	r6, ip
 8007094:	fb03 8a19 	mls	sl, r3, r9, r8
 8007098:	f1a4 0e30 	sub.w	lr, r4, #48	; 0x30
 800709c:	f1be 0f09 	cmp.w	lr, #9
 80070a0:	d816      	bhi.n	80070d0 <_strtol_l.constprop.0+0xa4>
 80070a2:	4674      	mov	r4, lr
 80070a4:	42a3      	cmp	r3, r4
 80070a6:	dd24      	ble.n	80070f2 <_strtol_l.constprop.0+0xc6>
 80070a8:	f1bc 0f00 	cmp.w	ip, #0
 80070ac:	db1e      	blt.n	80070ec <_strtol_l.constprop.0+0xc0>
 80070ae:	45b1      	cmp	r9, r6
 80070b0:	d31c      	bcc.n	80070ec <_strtol_l.constprop.0+0xc0>
 80070b2:	d101      	bne.n	80070b8 <_strtol_l.constprop.0+0x8c>
 80070b4:	45a2      	cmp	sl, r4
 80070b6:	db19      	blt.n	80070ec <_strtol_l.constprop.0+0xc0>
 80070b8:	fb06 4603 	mla	r6, r6, r3, r4
 80070bc:	f04f 0c01 	mov.w	ip, #1
 80070c0:	f815 4b01 	ldrb.w	r4, [r5], #1
 80070c4:	e7e8      	b.n	8007098 <_strtol_l.constprop.0+0x6c>
 80070c6:	2c2b      	cmp	r4, #43	; 0x2b
 80070c8:	bf04      	itt	eq
 80070ca:	782c      	ldrbeq	r4, [r5, #0]
 80070cc:	1cb5      	addeq	r5, r6, #2
 80070ce:	e7ca      	b.n	8007066 <_strtol_l.constprop.0+0x3a>
 80070d0:	f1a4 0e41 	sub.w	lr, r4, #65	; 0x41
 80070d4:	f1be 0f19 	cmp.w	lr, #25
 80070d8:	d801      	bhi.n	80070de <_strtol_l.constprop.0+0xb2>
 80070da:	3c37      	subs	r4, #55	; 0x37
 80070dc:	e7e2      	b.n	80070a4 <_strtol_l.constprop.0+0x78>
 80070de:	f1a4 0e61 	sub.w	lr, r4, #97	; 0x61
 80070e2:	f1be 0f19 	cmp.w	lr, #25
 80070e6:	d804      	bhi.n	80070f2 <_strtol_l.constprop.0+0xc6>
 80070e8:	3c57      	subs	r4, #87	; 0x57
 80070ea:	e7db      	b.n	80070a4 <_strtol_l.constprop.0+0x78>
 80070ec:	f04f 3cff 	mov.w	ip, #4294967295	; 0xffffffff
 80070f0:	e7e6      	b.n	80070c0 <_strtol_l.constprop.0+0x94>
 80070f2:	f1bc 0f00 	cmp.w	ip, #0
 80070f6:	da05      	bge.n	8007104 <_strtol_l.constprop.0+0xd8>
 80070f8:	2322      	movs	r3, #34	; 0x22
 80070fa:	6003      	str	r3, [r0, #0]
 80070fc:	4646      	mov	r6, r8
 80070fe:	b942      	cbnz	r2, 8007112 <_strtol_l.constprop.0+0xe6>
 8007100:	4630      	mov	r0, r6
 8007102:	e79e      	b.n	8007042 <_strtol_l.constprop.0+0x16>
 8007104:	b107      	cbz	r7, 8007108 <_strtol_l.constprop.0+0xdc>
 8007106:	4276      	negs	r6, r6
 8007108:	2a00      	cmp	r2, #0
 800710a:	d0f9      	beq.n	8007100 <_strtol_l.constprop.0+0xd4>
 800710c:	f1bc 0f00 	cmp.w	ip, #0
 8007110:	d000      	beq.n	8007114 <_strtol_l.constprop.0+0xe8>
 8007112:	1e69      	subs	r1, r5, #1
 8007114:	6011      	str	r1, [r2, #0]
 8007116:	e7f3      	b.n	8007100 <_strtol_l.constprop.0+0xd4>
 8007118:	2430      	movs	r4, #48	; 0x30
 800711a:	2b00      	cmp	r3, #0
 800711c:	d1b1      	bne.n	8007082 <_strtol_l.constprop.0+0x56>
 800711e:	2308      	movs	r3, #8
 8007120:	e7af      	b.n	8007082 <_strtol_l.constprop.0+0x56>
 8007122:	2c30      	cmp	r4, #48	; 0x30
 8007124:	d0a5      	beq.n	8007072 <_strtol_l.constprop.0+0x46>
 8007126:	230a      	movs	r3, #10
 8007128:	e7ab      	b.n	8007082 <_strtol_l.constprop.0+0x56>
 800712a:	bf00      	nop
 800712c:	0800909d 	.word	0x0800909d

08007130 <_strtol_r>:
 8007130:	f7ff bf7c 	b.w	800702c <_strtol_l.constprop.0>

08007134 <_strtoul_l.constprop.0>:
 8007134:	e92d 43f0 	stmdb	sp!, {r4, r5, r6, r7, r8, r9, lr}
 8007138:	4f36      	ldr	r7, [pc, #216]	; (8007214 <_strtoul_l.constprop.0+0xe0>)
 800713a:	4686      	mov	lr, r0
 800713c:	460d      	mov	r5, r1
 800713e:	4628      	mov	r0, r5
 8007140:	f815 4b01 	ldrb.w	r4, [r5], #1
 8007144:	5de6      	ldrb	r6, [r4, r7]
 8007146:	f016 0608 	ands.w	r6, r6, #8
 800714a:	d1f8      	bne.n	800713e <_strtoul_l.constprop.0+0xa>
 800714c:	2c2d      	cmp	r4, #45	; 0x2d
 800714e:	d12f      	bne.n	80071b0 <_strtoul_l.constprop.0+0x7c>
 8007150:	782c      	ldrb	r4, [r5, #0]
 8007152:	2601      	movs	r6, #1
 8007154:	1c85      	adds	r5, r0, #2
 8007156:	2b00      	cmp	r3, #0
 8007158:	d057      	beq.n	800720a <_strtoul_l.constprop.0+0xd6>
 800715a:	2b10      	cmp	r3, #16
 800715c:	d109      	bne.n	8007172 <_strtoul_l.constprop.0+0x3e>
 800715e:	2c30      	cmp	r4, #48	; 0x30
 8007160:	d107      	bne.n	8007172 <_strtoul_l.constprop.0+0x3e>
 8007162:	7828      	ldrb	r0, [r5, #0]
 8007164:	f000 00df 	and.w	r0, r0, #223	; 0xdf
 8007168:	2858      	cmp	r0, #88	; 0x58
 800716a:	d149      	bne.n	8007200 <_strtoul_l.constprop.0+0xcc>
 800716c:	786c      	ldrb	r4, [r5, #1]
 800716e:	2310      	movs	r3, #16
 8007170:	3502      	adds	r5, #2
 8007172:	f04f 38ff 	mov.w	r8, #4294967295	; 0xffffffff
 8007176:	2700      	movs	r7, #0
 8007178:	fbb8 f8f3 	udiv	r8, r8, r3
 800717c:	fb03 f908 	mul.w	r9, r3, r8
 8007180:	ea6f 0909 	mvn.w	r9, r9
 8007184:	4638      	mov	r0, r7
 8007186:	f1a4 0c30 	sub.w	ip, r4, #48	; 0x30
 800718a:	f1bc 0f09 	cmp.w	ip, #9
 800718e:	d814      	bhi.n	80071ba <_strtoul_l.constprop.0+0x86>
 8007190:	4664      	mov	r4, ip
 8007192:	42a3      	cmp	r3, r4
 8007194:	dd22      	ble.n	80071dc <_strtoul_l.constprop.0+0xa8>
 8007196:	2f00      	cmp	r7, #0
 8007198:	db1d      	blt.n	80071d6 <_strtoul_l.constprop.0+0xa2>
 800719a:	4580      	cmp	r8, r0
 800719c:	d31b      	bcc.n	80071d6 <_strtoul_l.constprop.0+0xa2>
 800719e:	d101      	bne.n	80071a4 <_strtoul_l.constprop.0+0x70>
 80071a0:	45a1      	cmp	r9, r4
 80071a2:	db18      	blt.n	80071d6 <_strtoul_l.constprop.0+0xa2>
 80071a4:	fb00 4003 	mla	r0, r0, r3, r4
 80071a8:	2701      	movs	r7, #1
 80071aa:	f815 4b01 	ldrb.w	r4, [r5], #1
 80071ae:	e7ea      	b.n	8007186 <_strtoul_l.constprop.0+0x52>
 80071b0:	2c2b      	cmp	r4, #43	; 0x2b
 80071b2:	bf04      	itt	eq
 80071b4:	782c      	ldrbeq	r4, [r5, #0]
 80071b6:	1c85      	addeq	r5, r0, #2
 80071b8:	e7cd      	b.n	8007156 <_strtoul_l.constprop.0+0x22>
 80071ba:	f1a4 0c41 	sub.w	ip, r4, #65	; 0x41
 80071be:	f1bc 0f19 	cmp.w	ip, #25
 80071c2:	d801      	bhi.n	80071c8 <_strtoul_l.constprop.0+0x94>
 80071c4:	3c37      	subs	r4, #55	; 0x37
 80071c6:	e7e4      	b.n	8007192 <_strtoul_l.constprop.0+0x5e>
 80071c8:	f1a4 0c61 	sub.w	ip, r4, #97	; 0x61
 80071cc:	f1bc 0f19 	cmp.w	ip, #25
 80071d0:	d804      	bhi.n	80071dc <_strtoul_l.constprop.0+0xa8>
 80071d2:	3c57      	subs	r4, #87	; 0x57
 80071d4:	e7dd      	b.n	8007192 <_strtoul_l.constprop.0+0x5e>
 80071d6:	f04f 37ff 	mov.w	r7, #4294967295	; 0xffffffff
 80071da:	e7e6      	b.n	80071aa <_strtoul_l.constprop.0+0x76>
 80071dc:	2f00      	cmp	r7, #0
 80071de:	da07      	bge.n	80071f0 <_strtoul_l.constprop.0+0xbc>
 80071e0:	2322      	movs	r3, #34	; 0x22
 80071e2:	f8ce 3000 	str.w	r3, [lr]
 80071e6:	f04f 30ff 	mov.w	r0, #4294967295	; 0xffffffff
 80071ea:	b932      	cbnz	r2, 80071fa <_strtoul_l.constprop.0+0xc6>
 80071ec:	e8bd 83f0 	ldmia.w	sp!, {r4, r5, r6, r7, r8, r9, pc}
 80071f0:	b106      	cbz	r6, 80071f4 <_strtoul_l.constprop.0+0xc0>
 80071f2:	4240      	negs	r0, r0
 80071f4:	2a00      	cmp	r2, #0
 80071f6:	d0f9      	beq.n	80071ec <_strtoul_l.constprop.0+0xb8>
 80071f8:	b107      	cbz	r7, 80071fc <_strtoul_l.constprop.0+0xc8>
 80071fa:	1e69      	subs	r1, r5, #1
 80071fc:	6011      	str	r1, [r2, #0]
 80071fe:	e7f5      	b.n	80071ec <_strtoul_l.constprop.0+0xb8>
 8007200:	2430      	movs	r4, #48	; 0x30
 8007202:	2b00      	cmp	r3, #0
 8007204:	d1b5      	bne.n	8007172 <_strtoul_l.constprop.0+0x3e>
 8007206:	2308      	movs	r3, #8
 8007208:	e7b3      	b.n	8007172 <_strtoul_l.constprop.0+0x3e>
 800720a:	2c30      	cmp	r4, #48	; 0x30
 800720c:	d0a9      	beq.n	8007162 <_strtoul_l.constprop.0+0x2e>
 800720e:	230a      	movs	r3, #10
 8007210:	e7af      	b.n	8007172 <_strtoul_l.constprop.0+0x3e>
 8007212:	bf00      	nop
 8007214:	0800909d 	.word	0x0800909d

08007218 <_strtoul_r>:
 8007218:	f7ff bf8c 	b.w	8007134 <_strtoul_l.constprop.0>

0800721c <__submore>:
 800721c:	e92d 41f0 	stmdb	sp!, {r4, r5, r6, r7, r8, lr}
 8007220:	460c      	mov	r4, r1
 8007222:	6b49      	ldr	r1, [r1, #52]	; 0x34
 8007224:	f104 0344 	add.w	r3, r4, #68	; 0x44
 8007228:	4299      	cmp	r1, r3
 800722a:	d11d      	bne.n	8007268 <__submore+0x4c>
 800722c:	f44f 6180 	mov.w	r1, #1024	; 0x400
 8007230:	f7fd fa4c 	bl	80046cc <_malloc_r>
 8007234:	b918      	cbnz	r0, 800723e <__submore+0x22>
 8007236:	f04f 30ff 	mov.w	r0, #4294967295	; 0xffffffff
 800723a:	e8bd 81f0 	ldmia.w	sp!, {r4, r5, r6, r7, r8, pc}
 800723e:	f44f 6380 	mov.w	r3, #1024	; 0x400
 8007242:	63a3      	str	r3, [r4, #56]	; 0x38
 8007244:	f894 3046 	ldrb.w	r3, [r4, #70]	; 0x46
 8007248:	6360      	str	r0, [r4, #52]	; 0x34
 800724a:	f880 33ff 	strb.w	r3, [r0, #1023]	; 0x3ff
 800724e:	f894 3045 	ldrb.w	r3, [r4, #69]	; 0x45
 8007252:	f880 33fe 	strb.w	r3, [r0, #1022]	; 0x3fe
 8007256:	f894 3044 	ldrb.w	r3, [r4, #68]	; 0x44
 800725a:	f880 33fd 	strb.w	r3, [r0, #1021]	; 0x3fd
 800725e:	f200 30fd 	addw	r0, r0, #1021	; 0x3fd
 8007262:	6020      	str	r0, [r4, #0]
 8007264:	2000      	movs	r0, #0
 8007266:	e7e8      	b.n	800723a <__submore+0x1e>
 8007268:	6ba6      	ldr	r6, [r4, #56]	; 0x38
 800726a:	0077      	lsls	r7, r6, #1
 800726c:	463a      	mov	r2, r7
 800726e:	f000 fa25 	bl	80076bc <_realloc_r>
 8007272:	4605      	mov	r5, r0
 8007274:	2800      	cmp	r0, #0
 8007276:	d0de      	beq.n	8007236 <__submore+0x1a>
 8007278:	eb00 0806 	add.w	r8, r0, r6
 800727c:	4601      	mov	r1, r0
 800727e:	4632      	mov	r2, r6
 8007280:	4640      	mov	r0, r8
 8007282:	f7fe fe55 	bl	8005f30 <memcpy>
 8007286:	e9c4 570d 	strd	r5, r7, [r4, #52]	; 0x34
 800728a:	f8c4 8000 	str.w	r8, [r4]
 800728e:	e7e9      	b.n	8007264 <__submore+0x48>

08007290 <__assert_func>:
 8007290:	b51f      	push	{r0, r1, r2, r3, r4, lr}
 8007292:	4614      	mov	r4, r2
 8007294:	461a      	mov	r2, r3
 8007296:	4b09      	ldr	r3, [pc, #36]	; (80072bc <__assert_func+0x2c>)
 8007298:	681b      	ldr	r3, [r3, #0]
 800729a:	4605      	mov	r5, r0
 800729c:	68d8      	ldr	r0, [r3, #12]
 800729e:	b14c      	cbz	r4, 80072b4 <__assert_func+0x24>
 80072a0:	4b07      	ldr	r3, [pc, #28]	; (80072c0 <__assert_func+0x30>)
 80072a2:	9100      	str	r1, [sp, #0]
 80072a4:	e9cd 3401 	strd	r3, r4, [sp, #4]
 80072a8:	4906      	ldr	r1, [pc, #24]	; (80072c4 <__assert_func+0x34>)
 80072aa:	462b      	mov	r3, r5
 80072ac:	f000 f9a6 	bl	80075fc <fiprintf>
 80072b0:	f000 fc5a 	bl	8007b68 <abort>
 80072b4:	4b04      	ldr	r3, [pc, #16]	; (80072c8 <__assert_func+0x38>)
 80072b6:	461c      	mov	r4, r3
 80072b8:	e7f3      	b.n	80072a2 <__assert_func+0x12>
 80072ba:	bf00      	nop
 80072bc:	20000008 	.word	0x20000008
 80072c0:	08009060 	.word	0x08009060
 80072c4:	0800906d 	.word	0x0800906d
 80072c8:	0800909b 	.word	0x0800909b

080072cc <__sflush_r>:
 80072cc:	898a      	ldrh	r2, [r1, #12]
 80072ce:	e92d 41f0 	stmdb	sp!, {r4, r5, r6, r7, r8, lr}
 80072d2:	4605      	mov	r5, r0
 80072d4:	0710      	lsls	r0, r2, #28
 80072d6:	460c      	mov	r4, r1
 80072d8:	d458      	bmi.n	800738c <__sflush_r+0xc0>
 80072da:	684b      	ldr	r3, [r1, #4]
 80072dc:	2b00      	cmp	r3, #0
 80072de:	dc05      	bgt.n	80072ec <__sflush_r+0x20>
 80072e0:	6c0b      	ldr	r3, [r1, #64]	; 0x40
 80072e2:	2b00      	cmp	r3, #0
 80072e4:	dc02      	bgt.n	80072ec <__sflush_r+0x20>
 80072e6:	2000      	movs	r0, #0
 80072e8:	e8bd 81f0 	ldmia.w	sp!, {r4, r5, r6, r7, r8, pc}
 80072ec:	6ae6      	ldr	r6, [r4, #44]	; 0x2c
 80072ee:	2e00      	cmp	r6, #0
 80072f0:	d0f9      	beq.n	80072e6 <__sflush_r+0x1a>
 80072f2:	2300      	movs	r3, #0
 80072f4:	f412 5280 	ands.w	r2, r2, #4096	; 0x1000
 80072f8:	682f      	ldr	r7, [r5, #0]
 80072fa:	602b      	str	r3, [r5, #0]
 80072fc:	d032      	beq.n	8007364 <__sflush_r+0x98>
 80072fe:	6d60      	ldr	r0, [r4, #84]	; 0x54
 8007300:	89a3      	ldrh	r3, [r4, #12]
 8007302:	075a      	lsls	r2, r3, #29
 8007304:	d505      	bpl.n	8007312 <__sflush_r+0x46>
 8007306:	6863      	ldr	r3, [r4, #4]
 8007308:	1ac0      	subs	r0, r0, r3
 800730a:	6b63      	ldr	r3, [r4, #52]	; 0x34
 800730c:	b10b      	cbz	r3, 8007312 <__sflush_r+0x46>
 800730e:	6c23      	ldr	r3, [r4, #64]	; 0x40
 8007310:	1ac0      	subs	r0, r0, r3
 8007312:	2300      	movs	r3, #0
 8007314:	4602      	mov	r2, r0
 8007316:	6ae6      	ldr	r6, [r4, #44]	; 0x2c
 8007318:	6a21      	ldr	r1, [r4, #32]
 800731a:	4628      	mov	r0, r5
 800731c:	47b0      	blx	r6
 800731e:	1c43      	adds	r3, r0, #1
 8007320:	89a3      	ldrh	r3, [r4, #12]
 8007322:	d106      	bne.n	8007332 <__sflush_r+0x66>
 8007324:	6829      	ldr	r1, [r5, #0]
 8007326:	291d      	cmp	r1, #29
 8007328:	d82c      	bhi.n	8007384 <__sflush_r+0xb8>
 800732a:	4a2a      	ldr	r2, [pc, #168]	; (80073d4 <__sflush_r+0x108>)
 800732c:	40ca      	lsrs	r2, r1
 800732e:	07d6      	lsls	r6, r2, #31
 8007330:	d528      	bpl.n	8007384 <__sflush_r+0xb8>
 8007332:	2200      	movs	r2, #0
 8007334:	6062      	str	r2, [r4, #4]
 8007336:	04d9      	lsls	r1, r3, #19
 8007338:	6922      	ldr	r2, [r4, #16]
 800733a:	6022      	str	r2, [r4, #0]
 800733c:	d504      	bpl.n	8007348 <__sflush_r+0x7c>
 800733e:	1c42      	adds	r2, r0, #1
 8007340:	d101      	bne.n	8007346 <__sflush_r+0x7a>
 8007342:	682b      	ldr	r3, [r5, #0]
 8007344:	b903      	cbnz	r3, 8007348 <__sflush_r+0x7c>
 8007346:	6560      	str	r0, [r4, #84]	; 0x54
 8007348:	6b61      	ldr	r1, [r4, #52]	; 0x34
 800734a:	602f      	str	r7, [r5, #0]
 800734c:	2900      	cmp	r1, #0
 800734e:	d0ca      	beq.n	80072e6 <__sflush_r+0x1a>
 8007350:	f104 0344 	add.w	r3, r4, #68	; 0x44
 8007354:	4299      	cmp	r1, r3
 8007356:	d002      	beq.n	800735e <__sflush_r+0x92>
 8007358:	4628      	mov	r0, r5
 800735a:	f7fd f94b 	bl	80045f4 <_free_r>
 800735e:	2000      	movs	r0, #0
 8007360:	6360      	str	r0, [r4, #52]	; 0x34
 8007362:	e7c1      	b.n	80072e8 <__sflush_r+0x1c>
 8007364:	6a21      	ldr	r1, [r4, #32]
 8007366:	2301      	movs	r3, #1
 8007368:	4628      	mov	r0, r5
 800736a:	47b0      	blx	r6
 800736c:	1c41      	adds	r1, r0, #1
 800736e:	d1c7      	bne.n	8007300 <__sflush_r+0x34>
 8007370:	682b      	ldr	r3, [r5, #0]
 8007372:	2b00      	cmp	r3, #0
 8007374:	d0c4      	beq.n	8007300 <__sflush_r+0x34>
 8007376:	2b1d      	cmp	r3, #29
 8007378:	d001      	beq.n	800737e <__sflush_r+0xb2>
 800737a:	2b16      	cmp	r3, #22
 800737c:	d101      	bne.n	8007382 <__sflush_r+0xb6>
 800737e:	602f      	str	r7, [r5, #0]
 8007380:	e7b1      	b.n	80072e6 <__sflush_r+0x1a>
 8007382:	89a3      	ldrh	r3, [r4, #12]
 8007384:	f043 0340 	orr.w	r3, r3, #64	; 0x40
 8007388:	81a3      	strh	r3, [r4, #12]
 800738a:	e7ad      	b.n	80072e8 <__sflush_r+0x1c>
 800738c:	690f      	ldr	r7, [r1, #16]
 800738e:	2f00      	cmp	r7, #0
 8007390:	d0a9      	beq.n	80072e6 <__sflush_r+0x1a>
 8007392:	0793      	lsls	r3, r2, #30
 8007394:	680e      	ldr	r6, [r1, #0]
 8007396:	bf08      	it	eq
 8007398:	694b      	ldreq	r3, [r1, #20]
 800739a:	600f      	str	r7, [r1, #0]
 800739c:	bf18      	it	ne
 800739e:	2300      	movne	r3, #0
 80073a0:	eba6 0807 	sub.w	r8, r6, r7
 80073a4:	608b      	str	r3, [r1, #8]
 80073a6:	f1b8 0f00 	cmp.w	r8, #0
 80073aa:	dd9c      	ble.n	80072e6 <__sflush_r+0x1a>
 80073ac:	6a21      	ldr	r1, [r4, #32]
 80073ae:	6aa6      	ldr	r6, [r4, #40]	; 0x28
 80073b0:	4643      	mov	r3, r8
 80073b2:	463a      	mov	r2, r7
 80073b4:	4628      	mov	r0, r5
 80073b6:	47b0      	blx	r6
 80073b8:	2800      	cmp	r0, #0
 80073ba:	dc06      	bgt.n	80073ca <__sflush_r+0xfe>
 80073bc:	89a3      	ldrh	r3, [r4, #12]
 80073be:	f043 0340 	orr.w	r3, r3, #64	; 0x40
 80073c2:	81a3      	strh	r3, [r4, #12]
 80073c4:	f04f 30ff 	mov.w	r0, #4294967295	; 0xffffffff
 80073c8:	e78e      	b.n	80072e8 <__sflush_r+0x1c>
 80073ca:	4407      	add	r7, r0
 80073cc:	eba8 0800 	sub.w	r8, r8, r0
 80073d0:	e7e9      	b.n	80073a6 <__sflush_r+0xda>
 80073d2:	bf00      	nop
 80073d4:	20400001 	.word	0x20400001

080073d8 <_fflush_r>:
 80073d8:	b538      	push	{r3, r4, r5, lr}
 80073da:	690b      	ldr	r3, [r1, #16]
 80073dc:	4605      	mov	r5, r0
 80073de:	460c      	mov	r4, r1
 80073e0:	b913      	cbnz	r3, 80073e8 <_fflush_r+0x10>
 80073e2:	2500      	movs	r5, #0
 80073e4:	4628      	mov	r0, r5
 80073e6:	bd38      	pop	{r3, r4, r5, pc}
 80073e8:	b118      	cbz	r0, 80073f2 <_fflush_r+0x1a>
 80073ea:	6983      	ldr	r3, [r0, #24]
 80073ec:	b90b      	cbnz	r3, 80073f2 <_fflush_r+0x1a>
 80073ee:	f000 f887 	bl	8007500 <__sinit>
 80073f2:	4b14      	ldr	r3, [pc, #80]	; (8007444 <_fflush_r+0x6c>)
 80073f4:	429c      	cmp	r4, r3
 80073f6:	d11b      	bne.n	8007430 <_fflush_r+0x58>
 80073f8:	686c      	ldr	r4, [r5, #4]
 80073fa:	f9b4 300c 	ldrsh.w	r3, [r4, #12]
 80073fe:	2b00      	cmp	r3, #0
 8007400:	d0ef      	beq.n	80073e2 <_fflush_r+0xa>
 8007402:	6e62      	ldr	r2, [r4, #100]	; 0x64
 8007404:	07d0      	lsls	r0, r2, #31
 8007406:	d404      	bmi.n	8007412 <_fflush_r+0x3a>
 8007408:	0599      	lsls	r1, r3, #22
 800740a:	d402      	bmi.n	8007412 <_fflush_r+0x3a>
 800740c:	6da0      	ldr	r0, [r4, #88]	; 0x58
 800740e:	f000 f927 	bl	8007660 <__retarget_lock_acquire_recursive>
 8007412:	4628      	mov	r0, r5
 8007414:	4621      	mov	r1, r4
 8007416:	f7ff ff59 	bl	80072cc <__sflush_r>
 800741a:	6e63      	ldr	r3, [r4, #100]	; 0x64
 800741c:	07da      	lsls	r2, r3, #31
 800741e:	4605      	mov	r5, r0
 8007420:	d4e0      	bmi.n	80073e4 <_fflush_r+0xc>
 8007422:	89a3      	ldrh	r3, [r4, #12]
 8007424:	059b      	lsls	r3, r3, #22
 8007426:	d4dd      	bmi.n	80073e4 <_fflush_r+0xc>
 8007428:	6da0      	ldr	r0, [r4, #88]	; 0x58
 800742a:	f000 f91a 	bl	8007662 <__retarget_lock_release_recursive>
 800742e:	e7d9      	b.n	80073e4 <_fflush_r+0xc>
 8007430:	4b05      	ldr	r3, [pc, #20]	; (8007448 <_fflush_r+0x70>)
 8007432:	429c      	cmp	r4, r3
 8007434:	d101      	bne.n	800743a <_fflush_r+0x62>
 8007436:	68ac      	ldr	r4, [r5, #8]
 8007438:	e7df      	b.n	80073fa <_fflush_r+0x22>
 800743a:	4b04      	ldr	r3, [pc, #16]	; (800744c <_fflush_r+0x74>)
 800743c:	429c      	cmp	r4, r3
 800743e:	bf08      	it	eq
 8007440:	68ec      	ldreq	r4, [r5, #12]
 8007442:	e7da      	b.n	80073fa <_fflush_r+0x22>
 8007444:	080091c0 	.word	0x080091c0
 8007448:	080091e0 	.word	0x080091e0
 800744c:	080091a0 	.word	0x080091a0

08007450 <std>:
 8007450:	2300      	movs	r3, #0
 8007452:	b510      	push	{r4, lr}
 8007454:	4604      	mov	r4, r0
 8007456:	e9c0 3300 	strd	r3, r3, [r0]
 800745a:	e9c0 3304 	strd	r3, r3, [r0, #16]
 800745e:	6083      	str	r3, [r0, #8]
 8007460:	8181      	strh	r1, [r0, #12]
 8007462:	6643      	str	r3, [r0, #100]	; 0x64
 8007464:	81c2      	strh	r2, [r0, #14]
 8007466:	6183      	str	r3, [r0, #24]
 8007468:	4619      	mov	r1, r3
 800746a:	2208      	movs	r2, #8
 800746c:	305c      	adds	r0, #92	; 0x5c
 800746e:	f7fd f8b9 	bl	80045e4 <memset>
 8007472:	4b05      	ldr	r3, [pc, #20]	; (8007488 <std+0x38>)
 8007474:	6263      	str	r3, [r4, #36]	; 0x24
 8007476:	4b05      	ldr	r3, [pc, #20]	; (800748c <std+0x3c>)
 8007478:	62a3      	str	r3, [r4, #40]	; 0x28
 800747a:	4b05      	ldr	r3, [pc, #20]	; (8007490 <std+0x40>)
 800747c:	62e3      	str	r3, [r4, #44]	; 0x2c
 800747e:	4b05      	ldr	r3, [pc, #20]	; (8007494 <std+0x44>)
 8007480:	6224      	str	r4, [r4, #32]
 8007482:	6323      	str	r3, [r4, #48]	; 0x30
 8007484:	bd10      	pop	{r4, pc}
 8007486:	bf00      	nop
 8007488:	08005141 	.word	0x08005141
 800748c:	08005167 	.word	0x08005167
 8007490:	0800519f 	.word	0x0800519f
 8007494:	080051c3 	.word	0x080051c3

08007498 <_cleanup_r>:
 8007498:	4901      	ldr	r1, [pc, #4]	; (80074a0 <_cleanup_r+0x8>)
 800749a:	f000 b8c1 	b.w	8007620 <_fwalk_reent>
 800749e:	bf00      	nop
 80074a0:	080073d9 	.word	0x080073d9

080074a4 <__sfmoreglue>:
 80074a4:	b570      	push	{r4, r5, r6, lr}
 80074a6:	2268      	movs	r2, #104	; 0x68
 80074a8:	1e4d      	subs	r5, r1, #1
 80074aa:	4355      	muls	r5, r2
 80074ac:	460e      	mov	r6, r1
 80074ae:	f105 0174 	add.w	r1, r5, #116	; 0x74
 80074b2:	f7fd f90b 	bl	80046cc <_malloc_r>
 80074b6:	4604      	mov	r4, r0
 80074b8:	b140      	cbz	r0, 80074cc <__sfmoreglue+0x28>
 80074ba:	2100      	movs	r1, #0
 80074bc:	e9c0 1600 	strd	r1, r6, [r0]
 80074c0:	300c      	adds	r0, #12
 80074c2:	60a0      	str	r0, [r4, #8]
 80074c4:	f105 0268 	add.w	r2, r5, #104	; 0x68
 80074c8:	f7fd f88c 	bl	80045e4 <memset>
 80074cc:	4620      	mov	r0, r4
 80074ce:	bd70      	pop	{r4, r5, r6, pc}

080074d0 <__sfp_lock_acquire>:
 80074d0:	4801      	ldr	r0, [pc, #4]	; (80074d8 <__sfp_lock_acquire+0x8>)
 80074d2:	f000 b8c5 	b.w	8007660 <__retarget_lock_acquire_recursive>
 80074d6:	bf00      	nop
 80074d8:	20011a99 	.word	0x20011a99

080074dc <__sfp_lock_release>:
 80074dc:	4801      	ldr	r0, [pc, #4]	; (80074e4 <__sfp_lock_release+0x8>)
 80074de:	f000 b8c0 	b.w	8007662 <__retarget_lock_release_recursive>
 80074e2:	bf00      	nop
 80074e4:	20011a99 	.word	0x20011a99

080074e8 <__sinit_lock_acquire>:
 80074e8:	4801      	ldr	r0, [pc, #4]	; (80074f0 <__sinit_lock_acquire+0x8>)
 80074ea:	f000 b8b9 	b.w	8007660 <__retarget_lock_acquire_recursive>
 80074ee:	bf00      	nop
 80074f0:	20011a9a 	.word	0x20011a9a

080074f4 <__sinit_lock_release>:
 80074f4:	4801      	ldr	r0, [pc, #4]	; (80074fc <__sinit_lock_release+0x8>)
 80074f6:	f000 b8b4 	b.w	8007662 <__retarget_lock_release_recursive>
 80074fa:	bf00      	nop
 80074fc:	20011a9a 	.word	0x20011a9a

08007500 <__sinit>:
 8007500:	b510      	push	{r4, lr}
 8007502:	4604      	mov	r4, r0
 8007504:	f7ff fff0 	bl	80074e8 <__sinit_lock_acquire>
 8007508:	69a3      	ldr	r3, [r4, #24]
 800750a:	b11b      	cbz	r3, 8007514 <__sinit+0x14>
 800750c:	e8bd 4010 	ldmia.w	sp!, {r4, lr}
 8007510:	f7ff bff0 	b.w	80074f4 <__sinit_lock_release>
 8007514:	e9c4 3312 	strd	r3, r3, [r4, #72]	; 0x48
 8007518:	6523      	str	r3, [r4, #80]	; 0x50
 800751a:	4b13      	ldr	r3, [pc, #76]	; (8007568 <__sinit+0x68>)
 800751c:	4a13      	ldr	r2, [pc, #76]	; (800756c <__sinit+0x6c>)
 800751e:	681b      	ldr	r3, [r3, #0]
 8007520:	62a2      	str	r2, [r4, #40]	; 0x28
 8007522:	42a3      	cmp	r3, r4
 8007524:	bf04      	itt	eq
 8007526:	2301      	moveq	r3, #1
 8007528:	61a3      	streq	r3, [r4, #24]
 800752a:	4620      	mov	r0, r4
 800752c:	f000 f820 	bl	8007570 <__sfp>
 8007530:	6060      	str	r0, [r4, #4]
 8007532:	4620      	mov	r0, r4
 8007534:	f000 f81c 	bl	8007570 <__sfp>
 8007538:	60a0      	str	r0, [r4, #8]
 800753a:	4620      	mov	r0, r4
 800753c:	f000 f818 	bl	8007570 <__sfp>
 8007540:	2200      	movs	r2, #0
 8007542:	60e0      	str	r0, [r4, #12]
 8007544:	2104      	movs	r1, #4
 8007546:	6860      	ldr	r0, [r4, #4]
 8007548:	f7ff ff82 	bl	8007450 <std>
 800754c:	68a0      	ldr	r0, [r4, #8]
 800754e:	2201      	movs	r2, #1
 8007550:	2109      	movs	r1, #9
 8007552:	f7ff ff7d 	bl	8007450 <std>
 8007556:	68e0      	ldr	r0, [r4, #12]
 8007558:	2202      	movs	r2, #2
 800755a:	2112      	movs	r1, #18
 800755c:	f7ff ff78 	bl	8007450 <std>
 8007560:	2301      	movs	r3, #1
 8007562:	61a3      	str	r3, [r4, #24]
 8007564:	e7d2      	b.n	800750c <__sinit+0xc>
 8007566:	bf00      	nop
 8007568:	08008e14 	.word	0x08008e14
 800756c:	08007499 	.word	0x08007499

08007570 <__sfp>:
 8007570:	b5f8      	push	{r3, r4, r5, r6, r7, lr}
 8007572:	4607      	mov	r7, r0
 8007574:	f7ff ffac 	bl	80074d0 <__sfp_lock_acquire>
 8007578:	4b1e      	ldr	r3, [pc, #120]	; (80075f4 <__sfp+0x84>)
 800757a:	681e      	ldr	r6, [r3, #0]
 800757c:	69b3      	ldr	r3, [r6, #24]
 800757e:	b913      	cbnz	r3, 8007586 <__sfp+0x16>
 8007580:	4630      	mov	r0, r6
 8007582:	f7ff ffbd 	bl	8007500 <__sinit>
 8007586:	3648      	adds	r6, #72	; 0x48
 8007588:	e9d6 3401 	ldrd	r3, r4, [r6, #4]
 800758c:	3b01      	subs	r3, #1
 800758e:	d503      	bpl.n	8007598 <__sfp+0x28>
 8007590:	6833      	ldr	r3, [r6, #0]
 8007592:	b30b      	cbz	r3, 80075d8 <__sfp+0x68>
 8007594:	6836      	ldr	r6, [r6, #0]
 8007596:	e7f7      	b.n	8007588 <__sfp+0x18>
 8007598:	f9b4 500c 	ldrsh.w	r5, [r4, #12]
 800759c:	b9d5      	cbnz	r5, 80075d4 <__sfp+0x64>
 800759e:	4b16      	ldr	r3, [pc, #88]	; (80075f8 <__sfp+0x88>)
 80075a0:	60e3      	str	r3, [r4, #12]
 80075a2:	f104 0058 	add.w	r0, r4, #88	; 0x58
 80075a6:	6665      	str	r5, [r4, #100]	; 0x64
 80075a8:	f000 f859 	bl	800765e <__retarget_lock_init_recursive>
 80075ac:	f7ff ff96 	bl	80074dc <__sfp_lock_release>
 80075b0:	e9c4 5501 	strd	r5, r5, [r4, #4]
 80075b4:	e9c4 5504 	strd	r5, r5, [r4, #16]
 80075b8:	6025      	str	r5, [r4, #0]
 80075ba:	61a5      	str	r5, [r4, #24]
 80075bc:	2208      	movs	r2, #8
 80075be:	4629      	mov	r1, r5
 80075c0:	f104 005c 	add.w	r0, r4, #92	; 0x5c
 80075c4:	f7fd f80e 	bl	80045e4 <memset>
 80075c8:	e9c4 550d 	strd	r5, r5, [r4, #52]	; 0x34
 80075cc:	e9c4 5512 	strd	r5, r5, [r4, #72]	; 0x48
 80075d0:	4620      	mov	r0, r4
 80075d2:	bdf8      	pop	{r3, r4, r5, r6, r7, pc}
 80075d4:	3468      	adds	r4, #104	; 0x68
 80075d6:	e7d9      	b.n	800758c <__sfp+0x1c>
 80075d8:	2104      	movs	r1, #4
 80075da:	4638      	mov	r0, r7
 80075dc:	f7ff ff62 	bl	80074a4 <__sfmoreglue>
 80075e0:	4604      	mov	r4, r0
 80075e2:	6030      	str	r0, [r6, #0]
 80075e4:	2800      	cmp	r0, #0
 80075e6:	d1d5      	bne.n	8007594 <__sfp+0x24>
 80075e8:	f7ff ff78 	bl	80074dc <__sfp_lock_release>
 80075ec:	230c      	movs	r3, #12
 80075ee:	603b      	str	r3, [r7, #0]
 80075f0:	e7ee      	b.n	80075d0 <__sfp+0x60>
 80075f2:	bf00      	nop
 80075f4:	08008e14 	.word	0x08008e14
 80075f8:	ffff0001 	.word	0xffff0001

080075fc <fiprintf>:
 80075fc:	b40e      	push	{r1, r2, r3}
 80075fe:	b503      	push	{r0, r1, lr}
 8007600:	4601      	mov	r1, r0
 8007602:	ab03      	add	r3, sp, #12
 8007604:	4805      	ldr	r0, [pc, #20]	; (800761c <fiprintf+0x20>)
 8007606:	f853 2b04 	ldr.w	r2, [r3], #4
 800760a:	6800      	ldr	r0, [r0, #0]
 800760c:	9301      	str	r3, [sp, #4]
 800760e:	f000 f8ad 	bl	800776c <_vfiprintf_r>
 8007612:	b002      	add	sp, #8
 8007614:	f85d eb04 	ldr.w	lr, [sp], #4
 8007618:	b003      	add	sp, #12
 800761a:	4770      	bx	lr
 800761c:	20000008 	.word	0x20000008

08007620 <_fwalk_reent>:
 8007620:	e92d 43f8 	stmdb	sp!, {r3, r4, r5, r6, r7, r8, r9, lr}
 8007624:	4606      	mov	r6, r0
 8007626:	4688      	mov	r8, r1
 8007628:	f100 0448 	add.w	r4, r0, #72	; 0x48
 800762c:	2700      	movs	r7, #0
 800762e:	e9d4 9501 	ldrd	r9, r5, [r4, #4]
 8007632:	f1b9 0901 	subs.w	r9, r9, #1
 8007636:	d505      	bpl.n	8007644 <_fwalk_reent+0x24>
 8007638:	6824      	ldr	r4, [r4, #0]
 800763a:	2c00      	cmp	r4, #0
 800763c:	d1f7      	bne.n	800762e <_fwalk_reent+0xe>
 800763e:	4638      	mov	r0, r7
 8007640:	e8bd 83f8 	ldmia.w	sp!, {r3, r4, r5, r6, r7, r8, r9, pc}
 8007644:	89ab      	ldrh	r3, [r5, #12]
 8007646:	2b01      	cmp	r3, #1
 8007648:	d907      	bls.n	800765a <_fwalk_reent+0x3a>
 800764a:	f9b5 300e 	ldrsh.w	r3, [r5, #14]
 800764e:	3301      	adds	r3, #1
 8007650:	d003      	beq.n	800765a <_fwalk_reent+0x3a>
 8007652:	4629      	mov	r1, r5
 8007654:	4630      	mov	r0, r6
 8007656:	47c0      	blx	r8
 8007658:	4307      	orrs	r7, r0
 800765a:	3568      	adds	r5, #104	; 0x68
 800765c:	e7e9      	b.n	8007632 <_fwalk_reent+0x12>

0800765e <__retarget_lock_init_recursive>:
 800765e:	4770      	bx	lr

08007660 <__retarget_lock_acquire_recursive>:
 8007660:	4770      	bx	lr

08007662 <__retarget_lock_release_recursive>:
 8007662:	4770      	bx	lr

08007664 <__ascii_mbtowc>:
 8007664:	b082      	sub	sp, #8
 8007666:	b901      	cbnz	r1, 800766a <__ascii_mbtowc+0x6>
 8007668:	a901      	add	r1, sp, #4
 800766a:	b142      	cbz	r2, 800767e <__ascii_mbtowc+0x1a>
 800766c:	b14b      	cbz	r3, 8007682 <__ascii_mbtowc+0x1e>
 800766e:	7813      	ldrb	r3, [r2, #0]
 8007670:	600b      	str	r3, [r1, #0]
 8007672:	7812      	ldrb	r2, [r2, #0]
 8007674:	1e10      	subs	r0, r2, #0
 8007676:	bf18      	it	ne
 8007678:	2001      	movne	r0, #1
 800767a:	b002      	add	sp, #8
 800767c:	4770      	bx	lr
 800767e:	4610      	mov	r0, r2
 8007680:	e7fb      	b.n	800767a <__ascii_mbtowc+0x16>
 8007682:	f06f 0001 	mvn.w	r0, #1
 8007686:	e7f8      	b.n	800767a <__ascii_mbtowc+0x16>

08007688 <memmove>:
 8007688:	4288      	cmp	r0, r1
 800768a:	b510      	push	{r4, lr}
 800768c:	eb01 0402 	add.w	r4, r1, r2
 8007690:	d902      	bls.n	8007698 <memmove+0x10>
 8007692:	4284      	cmp	r4, r0
 8007694:	4623      	mov	r3, r4
 8007696:	d807      	bhi.n	80076a8 <memmove+0x20>
 8007698:	1e43      	subs	r3, r0, #1
 800769a:	42a1      	cmp	r1, r4
 800769c:	d008      	beq.n	80076b0 <memmove+0x28>
 800769e:	f811 2b01 	ldrb.w	r2, [r1], #1
 80076a2:	f803 2f01 	strb.w	r2, [r3, #1]!
 80076a6:	e7f8      	b.n	800769a <memmove+0x12>
 80076a8:	4402      	add	r2, r0
 80076aa:	4601      	mov	r1, r0
 80076ac:	428a      	cmp	r2, r1
 80076ae:	d100      	bne.n	80076b2 <memmove+0x2a>
 80076b0:	bd10      	pop	{r4, pc}
 80076b2:	f813 4d01 	ldrb.w	r4, [r3, #-1]!
 80076b6:	f802 4d01 	strb.w	r4, [r2, #-1]!
 80076ba:	e7f7      	b.n	80076ac <memmove+0x24>

080076bc <_realloc_r>:
 80076bc:	e92d 41f0 	stmdb	sp!, {r4, r5, r6, r7, r8, lr}
 80076c0:	4680      	mov	r8, r0
 80076c2:	4614      	mov	r4, r2
 80076c4:	460e      	mov	r6, r1
 80076c6:	b921      	cbnz	r1, 80076d2 <_realloc_r+0x16>
 80076c8:	e8bd 41f0 	ldmia.w	sp!, {r4, r5, r6, r7, r8, lr}
 80076cc:	4611      	mov	r1, r2
 80076ce:	f7fc bffd 	b.w	80046cc <_malloc_r>
 80076d2:	b92a      	cbnz	r2, 80076e0 <_realloc_r+0x24>
 80076d4:	f7fc ff8e 	bl	80045f4 <_free_r>
 80076d8:	4625      	mov	r5, r4
 80076da:	4628      	mov	r0, r5
 80076dc:	e8bd 81f0 	ldmia.w	sp!, {r4, r5, r6, r7, r8, pc}
 80076e0:	f000 faae 	bl	8007c40 <_malloc_usable_size_r>
 80076e4:	4284      	cmp	r4, r0
 80076e6:	4607      	mov	r7, r0
 80076e8:	d802      	bhi.n	80076f0 <_realloc_r+0x34>
 80076ea:	ebb4 0f50 	cmp.w	r4, r0, lsr #1
 80076ee:	d812      	bhi.n	8007716 <_realloc_r+0x5a>
 80076f0:	4621      	mov	r1, r4
 80076f2:	4640      	mov	r0, r8
 80076f4:	f7fc ffea 	bl	80046cc <_malloc_r>
 80076f8:	4605      	mov	r5, r0
 80076fa:	2800      	cmp	r0, #0
 80076fc:	d0ed      	beq.n	80076da <_realloc_r+0x1e>
 80076fe:	42bc      	cmp	r4, r7
 8007700:	4622      	mov	r2, r4
 8007702:	4631      	mov	r1, r6
 8007704:	bf28      	it	cs
 8007706:	463a      	movcs	r2, r7
 8007708:	f7fe fc12 	bl	8005f30 <memcpy>
 800770c:	4631      	mov	r1, r6
 800770e:	4640      	mov	r0, r8
 8007710:	f7fc ff70 	bl	80045f4 <_free_r>
 8007714:	e7e1      	b.n	80076da <_realloc_r+0x1e>
 8007716:	4635      	mov	r5, r6
 8007718:	e7df      	b.n	80076da <_realloc_r+0x1e>

0800771a <__sfputc_r>:
 800771a:	6893      	ldr	r3, [r2, #8]
 800771c:	3b01      	subs	r3, #1
 800771e:	2b00      	cmp	r3, #0
 8007720:	b410      	push	{r4}
 8007722:	6093      	str	r3, [r2, #8]
 8007724:	da08      	bge.n	8007738 <__sfputc_r+0x1e>
 8007726:	6994      	ldr	r4, [r2, #24]
 8007728:	42a3      	cmp	r3, r4
 800772a:	db01      	blt.n	8007730 <__sfputc_r+0x16>
 800772c:	290a      	cmp	r1, #10
 800772e:	d103      	bne.n	8007738 <__sfputc_r+0x1e>
 8007730:	f85d 4b04 	ldr.w	r4, [sp], #4
 8007734:	f000 b94a 	b.w	80079cc <__swbuf_r>
 8007738:	6813      	ldr	r3, [r2, #0]
 800773a:	1c58      	adds	r0, r3, #1
 800773c:	6010      	str	r0, [r2, #0]
 800773e:	7019      	strb	r1, [r3, #0]
 8007740:	4608      	mov	r0, r1
 8007742:	f85d 4b04 	ldr.w	r4, [sp], #4
 8007746:	4770      	bx	lr

08007748 <__sfputs_r>:
 8007748:	b5f8      	push	{r3, r4, r5, r6, r7, lr}
 800774a:	4606      	mov	r6, r0
 800774c:	460f      	mov	r7, r1
 800774e:	4614      	mov	r4, r2
 8007750:	18d5      	adds	r5, r2, r3
 8007752:	42ac      	cmp	r4, r5
 8007754:	d101      	bne.n	800775a <__sfputs_r+0x12>
 8007756:	2000      	movs	r0, #0
 8007758:	e007      	b.n	800776a <__sfputs_r+0x22>
 800775a:	f814 1b01 	ldrb.w	r1, [r4], #1
 800775e:	463a      	mov	r2, r7
 8007760:	4630      	mov	r0, r6
 8007762:	f7ff ffda 	bl	800771a <__sfputc_r>
 8007766:	1c43      	adds	r3, r0, #1
 8007768:	d1f3      	bne.n	8007752 <__sfputs_r+0xa>
 800776a:	bdf8      	pop	{r3, r4, r5, r6, r7, pc}

0800776c <_vfiprintf_r>:
 800776c:	e92d 4ff0 	stmdb	sp!, {r4, r5, r6, r7, r8, r9, sl, fp, lr}
 8007770:	460d      	mov	r5, r1
 8007772:	b09d      	sub	sp, #116	; 0x74
 8007774:	4614      	mov	r4, r2
 8007776:	4698      	mov	r8, r3
 8007778:	4606      	mov	r6, r0
 800777a:	b118      	cbz	r0, 8007784 <_vfiprintf_r+0x18>
 800777c:	6983      	ldr	r3, [r0, #24]
 800777e:	b90b      	cbnz	r3, 8007784 <_vfiprintf_r+0x18>
 8007780:	f7ff febe 	bl	8007500 <__sinit>
 8007784:	4b89      	ldr	r3, [pc, #548]	; (80079ac <_vfiprintf_r+0x240>)
 8007786:	429d      	cmp	r5, r3
 8007788:	d11b      	bne.n	80077c2 <_vfiprintf_r+0x56>
 800778a:	6875      	ldr	r5, [r6, #4]
 800778c:	6e6b      	ldr	r3, [r5, #100]	; 0x64
 800778e:	07d9      	lsls	r1, r3, #31
 8007790:	d405      	bmi.n	800779e <_vfiprintf_r+0x32>
 8007792:	89ab      	ldrh	r3, [r5, #12]
 8007794:	059a      	lsls	r2, r3, #22
 8007796:	d402      	bmi.n	800779e <_vfiprintf_r+0x32>
 8007798:	6da8      	ldr	r0, [r5, #88]	; 0x58
 800779a:	f7ff ff61 	bl	8007660 <__retarget_lock_acquire_recursive>
 800779e:	89ab      	ldrh	r3, [r5, #12]
 80077a0:	071b      	lsls	r3, r3, #28
 80077a2:	d501      	bpl.n	80077a8 <_vfiprintf_r+0x3c>
 80077a4:	692b      	ldr	r3, [r5, #16]
 80077a6:	b9eb      	cbnz	r3, 80077e4 <_vfiprintf_r+0x78>
 80077a8:	4629      	mov	r1, r5
 80077aa:	4630      	mov	r0, r6
 80077ac:	f000 f96e 	bl	8007a8c <__swsetup_r>
 80077b0:	b1c0      	cbz	r0, 80077e4 <_vfiprintf_r+0x78>
 80077b2:	6e6b      	ldr	r3, [r5, #100]	; 0x64
 80077b4:	07dc      	lsls	r4, r3, #31
 80077b6:	d50e      	bpl.n	80077d6 <_vfiprintf_r+0x6a>
 80077b8:	f04f 30ff 	mov.w	r0, #4294967295	; 0xffffffff
 80077bc:	b01d      	add	sp, #116	; 0x74
 80077be:	e8bd 8ff0 	ldmia.w	sp!, {r4, r5, r6, r7, r8, r9, sl, fp, pc}
 80077c2:	4b7b      	ldr	r3, [pc, #492]	; (80079b0 <_vfiprintf_r+0x244>)
 80077c4:	429d      	cmp	r5, r3
 80077c6:	d101      	bne.n	80077cc <_vfiprintf_r+0x60>
 80077c8:	68b5      	ldr	r5, [r6, #8]
 80077ca:	e7df      	b.n	800778c <_vfiprintf_r+0x20>
 80077cc:	4b79      	ldr	r3, [pc, #484]	; (80079b4 <_vfiprintf_r+0x248>)
 80077ce:	429d      	cmp	r5, r3
 80077d0:	bf08      	it	eq
 80077d2:	68f5      	ldreq	r5, [r6, #12]
 80077d4:	e7da      	b.n	800778c <_vfiprintf_r+0x20>
 80077d6:	89ab      	ldrh	r3, [r5, #12]
 80077d8:	0598      	lsls	r0, r3, #22
 80077da:	d4ed      	bmi.n	80077b8 <_vfiprintf_r+0x4c>
 80077dc:	6da8      	ldr	r0, [r5, #88]	; 0x58
 80077de:	f7ff ff40 	bl	8007662 <__retarget_lock_release_recursive>
 80077e2:	e7e9      	b.n	80077b8 <_vfiprintf_r+0x4c>
 80077e4:	2300      	movs	r3, #0
 80077e6:	9309      	str	r3, [sp, #36]	; 0x24
 80077e8:	2320      	movs	r3, #32
 80077ea:	f88d 3029 	strb.w	r3, [sp, #41]	; 0x29
 80077ee:	f8cd 800c 	str.w	r8, [sp, #12]
 80077f2:	2330      	movs	r3, #48	; 0x30
 80077f4:	f8df 81c0 	ldr.w	r8, [pc, #448]	; 80079b8 <_vfiprintf_r+0x24c>
 80077f8:	f88d 302a 	strb.w	r3, [sp, #42]	; 0x2a
 80077fc:	f04f 0901 	mov.w	r9, #1
 8007800:	4623      	mov	r3, r4
 8007802:	469a      	mov	sl, r3
 8007804:	f813 2b01 	ldrb.w	r2, [r3], #1
 8007808:	b10a      	cbz	r2, 800780e <_vfiprintf_r+0xa2>
 800780a:	2a25      	cmp	r2, #37	; 0x25
 800780c:	d1f9      	bne.n	8007802 <_vfiprintf_r+0x96>
 800780e:	ebba 0b04 	subs.w	fp, sl, r4
 8007812:	d00b      	beq.n	800782c <_vfiprintf_r+0xc0>
 8007814:	465b      	mov	r3, fp
 8007816:	4622      	mov	r2, r4
 8007818:	4629      	mov	r1, r5
 800781a:	4630      	mov	r0, r6
 800781c:	f7ff ff94 	bl	8007748 <__sfputs_r>
 8007820:	3001      	adds	r0, #1
 8007822:	f000 80aa 	beq.w	800797a <_vfiprintf_r+0x20e>
 8007826:	9a09      	ldr	r2, [sp, #36]	; 0x24
 8007828:	445a      	add	r2, fp
 800782a:	9209      	str	r2, [sp, #36]	; 0x24
 800782c:	f89a 3000 	ldrb.w	r3, [sl]
 8007830:	2b00      	cmp	r3, #0
 8007832:	f000 80a2 	beq.w	800797a <_vfiprintf_r+0x20e>
 8007836:	2300      	movs	r3, #0
 8007838:	f04f 32ff 	mov.w	r2, #4294967295	; 0xffffffff
 800783c:	e9cd 2305 	strd	r2, r3, [sp, #20]
 8007840:	f10a 0a01 	add.w	sl, sl, #1
 8007844:	9304      	str	r3, [sp, #16]
 8007846:	9307      	str	r3, [sp, #28]
 8007848:	f88d 3053 	strb.w	r3, [sp, #83]	; 0x53
 800784c:	931a      	str	r3, [sp, #104]	; 0x68
 800784e:	4654      	mov	r4, sl
 8007850:	2205      	movs	r2, #5
 8007852:	f814 1b01 	ldrb.w	r1, [r4], #1
 8007856:	4858      	ldr	r0, [pc, #352]	; (80079b8 <_vfiprintf_r+0x24c>)
 8007858:	f7f8 fcda 	bl	8000210 <memchr>
 800785c:	9a04      	ldr	r2, [sp, #16]
 800785e:	b9d8      	cbnz	r0, 8007898 <_vfiprintf_r+0x12c>
 8007860:	06d1      	lsls	r1, r2, #27
 8007862:	bf44      	itt	mi
 8007864:	2320      	movmi	r3, #32
 8007866:	f88d 3053 	strbmi.w	r3, [sp, #83]	; 0x53
 800786a:	0713      	lsls	r3, r2, #28
 800786c:	bf44      	itt	mi
 800786e:	232b      	movmi	r3, #43	; 0x2b
 8007870:	f88d 3053 	strbmi.w	r3, [sp, #83]	; 0x53
 8007874:	f89a 3000 	ldrb.w	r3, [sl]
 8007878:	2b2a      	cmp	r3, #42	; 0x2a
 800787a:	d015      	beq.n	80078a8 <_vfiprintf_r+0x13c>
 800787c:	9a07      	ldr	r2, [sp, #28]
 800787e:	4654      	mov	r4, sl
 8007880:	2000      	movs	r0, #0
 8007882:	f04f 0c0a 	mov.w	ip, #10
 8007886:	4621      	mov	r1, r4
 8007888:	f811 3b01 	ldrb.w	r3, [r1], #1
 800788c:	3b30      	subs	r3, #48	; 0x30
 800788e:	2b09      	cmp	r3, #9
 8007890:	d94e      	bls.n	8007930 <_vfiprintf_r+0x1c4>
 8007892:	b1b0      	cbz	r0, 80078c2 <_vfiprintf_r+0x156>
 8007894:	9207      	str	r2, [sp, #28]
 8007896:	e014      	b.n	80078c2 <_vfiprintf_r+0x156>
 8007898:	eba0 0308 	sub.w	r3, r0, r8
 800789c:	fa09 f303 	lsl.w	r3, r9, r3
 80078a0:	4313      	orrs	r3, r2
 80078a2:	9304      	str	r3, [sp, #16]
 80078a4:	46a2      	mov	sl, r4
 80078a6:	e7d2      	b.n	800784e <_vfiprintf_r+0xe2>
 80078a8:	9b03      	ldr	r3, [sp, #12]
 80078aa:	1d19      	adds	r1, r3, #4
 80078ac:	681b      	ldr	r3, [r3, #0]
 80078ae:	9103      	str	r1, [sp, #12]
 80078b0:	2b00      	cmp	r3, #0
 80078b2:	bfbb      	ittet	lt
 80078b4:	425b      	neglt	r3, r3
 80078b6:	f042 0202 	orrlt.w	r2, r2, #2
 80078ba:	9307      	strge	r3, [sp, #28]
 80078bc:	9307      	strlt	r3, [sp, #28]
 80078be:	bfb8      	it	lt
 80078c0:	9204      	strlt	r2, [sp, #16]
 80078c2:	7823      	ldrb	r3, [r4, #0]
 80078c4:	2b2e      	cmp	r3, #46	; 0x2e
 80078c6:	d10c      	bne.n	80078e2 <_vfiprintf_r+0x176>
 80078c8:	7863      	ldrb	r3, [r4, #1]
 80078ca:	2b2a      	cmp	r3, #42	; 0x2a
 80078cc:	d135      	bne.n	800793a <_vfiprintf_r+0x1ce>
 80078ce:	9b03      	ldr	r3, [sp, #12]
 80078d0:	1d1a      	adds	r2, r3, #4
 80078d2:	681b      	ldr	r3, [r3, #0]
 80078d4:	9203      	str	r2, [sp, #12]
 80078d6:	2b00      	cmp	r3, #0
 80078d8:	bfb8      	it	lt
 80078da:	f04f 33ff 	movlt.w	r3, #4294967295	; 0xffffffff
 80078de:	3402      	adds	r4, #2
 80078e0:	9305      	str	r3, [sp, #20]
 80078e2:	f8df a0e4 	ldr.w	sl, [pc, #228]	; 80079c8 <_vfiprintf_r+0x25c>
 80078e6:	7821      	ldrb	r1, [r4, #0]
 80078e8:	2203      	movs	r2, #3
 80078ea:	4650      	mov	r0, sl
 80078ec:	f7f8 fc90 	bl	8000210 <memchr>
 80078f0:	b140      	cbz	r0, 8007904 <_vfiprintf_r+0x198>
 80078f2:	2340      	movs	r3, #64	; 0x40
 80078f4:	eba0 000a 	sub.w	r0, r0, sl
 80078f8:	fa03 f000 	lsl.w	r0, r3, r0
 80078fc:	9b04      	ldr	r3, [sp, #16]
 80078fe:	4303      	orrs	r3, r0
 8007900:	3401      	adds	r4, #1
 8007902:	9304      	str	r3, [sp, #16]
 8007904:	f814 1b01 	ldrb.w	r1, [r4], #1
 8007908:	482c      	ldr	r0, [pc, #176]	; (80079bc <_vfiprintf_r+0x250>)
 800790a:	f88d 1028 	strb.w	r1, [sp, #40]	; 0x28
 800790e:	2206      	movs	r2, #6
 8007910:	f7f8 fc7e 	bl	8000210 <memchr>
 8007914:	2800      	cmp	r0, #0
 8007916:	d03f      	beq.n	8007998 <_vfiprintf_r+0x22c>
 8007918:	4b29      	ldr	r3, [pc, #164]	; (80079c0 <_vfiprintf_r+0x254>)
 800791a:	bb1b      	cbnz	r3, 8007964 <_vfiprintf_r+0x1f8>
 800791c:	9b03      	ldr	r3, [sp, #12]
 800791e:	3307      	adds	r3, #7
 8007920:	f023 0307 	bic.w	r3, r3, #7
 8007924:	3308      	adds	r3, #8
 8007926:	9303      	str	r3, [sp, #12]
 8007928:	9b09      	ldr	r3, [sp, #36]	; 0x24
 800792a:	443b      	add	r3, r7
 800792c:	9309      	str	r3, [sp, #36]	; 0x24
 800792e:	e767      	b.n	8007800 <_vfiprintf_r+0x94>
 8007930:	fb0c 3202 	mla	r2, ip, r2, r3
 8007934:	460c      	mov	r4, r1
 8007936:	2001      	movs	r0, #1
 8007938:	e7a5      	b.n	8007886 <_vfiprintf_r+0x11a>
 800793a:	2300      	movs	r3, #0
 800793c:	3401      	adds	r4, #1
 800793e:	9305      	str	r3, [sp, #20]
 8007940:	4619      	mov	r1, r3
 8007942:	f04f 0c0a 	mov.w	ip, #10
 8007946:	4620      	mov	r0, r4
 8007948:	f810 2b01 	ldrb.w	r2, [r0], #1
 800794c:	3a30      	subs	r2, #48	; 0x30
 800794e:	2a09      	cmp	r2, #9
 8007950:	d903      	bls.n	800795a <_vfiprintf_r+0x1ee>
 8007952:	2b00      	cmp	r3, #0
 8007954:	d0c5      	beq.n	80078e2 <_vfiprintf_r+0x176>
 8007956:	9105      	str	r1, [sp, #20]
 8007958:	e7c3      	b.n	80078e2 <_vfiprintf_r+0x176>
 800795a:	fb0c 2101 	mla	r1, ip, r1, r2
 800795e:	4604      	mov	r4, r0
 8007960:	2301      	movs	r3, #1
 8007962:	e7f0      	b.n	8007946 <_vfiprintf_r+0x1da>
 8007964:	ab03      	add	r3, sp, #12
 8007966:	9300      	str	r3, [sp, #0]
 8007968:	462a      	mov	r2, r5
 800796a:	4b16      	ldr	r3, [pc, #88]	; (80079c4 <_vfiprintf_r+0x258>)
 800796c:	a904      	add	r1, sp, #16
 800796e:	4630      	mov	r0, r6
 8007970:	f7fc ffc0 	bl	80048f4 <_printf_float>
 8007974:	4607      	mov	r7, r0
 8007976:	1c78      	adds	r0, r7, #1
 8007978:	d1d6      	bne.n	8007928 <_vfiprintf_r+0x1bc>
 800797a:	6e6b      	ldr	r3, [r5, #100]	; 0x64
 800797c:	07d9      	lsls	r1, r3, #31
 800797e:	d405      	bmi.n	800798c <_vfiprintf_r+0x220>
 8007980:	89ab      	ldrh	r3, [r5, #12]
 8007982:	059a      	lsls	r2, r3, #22
 8007984:	d402      	bmi.n	800798c <_vfiprintf_r+0x220>
 8007986:	6da8      	ldr	r0, [r5, #88]	; 0x58
 8007988:	f7ff fe6b 	bl	8007662 <__retarget_lock_release_recursive>
 800798c:	89ab      	ldrh	r3, [r5, #12]
 800798e:	065b      	lsls	r3, r3, #25
 8007990:	f53f af12 	bmi.w	80077b8 <_vfiprintf_r+0x4c>
 8007994:	9809      	ldr	r0, [sp, #36]	; 0x24
 8007996:	e711      	b.n	80077bc <_vfiprintf_r+0x50>
 8007998:	ab03      	add	r3, sp, #12
 800799a:	9300      	str	r3, [sp, #0]
 800799c:	462a      	mov	r2, r5
 800799e:	4b09      	ldr	r3, [pc, #36]	; (80079c4 <_vfiprintf_r+0x258>)
 80079a0:	a904      	add	r1, sp, #16
 80079a2:	4630      	mov	r0, r6
 80079a4:	f7fd fa4a 	bl	8004e3c <_printf_i>
 80079a8:	e7e4      	b.n	8007974 <_vfiprintf_r+0x208>
 80079aa:	bf00      	nop
 80079ac:	080091c0 	.word	0x080091c0
 80079b0:	080091e0 	.word	0x080091e0
 80079b4:	080091a0 	.word	0x080091a0
 80079b8:	08009034 	.word	0x08009034
 80079bc:	0800903e 	.word	0x0800903e
 80079c0:	080048f5 	.word	0x080048f5
 80079c4:	08007749 	.word	0x08007749
 80079c8:	0800903a 	.word	0x0800903a

080079cc <__swbuf_r>:
 80079cc:	b5f8      	push	{r3, r4, r5, r6, r7, lr}
 80079ce:	460e      	mov	r6, r1
 80079d0:	4614      	mov	r4, r2
 80079d2:	4605      	mov	r5, r0
 80079d4:	b118      	cbz	r0, 80079de <__swbuf_r+0x12>
 80079d6:	6983      	ldr	r3, [r0, #24]
 80079d8:	b90b      	cbnz	r3, 80079de <__swbuf_r+0x12>
 80079da:	f7ff fd91 	bl	8007500 <__sinit>
 80079de:	4b21      	ldr	r3, [pc, #132]	; (8007a64 <__swbuf_r+0x98>)
 80079e0:	429c      	cmp	r4, r3
 80079e2:	d12b      	bne.n	8007a3c <__swbuf_r+0x70>
 80079e4:	686c      	ldr	r4, [r5, #4]
 80079e6:	69a3      	ldr	r3, [r4, #24]
 80079e8:	60a3      	str	r3, [r4, #8]
 80079ea:	89a3      	ldrh	r3, [r4, #12]
 80079ec:	071a      	lsls	r2, r3, #28
 80079ee:	d52f      	bpl.n	8007a50 <__swbuf_r+0x84>
 80079f0:	6923      	ldr	r3, [r4, #16]
 80079f2:	b36b      	cbz	r3, 8007a50 <__swbuf_r+0x84>
 80079f4:	6923      	ldr	r3, [r4, #16]
 80079f6:	6820      	ldr	r0, [r4, #0]
 80079f8:	1ac0      	subs	r0, r0, r3
 80079fa:	6963      	ldr	r3, [r4, #20]
 80079fc:	b2f6      	uxtb	r6, r6
 80079fe:	4283      	cmp	r3, r0
 8007a00:	4637      	mov	r7, r6
 8007a02:	dc04      	bgt.n	8007a0e <__swbuf_r+0x42>
 8007a04:	4621      	mov	r1, r4
 8007a06:	4628      	mov	r0, r5
 8007a08:	f7ff fce6 	bl	80073d8 <_fflush_r>
 8007a0c:	bb30      	cbnz	r0, 8007a5c <__swbuf_r+0x90>
 8007a0e:	68a3      	ldr	r3, [r4, #8]
 8007a10:	3b01      	subs	r3, #1
 8007a12:	60a3      	str	r3, [r4, #8]
 8007a14:	6823      	ldr	r3, [r4, #0]
 8007a16:	1c5a      	adds	r2, r3, #1
 8007a18:	6022      	str	r2, [r4, #0]
 8007a1a:	701e      	strb	r6, [r3, #0]
 8007a1c:	6963      	ldr	r3, [r4, #20]
 8007a1e:	3001      	adds	r0, #1
 8007a20:	4283      	cmp	r3, r0
 8007a22:	d004      	beq.n	8007a2e <__swbuf_r+0x62>
 8007a24:	89a3      	ldrh	r3, [r4, #12]
 8007a26:	07db      	lsls	r3, r3, #31
 8007a28:	d506      	bpl.n	8007a38 <__swbuf_r+0x6c>
 8007a2a:	2e0a      	cmp	r6, #10
 8007a2c:	d104      	bne.n	8007a38 <__swbuf_r+0x6c>
 8007a2e:	4621      	mov	r1, r4
 8007a30:	4628      	mov	r0, r5
 8007a32:	f7ff fcd1 	bl	80073d8 <_fflush_r>
 8007a36:	b988      	cbnz	r0, 8007a5c <__swbuf_r+0x90>
 8007a38:	4638      	mov	r0, r7
 8007a3a:	bdf8      	pop	{r3, r4, r5, r6, r7, pc}
 8007a3c:	4b0a      	ldr	r3, [pc, #40]	; (8007a68 <__swbuf_r+0x9c>)
 8007a3e:	429c      	cmp	r4, r3
 8007a40:	d101      	bne.n	8007a46 <__swbuf_r+0x7a>
 8007a42:	68ac      	ldr	r4, [r5, #8]
 8007a44:	e7cf      	b.n	80079e6 <__swbuf_r+0x1a>
 8007a46:	4b09      	ldr	r3, [pc, #36]	; (8007a6c <__swbuf_r+0xa0>)
 8007a48:	429c      	cmp	r4, r3
 8007a4a:	bf08      	it	eq
 8007a4c:	68ec      	ldreq	r4, [r5, #12]
 8007a4e:	e7ca      	b.n	80079e6 <__swbuf_r+0x1a>
 8007a50:	4621      	mov	r1, r4
 8007a52:	4628      	mov	r0, r5
 8007a54:	f000 f81a 	bl	8007a8c <__swsetup_r>
 8007a58:	2800      	cmp	r0, #0
 8007a5a:	d0cb      	beq.n	80079f4 <__swbuf_r+0x28>
 8007a5c:	f04f 37ff 	mov.w	r7, #4294967295	; 0xffffffff
 8007a60:	e7ea      	b.n	8007a38 <__swbuf_r+0x6c>
 8007a62:	bf00      	nop
 8007a64:	080091c0 	.word	0x080091c0
 8007a68:	080091e0 	.word	0x080091e0
 8007a6c:	080091a0 	.word	0x080091a0

08007a70 <__ascii_wctomb>:
 8007a70:	b149      	cbz	r1, 8007a86 <__ascii_wctomb+0x16>
 8007a72:	2aff      	cmp	r2, #255	; 0xff
 8007a74:	bf85      	ittet	hi
 8007a76:	238a      	movhi	r3, #138	; 0x8a
 8007a78:	6003      	strhi	r3, [r0, #0]
 8007a7a:	700a      	strbls	r2, [r1, #0]
 8007a7c:	f04f 30ff 	movhi.w	r0, #4294967295	; 0xffffffff
 8007a80:	bf98      	it	ls
 8007a82:	2001      	movls	r0, #1
 8007a84:	4770      	bx	lr
 8007a86:	4608      	mov	r0, r1
 8007a88:	4770      	bx	lr
	...

08007a8c <__swsetup_r>:
 8007a8c:	4b32      	ldr	r3, [pc, #200]	; (8007b58 <__swsetup_r+0xcc>)
 8007a8e:	b570      	push	{r4, r5, r6, lr}
 8007a90:	681d      	ldr	r5, [r3, #0]
 8007a92:	4606      	mov	r6, r0
 8007a94:	460c      	mov	r4, r1
 8007a96:	b125      	cbz	r5, 8007aa2 <__swsetup_r+0x16>
 8007a98:	69ab      	ldr	r3, [r5, #24]
 8007a9a:	b913      	cbnz	r3, 8007aa2 <__swsetup_r+0x16>
 8007a9c:	4628      	mov	r0, r5
 8007a9e:	f7ff fd2f 	bl	8007500 <__sinit>
 8007aa2:	4b2e      	ldr	r3, [pc, #184]	; (8007b5c <__swsetup_r+0xd0>)
 8007aa4:	429c      	cmp	r4, r3
 8007aa6:	d10f      	bne.n	8007ac8 <__swsetup_r+0x3c>
 8007aa8:	686c      	ldr	r4, [r5, #4]
 8007aaa:	89a3      	ldrh	r3, [r4, #12]
 8007aac:	f9b4 200c 	ldrsh.w	r2, [r4, #12]
 8007ab0:	0719      	lsls	r1, r3, #28
 8007ab2:	d42c      	bmi.n	8007b0e <__swsetup_r+0x82>
 8007ab4:	06dd      	lsls	r5, r3, #27
 8007ab6:	d411      	bmi.n	8007adc <__swsetup_r+0x50>
 8007ab8:	2309      	movs	r3, #9
 8007aba:	6033      	str	r3, [r6, #0]
 8007abc:	f042 0340 	orr.w	r3, r2, #64	; 0x40
 8007ac0:	81a3      	strh	r3, [r4, #12]
 8007ac2:	f04f 30ff 	mov.w	r0, #4294967295	; 0xffffffff
 8007ac6:	e03e      	b.n	8007b46 <__swsetup_r+0xba>
 8007ac8:	4b25      	ldr	r3, [pc, #148]	; (8007b60 <__swsetup_r+0xd4>)
 8007aca:	429c      	cmp	r4, r3
 8007acc:	d101      	bne.n	8007ad2 <__swsetup_r+0x46>
 8007ace:	68ac      	ldr	r4, [r5, #8]
 8007ad0:	e7eb      	b.n	8007aaa <__swsetup_r+0x1e>
 8007ad2:	4b24      	ldr	r3, [pc, #144]	; (8007b64 <__swsetup_r+0xd8>)
 8007ad4:	429c      	cmp	r4, r3
 8007ad6:	bf08      	it	eq
 8007ad8:	68ec      	ldreq	r4, [r5, #12]
 8007ada:	e7e6      	b.n	8007aaa <__swsetup_r+0x1e>
 8007adc:	0758      	lsls	r0, r3, #29
 8007ade:	d512      	bpl.n	8007b06 <__swsetup_r+0x7a>
 8007ae0:	6b61      	ldr	r1, [r4, #52]	; 0x34
 8007ae2:	b141      	cbz	r1, 8007af6 <__swsetup_r+0x6a>
 8007ae4:	f104 0344 	add.w	r3, r4, #68	; 0x44
 8007ae8:	4299      	cmp	r1, r3
 8007aea:	d002      	beq.n	8007af2 <__swsetup_r+0x66>
 8007aec:	4630      	mov	r0, r6
 8007aee:	f7fc fd81 	bl	80045f4 <_free_r>
 8007af2:	2300      	movs	r3, #0
 8007af4:	6363      	str	r3, [r4, #52]	; 0x34
 8007af6:	89a3      	ldrh	r3, [r4, #12]
 8007af8:	f023 0324 	bic.w	r3, r3, #36	; 0x24
 8007afc:	81a3      	strh	r3, [r4, #12]
 8007afe:	2300      	movs	r3, #0
 8007b00:	6063      	str	r3, [r4, #4]
 8007b02:	6923      	ldr	r3, [r4, #16]
 8007b04:	6023      	str	r3, [r4, #0]
 8007b06:	89a3      	ldrh	r3, [r4, #12]
 8007b08:	f043 0308 	orr.w	r3, r3, #8
 8007b0c:	81a3      	strh	r3, [r4, #12]
 8007b0e:	6923      	ldr	r3, [r4, #16]
 8007b10:	b94b      	cbnz	r3, 8007b26 <__swsetup_r+0x9a>
 8007b12:	89a3      	ldrh	r3, [r4, #12]
 8007b14:	f403 7320 	and.w	r3, r3, #640	; 0x280
 8007b18:	f5b3 7f00 	cmp.w	r3, #512	; 0x200
 8007b1c:	d003      	beq.n	8007b26 <__swsetup_r+0x9a>
 8007b1e:	4621      	mov	r1, r4
 8007b20:	4630      	mov	r0, r6
 8007b22:	f000 f84d 	bl	8007bc0 <__smakebuf_r>
 8007b26:	89a0      	ldrh	r0, [r4, #12]
 8007b28:	f9b4 200c 	ldrsh.w	r2, [r4, #12]
 8007b2c:	f010 0301 	ands.w	r3, r0, #1
 8007b30:	d00a      	beq.n	8007b48 <__swsetup_r+0xbc>
 8007b32:	2300      	movs	r3, #0
 8007b34:	60a3      	str	r3, [r4, #8]
 8007b36:	6963      	ldr	r3, [r4, #20]
 8007b38:	425b      	negs	r3, r3
 8007b3a:	61a3      	str	r3, [r4, #24]
 8007b3c:	6923      	ldr	r3, [r4, #16]
 8007b3e:	b943      	cbnz	r3, 8007b52 <__swsetup_r+0xc6>
 8007b40:	f010 0080 	ands.w	r0, r0, #128	; 0x80
 8007b44:	d1ba      	bne.n	8007abc <__swsetup_r+0x30>
 8007b46:	bd70      	pop	{r4, r5, r6, pc}
 8007b48:	0781      	lsls	r1, r0, #30
 8007b4a:	bf58      	it	pl
 8007b4c:	6963      	ldrpl	r3, [r4, #20]
 8007b4e:	60a3      	str	r3, [r4, #8]
 8007b50:	e7f4      	b.n	8007b3c <__swsetup_r+0xb0>
 8007b52:	2000      	movs	r0, #0
 8007b54:	e7f7      	b.n	8007b46 <__swsetup_r+0xba>
 8007b56:	bf00      	nop
 8007b58:	20000008 	.word	0x20000008
 8007b5c:	080091c0 	.word	0x080091c0
 8007b60:	080091e0 	.word	0x080091e0
 8007b64:	080091a0 	.word	0x080091a0

08007b68 <abort>:
 8007b68:	b508      	push	{r3, lr}
 8007b6a:	2006      	movs	r0, #6
 8007b6c:	f000 f898 	bl	8007ca0 <raise>
 8007b70:	2001      	movs	r0, #1
 8007b72:	f7f9 fae9 	bl	8001148 <_exit>

08007b76 <__swhatbuf_r>:
 8007b76:	b570      	push	{r4, r5, r6, lr}
 8007b78:	460e      	mov	r6, r1
 8007b7a:	f9b1 100e 	ldrsh.w	r1, [r1, #14]
 8007b7e:	2900      	cmp	r1, #0
 8007b80:	b096      	sub	sp, #88	; 0x58
 8007b82:	4614      	mov	r4, r2
 8007b84:	461d      	mov	r5, r3
 8007b86:	da08      	bge.n	8007b9a <__swhatbuf_r+0x24>
 8007b88:	f9b6 300c 	ldrsh.w	r3, [r6, #12]
 8007b8c:	2200      	movs	r2, #0
 8007b8e:	602a      	str	r2, [r5, #0]
 8007b90:	061a      	lsls	r2, r3, #24
 8007b92:	d410      	bmi.n	8007bb6 <__swhatbuf_r+0x40>
 8007b94:	f44f 6380 	mov.w	r3, #1024	; 0x400
 8007b98:	e00e      	b.n	8007bb8 <__swhatbuf_r+0x42>
 8007b9a:	466a      	mov	r2, sp
 8007b9c:	f000 f89c 	bl	8007cd8 <_fstat_r>
 8007ba0:	2800      	cmp	r0, #0
 8007ba2:	dbf1      	blt.n	8007b88 <__swhatbuf_r+0x12>
 8007ba4:	9a01      	ldr	r2, [sp, #4]
 8007ba6:	f402 4270 	and.w	r2, r2, #61440	; 0xf000
 8007baa:	f5a2 5300 	sub.w	r3, r2, #8192	; 0x2000
 8007bae:	425a      	negs	r2, r3
 8007bb0:	415a      	adcs	r2, r3
 8007bb2:	602a      	str	r2, [r5, #0]
 8007bb4:	e7ee      	b.n	8007b94 <__swhatbuf_r+0x1e>
 8007bb6:	2340      	movs	r3, #64	; 0x40
 8007bb8:	2000      	movs	r0, #0
 8007bba:	6023      	str	r3, [r4, #0]
 8007bbc:	b016      	add	sp, #88	; 0x58
 8007bbe:	bd70      	pop	{r4, r5, r6, pc}

08007bc0 <__smakebuf_r>:
 8007bc0:	898b      	ldrh	r3, [r1, #12]
 8007bc2:	b573      	push	{r0, r1, r4, r5, r6, lr}
 8007bc4:	079d      	lsls	r5, r3, #30
 8007bc6:	4606      	mov	r6, r0
 8007bc8:	460c      	mov	r4, r1
 8007bca:	d507      	bpl.n	8007bdc <__smakebuf_r+0x1c>
 8007bcc:	f104 0347 	add.w	r3, r4, #71	; 0x47
 8007bd0:	6023      	str	r3, [r4, #0]
 8007bd2:	6123      	str	r3, [r4, #16]
 8007bd4:	2301      	movs	r3, #1
 8007bd6:	6163      	str	r3, [r4, #20]
 8007bd8:	b002      	add	sp, #8
 8007bda:	bd70      	pop	{r4, r5, r6, pc}
 8007bdc:	ab01      	add	r3, sp, #4
 8007bde:	466a      	mov	r2, sp
 8007be0:	f7ff ffc9 	bl	8007b76 <__swhatbuf_r>
 8007be4:	9900      	ldr	r1, [sp, #0]
 8007be6:	4605      	mov	r5, r0
 8007be8:	4630      	mov	r0, r6
 8007bea:	f7fc fd6f 	bl	80046cc <_malloc_r>
 8007bee:	b948      	cbnz	r0, 8007c04 <__smakebuf_r+0x44>
 8007bf0:	f9b4 300c 	ldrsh.w	r3, [r4, #12]
 8007bf4:	059a      	lsls	r2, r3, #22
 8007bf6:	d4ef      	bmi.n	8007bd8 <__smakebuf_r+0x18>
 8007bf8:	f023 0303 	bic.w	r3, r3, #3
 8007bfc:	f043 0302 	orr.w	r3, r3, #2
 8007c00:	81a3      	strh	r3, [r4, #12]
 8007c02:	e7e3      	b.n	8007bcc <__smakebuf_r+0xc>
 8007c04:	4b0d      	ldr	r3, [pc, #52]	; (8007c3c <__smakebuf_r+0x7c>)
 8007c06:	62b3      	str	r3, [r6, #40]	; 0x28
 8007c08:	89a3      	ldrh	r3, [r4, #12]
 8007c0a:	6020      	str	r0, [r4, #0]
 8007c0c:	f043 0380 	orr.w	r3, r3, #128	; 0x80
 8007c10:	81a3      	strh	r3, [r4, #12]
 8007c12:	9b00      	ldr	r3, [sp, #0]
 8007c14:	6163      	str	r3, [r4, #20]
 8007c16:	9b01      	ldr	r3, [sp, #4]
 8007c18:	6120      	str	r0, [r4, #16]
 8007c1a:	b15b      	cbz	r3, 8007c34 <__smakebuf_r+0x74>
 8007c1c:	f9b4 100e 	ldrsh.w	r1, [r4, #14]
 8007c20:	4630      	mov	r0, r6
 8007c22:	f000 f86b 	bl	8007cfc <_isatty_r>
 8007c26:	b128      	cbz	r0, 8007c34 <__smakebuf_r+0x74>
 8007c28:	89a3      	ldrh	r3, [r4, #12]
 8007c2a:	f023 0303 	bic.w	r3, r3, #3
 8007c2e:	f043 0301 	orr.w	r3, r3, #1
 8007c32:	81a3      	strh	r3, [r4, #12]
 8007c34:	89a0      	ldrh	r0, [r4, #12]
 8007c36:	4305      	orrs	r5, r0
 8007c38:	81a5      	strh	r5, [r4, #12]
 8007c3a:	e7cd      	b.n	8007bd8 <__smakebuf_r+0x18>
 8007c3c:	08007499 	.word	0x08007499

08007c40 <_malloc_usable_size_r>:
 8007c40:	f851 3c04 	ldr.w	r3, [r1, #-4]
 8007c44:	1f18      	subs	r0, r3, #4
 8007c46:	2b00      	cmp	r3, #0
 8007c48:	bfbc      	itt	lt
 8007c4a:	580b      	ldrlt	r3, [r1, r0]
 8007c4c:	18c0      	addlt	r0, r0, r3
 8007c4e:	4770      	bx	lr

08007c50 <_raise_r>:
 8007c50:	291f      	cmp	r1, #31
 8007c52:	b538      	push	{r3, r4, r5, lr}
 8007c54:	4604      	mov	r4, r0
 8007c56:	460d      	mov	r5, r1
 8007c58:	d904      	bls.n	8007c64 <_raise_r+0x14>
 8007c5a:	2316      	movs	r3, #22
 8007c5c:	6003      	str	r3, [r0, #0]
 8007c5e:	f04f 30ff 	mov.w	r0, #4294967295	; 0xffffffff
 8007c62:	bd38      	pop	{r3, r4, r5, pc}
 8007c64:	6c42      	ldr	r2, [r0, #68]	; 0x44
 8007c66:	b112      	cbz	r2, 8007c6e <_raise_r+0x1e>
 8007c68:	f852 3021 	ldr.w	r3, [r2, r1, lsl #2]
 8007c6c:	b94b      	cbnz	r3, 8007c82 <_raise_r+0x32>
 8007c6e:	4620      	mov	r0, r4
 8007c70:	f000 f830 	bl	8007cd4 <_getpid_r>
 8007c74:	462a      	mov	r2, r5
 8007c76:	4601      	mov	r1, r0
 8007c78:	4620      	mov	r0, r4
 8007c7a:	e8bd 4038 	ldmia.w	sp!, {r3, r4, r5, lr}
 8007c7e:	f000 b817 	b.w	8007cb0 <_kill_r>
 8007c82:	2b01      	cmp	r3, #1
 8007c84:	d00a      	beq.n	8007c9c <_raise_r+0x4c>
 8007c86:	1c59      	adds	r1, r3, #1
 8007c88:	d103      	bne.n	8007c92 <_raise_r+0x42>
 8007c8a:	2316      	movs	r3, #22
 8007c8c:	6003      	str	r3, [r0, #0]
 8007c8e:	2001      	movs	r0, #1
 8007c90:	e7e7      	b.n	8007c62 <_raise_r+0x12>
 8007c92:	2400      	movs	r4, #0
 8007c94:	f842 4025 	str.w	r4, [r2, r5, lsl #2]
 8007c98:	4628      	mov	r0, r5
 8007c9a:	4798      	blx	r3
 8007c9c:	2000      	movs	r0, #0
 8007c9e:	e7e0      	b.n	8007c62 <_raise_r+0x12>

08007ca0 <raise>:
 8007ca0:	4b02      	ldr	r3, [pc, #8]	; (8007cac <raise+0xc>)
 8007ca2:	4601      	mov	r1, r0
 8007ca4:	6818      	ldr	r0, [r3, #0]
 8007ca6:	f7ff bfd3 	b.w	8007c50 <_raise_r>
 8007caa:	bf00      	nop
 8007cac:	20000008 	.word	0x20000008

08007cb0 <_kill_r>:
 8007cb0:	b538      	push	{r3, r4, r5, lr}
 8007cb2:	4d07      	ldr	r5, [pc, #28]	; (8007cd0 <_kill_r+0x20>)
 8007cb4:	2300      	movs	r3, #0
 8007cb6:	4604      	mov	r4, r0
 8007cb8:	4608      	mov	r0, r1
 8007cba:	4611      	mov	r1, r2
 8007cbc:	602b      	str	r3, [r5, #0]
 8007cbe:	f7f9 fa33 	bl	8001128 <_kill>
 8007cc2:	1c43      	adds	r3, r0, #1
 8007cc4:	d102      	bne.n	8007ccc <_kill_r+0x1c>
 8007cc6:	682b      	ldr	r3, [r5, #0]
 8007cc8:	b103      	cbz	r3, 8007ccc <_kill_r+0x1c>
 8007cca:	6023      	str	r3, [r4, #0]
 8007ccc:	bd38      	pop	{r3, r4, r5, pc}
 8007cce:	bf00      	nop
 8007cd0:	20011a94 	.word	0x20011a94

08007cd4 <_getpid_r>:
 8007cd4:	f7f9 ba20 	b.w	8001118 <_getpid>

08007cd8 <_fstat_r>:
 8007cd8:	b538      	push	{r3, r4, r5, lr}
 8007cda:	4d07      	ldr	r5, [pc, #28]	; (8007cf8 <_fstat_r+0x20>)
 8007cdc:	2300      	movs	r3, #0
 8007cde:	4604      	mov	r4, r0
 8007ce0:	4608      	mov	r0, r1
 8007ce2:	4611      	mov	r1, r2
 8007ce4:	602b      	str	r3, [r5, #0]
 8007ce6:	f7f9 fa7e 	bl	80011e6 <_fstat>
 8007cea:	1c43      	adds	r3, r0, #1
 8007cec:	d102      	bne.n	8007cf4 <_fstat_r+0x1c>
 8007cee:	682b      	ldr	r3, [r5, #0]
 8007cf0:	b103      	cbz	r3, 8007cf4 <_fstat_r+0x1c>
 8007cf2:	6023      	str	r3, [r4, #0]
 8007cf4:	bd38      	pop	{r3, r4, r5, pc}
 8007cf6:	bf00      	nop
 8007cf8:	20011a94 	.word	0x20011a94

08007cfc <_isatty_r>:
 8007cfc:	b538      	push	{r3, r4, r5, lr}
 8007cfe:	4d06      	ldr	r5, [pc, #24]	; (8007d18 <_isatty_r+0x1c>)
 8007d00:	2300      	movs	r3, #0
 8007d02:	4604      	mov	r4, r0
 8007d04:	4608      	mov	r0, r1
 8007d06:	602b      	str	r3, [r5, #0]
 8007d08:	f7f9 fa7d 	bl	8001206 <_isatty>
 8007d0c:	1c43      	adds	r3, r0, #1
 8007d0e:	d102      	bne.n	8007d16 <_isatty_r+0x1a>
 8007d10:	682b      	ldr	r3, [r5, #0]
 8007d12:	b103      	cbz	r3, 8007d16 <_isatty_r+0x1a>
 8007d14:	6023      	str	r3, [r4, #0]
 8007d16:	bd38      	pop	{r3, r4, r5, pc}
 8007d18:	20011a94 	.word	0x20011a94

08007d1c <round>:
 8007d1c:	ec51 0b10 	vmov	r0, r1, d0
 8007d20:	b570      	push	{r4, r5, r6, lr}
 8007d22:	f3c1 550a 	ubfx	r5, r1, #20, #11
 8007d26:	f2a5 34ff 	subw	r4, r5, #1023	; 0x3ff
 8007d2a:	2c13      	cmp	r4, #19
 8007d2c:	ee10 2a10 	vmov	r2, s0
 8007d30:	460b      	mov	r3, r1
 8007d32:	dc19      	bgt.n	8007d68 <round+0x4c>
 8007d34:	2c00      	cmp	r4, #0
 8007d36:	da09      	bge.n	8007d4c <round+0x30>
 8007d38:	3401      	adds	r4, #1
 8007d3a:	f001 4300 	and.w	r3, r1, #2147483648	; 0x80000000
 8007d3e:	d103      	bne.n	8007d48 <round+0x2c>
 8007d40:	f043 537f 	orr.w	r3, r3, #1069547520	; 0x3fc00000
 8007d44:	f443 1340 	orr.w	r3, r3, #3145728	; 0x300000
 8007d48:	2200      	movs	r2, #0
 8007d4a:	e028      	b.n	8007d9e <round+0x82>
 8007d4c:	4d15      	ldr	r5, [pc, #84]	; (8007da4 <round+0x88>)
 8007d4e:	4125      	asrs	r5, r4
 8007d50:	ea01 0605 	and.w	r6, r1, r5
 8007d54:	4332      	orrs	r2, r6
 8007d56:	d00e      	beq.n	8007d76 <round+0x5a>
 8007d58:	f44f 2200 	mov.w	r2, #524288	; 0x80000
 8007d5c:	fa42 f404 	asr.w	r4, r2, r4
 8007d60:	4423      	add	r3, r4
 8007d62:	ea23 0305 	bic.w	r3, r3, r5
 8007d66:	e7ef      	b.n	8007d48 <round+0x2c>
 8007d68:	2c33      	cmp	r4, #51	; 0x33
 8007d6a:	dd07      	ble.n	8007d7c <round+0x60>
 8007d6c:	f5b4 6f80 	cmp.w	r4, #1024	; 0x400
 8007d70:	d101      	bne.n	8007d76 <round+0x5a>
 8007d72:	f7f8 faa3 	bl	80002bc <__adddf3>
 8007d76:	ec41 0b10 	vmov	d0, r0, r1
 8007d7a:	bd70      	pop	{r4, r5, r6, pc}
 8007d7c:	f2a5 4613 	subw	r6, r5, #1043	; 0x413
 8007d80:	f04f 35ff 	mov.w	r5, #4294967295	; 0xffffffff
 8007d84:	40f5      	lsrs	r5, r6
 8007d86:	4228      	tst	r0, r5
 8007d88:	d0f5      	beq.n	8007d76 <round+0x5a>
 8007d8a:	2101      	movs	r1, #1
 8007d8c:	f1c4 0433 	rsb	r4, r4, #51	; 0x33
 8007d90:	fa01 f404 	lsl.w	r4, r1, r4
 8007d94:	1912      	adds	r2, r2, r4
 8007d96:	bf28      	it	cs
 8007d98:	185b      	addcs	r3, r3, r1
 8007d9a:	ea22 0205 	bic.w	r2, r2, r5
 8007d9e:	4619      	mov	r1, r3
 8007da0:	4610      	mov	r0, r2
 8007da2:	e7e8      	b.n	8007d76 <round+0x5a>
 8007da4:	000fffff 	.word	0x000fffff

08007da8 <pow>:
 8007da8:	b5f8      	push	{r3, r4, r5, r6, r7, lr}
 8007daa:	ed2d 8b02 	vpush	{d8}
 8007dae:	eeb0 8a40 	vmov.f32	s16, s0
 8007db2:	eef0 8a60 	vmov.f32	s17, s1
 8007db6:	ec55 4b11 	vmov	r4, r5, d1
 8007dba:	f000 f865 	bl	8007e88 <__ieee754_pow>
 8007dbe:	4622      	mov	r2, r4
 8007dc0:	462b      	mov	r3, r5
 8007dc2:	4620      	mov	r0, r4
 8007dc4:	4629      	mov	r1, r5
 8007dc6:	ec57 6b10 	vmov	r6, r7, d0
 8007dca:	f7f8 fec7 	bl	8000b5c <__aeabi_dcmpun>
 8007dce:	2800      	cmp	r0, #0
 8007dd0:	d13b      	bne.n	8007e4a <pow+0xa2>
 8007dd2:	ec51 0b18 	vmov	r0, r1, d8
 8007dd6:	2200      	movs	r2, #0
 8007dd8:	2300      	movs	r3, #0
 8007dda:	f7f8 fe8d 	bl	8000af8 <__aeabi_dcmpeq>
 8007dde:	b1b8      	cbz	r0, 8007e10 <pow+0x68>
 8007de0:	2200      	movs	r2, #0
 8007de2:	2300      	movs	r3, #0
 8007de4:	4620      	mov	r0, r4
 8007de6:	4629      	mov	r1, r5
 8007de8:	f7f8 fe86 	bl	8000af8 <__aeabi_dcmpeq>
 8007dec:	2800      	cmp	r0, #0
 8007dee:	d146      	bne.n	8007e7e <pow+0xd6>
 8007df0:	ec45 4b10 	vmov	d0, r4, r5
 8007df4:	f000 fe61 	bl	8008aba <finite>
 8007df8:	b338      	cbz	r0, 8007e4a <pow+0xa2>
 8007dfa:	2200      	movs	r2, #0
 8007dfc:	2300      	movs	r3, #0
 8007dfe:	4620      	mov	r0, r4
 8007e00:	4629      	mov	r1, r5
 8007e02:	f7f8 fe83 	bl	8000b0c <__aeabi_dcmplt>
 8007e06:	b300      	cbz	r0, 8007e4a <pow+0xa2>
 8007e08:	f7fc fbba 	bl	8004580 <__errno>
 8007e0c:	2322      	movs	r3, #34	; 0x22
 8007e0e:	e01b      	b.n	8007e48 <pow+0xa0>
 8007e10:	ec47 6b10 	vmov	d0, r6, r7
 8007e14:	f000 fe51 	bl	8008aba <finite>
 8007e18:	b9e0      	cbnz	r0, 8007e54 <pow+0xac>
 8007e1a:	eeb0 0a48 	vmov.f32	s0, s16
 8007e1e:	eef0 0a68 	vmov.f32	s1, s17
 8007e22:	f000 fe4a 	bl	8008aba <finite>
 8007e26:	b1a8      	cbz	r0, 8007e54 <pow+0xac>
 8007e28:	ec45 4b10 	vmov	d0, r4, r5
 8007e2c:	f000 fe45 	bl	8008aba <finite>
 8007e30:	b180      	cbz	r0, 8007e54 <pow+0xac>
 8007e32:	4632      	mov	r2, r6
 8007e34:	463b      	mov	r3, r7
 8007e36:	4630      	mov	r0, r6
 8007e38:	4639      	mov	r1, r7
 8007e3a:	f7f8 fe8f 	bl	8000b5c <__aeabi_dcmpun>
 8007e3e:	2800      	cmp	r0, #0
 8007e40:	d0e2      	beq.n	8007e08 <pow+0x60>
 8007e42:	f7fc fb9d 	bl	8004580 <__errno>
 8007e46:	2321      	movs	r3, #33	; 0x21
 8007e48:	6003      	str	r3, [r0, #0]
 8007e4a:	ecbd 8b02 	vpop	{d8}
 8007e4e:	ec47 6b10 	vmov	d0, r6, r7
 8007e52:	bdf8      	pop	{r3, r4, r5, r6, r7, pc}
 8007e54:	2200      	movs	r2, #0
 8007e56:	2300      	movs	r3, #0
 8007e58:	4630      	mov	r0, r6
 8007e5a:	4639      	mov	r1, r7
 8007e5c:	f7f8 fe4c 	bl	8000af8 <__aeabi_dcmpeq>
 8007e60:	2800      	cmp	r0, #0
 8007e62:	d0f2      	beq.n	8007e4a <pow+0xa2>
 8007e64:	eeb0 0a48 	vmov.f32	s0, s16
 8007e68:	eef0 0a68 	vmov.f32	s1, s17
 8007e6c:	f000 fe25 	bl	8008aba <finite>
 8007e70:	2800      	cmp	r0, #0
 8007e72:	d0ea      	beq.n	8007e4a <pow+0xa2>
 8007e74:	ec45 4b10 	vmov	d0, r4, r5
 8007e78:	f000 fe1f 	bl	8008aba <finite>
 8007e7c:	e7c3      	b.n	8007e06 <pow+0x5e>
 8007e7e:	4f01      	ldr	r7, [pc, #4]	; (8007e84 <pow+0xdc>)
 8007e80:	2600      	movs	r6, #0
 8007e82:	e7e2      	b.n	8007e4a <pow+0xa2>
 8007e84:	3ff00000 	.word	0x3ff00000

08007e88 <__ieee754_pow>:
 8007e88:	e92d 4ff0 	stmdb	sp!, {r4, r5, r6, r7, r8, r9, sl, fp, lr}
 8007e8c:	ed2d 8b06 	vpush	{d8-d10}
 8007e90:	b089      	sub	sp, #36	; 0x24
 8007e92:	ed8d 1b00 	vstr	d1, [sp]
 8007e96:	e9dd 2900 	ldrd	r2, r9, [sp]
 8007e9a:	f029 4800 	bic.w	r8, r9, #2147483648	; 0x80000000
 8007e9e:	ea58 0102 	orrs.w	r1, r8, r2
 8007ea2:	ec57 6b10 	vmov	r6, r7, d0
 8007ea6:	d115      	bne.n	8007ed4 <__ieee754_pow+0x4c>
 8007ea8:	19b3      	adds	r3, r6, r6
 8007eaa:	f487 2200 	eor.w	r2, r7, #524288	; 0x80000
 8007eae:	4152      	adcs	r2, r2
 8007eb0:	4299      	cmp	r1, r3
 8007eb2:	4b89      	ldr	r3, [pc, #548]	; (80080d8 <__ieee754_pow+0x250>)
 8007eb4:	4193      	sbcs	r3, r2
 8007eb6:	f080 84d2 	bcs.w	800885e <__ieee754_pow+0x9d6>
 8007eba:	e9dd 2300 	ldrd	r2, r3, [sp]
 8007ebe:	4630      	mov	r0, r6
 8007ec0:	4639      	mov	r1, r7
 8007ec2:	f7f8 f9fb 	bl	80002bc <__adddf3>
 8007ec6:	ec41 0b10 	vmov	d0, r0, r1
 8007eca:	b009      	add	sp, #36	; 0x24
 8007ecc:	ecbd 8b06 	vpop	{d8-d10}
 8007ed0:	e8bd 8ff0 	ldmia.w	sp!, {r4, r5, r6, r7, r8, r9, sl, fp, pc}
 8007ed4:	4b81      	ldr	r3, [pc, #516]	; (80080dc <__ieee754_pow+0x254>)
 8007ed6:	f027 4400 	bic.w	r4, r7, #2147483648	; 0x80000000
 8007eda:	429c      	cmp	r4, r3
 8007edc:	ee10 aa10 	vmov	sl, s0
 8007ee0:	463d      	mov	r5, r7
 8007ee2:	dc06      	bgt.n	8007ef2 <__ieee754_pow+0x6a>
 8007ee4:	d101      	bne.n	8007eea <__ieee754_pow+0x62>
 8007ee6:	2e00      	cmp	r6, #0
 8007ee8:	d1e7      	bne.n	8007eba <__ieee754_pow+0x32>
 8007eea:	4598      	cmp	r8, r3
 8007eec:	dc01      	bgt.n	8007ef2 <__ieee754_pow+0x6a>
 8007eee:	d10f      	bne.n	8007f10 <__ieee754_pow+0x88>
 8007ef0:	b172      	cbz	r2, 8007f10 <__ieee754_pow+0x88>
 8007ef2:	f105 4540 	add.w	r5, r5, #3221225472	; 0xc0000000
 8007ef6:	f505 1580 	add.w	r5, r5, #1048576	; 0x100000
 8007efa:	ea55 050a 	orrs.w	r5, r5, sl
 8007efe:	d1dc      	bne.n	8007eba <__ieee754_pow+0x32>
 8007f00:	e9dd 3200 	ldrd	r3, r2, [sp]
 8007f04:	18db      	adds	r3, r3, r3
 8007f06:	f482 2200 	eor.w	r2, r2, #524288	; 0x80000
 8007f0a:	4152      	adcs	r2, r2
 8007f0c:	429d      	cmp	r5, r3
 8007f0e:	e7d0      	b.n	8007eb2 <__ieee754_pow+0x2a>
 8007f10:	2d00      	cmp	r5, #0
 8007f12:	da3b      	bge.n	8007f8c <__ieee754_pow+0x104>
 8007f14:	4b72      	ldr	r3, [pc, #456]	; (80080e0 <__ieee754_pow+0x258>)
 8007f16:	4598      	cmp	r8, r3
 8007f18:	dc51      	bgt.n	8007fbe <__ieee754_pow+0x136>
 8007f1a:	f1a3 7354 	sub.w	r3, r3, #55574528	; 0x3500000
 8007f1e:	4598      	cmp	r8, r3
 8007f20:	f340 84ac 	ble.w	800887c <__ieee754_pow+0x9f4>
 8007f24:	ea4f 5328 	mov.w	r3, r8, asr #20
 8007f28:	f2a3 33ff 	subw	r3, r3, #1023	; 0x3ff
 8007f2c:	2b14      	cmp	r3, #20
 8007f2e:	dd0f      	ble.n	8007f50 <__ieee754_pow+0xc8>
 8007f30:	f1c3 0334 	rsb	r3, r3, #52	; 0x34
 8007f34:	fa22 f103 	lsr.w	r1, r2, r3
 8007f38:	fa01 f303 	lsl.w	r3, r1, r3
 8007f3c:	4293      	cmp	r3, r2
 8007f3e:	f040 849d 	bne.w	800887c <__ieee754_pow+0x9f4>
 8007f42:	f001 0101 	and.w	r1, r1, #1
 8007f46:	f1c1 0302 	rsb	r3, r1, #2
 8007f4a:	9304      	str	r3, [sp, #16]
 8007f4c:	b182      	cbz	r2, 8007f70 <__ieee754_pow+0xe8>
 8007f4e:	e05f      	b.n	8008010 <__ieee754_pow+0x188>
 8007f50:	2a00      	cmp	r2, #0
 8007f52:	d15b      	bne.n	800800c <__ieee754_pow+0x184>
 8007f54:	f1c3 0314 	rsb	r3, r3, #20
 8007f58:	fa48 f103 	asr.w	r1, r8, r3
 8007f5c:	fa01 f303 	lsl.w	r3, r1, r3
 8007f60:	4543      	cmp	r3, r8
 8007f62:	f040 8488 	bne.w	8008876 <__ieee754_pow+0x9ee>
 8007f66:	f001 0101 	and.w	r1, r1, #1
 8007f6a:	f1c1 0302 	rsb	r3, r1, #2
 8007f6e:	9304      	str	r3, [sp, #16]
 8007f70:	4b5c      	ldr	r3, [pc, #368]	; (80080e4 <__ieee754_pow+0x25c>)
 8007f72:	4598      	cmp	r8, r3
 8007f74:	d132      	bne.n	8007fdc <__ieee754_pow+0x154>
 8007f76:	f1b9 0f00 	cmp.w	r9, #0
 8007f7a:	f280 8478 	bge.w	800886e <__ieee754_pow+0x9e6>
 8007f7e:	4959      	ldr	r1, [pc, #356]	; (80080e4 <__ieee754_pow+0x25c>)
 8007f80:	4632      	mov	r2, r6
 8007f82:	463b      	mov	r3, r7
 8007f84:	2000      	movs	r0, #0
 8007f86:	f7f8 fc79 	bl	800087c <__aeabi_ddiv>
 8007f8a:	e79c      	b.n	8007ec6 <__ieee754_pow+0x3e>
 8007f8c:	2300      	movs	r3, #0
 8007f8e:	9304      	str	r3, [sp, #16]
 8007f90:	2a00      	cmp	r2, #0
 8007f92:	d13d      	bne.n	8008010 <__ieee754_pow+0x188>
 8007f94:	4b51      	ldr	r3, [pc, #324]	; (80080dc <__ieee754_pow+0x254>)
 8007f96:	4598      	cmp	r8, r3
 8007f98:	d1ea      	bne.n	8007f70 <__ieee754_pow+0xe8>
 8007f9a:	f104 4340 	add.w	r3, r4, #3221225472	; 0xc0000000
 8007f9e:	f503 1380 	add.w	r3, r3, #1048576	; 0x100000
 8007fa2:	ea53 030a 	orrs.w	r3, r3, sl
 8007fa6:	f000 845a 	beq.w	800885e <__ieee754_pow+0x9d6>
 8007faa:	4b4f      	ldr	r3, [pc, #316]	; (80080e8 <__ieee754_pow+0x260>)
 8007fac:	429c      	cmp	r4, r3
 8007fae:	dd08      	ble.n	8007fc2 <__ieee754_pow+0x13a>
 8007fb0:	f1b9 0f00 	cmp.w	r9, #0
 8007fb4:	f2c0 8457 	blt.w	8008866 <__ieee754_pow+0x9de>
 8007fb8:	e9dd 0100 	ldrd	r0, r1, [sp]
 8007fbc:	e783      	b.n	8007ec6 <__ieee754_pow+0x3e>
 8007fbe:	2302      	movs	r3, #2
 8007fc0:	e7e5      	b.n	8007f8e <__ieee754_pow+0x106>
 8007fc2:	f1b9 0f00 	cmp.w	r9, #0
 8007fc6:	f04f 0000 	mov.w	r0, #0
 8007fca:	f04f 0100 	mov.w	r1, #0
 8007fce:	f6bf af7a 	bge.w	8007ec6 <__ieee754_pow+0x3e>
 8007fd2:	e9dd 0300 	ldrd	r0, r3, [sp]
 8007fd6:	f103 4100 	add.w	r1, r3, #2147483648	; 0x80000000
 8007fda:	e774      	b.n	8007ec6 <__ieee754_pow+0x3e>
 8007fdc:	f1b9 4f80 	cmp.w	r9, #1073741824	; 0x40000000
 8007fe0:	d106      	bne.n	8007ff0 <__ieee754_pow+0x168>
 8007fe2:	4632      	mov	r2, r6
 8007fe4:	463b      	mov	r3, r7
 8007fe6:	4630      	mov	r0, r6
 8007fe8:	4639      	mov	r1, r7
 8007fea:	f7f8 fb1d 	bl	8000628 <__aeabi_dmul>
 8007fee:	e76a      	b.n	8007ec6 <__ieee754_pow+0x3e>
 8007ff0:	4b3e      	ldr	r3, [pc, #248]	; (80080ec <__ieee754_pow+0x264>)
 8007ff2:	4599      	cmp	r9, r3
 8007ff4:	d10c      	bne.n	8008010 <__ieee754_pow+0x188>
 8007ff6:	2d00      	cmp	r5, #0
 8007ff8:	db0a      	blt.n	8008010 <__ieee754_pow+0x188>
 8007ffa:	ec47 6b10 	vmov	d0, r6, r7
 8007ffe:	b009      	add	sp, #36	; 0x24
 8008000:	ecbd 8b06 	vpop	{d8-d10}
 8008004:	e8bd 4ff0 	ldmia.w	sp!, {r4, r5, r6, r7, r8, r9, sl, fp, lr}
 8008008:	f000 bc6c 	b.w	80088e4 <__ieee754_sqrt>
 800800c:	2300      	movs	r3, #0
 800800e:	9304      	str	r3, [sp, #16]
 8008010:	ec47 6b10 	vmov	d0, r6, r7
 8008014:	f000 fd48 	bl	8008aa8 <fabs>
 8008018:	ec51 0b10 	vmov	r0, r1, d0
 800801c:	f1ba 0f00 	cmp.w	sl, #0
 8008020:	d129      	bne.n	8008076 <__ieee754_pow+0x1ee>
 8008022:	b124      	cbz	r4, 800802e <__ieee754_pow+0x1a6>
 8008024:	4b2f      	ldr	r3, [pc, #188]	; (80080e4 <__ieee754_pow+0x25c>)
 8008026:	f025 4240 	bic.w	r2, r5, #3221225472	; 0xc0000000
 800802a:	429a      	cmp	r2, r3
 800802c:	d123      	bne.n	8008076 <__ieee754_pow+0x1ee>
 800802e:	f1b9 0f00 	cmp.w	r9, #0
 8008032:	da05      	bge.n	8008040 <__ieee754_pow+0x1b8>
 8008034:	4602      	mov	r2, r0
 8008036:	460b      	mov	r3, r1
 8008038:	2000      	movs	r0, #0
 800803a:	492a      	ldr	r1, [pc, #168]	; (80080e4 <__ieee754_pow+0x25c>)
 800803c:	f7f8 fc1e 	bl	800087c <__aeabi_ddiv>
 8008040:	2d00      	cmp	r5, #0
 8008042:	f6bf af40 	bge.w	8007ec6 <__ieee754_pow+0x3e>
 8008046:	9b04      	ldr	r3, [sp, #16]
 8008048:	f104 4440 	add.w	r4, r4, #3221225472	; 0xc0000000
 800804c:	f504 1480 	add.w	r4, r4, #1048576	; 0x100000
 8008050:	4323      	orrs	r3, r4
 8008052:	d108      	bne.n	8008066 <__ieee754_pow+0x1de>
 8008054:	4602      	mov	r2, r0
 8008056:	460b      	mov	r3, r1
 8008058:	4610      	mov	r0, r2
 800805a:	4619      	mov	r1, r3
 800805c:	f7f8 f92c 	bl	80002b8 <__aeabi_dsub>
 8008060:	4602      	mov	r2, r0
 8008062:	460b      	mov	r3, r1
 8008064:	e78f      	b.n	8007f86 <__ieee754_pow+0xfe>
 8008066:	9b04      	ldr	r3, [sp, #16]
 8008068:	2b01      	cmp	r3, #1
 800806a:	f47f af2c 	bne.w	8007ec6 <__ieee754_pow+0x3e>
 800806e:	f101 4300 	add.w	r3, r1, #2147483648	; 0x80000000
 8008072:	4619      	mov	r1, r3
 8008074:	e727      	b.n	8007ec6 <__ieee754_pow+0x3e>
 8008076:	0feb      	lsrs	r3, r5, #31
 8008078:	3b01      	subs	r3, #1
 800807a:	9306      	str	r3, [sp, #24]
 800807c:	9a06      	ldr	r2, [sp, #24]
 800807e:	9b04      	ldr	r3, [sp, #16]
 8008080:	4313      	orrs	r3, r2
 8008082:	d102      	bne.n	800808a <__ieee754_pow+0x202>
 8008084:	4632      	mov	r2, r6
 8008086:	463b      	mov	r3, r7
 8008088:	e7e6      	b.n	8008058 <__ieee754_pow+0x1d0>
 800808a:	4b19      	ldr	r3, [pc, #100]	; (80080f0 <__ieee754_pow+0x268>)
 800808c:	4598      	cmp	r8, r3
 800808e:	f340 80fb 	ble.w	8008288 <__ieee754_pow+0x400>
 8008092:	f103 7304 	add.w	r3, r3, #34603008	; 0x2100000
 8008096:	4598      	cmp	r8, r3
 8008098:	4b13      	ldr	r3, [pc, #76]	; (80080e8 <__ieee754_pow+0x260>)
 800809a:	dd0c      	ble.n	80080b6 <__ieee754_pow+0x22e>
 800809c:	429c      	cmp	r4, r3
 800809e:	dc0f      	bgt.n	80080c0 <__ieee754_pow+0x238>
 80080a0:	f1b9 0f00 	cmp.w	r9, #0
 80080a4:	da0f      	bge.n	80080c6 <__ieee754_pow+0x23e>
 80080a6:	2000      	movs	r0, #0
 80080a8:	b009      	add	sp, #36	; 0x24
 80080aa:	ecbd 8b06 	vpop	{d8-d10}
 80080ae:	e8bd 4ff0 	ldmia.w	sp!, {r4, r5, r6, r7, r8, r9, sl, fp, lr}
 80080b2:	f000 bcf0 	b.w	8008a96 <__math_oflow>
 80080b6:	429c      	cmp	r4, r3
 80080b8:	dbf2      	blt.n	80080a0 <__ieee754_pow+0x218>
 80080ba:	4b0a      	ldr	r3, [pc, #40]	; (80080e4 <__ieee754_pow+0x25c>)
 80080bc:	429c      	cmp	r4, r3
 80080be:	dd19      	ble.n	80080f4 <__ieee754_pow+0x26c>
 80080c0:	f1b9 0f00 	cmp.w	r9, #0
 80080c4:	dcef      	bgt.n	80080a6 <__ieee754_pow+0x21e>
 80080c6:	2000      	movs	r0, #0
 80080c8:	b009      	add	sp, #36	; 0x24
 80080ca:	ecbd 8b06 	vpop	{d8-d10}
 80080ce:	e8bd 4ff0 	ldmia.w	sp!, {r4, r5, r6, r7, r8, r9, sl, fp, lr}
 80080d2:	f000 bcd7 	b.w	8008a84 <__math_uflow>
 80080d6:	bf00      	nop
 80080d8:	fff00000 	.word	0xfff00000
 80080dc:	7ff00000 	.word	0x7ff00000
 80080e0:	433fffff 	.word	0x433fffff
 80080e4:	3ff00000 	.word	0x3ff00000
 80080e8:	3fefffff 	.word	0x3fefffff
 80080ec:	3fe00000 	.word	0x3fe00000
 80080f0:	41e00000 	.word	0x41e00000
 80080f4:	4b60      	ldr	r3, [pc, #384]	; (8008278 <__ieee754_pow+0x3f0>)
 80080f6:	2200      	movs	r2, #0
 80080f8:	f7f8 f8de 	bl	80002b8 <__aeabi_dsub>
 80080fc:	a354      	add	r3, pc, #336	; (adr r3, 8008250 <__ieee754_pow+0x3c8>)
 80080fe:	e9d3 2300 	ldrd	r2, r3, [r3]
 8008102:	4604      	mov	r4, r0
 8008104:	460d      	mov	r5, r1
 8008106:	f7f8 fa8f 	bl	8000628 <__aeabi_dmul>
 800810a:	a353      	add	r3, pc, #332	; (adr r3, 8008258 <__ieee754_pow+0x3d0>)
 800810c:	e9d3 2300 	ldrd	r2, r3, [r3]
 8008110:	4606      	mov	r6, r0
 8008112:	460f      	mov	r7, r1
 8008114:	4620      	mov	r0, r4
 8008116:	4629      	mov	r1, r5
 8008118:	f7f8 fa86 	bl	8000628 <__aeabi_dmul>
 800811c:	4b57      	ldr	r3, [pc, #348]	; (800827c <__ieee754_pow+0x3f4>)
 800811e:	4682      	mov	sl, r0
 8008120:	468b      	mov	fp, r1
 8008122:	2200      	movs	r2, #0
 8008124:	4620      	mov	r0, r4
 8008126:	4629      	mov	r1, r5
 8008128:	f7f8 fa7e 	bl	8000628 <__aeabi_dmul>
 800812c:	4602      	mov	r2, r0
 800812e:	460b      	mov	r3, r1
 8008130:	a14b      	add	r1, pc, #300	; (adr r1, 8008260 <__ieee754_pow+0x3d8>)
 8008132:	e9d1 0100 	ldrd	r0, r1, [r1]
 8008136:	f7f8 f8bf 	bl	80002b8 <__aeabi_dsub>
 800813a:	4622      	mov	r2, r4
 800813c:	462b      	mov	r3, r5
 800813e:	f7f8 fa73 	bl	8000628 <__aeabi_dmul>
 8008142:	4602      	mov	r2, r0
 8008144:	460b      	mov	r3, r1
 8008146:	2000      	movs	r0, #0
 8008148:	494d      	ldr	r1, [pc, #308]	; (8008280 <__ieee754_pow+0x3f8>)
 800814a:	f7f8 f8b5 	bl	80002b8 <__aeabi_dsub>
 800814e:	4622      	mov	r2, r4
 8008150:	4680      	mov	r8, r0
 8008152:	4689      	mov	r9, r1
 8008154:	462b      	mov	r3, r5
 8008156:	4620      	mov	r0, r4
 8008158:	4629      	mov	r1, r5
 800815a:	f7f8 fa65 	bl	8000628 <__aeabi_dmul>
 800815e:	4602      	mov	r2, r0
 8008160:	460b      	mov	r3, r1
 8008162:	4640      	mov	r0, r8
 8008164:	4649      	mov	r1, r9
 8008166:	f7f8 fa5f 	bl	8000628 <__aeabi_dmul>
 800816a:	a33f      	add	r3, pc, #252	; (adr r3, 8008268 <__ieee754_pow+0x3e0>)
 800816c:	e9d3 2300 	ldrd	r2, r3, [r3]
 8008170:	f7f8 fa5a 	bl	8000628 <__aeabi_dmul>
 8008174:	4602      	mov	r2, r0
 8008176:	460b      	mov	r3, r1
 8008178:	4650      	mov	r0, sl
 800817a:	4659      	mov	r1, fp
 800817c:	f7f8 f89c 	bl	80002b8 <__aeabi_dsub>
 8008180:	4602      	mov	r2, r0
 8008182:	460b      	mov	r3, r1
 8008184:	4680      	mov	r8, r0
 8008186:	4689      	mov	r9, r1
 8008188:	4630      	mov	r0, r6
 800818a:	4639      	mov	r1, r7
 800818c:	f7f8 f896 	bl	80002bc <__adddf3>
 8008190:	2000      	movs	r0, #0
 8008192:	4632      	mov	r2, r6
 8008194:	463b      	mov	r3, r7
 8008196:	4604      	mov	r4, r0
 8008198:	460d      	mov	r5, r1
 800819a:	f7f8 f88d 	bl	80002b8 <__aeabi_dsub>
 800819e:	4602      	mov	r2, r0
 80081a0:	460b      	mov	r3, r1
 80081a2:	4640      	mov	r0, r8
 80081a4:	4649      	mov	r1, r9
 80081a6:	f7f8 f887 	bl	80002b8 <__aeabi_dsub>
 80081aa:	9b04      	ldr	r3, [sp, #16]
 80081ac:	9a06      	ldr	r2, [sp, #24]
 80081ae:	3b01      	subs	r3, #1
 80081b0:	4313      	orrs	r3, r2
 80081b2:	4682      	mov	sl, r0
 80081b4:	468b      	mov	fp, r1
 80081b6:	f040 81e7 	bne.w	8008588 <__ieee754_pow+0x700>
 80081ba:	ed9f 7b2d 	vldr	d7, [pc, #180]	; 8008270 <__ieee754_pow+0x3e8>
 80081be:	eeb0 8a47 	vmov.f32	s16, s14
 80081c2:	eef0 8a67 	vmov.f32	s17, s15
 80081c6:	e9dd 6700 	ldrd	r6, r7, [sp]
 80081ca:	2600      	movs	r6, #0
 80081cc:	4632      	mov	r2, r6
 80081ce:	463b      	mov	r3, r7
 80081d0:	e9dd 0100 	ldrd	r0, r1, [sp]
 80081d4:	f7f8 f870 	bl	80002b8 <__aeabi_dsub>
 80081d8:	4622      	mov	r2, r4
 80081da:	462b      	mov	r3, r5
 80081dc:	f7f8 fa24 	bl	8000628 <__aeabi_dmul>
 80081e0:	e9dd 2300 	ldrd	r2, r3, [sp]
 80081e4:	4680      	mov	r8, r0
 80081e6:	4689      	mov	r9, r1
 80081e8:	4650      	mov	r0, sl
 80081ea:	4659      	mov	r1, fp
 80081ec:	f7f8 fa1c 	bl	8000628 <__aeabi_dmul>
 80081f0:	4602      	mov	r2, r0
 80081f2:	460b      	mov	r3, r1
 80081f4:	4640      	mov	r0, r8
 80081f6:	4649      	mov	r1, r9
 80081f8:	f7f8 f860 	bl	80002bc <__adddf3>
 80081fc:	4632      	mov	r2, r6
 80081fe:	463b      	mov	r3, r7
 8008200:	4680      	mov	r8, r0
 8008202:	4689      	mov	r9, r1
 8008204:	4620      	mov	r0, r4
 8008206:	4629      	mov	r1, r5
 8008208:	f7f8 fa0e 	bl	8000628 <__aeabi_dmul>
 800820c:	460b      	mov	r3, r1
 800820e:	4604      	mov	r4, r0
 8008210:	460d      	mov	r5, r1
 8008212:	4602      	mov	r2, r0
 8008214:	4649      	mov	r1, r9
 8008216:	4640      	mov	r0, r8
 8008218:	f7f8 f850 	bl	80002bc <__adddf3>
 800821c:	4b19      	ldr	r3, [pc, #100]	; (8008284 <__ieee754_pow+0x3fc>)
 800821e:	4299      	cmp	r1, r3
 8008220:	ec45 4b19 	vmov	d9, r4, r5
 8008224:	4606      	mov	r6, r0
 8008226:	460f      	mov	r7, r1
 8008228:	468b      	mov	fp, r1
 800822a:	f340 82f1 	ble.w	8008810 <__ieee754_pow+0x988>
 800822e:	f101 433f 	add.w	r3, r1, #3204448256	; 0xbf000000
 8008232:	f503 03e0 	add.w	r3, r3, #7340032	; 0x700000
 8008236:	4303      	orrs	r3, r0
 8008238:	f000 81e4 	beq.w	8008604 <__ieee754_pow+0x77c>
 800823c:	ec51 0b18 	vmov	r0, r1, d8
 8008240:	2200      	movs	r2, #0
 8008242:	2300      	movs	r3, #0
 8008244:	f7f8 fc62 	bl	8000b0c <__aeabi_dcmplt>
 8008248:	3800      	subs	r0, #0
 800824a:	bf18      	it	ne
 800824c:	2001      	movne	r0, #1
 800824e:	e72b      	b.n	80080a8 <__ieee754_pow+0x220>
 8008250:	60000000 	.word	0x60000000
 8008254:	3ff71547 	.word	0x3ff71547
 8008258:	f85ddf44 	.word	0xf85ddf44
 800825c:	3e54ae0b 	.word	0x3e54ae0b
 8008260:	55555555 	.word	0x55555555
 8008264:	3fd55555 	.word	0x3fd55555
 8008268:	652b82fe 	.word	0x652b82fe
 800826c:	3ff71547 	.word	0x3ff71547
 8008270:	00000000 	.word	0x00000000
 8008274:	bff00000 	.word	0xbff00000
 8008278:	3ff00000 	.word	0x3ff00000
 800827c:	3fd00000 	.word	0x3fd00000
 8008280:	3fe00000 	.word	0x3fe00000
 8008284:	408fffff 	.word	0x408fffff
 8008288:	4bd5      	ldr	r3, [pc, #852]	; (80085e0 <__ieee754_pow+0x758>)
 800828a:	402b      	ands	r3, r5
 800828c:	2200      	movs	r2, #0
 800828e:	b92b      	cbnz	r3, 800829c <__ieee754_pow+0x414>
 8008290:	4bd4      	ldr	r3, [pc, #848]	; (80085e4 <__ieee754_pow+0x75c>)
 8008292:	f7f8 f9c9 	bl	8000628 <__aeabi_dmul>
 8008296:	f06f 0234 	mvn.w	r2, #52	; 0x34
 800829a:	460c      	mov	r4, r1
 800829c:	1523      	asrs	r3, r4, #20
 800829e:	f2a3 33ff 	subw	r3, r3, #1023	; 0x3ff
 80082a2:	4413      	add	r3, r2
 80082a4:	9305      	str	r3, [sp, #20]
 80082a6:	4bd0      	ldr	r3, [pc, #832]	; (80085e8 <__ieee754_pow+0x760>)
 80082a8:	f3c4 0413 	ubfx	r4, r4, #0, #20
 80082ac:	f044 557f 	orr.w	r5, r4, #1069547520	; 0x3fc00000
 80082b0:	429c      	cmp	r4, r3
 80082b2:	f445 1540 	orr.w	r5, r5, #3145728	; 0x300000
 80082b6:	dd08      	ble.n	80082ca <__ieee754_pow+0x442>
 80082b8:	4bcc      	ldr	r3, [pc, #816]	; (80085ec <__ieee754_pow+0x764>)
 80082ba:	429c      	cmp	r4, r3
 80082bc:	f340 8162 	ble.w	8008584 <__ieee754_pow+0x6fc>
 80082c0:	9b05      	ldr	r3, [sp, #20]
 80082c2:	3301      	adds	r3, #1
 80082c4:	9305      	str	r3, [sp, #20]
 80082c6:	f5a5 1580 	sub.w	r5, r5, #1048576	; 0x100000
 80082ca:	2400      	movs	r4, #0
 80082cc:	00e3      	lsls	r3, r4, #3
 80082ce:	9307      	str	r3, [sp, #28]
 80082d0:	4bc7      	ldr	r3, [pc, #796]	; (80085f0 <__ieee754_pow+0x768>)
 80082d2:	eb03 03c4 	add.w	r3, r3, r4, lsl #3
 80082d6:	ed93 7b00 	vldr	d7, [r3]
 80082da:	4629      	mov	r1, r5
 80082dc:	ec53 2b17 	vmov	r2, r3, d7
 80082e0:	eeb0 9a47 	vmov.f32	s18, s14
 80082e4:	eef0 9a67 	vmov.f32	s19, s15
 80082e8:	4682      	mov	sl, r0
 80082ea:	f7f7 ffe5 	bl	80002b8 <__aeabi_dsub>
 80082ee:	4652      	mov	r2, sl
 80082f0:	4606      	mov	r6, r0
 80082f2:	460f      	mov	r7, r1
 80082f4:	462b      	mov	r3, r5
 80082f6:	ec51 0b19 	vmov	r0, r1, d9
 80082fa:	f7f7 ffdf 	bl	80002bc <__adddf3>
 80082fe:	4602      	mov	r2, r0
 8008300:	460b      	mov	r3, r1
 8008302:	2000      	movs	r0, #0
 8008304:	49bb      	ldr	r1, [pc, #748]	; (80085f4 <__ieee754_pow+0x76c>)
 8008306:	f7f8 fab9 	bl	800087c <__aeabi_ddiv>
 800830a:	ec41 0b1a 	vmov	d10, r0, r1
 800830e:	4602      	mov	r2, r0
 8008310:	460b      	mov	r3, r1
 8008312:	4630      	mov	r0, r6
 8008314:	4639      	mov	r1, r7
 8008316:	f7f8 f987 	bl	8000628 <__aeabi_dmul>
 800831a:	2300      	movs	r3, #0
 800831c:	e9cd 0102 	strd	r0, r1, [sp, #8]
 8008320:	9302      	str	r3, [sp, #8]
 8008322:	e9dd 8902 	ldrd	r8, r9, [sp, #8]
 8008326:	46ab      	mov	fp, r5
 8008328:	106d      	asrs	r5, r5, #1
 800832a:	f045 5500 	orr.w	r5, r5, #536870912	; 0x20000000
 800832e:	f505 2500 	add.w	r5, r5, #524288	; 0x80000
 8008332:	ec41 0b18 	vmov	d8, r0, r1
 8008336:	eb05 4384 	add.w	r3, r5, r4, lsl #18
 800833a:	2200      	movs	r2, #0
 800833c:	4640      	mov	r0, r8
 800833e:	4649      	mov	r1, r9
 8008340:	4614      	mov	r4, r2
 8008342:	461d      	mov	r5, r3
 8008344:	f7f8 f970 	bl	8000628 <__aeabi_dmul>
 8008348:	4602      	mov	r2, r0
 800834a:	460b      	mov	r3, r1
 800834c:	4630      	mov	r0, r6
 800834e:	4639      	mov	r1, r7
 8008350:	f7f7 ffb2 	bl	80002b8 <__aeabi_dsub>
 8008354:	ec53 2b19 	vmov	r2, r3, d9
 8008358:	4606      	mov	r6, r0
 800835a:	460f      	mov	r7, r1
 800835c:	4620      	mov	r0, r4
 800835e:	4629      	mov	r1, r5
 8008360:	f7f7 ffaa 	bl	80002b8 <__aeabi_dsub>
 8008364:	4602      	mov	r2, r0
 8008366:	460b      	mov	r3, r1
 8008368:	4650      	mov	r0, sl
 800836a:	4659      	mov	r1, fp
 800836c:	f7f7 ffa4 	bl	80002b8 <__aeabi_dsub>
 8008370:	4642      	mov	r2, r8
 8008372:	464b      	mov	r3, r9
 8008374:	f7f8 f958 	bl	8000628 <__aeabi_dmul>
 8008378:	4602      	mov	r2, r0
 800837a:	460b      	mov	r3, r1
 800837c:	4630      	mov	r0, r6
 800837e:	4639      	mov	r1, r7
 8008380:	f7f7 ff9a 	bl	80002b8 <__aeabi_dsub>
 8008384:	ec53 2b1a 	vmov	r2, r3, d10
 8008388:	f7f8 f94e 	bl	8000628 <__aeabi_dmul>
 800838c:	ec53 2b18 	vmov	r2, r3, d8
 8008390:	ec41 0b19 	vmov	d9, r0, r1
 8008394:	ec51 0b18 	vmov	r0, r1, d8
 8008398:	f7f8 f946 	bl	8000628 <__aeabi_dmul>
 800839c:	a37c      	add	r3, pc, #496	; (adr r3, 8008590 <__ieee754_pow+0x708>)
 800839e:	e9d3 2300 	ldrd	r2, r3, [r3]
 80083a2:	4604      	mov	r4, r0
 80083a4:	460d      	mov	r5, r1
 80083a6:	f7f8 f93f 	bl	8000628 <__aeabi_dmul>
 80083aa:	a37b      	add	r3, pc, #492	; (adr r3, 8008598 <__ieee754_pow+0x710>)
 80083ac:	e9d3 2300 	ldrd	r2, r3, [r3]
 80083b0:	f7f7 ff84 	bl	80002bc <__adddf3>
 80083b4:	4622      	mov	r2, r4
 80083b6:	462b      	mov	r3, r5
 80083b8:	f7f8 f936 	bl	8000628 <__aeabi_dmul>
 80083bc:	a378      	add	r3, pc, #480	; (adr r3, 80085a0 <__ieee754_pow+0x718>)
 80083be:	e9d3 2300 	ldrd	r2, r3, [r3]
 80083c2:	f7f7 ff7b 	bl	80002bc <__adddf3>
 80083c6:	4622      	mov	r2, r4
 80083c8:	462b      	mov	r3, r5
 80083ca:	f7f8 f92d 	bl	8000628 <__aeabi_dmul>
 80083ce:	a376      	add	r3, pc, #472	; (adr r3, 80085a8 <__ieee754_pow+0x720>)
 80083d0:	e9d3 2300 	ldrd	r2, r3, [r3]
 80083d4:	f7f7 ff72 	bl	80002bc <__adddf3>
 80083d8:	4622      	mov	r2, r4
 80083da:	462b      	mov	r3, r5
 80083dc:	f7f8 f924 	bl	8000628 <__aeabi_dmul>
 80083e0:	a373      	add	r3, pc, #460	; (adr r3, 80085b0 <__ieee754_pow+0x728>)
 80083e2:	e9d3 2300 	ldrd	r2, r3, [r3]
 80083e6:	f7f7 ff69 	bl	80002bc <__adddf3>
 80083ea:	4622      	mov	r2, r4
 80083ec:	462b      	mov	r3, r5
 80083ee:	f7f8 f91b 	bl	8000628 <__aeabi_dmul>
 80083f2:	a371      	add	r3, pc, #452	; (adr r3, 80085b8 <__ieee754_pow+0x730>)
 80083f4:	e9d3 2300 	ldrd	r2, r3, [r3]
 80083f8:	f7f7 ff60 	bl	80002bc <__adddf3>
 80083fc:	4622      	mov	r2, r4
 80083fe:	4606      	mov	r6, r0
 8008400:	460f      	mov	r7, r1
 8008402:	462b      	mov	r3, r5
 8008404:	4620      	mov	r0, r4
 8008406:	4629      	mov	r1, r5
 8008408:	f7f8 f90e 	bl	8000628 <__aeabi_dmul>
 800840c:	4602      	mov	r2, r0
 800840e:	460b      	mov	r3, r1
 8008410:	4630      	mov	r0, r6
 8008412:	4639      	mov	r1, r7
 8008414:	f7f8 f908 	bl	8000628 <__aeabi_dmul>
 8008418:	4642      	mov	r2, r8
 800841a:	4604      	mov	r4, r0
 800841c:	460d      	mov	r5, r1
 800841e:	464b      	mov	r3, r9
 8008420:	ec51 0b18 	vmov	r0, r1, d8
 8008424:	f7f7 ff4a 	bl	80002bc <__adddf3>
 8008428:	ec53 2b19 	vmov	r2, r3, d9
 800842c:	f7f8 f8fc 	bl	8000628 <__aeabi_dmul>
 8008430:	4622      	mov	r2, r4
 8008432:	462b      	mov	r3, r5
 8008434:	f7f7 ff42 	bl	80002bc <__adddf3>
 8008438:	4642      	mov	r2, r8
 800843a:	4682      	mov	sl, r0
 800843c:	468b      	mov	fp, r1
 800843e:	464b      	mov	r3, r9
 8008440:	4640      	mov	r0, r8
 8008442:	4649      	mov	r1, r9
 8008444:	f7f8 f8f0 	bl	8000628 <__aeabi_dmul>
 8008448:	4b6b      	ldr	r3, [pc, #428]	; (80085f8 <__ieee754_pow+0x770>)
 800844a:	2200      	movs	r2, #0
 800844c:	4606      	mov	r6, r0
 800844e:	460f      	mov	r7, r1
 8008450:	f7f7 ff34 	bl	80002bc <__adddf3>
 8008454:	4652      	mov	r2, sl
 8008456:	465b      	mov	r3, fp
 8008458:	f7f7 ff30 	bl	80002bc <__adddf3>
 800845c:	2000      	movs	r0, #0
 800845e:	4604      	mov	r4, r0
 8008460:	460d      	mov	r5, r1
 8008462:	4602      	mov	r2, r0
 8008464:	460b      	mov	r3, r1
 8008466:	4640      	mov	r0, r8
 8008468:	4649      	mov	r1, r9
 800846a:	f7f8 f8dd 	bl	8000628 <__aeabi_dmul>
 800846e:	4b62      	ldr	r3, [pc, #392]	; (80085f8 <__ieee754_pow+0x770>)
 8008470:	4680      	mov	r8, r0
 8008472:	4689      	mov	r9, r1
 8008474:	2200      	movs	r2, #0
 8008476:	4620      	mov	r0, r4
 8008478:	4629      	mov	r1, r5
 800847a:	f7f7 ff1d 	bl	80002b8 <__aeabi_dsub>
 800847e:	4632      	mov	r2, r6
 8008480:	463b      	mov	r3, r7
 8008482:	f7f7 ff19 	bl	80002b8 <__aeabi_dsub>
 8008486:	4602      	mov	r2, r0
 8008488:	460b      	mov	r3, r1
 800848a:	4650      	mov	r0, sl
 800848c:	4659      	mov	r1, fp
 800848e:	f7f7 ff13 	bl	80002b8 <__aeabi_dsub>
 8008492:	ec53 2b18 	vmov	r2, r3, d8
 8008496:	f7f8 f8c7 	bl	8000628 <__aeabi_dmul>
 800849a:	4622      	mov	r2, r4
 800849c:	4606      	mov	r6, r0
 800849e:	460f      	mov	r7, r1
 80084a0:	462b      	mov	r3, r5
 80084a2:	ec51 0b19 	vmov	r0, r1, d9
 80084a6:	f7f8 f8bf 	bl	8000628 <__aeabi_dmul>
 80084aa:	4602      	mov	r2, r0
 80084ac:	460b      	mov	r3, r1
 80084ae:	4630      	mov	r0, r6
 80084b0:	4639      	mov	r1, r7
 80084b2:	f7f7 ff03 	bl	80002bc <__adddf3>
 80084b6:	4606      	mov	r6, r0
 80084b8:	460f      	mov	r7, r1
 80084ba:	4602      	mov	r2, r0
 80084bc:	460b      	mov	r3, r1
 80084be:	4640      	mov	r0, r8
 80084c0:	4649      	mov	r1, r9
 80084c2:	f7f7 fefb 	bl	80002bc <__adddf3>
 80084c6:	a33e      	add	r3, pc, #248	; (adr r3, 80085c0 <__ieee754_pow+0x738>)
 80084c8:	e9d3 2300 	ldrd	r2, r3, [r3]
 80084cc:	2000      	movs	r0, #0
 80084ce:	4604      	mov	r4, r0
 80084d0:	460d      	mov	r5, r1
 80084d2:	f7f8 f8a9 	bl	8000628 <__aeabi_dmul>
 80084d6:	4642      	mov	r2, r8
 80084d8:	ec41 0b18 	vmov	d8, r0, r1
 80084dc:	464b      	mov	r3, r9
 80084de:	4620      	mov	r0, r4
 80084e0:	4629      	mov	r1, r5
 80084e2:	f7f7 fee9 	bl	80002b8 <__aeabi_dsub>
 80084e6:	4602      	mov	r2, r0
 80084e8:	460b      	mov	r3, r1
 80084ea:	4630      	mov	r0, r6
 80084ec:	4639      	mov	r1, r7
 80084ee:	f7f7 fee3 	bl	80002b8 <__aeabi_dsub>
 80084f2:	a335      	add	r3, pc, #212	; (adr r3, 80085c8 <__ieee754_pow+0x740>)
 80084f4:	e9d3 2300 	ldrd	r2, r3, [r3]
 80084f8:	f7f8 f896 	bl	8000628 <__aeabi_dmul>
 80084fc:	a334      	add	r3, pc, #208	; (adr r3, 80085d0 <__ieee754_pow+0x748>)
 80084fe:	e9d3 2300 	ldrd	r2, r3, [r3]
 8008502:	4606      	mov	r6, r0
 8008504:	460f      	mov	r7, r1
 8008506:	4620      	mov	r0, r4
 8008508:	4629      	mov	r1, r5
 800850a:	f7f8 f88d 	bl	8000628 <__aeabi_dmul>
 800850e:	4602      	mov	r2, r0
 8008510:	460b      	mov	r3, r1
 8008512:	4630      	mov	r0, r6
 8008514:	4639      	mov	r1, r7
 8008516:	f7f7 fed1 	bl	80002bc <__adddf3>
 800851a:	9a07      	ldr	r2, [sp, #28]
 800851c:	4b37      	ldr	r3, [pc, #220]	; (80085fc <__ieee754_pow+0x774>)
 800851e:	4413      	add	r3, r2
 8008520:	e9d3 2300 	ldrd	r2, r3, [r3]
 8008524:	f7f7 feca 	bl	80002bc <__adddf3>
 8008528:	4682      	mov	sl, r0
 800852a:	9805      	ldr	r0, [sp, #20]
 800852c:	468b      	mov	fp, r1
 800852e:	f7f8 f811 	bl	8000554 <__aeabi_i2d>
 8008532:	9a07      	ldr	r2, [sp, #28]
 8008534:	4b32      	ldr	r3, [pc, #200]	; (8008600 <__ieee754_pow+0x778>)
 8008536:	4413      	add	r3, r2
 8008538:	e9d3 8900 	ldrd	r8, r9, [r3]
 800853c:	4606      	mov	r6, r0
 800853e:	460f      	mov	r7, r1
 8008540:	4652      	mov	r2, sl
 8008542:	465b      	mov	r3, fp
 8008544:	ec51 0b18 	vmov	r0, r1, d8
 8008548:	f7f7 feb8 	bl	80002bc <__adddf3>
 800854c:	4642      	mov	r2, r8
 800854e:	464b      	mov	r3, r9
 8008550:	f7f7 feb4 	bl	80002bc <__adddf3>
 8008554:	4632      	mov	r2, r6
 8008556:	463b      	mov	r3, r7
 8008558:	f7f7 feb0 	bl	80002bc <__adddf3>
 800855c:	2000      	movs	r0, #0
 800855e:	4632      	mov	r2, r6
 8008560:	463b      	mov	r3, r7
 8008562:	4604      	mov	r4, r0
 8008564:	460d      	mov	r5, r1
 8008566:	f7f7 fea7 	bl	80002b8 <__aeabi_dsub>
 800856a:	4642      	mov	r2, r8
 800856c:	464b      	mov	r3, r9
 800856e:	f7f7 fea3 	bl	80002b8 <__aeabi_dsub>
 8008572:	ec53 2b18 	vmov	r2, r3, d8
 8008576:	f7f7 fe9f 	bl	80002b8 <__aeabi_dsub>
 800857a:	4602      	mov	r2, r0
 800857c:	460b      	mov	r3, r1
 800857e:	4650      	mov	r0, sl
 8008580:	4659      	mov	r1, fp
 8008582:	e610      	b.n	80081a6 <__ieee754_pow+0x31e>
 8008584:	2401      	movs	r4, #1
 8008586:	e6a1      	b.n	80082cc <__ieee754_pow+0x444>
 8008588:	ed9f 7b13 	vldr	d7, [pc, #76]	; 80085d8 <__ieee754_pow+0x750>
 800858c:	e617      	b.n	80081be <__ieee754_pow+0x336>
 800858e:	bf00      	nop
 8008590:	4a454eef 	.word	0x4a454eef
 8008594:	3fca7e28 	.word	0x3fca7e28
 8008598:	93c9db65 	.word	0x93c9db65
 800859c:	3fcd864a 	.word	0x3fcd864a
 80085a0:	a91d4101 	.word	0xa91d4101
 80085a4:	3fd17460 	.word	0x3fd17460
 80085a8:	518f264d 	.word	0x518f264d
 80085ac:	3fd55555 	.word	0x3fd55555
 80085b0:	db6fabff 	.word	0xdb6fabff
 80085b4:	3fdb6db6 	.word	0x3fdb6db6
 80085b8:	33333303 	.word	0x33333303
 80085bc:	3fe33333 	.word	0x3fe33333
 80085c0:	e0000000 	.word	0xe0000000
 80085c4:	3feec709 	.word	0x3feec709
 80085c8:	dc3a03fd 	.word	0xdc3a03fd
 80085cc:	3feec709 	.word	0x3feec709
 80085d0:	145b01f5 	.word	0x145b01f5
 80085d4:	be3e2fe0 	.word	0xbe3e2fe0
 80085d8:	00000000 	.word	0x00000000
 80085dc:	3ff00000 	.word	0x3ff00000
 80085e0:	7ff00000 	.word	0x7ff00000
 80085e4:	43400000 	.word	0x43400000
 80085e8:	0003988e 	.word	0x0003988e
 80085ec:	000bb679 	.word	0x000bb679
 80085f0:	08009210 	.word	0x08009210
 80085f4:	3ff00000 	.word	0x3ff00000
 80085f8:	40080000 	.word	0x40080000
 80085fc:	08009230 	.word	0x08009230
 8008600:	08009220 	.word	0x08009220
 8008604:	a3b5      	add	r3, pc, #724	; (adr r3, 80088dc <__ieee754_pow+0xa54>)
 8008606:	e9d3 2300 	ldrd	r2, r3, [r3]
 800860a:	4640      	mov	r0, r8
 800860c:	4649      	mov	r1, r9
 800860e:	f7f7 fe55 	bl	80002bc <__adddf3>
 8008612:	4622      	mov	r2, r4
 8008614:	ec41 0b1a 	vmov	d10, r0, r1
 8008618:	462b      	mov	r3, r5
 800861a:	4630      	mov	r0, r6
 800861c:	4639      	mov	r1, r7
 800861e:	f7f7 fe4b 	bl	80002b8 <__aeabi_dsub>
 8008622:	4602      	mov	r2, r0
 8008624:	460b      	mov	r3, r1
 8008626:	ec51 0b1a 	vmov	r0, r1, d10
 800862a:	f7f8 fa8d 	bl	8000b48 <__aeabi_dcmpgt>
 800862e:	2800      	cmp	r0, #0
 8008630:	f47f ae04 	bne.w	800823c <__ieee754_pow+0x3b4>
 8008634:	4aa4      	ldr	r2, [pc, #656]	; (80088c8 <__ieee754_pow+0xa40>)
 8008636:	f02b 4300 	bic.w	r3, fp, #2147483648	; 0x80000000
 800863a:	4293      	cmp	r3, r2
 800863c:	f340 8108 	ble.w	8008850 <__ieee754_pow+0x9c8>
 8008640:	151b      	asrs	r3, r3, #20
 8008642:	f44f 1a80 	mov.w	sl, #1048576	; 0x100000
 8008646:	f2a3 33fe 	subw	r3, r3, #1022	; 0x3fe
 800864a:	fa4a f303 	asr.w	r3, sl, r3
 800864e:	445b      	add	r3, fp
 8008650:	f3c3 520a 	ubfx	r2, r3, #20, #11
 8008654:	4e9d      	ldr	r6, [pc, #628]	; (80088cc <__ieee754_pow+0xa44>)
 8008656:	f2a2 32ff 	subw	r2, r2, #1023	; 0x3ff
 800865a:	4116      	asrs	r6, r2
 800865c:	f3c3 0a13 	ubfx	sl, r3, #0, #20
 8008660:	2000      	movs	r0, #0
 8008662:	ea23 0106 	bic.w	r1, r3, r6
 8008666:	f1c2 0214 	rsb	r2, r2, #20
 800866a:	f44a 1a80 	orr.w	sl, sl, #1048576	; 0x100000
 800866e:	fa4a fa02 	asr.w	sl, sl, r2
 8008672:	f1bb 0f00 	cmp.w	fp, #0
 8008676:	4602      	mov	r2, r0
 8008678:	460b      	mov	r3, r1
 800867a:	4620      	mov	r0, r4
 800867c:	4629      	mov	r1, r5
 800867e:	bfb8      	it	lt
 8008680:	f1ca 0a00 	rsblt	sl, sl, #0
 8008684:	f7f7 fe18 	bl	80002b8 <__aeabi_dsub>
 8008688:	ec41 0b19 	vmov	d9, r0, r1
 800868c:	4642      	mov	r2, r8
 800868e:	464b      	mov	r3, r9
 8008690:	ec51 0b19 	vmov	r0, r1, d9
 8008694:	f7f7 fe12 	bl	80002bc <__adddf3>
 8008698:	a37b      	add	r3, pc, #492	; (adr r3, 8008888 <__ieee754_pow+0xa00>)
 800869a:	e9d3 2300 	ldrd	r2, r3, [r3]
 800869e:	2000      	movs	r0, #0
 80086a0:	4604      	mov	r4, r0
 80086a2:	460d      	mov	r5, r1
 80086a4:	f7f7 ffc0 	bl	8000628 <__aeabi_dmul>
 80086a8:	ec53 2b19 	vmov	r2, r3, d9
 80086ac:	4606      	mov	r6, r0
 80086ae:	460f      	mov	r7, r1
 80086b0:	4620      	mov	r0, r4
 80086b2:	4629      	mov	r1, r5
 80086b4:	f7f7 fe00 	bl	80002b8 <__aeabi_dsub>
 80086b8:	4602      	mov	r2, r0
 80086ba:	460b      	mov	r3, r1
 80086bc:	4640      	mov	r0, r8
 80086be:	4649      	mov	r1, r9
 80086c0:	f7f7 fdfa 	bl	80002b8 <__aeabi_dsub>
 80086c4:	a372      	add	r3, pc, #456	; (adr r3, 8008890 <__ieee754_pow+0xa08>)
 80086c6:	e9d3 2300 	ldrd	r2, r3, [r3]
 80086ca:	f7f7 ffad 	bl	8000628 <__aeabi_dmul>
 80086ce:	a372      	add	r3, pc, #456	; (adr r3, 8008898 <__ieee754_pow+0xa10>)
 80086d0:	e9d3 2300 	ldrd	r2, r3, [r3]
 80086d4:	4680      	mov	r8, r0
 80086d6:	4689      	mov	r9, r1
 80086d8:	4620      	mov	r0, r4
 80086da:	4629      	mov	r1, r5
 80086dc:	f7f7 ffa4 	bl	8000628 <__aeabi_dmul>
 80086e0:	4602      	mov	r2, r0
 80086e2:	460b      	mov	r3, r1
 80086e4:	4640      	mov	r0, r8
 80086e6:	4649      	mov	r1, r9
 80086e8:	f7f7 fde8 	bl	80002bc <__adddf3>
 80086ec:	4604      	mov	r4, r0
 80086ee:	460d      	mov	r5, r1
 80086f0:	4602      	mov	r2, r0
 80086f2:	460b      	mov	r3, r1
 80086f4:	4630      	mov	r0, r6
 80086f6:	4639      	mov	r1, r7
 80086f8:	f7f7 fde0 	bl	80002bc <__adddf3>
 80086fc:	4632      	mov	r2, r6
 80086fe:	463b      	mov	r3, r7
 8008700:	4680      	mov	r8, r0
 8008702:	4689      	mov	r9, r1
 8008704:	f7f7 fdd8 	bl	80002b8 <__aeabi_dsub>
 8008708:	4602      	mov	r2, r0
 800870a:	460b      	mov	r3, r1
 800870c:	4620      	mov	r0, r4
 800870e:	4629      	mov	r1, r5
 8008710:	f7f7 fdd2 	bl	80002b8 <__aeabi_dsub>
 8008714:	4642      	mov	r2, r8
 8008716:	4606      	mov	r6, r0
 8008718:	460f      	mov	r7, r1
 800871a:	464b      	mov	r3, r9
 800871c:	4640      	mov	r0, r8
 800871e:	4649      	mov	r1, r9
 8008720:	f7f7 ff82 	bl	8000628 <__aeabi_dmul>
 8008724:	a35e      	add	r3, pc, #376	; (adr r3, 80088a0 <__ieee754_pow+0xa18>)
 8008726:	e9d3 2300 	ldrd	r2, r3, [r3]
 800872a:	4604      	mov	r4, r0
 800872c:	460d      	mov	r5, r1
 800872e:	f7f7 ff7b 	bl	8000628 <__aeabi_dmul>
 8008732:	a35d      	add	r3, pc, #372	; (adr r3, 80088a8 <__ieee754_pow+0xa20>)
 8008734:	e9d3 2300 	ldrd	r2, r3, [r3]
 8008738:	f7f7 fdbe 	bl	80002b8 <__aeabi_dsub>
 800873c:	4622      	mov	r2, r4
 800873e:	462b      	mov	r3, r5
 8008740:	f7f7 ff72 	bl	8000628 <__aeabi_dmul>
 8008744:	a35a      	add	r3, pc, #360	; (adr r3, 80088b0 <__ieee754_pow+0xa28>)
 8008746:	e9d3 2300 	ldrd	r2, r3, [r3]
 800874a:	f7f7 fdb7 	bl	80002bc <__adddf3>
 800874e:	4622      	mov	r2, r4
 8008750:	462b      	mov	r3, r5
 8008752:	f7f7 ff69 	bl	8000628 <__aeabi_dmul>
 8008756:	a358      	add	r3, pc, #352	; (adr r3, 80088b8 <__ieee754_pow+0xa30>)
 8008758:	e9d3 2300 	ldrd	r2, r3, [r3]
 800875c:	f7f7 fdac 	bl	80002b8 <__aeabi_dsub>
 8008760:	4622      	mov	r2, r4
 8008762:	462b      	mov	r3, r5
 8008764:	f7f7 ff60 	bl	8000628 <__aeabi_dmul>
 8008768:	a355      	add	r3, pc, #340	; (adr r3, 80088c0 <__ieee754_pow+0xa38>)
 800876a:	e9d3 2300 	ldrd	r2, r3, [r3]
 800876e:	f7f7 fda5 	bl	80002bc <__adddf3>
 8008772:	4622      	mov	r2, r4
 8008774:	462b      	mov	r3, r5
 8008776:	f7f7 ff57 	bl	8000628 <__aeabi_dmul>
 800877a:	4602      	mov	r2, r0
 800877c:	460b      	mov	r3, r1
 800877e:	4640      	mov	r0, r8
 8008780:	4649      	mov	r1, r9
 8008782:	f7f7 fd99 	bl	80002b8 <__aeabi_dsub>
 8008786:	4604      	mov	r4, r0
 8008788:	460d      	mov	r5, r1
 800878a:	4602      	mov	r2, r0
 800878c:	460b      	mov	r3, r1
 800878e:	4640      	mov	r0, r8
 8008790:	4649      	mov	r1, r9
 8008792:	f7f7 ff49 	bl	8000628 <__aeabi_dmul>
 8008796:	2200      	movs	r2, #0
 8008798:	ec41 0b19 	vmov	d9, r0, r1
 800879c:	f04f 4380 	mov.w	r3, #1073741824	; 0x40000000
 80087a0:	4620      	mov	r0, r4
 80087a2:	4629      	mov	r1, r5
 80087a4:	f7f7 fd88 	bl	80002b8 <__aeabi_dsub>
 80087a8:	4602      	mov	r2, r0
 80087aa:	460b      	mov	r3, r1
 80087ac:	ec51 0b19 	vmov	r0, r1, d9
 80087b0:	f7f8 f864 	bl	800087c <__aeabi_ddiv>
 80087b4:	4632      	mov	r2, r6
 80087b6:	4604      	mov	r4, r0
 80087b8:	460d      	mov	r5, r1
 80087ba:	463b      	mov	r3, r7
 80087bc:	4640      	mov	r0, r8
 80087be:	4649      	mov	r1, r9
 80087c0:	f7f7 ff32 	bl	8000628 <__aeabi_dmul>
 80087c4:	4632      	mov	r2, r6
 80087c6:	463b      	mov	r3, r7
 80087c8:	f7f7 fd78 	bl	80002bc <__adddf3>
 80087cc:	4602      	mov	r2, r0
 80087ce:	460b      	mov	r3, r1
 80087d0:	4620      	mov	r0, r4
 80087d2:	4629      	mov	r1, r5
 80087d4:	f7f7 fd70 	bl	80002b8 <__aeabi_dsub>
 80087d8:	4642      	mov	r2, r8
 80087da:	464b      	mov	r3, r9
 80087dc:	f7f7 fd6c 	bl	80002b8 <__aeabi_dsub>
 80087e0:	460b      	mov	r3, r1
 80087e2:	4602      	mov	r2, r0
 80087e4:	493a      	ldr	r1, [pc, #232]	; (80088d0 <__ieee754_pow+0xa48>)
 80087e6:	2000      	movs	r0, #0
 80087e8:	f7f7 fd66 	bl	80002b8 <__aeabi_dsub>
 80087ec:	ec41 0b10 	vmov	d0, r0, r1
 80087f0:	ee10 3a90 	vmov	r3, s1
 80087f4:	eb03 530a 	add.w	r3, r3, sl, lsl #20
 80087f8:	f5b3 1f80 	cmp.w	r3, #1048576	; 0x100000
 80087fc:	da2b      	bge.n	8008856 <__ieee754_pow+0x9ce>
 80087fe:	4650      	mov	r0, sl
 8008800:	f000 f966 	bl	8008ad0 <scalbn>
 8008804:	ec51 0b10 	vmov	r0, r1, d0
 8008808:	ec53 2b18 	vmov	r2, r3, d8
 800880c:	f7ff bbed 	b.w	8007fea <__ieee754_pow+0x162>
 8008810:	4b30      	ldr	r3, [pc, #192]	; (80088d4 <__ieee754_pow+0xa4c>)
 8008812:	f021 4600 	bic.w	r6, r1, #2147483648	; 0x80000000
 8008816:	429e      	cmp	r6, r3
 8008818:	f77f af0c 	ble.w	8008634 <__ieee754_pow+0x7ac>
 800881c:	4b2e      	ldr	r3, [pc, #184]	; (80088d8 <__ieee754_pow+0xa50>)
 800881e:	440b      	add	r3, r1
 8008820:	4303      	orrs	r3, r0
 8008822:	d009      	beq.n	8008838 <__ieee754_pow+0x9b0>
 8008824:	ec51 0b18 	vmov	r0, r1, d8
 8008828:	2200      	movs	r2, #0
 800882a:	2300      	movs	r3, #0
 800882c:	f7f8 f96e 	bl	8000b0c <__aeabi_dcmplt>
 8008830:	3800      	subs	r0, #0
 8008832:	bf18      	it	ne
 8008834:	2001      	movne	r0, #1
 8008836:	e447      	b.n	80080c8 <__ieee754_pow+0x240>
 8008838:	4622      	mov	r2, r4
 800883a:	462b      	mov	r3, r5
 800883c:	f7f7 fd3c 	bl	80002b8 <__aeabi_dsub>
 8008840:	4642      	mov	r2, r8
 8008842:	464b      	mov	r3, r9
 8008844:	f7f8 f976 	bl	8000b34 <__aeabi_dcmpge>
 8008848:	2800      	cmp	r0, #0
 800884a:	f43f aef3 	beq.w	8008634 <__ieee754_pow+0x7ac>
 800884e:	e7e9      	b.n	8008824 <__ieee754_pow+0x99c>
 8008850:	f04f 0a00 	mov.w	sl, #0
 8008854:	e71a      	b.n	800868c <__ieee754_pow+0x804>
 8008856:	ec51 0b10 	vmov	r0, r1, d0
 800885a:	4619      	mov	r1, r3
 800885c:	e7d4      	b.n	8008808 <__ieee754_pow+0x980>
 800885e:	491c      	ldr	r1, [pc, #112]	; (80088d0 <__ieee754_pow+0xa48>)
 8008860:	2000      	movs	r0, #0
 8008862:	f7ff bb30 	b.w	8007ec6 <__ieee754_pow+0x3e>
 8008866:	2000      	movs	r0, #0
 8008868:	2100      	movs	r1, #0
 800886a:	f7ff bb2c 	b.w	8007ec6 <__ieee754_pow+0x3e>
 800886e:	4630      	mov	r0, r6
 8008870:	4639      	mov	r1, r7
 8008872:	f7ff bb28 	b.w	8007ec6 <__ieee754_pow+0x3e>
 8008876:	9204      	str	r2, [sp, #16]
 8008878:	f7ff bb7a 	b.w	8007f70 <__ieee754_pow+0xe8>
 800887c:	2300      	movs	r3, #0
 800887e:	f7ff bb64 	b.w	8007f4a <__ieee754_pow+0xc2>
 8008882:	bf00      	nop
 8008884:	f3af 8000 	nop.w
 8008888:	00000000 	.word	0x00000000
 800888c:	3fe62e43 	.word	0x3fe62e43
 8008890:	fefa39ef 	.word	0xfefa39ef
 8008894:	3fe62e42 	.word	0x3fe62e42
 8008898:	0ca86c39 	.word	0x0ca86c39
 800889c:	be205c61 	.word	0xbe205c61
 80088a0:	72bea4d0 	.word	0x72bea4d0
 80088a4:	3e663769 	.word	0x3e663769
 80088a8:	c5d26bf1 	.word	0xc5d26bf1
 80088ac:	3ebbbd41 	.word	0x3ebbbd41
 80088b0:	af25de2c 	.word	0xaf25de2c
 80088b4:	3f11566a 	.word	0x3f11566a
 80088b8:	16bebd93 	.word	0x16bebd93
 80088bc:	3f66c16c 	.word	0x3f66c16c
 80088c0:	5555553e 	.word	0x5555553e
 80088c4:	3fc55555 	.word	0x3fc55555
 80088c8:	3fe00000 	.word	0x3fe00000
 80088cc:	000fffff 	.word	0x000fffff
 80088d0:	3ff00000 	.word	0x3ff00000
 80088d4:	4090cbff 	.word	0x4090cbff
 80088d8:	3f6f3400 	.word	0x3f6f3400
 80088dc:	652b82fe 	.word	0x652b82fe
 80088e0:	3c971547 	.word	0x3c971547

080088e4 <__ieee754_sqrt>:
 80088e4:	e92d 41f0 	stmdb	sp!, {r4, r5, r6, r7, r8, lr}
 80088e8:	ec55 4b10 	vmov	r4, r5, d0
 80088ec:	4e55      	ldr	r6, [pc, #340]	; (8008a44 <__ieee754_sqrt+0x160>)
 80088ee:	43ae      	bics	r6, r5
 80088f0:	ee10 0a10 	vmov	r0, s0
 80088f4:	ee10 3a10 	vmov	r3, s0
 80088f8:	462a      	mov	r2, r5
 80088fa:	4629      	mov	r1, r5
 80088fc:	d110      	bne.n	8008920 <__ieee754_sqrt+0x3c>
 80088fe:	ee10 2a10 	vmov	r2, s0
 8008902:	462b      	mov	r3, r5
 8008904:	f7f7 fe90 	bl	8000628 <__aeabi_dmul>
 8008908:	4602      	mov	r2, r0
 800890a:	460b      	mov	r3, r1
 800890c:	4620      	mov	r0, r4
 800890e:	4629      	mov	r1, r5
 8008910:	f7f7 fcd4 	bl	80002bc <__adddf3>
 8008914:	4604      	mov	r4, r0
 8008916:	460d      	mov	r5, r1
 8008918:	ec45 4b10 	vmov	d0, r4, r5
 800891c:	e8bd 81f0 	ldmia.w	sp!, {r4, r5, r6, r7, r8, pc}
 8008920:	2d00      	cmp	r5, #0
 8008922:	dc10      	bgt.n	8008946 <__ieee754_sqrt+0x62>
 8008924:	f025 4600 	bic.w	r6, r5, #2147483648	; 0x80000000
 8008928:	4330      	orrs	r0, r6
 800892a:	d0f5      	beq.n	8008918 <__ieee754_sqrt+0x34>
 800892c:	b15d      	cbz	r5, 8008946 <__ieee754_sqrt+0x62>
 800892e:	ee10 2a10 	vmov	r2, s0
 8008932:	462b      	mov	r3, r5
 8008934:	ee10 0a10 	vmov	r0, s0
 8008938:	f7f7 fcbe 	bl	80002b8 <__aeabi_dsub>
 800893c:	4602      	mov	r2, r0
 800893e:	460b      	mov	r3, r1
 8008940:	f7f7 ff9c 	bl	800087c <__aeabi_ddiv>
 8008944:	e7e6      	b.n	8008914 <__ieee754_sqrt+0x30>
 8008946:	1512      	asrs	r2, r2, #20
 8008948:	d074      	beq.n	8008a34 <__ieee754_sqrt+0x150>
 800894a:	07d4      	lsls	r4, r2, #31
 800894c:	f3c1 0113 	ubfx	r1, r1, #0, #20
 8008950:	f2a2 37ff 	subw	r7, r2, #1023	; 0x3ff
 8008954:	f441 1180 	orr.w	r1, r1, #1048576	; 0x100000
 8008958:	bf5e      	ittt	pl
 800895a:	0fda      	lsrpl	r2, r3, #31
 800895c:	005b      	lslpl	r3, r3, #1
 800895e:	eb02 0141 	addpl.w	r1, r2, r1, lsl #1
 8008962:	2400      	movs	r4, #0
 8008964:	0fda      	lsrs	r2, r3, #31
 8008966:	eb02 0141 	add.w	r1, r2, r1, lsl #1
 800896a:	107f      	asrs	r7, r7, #1
 800896c:	005b      	lsls	r3, r3, #1
 800896e:	2516      	movs	r5, #22
 8008970:	4620      	mov	r0, r4
 8008972:	f44f 1200 	mov.w	r2, #2097152	; 0x200000
 8008976:	1886      	adds	r6, r0, r2
 8008978:	428e      	cmp	r6, r1
 800897a:	bfde      	ittt	le
 800897c:	1b89      	suble	r1, r1, r6
 800897e:	18b0      	addle	r0, r6, r2
 8008980:	18a4      	addle	r4, r4, r2
 8008982:	0049      	lsls	r1, r1, #1
 8008984:	3d01      	subs	r5, #1
 8008986:	eb01 71d3 	add.w	r1, r1, r3, lsr #31
 800898a:	ea4f 0252 	mov.w	r2, r2, lsr #1
 800898e:	ea4f 0343 	mov.w	r3, r3, lsl #1
 8008992:	d1f0      	bne.n	8008976 <__ieee754_sqrt+0x92>
 8008994:	462a      	mov	r2, r5
 8008996:	f04f 0e20 	mov.w	lr, #32
 800899a:	f04f 4600 	mov.w	r6, #2147483648	; 0x80000000
 800899e:	4281      	cmp	r1, r0
 80089a0:	eb06 0c05 	add.w	ip, r6, r5
 80089a4:	dc02      	bgt.n	80089ac <__ieee754_sqrt+0xc8>
 80089a6:	d113      	bne.n	80089d0 <__ieee754_sqrt+0xec>
 80089a8:	459c      	cmp	ip, r3
 80089aa:	d811      	bhi.n	80089d0 <__ieee754_sqrt+0xec>
 80089ac:	f1bc 0f00 	cmp.w	ip, #0
 80089b0:	eb0c 0506 	add.w	r5, ip, r6
 80089b4:	da43      	bge.n	8008a3e <__ieee754_sqrt+0x15a>
 80089b6:	2d00      	cmp	r5, #0
 80089b8:	db41      	blt.n	8008a3e <__ieee754_sqrt+0x15a>
 80089ba:	f100 0801 	add.w	r8, r0, #1
 80089be:	1a09      	subs	r1, r1, r0
 80089c0:	459c      	cmp	ip, r3
 80089c2:	bf88      	it	hi
 80089c4:	f101 31ff 	addhi.w	r1, r1, #4294967295	; 0xffffffff
 80089c8:	eba3 030c 	sub.w	r3, r3, ip
 80089cc:	4432      	add	r2, r6
 80089ce:	4640      	mov	r0, r8
 80089d0:	ea4f 7cd3 	mov.w	ip, r3, lsr #31
 80089d4:	f1be 0e01 	subs.w	lr, lr, #1
 80089d8:	eb0c 0141 	add.w	r1, ip, r1, lsl #1
 80089dc:	ea4f 0343 	mov.w	r3, r3, lsl #1
 80089e0:	ea4f 0656 	mov.w	r6, r6, lsr #1
 80089e4:	d1db      	bne.n	800899e <__ieee754_sqrt+0xba>
 80089e6:	430b      	orrs	r3, r1
 80089e8:	d006      	beq.n	80089f8 <__ieee754_sqrt+0x114>
 80089ea:	1c50      	adds	r0, r2, #1
 80089ec:	bf13      	iteet	ne
 80089ee:	3201      	addne	r2, #1
 80089f0:	3401      	addeq	r4, #1
 80089f2:	4672      	moveq	r2, lr
 80089f4:	f022 0201 	bicne.w	r2, r2, #1
 80089f8:	1063      	asrs	r3, r4, #1
 80089fa:	0852      	lsrs	r2, r2, #1
 80089fc:	07e1      	lsls	r1, r4, #31
 80089fe:	f103 537f 	add.w	r3, r3, #1069547520	; 0x3fc00000
 8008a02:	f503 1300 	add.w	r3, r3, #2097152	; 0x200000
 8008a06:	bf48      	it	mi
 8008a08:	f042 4200 	orrmi.w	r2, r2, #2147483648	; 0x80000000
 8008a0c:	eb03 5507 	add.w	r5, r3, r7, lsl #20
 8008a10:	4614      	mov	r4, r2
 8008a12:	e781      	b.n	8008918 <__ieee754_sqrt+0x34>
 8008a14:	0ad9      	lsrs	r1, r3, #11
 8008a16:	3815      	subs	r0, #21
 8008a18:	055b      	lsls	r3, r3, #21
 8008a1a:	2900      	cmp	r1, #0
 8008a1c:	d0fa      	beq.n	8008a14 <__ieee754_sqrt+0x130>
 8008a1e:	02cd      	lsls	r5, r1, #11
 8008a20:	d50a      	bpl.n	8008a38 <__ieee754_sqrt+0x154>
 8008a22:	f1c2 0420 	rsb	r4, r2, #32
 8008a26:	fa23 f404 	lsr.w	r4, r3, r4
 8008a2a:	1e55      	subs	r5, r2, #1
 8008a2c:	4093      	lsls	r3, r2
 8008a2e:	4321      	orrs	r1, r4
 8008a30:	1b42      	subs	r2, r0, r5
 8008a32:	e78a      	b.n	800894a <__ieee754_sqrt+0x66>
 8008a34:	4610      	mov	r0, r2
 8008a36:	e7f0      	b.n	8008a1a <__ieee754_sqrt+0x136>
 8008a38:	0049      	lsls	r1, r1, #1
 8008a3a:	3201      	adds	r2, #1
 8008a3c:	e7ef      	b.n	8008a1e <__ieee754_sqrt+0x13a>
 8008a3e:	4680      	mov	r8, r0
 8008a40:	e7bd      	b.n	80089be <__ieee754_sqrt+0xda>
 8008a42:	bf00      	nop
 8008a44:	7ff00000 	.word	0x7ff00000

08008a48 <with_errno>:
 8008a48:	b570      	push	{r4, r5, r6, lr}
 8008a4a:	4604      	mov	r4, r0
 8008a4c:	460d      	mov	r5, r1
 8008a4e:	4616      	mov	r6, r2
 8008a50:	f7fb fd96 	bl	8004580 <__errno>
 8008a54:	4629      	mov	r1, r5
 8008a56:	6006      	str	r6, [r0, #0]
 8008a58:	4620      	mov	r0, r4
 8008a5a:	bd70      	pop	{r4, r5, r6, pc}

08008a5c <xflow>:
 8008a5c:	b537      	push	{r0, r1, r2, r4, r5, lr}
 8008a5e:	4614      	mov	r4, r2
 8008a60:	461d      	mov	r5, r3
 8008a62:	b108      	cbz	r0, 8008a68 <xflow+0xc>
 8008a64:	f103 4300 	add.w	r3, r3, #2147483648	; 0x80000000
 8008a68:	e9cd 2300 	strd	r2, r3, [sp]
 8008a6c:	e9dd 2300 	ldrd	r2, r3, [sp]
 8008a70:	4620      	mov	r0, r4
 8008a72:	4629      	mov	r1, r5
 8008a74:	f7f7 fdd8 	bl	8000628 <__aeabi_dmul>
 8008a78:	2222      	movs	r2, #34	; 0x22
 8008a7a:	b003      	add	sp, #12
 8008a7c:	e8bd 4030 	ldmia.w	sp!, {r4, r5, lr}
 8008a80:	f7ff bfe2 	b.w	8008a48 <with_errno>

08008a84 <__math_uflow>:
 8008a84:	b508      	push	{r3, lr}
 8008a86:	2200      	movs	r2, #0
 8008a88:	f04f 5380 	mov.w	r3, #268435456	; 0x10000000
 8008a8c:	f7ff ffe6 	bl	8008a5c <xflow>
 8008a90:	ec41 0b10 	vmov	d0, r0, r1
 8008a94:	bd08      	pop	{r3, pc}

08008a96 <__math_oflow>:
 8008a96:	b508      	push	{r3, lr}
 8008a98:	2200      	movs	r2, #0
 8008a9a:	f04f 43e0 	mov.w	r3, #1879048192	; 0x70000000
 8008a9e:	f7ff ffdd 	bl	8008a5c <xflow>
 8008aa2:	ec41 0b10 	vmov	d0, r0, r1
 8008aa6:	bd08      	pop	{r3, pc}

08008aa8 <fabs>:
 8008aa8:	ec51 0b10 	vmov	r0, r1, d0
 8008aac:	ee10 2a10 	vmov	r2, s0
 8008ab0:	f021 4300 	bic.w	r3, r1, #2147483648	; 0x80000000
 8008ab4:	ec43 2b10 	vmov	d0, r2, r3
 8008ab8:	4770      	bx	lr

08008aba <finite>:
 8008aba:	b082      	sub	sp, #8
 8008abc:	ed8d 0b00 	vstr	d0, [sp]
 8008ac0:	9801      	ldr	r0, [sp, #4]
 8008ac2:	f040 4000 	orr.w	r0, r0, #2147483648	; 0x80000000
 8008ac6:	f500 1080 	add.w	r0, r0, #1048576	; 0x100000
 8008aca:	0fc0      	lsrs	r0, r0, #31
 8008acc:	b002      	add	sp, #8
 8008ace:	4770      	bx	lr

08008ad0 <scalbn>:
 8008ad0:	b570      	push	{r4, r5, r6, lr}
 8008ad2:	ec55 4b10 	vmov	r4, r5, d0
 8008ad6:	f3c5 520a 	ubfx	r2, r5, #20, #11
 8008ada:	4606      	mov	r6, r0
 8008adc:	462b      	mov	r3, r5
 8008ade:	b99a      	cbnz	r2, 8008b08 <scalbn+0x38>
 8008ae0:	f025 4300 	bic.w	r3, r5, #2147483648	; 0x80000000
 8008ae4:	4323      	orrs	r3, r4
 8008ae6:	d036      	beq.n	8008b56 <scalbn+0x86>
 8008ae8:	4b39      	ldr	r3, [pc, #228]	; (8008bd0 <scalbn+0x100>)
 8008aea:	4629      	mov	r1, r5
 8008aec:	ee10 0a10 	vmov	r0, s0
 8008af0:	2200      	movs	r2, #0
 8008af2:	f7f7 fd99 	bl	8000628 <__aeabi_dmul>
 8008af6:	4b37      	ldr	r3, [pc, #220]	; (8008bd4 <scalbn+0x104>)
 8008af8:	429e      	cmp	r6, r3
 8008afa:	4604      	mov	r4, r0
 8008afc:	460d      	mov	r5, r1
 8008afe:	da10      	bge.n	8008b22 <scalbn+0x52>
 8008b00:	a32b      	add	r3, pc, #172	; (adr r3, 8008bb0 <scalbn+0xe0>)
 8008b02:	e9d3 2300 	ldrd	r2, r3, [r3]
 8008b06:	e03a      	b.n	8008b7e <scalbn+0xae>
 8008b08:	f240 71ff 	movw	r1, #2047	; 0x7ff
 8008b0c:	428a      	cmp	r2, r1
 8008b0e:	d10c      	bne.n	8008b2a <scalbn+0x5a>
 8008b10:	ee10 2a10 	vmov	r2, s0
 8008b14:	4620      	mov	r0, r4
 8008b16:	4629      	mov	r1, r5
 8008b18:	f7f7 fbd0 	bl	80002bc <__adddf3>
 8008b1c:	4604      	mov	r4, r0
 8008b1e:	460d      	mov	r5, r1
 8008b20:	e019      	b.n	8008b56 <scalbn+0x86>
 8008b22:	f3c1 520a 	ubfx	r2, r1, #20, #11
 8008b26:	460b      	mov	r3, r1
 8008b28:	3a36      	subs	r2, #54	; 0x36
 8008b2a:	4432      	add	r2, r6
 8008b2c:	f240 71fe 	movw	r1, #2046	; 0x7fe
 8008b30:	428a      	cmp	r2, r1
 8008b32:	dd08      	ble.n	8008b46 <scalbn+0x76>
 8008b34:	2d00      	cmp	r5, #0
 8008b36:	a120      	add	r1, pc, #128	; (adr r1, 8008bb8 <scalbn+0xe8>)
 8008b38:	e9d1 0100 	ldrd	r0, r1, [r1]
 8008b3c:	da1c      	bge.n	8008b78 <scalbn+0xa8>
 8008b3e:	a120      	add	r1, pc, #128	; (adr r1, 8008bc0 <scalbn+0xf0>)
 8008b40:	e9d1 0100 	ldrd	r0, r1, [r1]
 8008b44:	e018      	b.n	8008b78 <scalbn+0xa8>
 8008b46:	2a00      	cmp	r2, #0
 8008b48:	dd08      	ble.n	8008b5c <scalbn+0x8c>
 8008b4a:	f023 43ff 	bic.w	r3, r3, #2139095040	; 0x7f800000
 8008b4e:	f423 03e0 	bic.w	r3, r3, #7340032	; 0x700000
 8008b52:	ea43 5502 	orr.w	r5, r3, r2, lsl #20
 8008b56:	ec45 4b10 	vmov	d0, r4, r5
 8008b5a:	bd70      	pop	{r4, r5, r6, pc}
 8008b5c:	f112 0f35 	cmn.w	r2, #53	; 0x35
 8008b60:	da19      	bge.n	8008b96 <scalbn+0xc6>
 8008b62:	f24c 3350 	movw	r3, #50000	; 0xc350
 8008b66:	429e      	cmp	r6, r3
 8008b68:	f005 4300 	and.w	r3, r5, #2147483648	; 0x80000000
 8008b6c:	dd0a      	ble.n	8008b84 <scalbn+0xb4>
 8008b6e:	a112      	add	r1, pc, #72	; (adr r1, 8008bb8 <scalbn+0xe8>)
 8008b70:	e9d1 0100 	ldrd	r0, r1, [r1]
 8008b74:	2b00      	cmp	r3, #0
 8008b76:	d1e2      	bne.n	8008b3e <scalbn+0x6e>
 8008b78:	a30f      	add	r3, pc, #60	; (adr r3, 8008bb8 <scalbn+0xe8>)
 8008b7a:	e9d3 2300 	ldrd	r2, r3, [r3]
 8008b7e:	f7f7 fd53 	bl	8000628 <__aeabi_dmul>
 8008b82:	e7cb      	b.n	8008b1c <scalbn+0x4c>
 8008b84:	a10a      	add	r1, pc, #40	; (adr r1, 8008bb0 <scalbn+0xe0>)
 8008b86:	e9d1 0100 	ldrd	r0, r1, [r1]
 8008b8a:	2b00      	cmp	r3, #0
 8008b8c:	d0b8      	beq.n	8008b00 <scalbn+0x30>
 8008b8e:	a10e      	add	r1, pc, #56	; (adr r1, 8008bc8 <scalbn+0xf8>)
 8008b90:	e9d1 0100 	ldrd	r0, r1, [r1]
 8008b94:	e7b4      	b.n	8008b00 <scalbn+0x30>
 8008b96:	f023 43ff 	bic.w	r3, r3, #2139095040	; 0x7f800000
 8008b9a:	3236      	adds	r2, #54	; 0x36
 8008b9c:	f423 03e0 	bic.w	r3, r3, #7340032	; 0x700000
 8008ba0:	ea43 5102 	orr.w	r1, r3, r2, lsl #20
 8008ba4:	4620      	mov	r0, r4
 8008ba6:	4b0c      	ldr	r3, [pc, #48]	; (8008bd8 <scalbn+0x108>)
 8008ba8:	2200      	movs	r2, #0
 8008baa:	e7e8      	b.n	8008b7e <scalbn+0xae>
 8008bac:	f3af 8000 	nop.w
 8008bb0:	c2f8f359 	.word	0xc2f8f359
 8008bb4:	01a56e1f 	.word	0x01a56e1f
 8008bb8:	8800759c 	.word	0x8800759c
 8008bbc:	7e37e43c 	.word	0x7e37e43c
 8008bc0:	8800759c 	.word	0x8800759c
 8008bc4:	fe37e43c 	.word	0xfe37e43c
 8008bc8:	c2f8f359 	.word	0xc2f8f359
 8008bcc:	81a56e1f 	.word	0x81a56e1f
 8008bd0:	43500000 	.word	0x43500000
 8008bd4:	ffff3cb0 	.word	0xffff3cb0
 8008bd8:	3c900000 	.word	0x3c900000

08008bdc <_sbrk>:
 8008bdc:	4a04      	ldr	r2, [pc, #16]	; (8008bf0 <_sbrk+0x14>)
 8008bde:	6811      	ldr	r1, [r2, #0]
 8008be0:	4603      	mov	r3, r0
 8008be2:	b909      	cbnz	r1, 8008be8 <_sbrk+0xc>
 8008be4:	4903      	ldr	r1, [pc, #12]	; (8008bf4 <_sbrk+0x18>)
 8008be6:	6011      	str	r1, [r2, #0]
 8008be8:	6810      	ldr	r0, [r2, #0]
 8008bea:	4403      	add	r3, r0
 8008bec:	6013      	str	r3, [r2, #0]
 8008bee:	4770      	bx	lr
 8008bf0:	20011a9c 	.word	0x20011a9c
 8008bf4:	20011aa0 	.word	0x20011aa0

08008bf8 <_init>:
 8008bf8:	b5f8      	push	{r3, r4, r5, r6, r7, lr}
 8008bfa:	bf00      	nop
 8008bfc:	bcf8      	pop	{r3, r4, r5, r6, r7}
 8008bfe:	bc08      	pop	{r3}
 8008c00:	469e      	mov	lr, r3
 8008c02:	4770      	bx	lr

08008c04 <_fini>:
 8008c04:	b5f8      	push	{r3, r4, r5, r6, r7, lr}
 8008c06:	bf00      	nop
 8008c08:	bcf8      	pop	{r3, r4, r5, r6, r7}
 8008c0a:	bc08      	pop	{r3}
 8008c0c:	469e      	mov	lr, r3
 8008c0e:	4770      	bx	lr
