
noFree_Oppy.elf:     file format elf32-littlearm

Sections:
Idx Name          Size      VMA       LMA       File off  Algn
  0 .isr_vector   00000198  08000000  08000000  00010000  2**0
                  CONTENTS, ALLOC, LOAD, READONLY, DATA
  1 .text         0000a6a8  080001a0  080001a0  000101a0  2**4
                  CONTENTS, ALLOC, LOAD, READONLY, CODE
  2 .rodata       00000720  0800a848  0800a848  0001a848  2**3
                  CONTENTS, ALLOC, LOAD, READONLY, DATA
  3 .ARM.extab    00000000  0800af68  0800af68  000201e0  2**0
                  CONTENTS
  4 .ARM          00000000  0800af68  0800af68  000201e0  2**0
                  CONTENTS
  5 .preinit_array 00000000  0800af68  0800af68  000201e0  2**0
                  CONTENTS, ALLOC, LOAD, DATA
  6 .init_array   00000004  0800af68  0800af68  0001af68  2**2
                  CONTENTS, ALLOC, LOAD, DATA
  7 .fini_array   00000004  0800af6c  0800af6c  0001af6c  2**2
                  CONTENTS, ALLOC, LOAD, DATA
  8 .data         000001e0  20000000  0800af70  00020000  2**2
                  CONTENTS, ALLOC, LOAD, DATA
  9 .bss          000002d8  200001e0  0800b150  000201e0  2**3
                  ALLOC
 10 ._user_heap_stack 00000600  200004b8  0800b150  000204b8  2**0
                  ALLOC
 11 .ARM.attributes 00000030  00000000  00000000  000201e0  2**0
                  CONTENTS, READONLY
 12 .debug_info   00006962  00000000  00000000  00020210  2**0
                  CONTENTS, READONLY, DEBUGGING, OCTETS
 13 .debug_abbrev 0000151c  00000000  00000000  00026b72  2**0
                  CONTENTS, READONLY, DEBUGGING, OCTETS
 14 .debug_aranges 00000620  00000000  00000000  00028090  2**3
                  CONTENTS, READONLY, DEBUGGING, OCTETS
 15 .debug_ranges 00000568  00000000  00000000  000286b0  2**3
                  CONTENTS, READONLY, DEBUGGING, OCTETS
 16 .debug_macro  0001100f  00000000  00000000  00028c18  2**0
                  CONTENTS, READONLY, DEBUGGING, OCTETS
 17 .debug_line   00007a8f  00000000  00000000  00039c27  2**0
                  CONTENTS, READONLY, DEBUGGING, OCTETS
 18 .debug_str    00058ae1  00000000  00000000  000416b6  2**0
                  CONTENTS, READONLY, DEBUGGING, OCTETS
 19 .comment      00000050  00000000  00000000  0009a197  2**0
                  CONTENTS, READONLY
 20 .debug_frame  00002cec  00000000  00000000  0009a1e8  2**2
                  CONTENTS, READONLY, DEBUGGING, OCTETS

Disassembly of section .text:

080001a0 <__do_global_dtors_aux>:
 80001a0:	b510      	push	{r4, lr}
 80001a2:	4c05      	ldr	r4, [pc, #20]	; (80001b8 <__do_global_dtors_aux+0x18>)
 80001a4:	7823      	ldrb	r3, [r4, #0]
 80001a6:	b933      	cbnz	r3, 80001b6 <__do_global_dtors_aux+0x16>
 80001a8:	4b04      	ldr	r3, [pc, #16]	; (80001bc <__do_global_dtors_aux+0x1c>)
 80001aa:	b113      	cbz	r3, 80001b2 <__do_global_dtors_aux+0x12>
 80001ac:	4804      	ldr	r0, [pc, #16]	; (80001c0 <__do_global_dtors_aux+0x20>)
 80001ae:	f3af 8000 	nop.w
 80001b2:	2301      	movs	r3, #1
 80001b4:	7023      	strb	r3, [r4, #0]
 80001b6:	bd10      	pop	{r4, pc}
 80001b8:	200001e0 	.word	0x200001e0
 80001bc:	00000000 	.word	0x00000000
 80001c0:	0800a830 	.word	0x0800a830

080001c4 <frame_dummy>:
 80001c4:	b508      	push	{r3, lr}
 80001c6:	4b03      	ldr	r3, [pc, #12]	; (80001d4 <frame_dummy+0x10>)
 80001c8:	b11b      	cbz	r3, 80001d2 <frame_dummy+0xe>
 80001ca:	4903      	ldr	r1, [pc, #12]	; (80001d8 <frame_dummy+0x14>)
 80001cc:	4803      	ldr	r0, [pc, #12]	; (80001dc <frame_dummy+0x18>)
 80001ce:	f3af 8000 	nop.w
 80001d2:	bd08      	pop	{r3, pc}
 80001d4:	00000000 	.word	0x00000000
 80001d8:	200001e4 	.word	0x200001e4
 80001dc:	0800a830 	.word	0x0800a830

080001e0 <strlen>:
 80001e0:	4603      	mov	r3, r0
 80001e2:	f813 2b01 	ldrb.w	r2, [r3], #1
 80001e6:	2a00      	cmp	r2, #0
 80001e8:	d1fb      	bne.n	80001e2 <strlen+0x2>
 80001ea:	1a18      	subs	r0, r3, r0
 80001ec:	3801      	subs	r0, #1
 80001ee:	4770      	bx	lr

080001f0 <memchr>:
 80001f0:	f001 01ff 	and.w	r1, r1, #255	; 0xff
 80001f4:	2a10      	cmp	r2, #16
 80001f6:	db2b      	blt.n	8000250 <memchr+0x60>
 80001f8:	f010 0f07 	tst.w	r0, #7
 80001fc:	d008      	beq.n	8000210 <memchr+0x20>
 80001fe:	f810 3b01 	ldrb.w	r3, [r0], #1
 8000202:	3a01      	subs	r2, #1
 8000204:	428b      	cmp	r3, r1
 8000206:	d02d      	beq.n	8000264 <memchr+0x74>
 8000208:	f010 0f07 	tst.w	r0, #7
 800020c:	b342      	cbz	r2, 8000260 <memchr+0x70>
 800020e:	d1f6      	bne.n	80001fe <memchr+0xe>
 8000210:	b4f0      	push	{r4, r5, r6, r7}
 8000212:	ea41 2101 	orr.w	r1, r1, r1, lsl #8
 8000216:	ea41 4101 	orr.w	r1, r1, r1, lsl #16
 800021a:	f022 0407 	bic.w	r4, r2, #7
 800021e:	f07f 0700 	mvns.w	r7, #0
 8000222:	2300      	movs	r3, #0
 8000224:	e8f0 5602 	ldrd	r5, r6, [r0], #8
 8000228:	3c08      	subs	r4, #8
 800022a:	ea85 0501 	eor.w	r5, r5, r1
 800022e:	ea86 0601 	eor.w	r6, r6, r1
 8000232:	fa85 f547 	uadd8	r5, r5, r7
 8000236:	faa3 f587 	sel	r5, r3, r7
 800023a:	fa86 f647 	uadd8	r6, r6, r7
 800023e:	faa5 f687 	sel	r6, r5, r7
 8000242:	b98e      	cbnz	r6, 8000268 <memchr+0x78>
 8000244:	d1ee      	bne.n	8000224 <memchr+0x34>
 8000246:	bcf0      	pop	{r4, r5, r6, r7}
 8000248:	f001 01ff 	and.w	r1, r1, #255	; 0xff
 800024c:	f002 0207 	and.w	r2, r2, #7
 8000250:	b132      	cbz	r2, 8000260 <memchr+0x70>
 8000252:	f810 3b01 	ldrb.w	r3, [r0], #1
 8000256:	3a01      	subs	r2, #1
 8000258:	ea83 0301 	eor.w	r3, r3, r1
 800025c:	b113      	cbz	r3, 8000264 <memchr+0x74>
 800025e:	d1f8      	bne.n	8000252 <memchr+0x62>
 8000260:	2000      	movs	r0, #0
 8000262:	4770      	bx	lr
 8000264:	3801      	subs	r0, #1
 8000266:	4770      	bx	lr
 8000268:	2d00      	cmp	r5, #0
 800026a:	bf06      	itte	eq
 800026c:	4635      	moveq	r5, r6
 800026e:	3803      	subeq	r0, #3
 8000270:	3807      	subne	r0, #7
 8000272:	f015 0f01 	tst.w	r5, #1
 8000276:	d107      	bne.n	8000288 <memchr+0x98>
 8000278:	3001      	adds	r0, #1
 800027a:	f415 7f80 	tst.w	r5, #256	; 0x100
 800027e:	bf02      	ittt	eq
 8000280:	3001      	addeq	r0, #1
 8000282:	f415 3fc0 	tsteq.w	r5, #98304	; 0x18000
 8000286:	3001      	addeq	r0, #1
 8000288:	bcf0      	pop	{r4, r5, r6, r7}
 800028a:	3801      	subs	r0, #1
 800028c:	4770      	bx	lr
 800028e:	bf00      	nop

08000290 <__aeabi_drsub>:
 8000290:	f081 4100 	eor.w	r1, r1, #2147483648	; 0x80000000
 8000294:	e002      	b.n	800029c <__adddf3>
 8000296:	bf00      	nop

08000298 <__aeabi_dsub>:
 8000298:	f083 4300 	eor.w	r3, r3, #2147483648	; 0x80000000

0800029c <__adddf3>:
 800029c:	b530      	push	{r4, r5, lr}
 800029e:	ea4f 0441 	mov.w	r4, r1, lsl #1
 80002a2:	ea4f 0543 	mov.w	r5, r3, lsl #1
 80002a6:	ea94 0f05 	teq	r4, r5
 80002aa:	bf08      	it	eq
 80002ac:	ea90 0f02 	teqeq	r0, r2
 80002b0:	bf1f      	itttt	ne
 80002b2:	ea54 0c00 	orrsne.w	ip, r4, r0
 80002b6:	ea55 0c02 	orrsne.w	ip, r5, r2
 80002ba:	ea7f 5c64 	mvnsne.w	ip, r4, asr #21
 80002be:	ea7f 5c65 	mvnsne.w	ip, r5, asr #21
 80002c2:	f000 80e2 	beq.w	800048a <__adddf3+0x1ee>
 80002c6:	ea4f 5454 	mov.w	r4, r4, lsr #21
 80002ca:	ebd4 5555 	rsbs	r5, r4, r5, lsr #21
 80002ce:	bfb8      	it	lt
 80002d0:	426d      	neglt	r5, r5
 80002d2:	dd0c      	ble.n	80002ee <__adddf3+0x52>
 80002d4:	442c      	add	r4, r5
 80002d6:	ea80 0202 	eor.w	r2, r0, r2
 80002da:	ea81 0303 	eor.w	r3, r1, r3
 80002de:	ea82 0000 	eor.w	r0, r2, r0
 80002e2:	ea83 0101 	eor.w	r1, r3, r1
 80002e6:	ea80 0202 	eor.w	r2, r0, r2
 80002ea:	ea81 0303 	eor.w	r3, r1, r3
 80002ee:	2d36      	cmp	r5, #54	; 0x36
 80002f0:	bf88      	it	hi
 80002f2:	bd30      	pophi	{r4, r5, pc}
 80002f4:	f011 4f00 	tst.w	r1, #2147483648	; 0x80000000
 80002f8:	ea4f 3101 	mov.w	r1, r1, lsl #12
 80002fc:	f44f 1c80 	mov.w	ip, #1048576	; 0x100000
 8000300:	ea4c 3111 	orr.w	r1, ip, r1, lsr #12
 8000304:	d002      	beq.n	800030c <__adddf3+0x70>
 8000306:	4240      	negs	r0, r0
 8000308:	eb61 0141 	sbc.w	r1, r1, r1, lsl #1
 800030c:	f013 4f00 	tst.w	r3, #2147483648	; 0x80000000
 8000310:	ea4f 3303 	mov.w	r3, r3, lsl #12
 8000314:	ea4c 3313 	orr.w	r3, ip, r3, lsr #12
 8000318:	d002      	beq.n	8000320 <__adddf3+0x84>
 800031a:	4252      	negs	r2, r2
 800031c:	eb63 0343 	sbc.w	r3, r3, r3, lsl #1
 8000320:	ea94 0f05 	teq	r4, r5
 8000324:	f000 80a7 	beq.w	8000476 <__adddf3+0x1da>
 8000328:	f1a4 0401 	sub.w	r4, r4, #1
 800032c:	f1d5 0e20 	rsbs	lr, r5, #32
 8000330:	db0d      	blt.n	800034e <__adddf3+0xb2>
 8000332:	fa02 fc0e 	lsl.w	ip, r2, lr
 8000336:	fa22 f205 	lsr.w	r2, r2, r5
 800033a:	1880      	adds	r0, r0, r2
 800033c:	f141 0100 	adc.w	r1, r1, #0
 8000340:	fa03 f20e 	lsl.w	r2, r3, lr
 8000344:	1880      	adds	r0, r0, r2
 8000346:	fa43 f305 	asr.w	r3, r3, r5
 800034a:	4159      	adcs	r1, r3
 800034c:	e00e      	b.n	800036c <__adddf3+0xd0>
 800034e:	f1a5 0520 	sub.w	r5, r5, #32
 8000352:	f10e 0e20 	add.w	lr, lr, #32
 8000356:	2a01      	cmp	r2, #1
 8000358:	fa03 fc0e 	lsl.w	ip, r3, lr
 800035c:	bf28      	it	cs
 800035e:	f04c 0c02 	orrcs.w	ip, ip, #2
 8000362:	fa43 f305 	asr.w	r3, r3, r5
 8000366:	18c0      	adds	r0, r0, r3
 8000368:	eb51 71e3 	adcs.w	r1, r1, r3, asr #31
 800036c:	f001 4500 	and.w	r5, r1, #2147483648	; 0x80000000
 8000370:	d507      	bpl.n	8000382 <__adddf3+0xe6>
 8000372:	f04f 0e00 	mov.w	lr, #0
 8000376:	f1dc 0c00 	rsbs	ip, ip, #0
 800037a:	eb7e 0000 	sbcs.w	r0, lr, r0
 800037e:	eb6e 0101 	sbc.w	r1, lr, r1
 8000382:	f5b1 1f80 	cmp.w	r1, #1048576	; 0x100000
 8000386:	d31b      	bcc.n	80003c0 <__adddf3+0x124>
 8000388:	f5b1 1f00 	cmp.w	r1, #2097152	; 0x200000
 800038c:	d30c      	bcc.n	80003a8 <__adddf3+0x10c>
 800038e:	0849      	lsrs	r1, r1, #1
 8000390:	ea5f 0030 	movs.w	r0, r0, rrx
 8000394:	ea4f 0c3c 	mov.w	ip, ip, rrx
 8000398:	f104 0401 	add.w	r4, r4, #1
 800039c:	ea4f 5244 	mov.w	r2, r4, lsl #21
 80003a0:	f512 0f80 	cmn.w	r2, #4194304	; 0x400000
 80003a4:	f080 809a 	bcs.w	80004dc <__adddf3+0x240>
 80003a8:	f1bc 4f00 	cmp.w	ip, #2147483648	; 0x80000000
 80003ac:	bf08      	it	eq
 80003ae:	ea5f 0c50 	movseq.w	ip, r0, lsr #1
 80003b2:	f150 0000 	adcs.w	r0, r0, #0
 80003b6:	eb41 5104 	adc.w	r1, r1, r4, lsl #20
 80003ba:	ea41 0105 	orr.w	r1, r1, r5
 80003be:	bd30      	pop	{r4, r5, pc}
 80003c0:	ea5f 0c4c 	movs.w	ip, ip, lsl #1
 80003c4:	4140      	adcs	r0, r0
 80003c6:	eb41 0101 	adc.w	r1, r1, r1
 80003ca:	3c01      	subs	r4, #1
 80003cc:	bf28      	it	cs
 80003ce:	f5b1 1f80 	cmpcs.w	r1, #1048576	; 0x100000
 80003d2:	d2e9      	bcs.n	80003a8 <__adddf3+0x10c>
 80003d4:	f091 0f00 	teq	r1, #0
 80003d8:	bf04      	itt	eq
 80003da:	4601      	moveq	r1, r0
 80003dc:	2000      	moveq	r0, #0
 80003de:	fab1 f381 	clz	r3, r1
 80003e2:	bf08      	it	eq
 80003e4:	3320      	addeq	r3, #32
 80003e6:	f1a3 030b 	sub.w	r3, r3, #11
 80003ea:	f1b3 0220 	subs.w	r2, r3, #32
 80003ee:	da0c      	bge.n	800040a <__adddf3+0x16e>
 80003f0:	320c      	adds	r2, #12
 80003f2:	dd08      	ble.n	8000406 <__adddf3+0x16a>
 80003f4:	f102 0c14 	add.w	ip, r2, #20
 80003f8:	f1c2 020c 	rsb	r2, r2, #12
 80003fc:	fa01 f00c 	lsl.w	r0, r1, ip
 8000400:	fa21 f102 	lsr.w	r1, r1, r2
 8000404:	e00c      	b.n	8000420 <__adddf3+0x184>
 8000406:	f102 0214 	add.w	r2, r2, #20
 800040a:	bfd8      	it	le
 800040c:	f1c2 0c20 	rsble	ip, r2, #32
 8000410:	fa01 f102 	lsl.w	r1, r1, r2
 8000414:	fa20 fc0c 	lsr.w	ip, r0, ip
 8000418:	bfdc      	itt	le
 800041a:	ea41 010c 	orrle.w	r1, r1, ip
 800041e:	4090      	lslle	r0, r2
 8000420:	1ae4      	subs	r4, r4, r3
 8000422:	bfa2      	ittt	ge
 8000424:	eb01 5104 	addge.w	r1, r1, r4, lsl #20
 8000428:	4329      	orrge	r1, r5
 800042a:	bd30      	popge	{r4, r5, pc}
 800042c:	ea6f 0404 	mvn.w	r4, r4
 8000430:	3c1f      	subs	r4, #31
 8000432:	da1c      	bge.n	800046e <__adddf3+0x1d2>
 8000434:	340c      	adds	r4, #12
 8000436:	dc0e      	bgt.n	8000456 <__adddf3+0x1ba>
 8000438:	f104 0414 	add.w	r4, r4, #20
 800043c:	f1c4 0220 	rsb	r2, r4, #32
 8000440:	fa20 f004 	lsr.w	r0, r0, r4
 8000444:	fa01 f302 	lsl.w	r3, r1, r2
 8000448:	ea40 0003 	orr.w	r0, r0, r3
 800044c:	fa21 f304 	lsr.w	r3, r1, r4
 8000450:	ea45 0103 	orr.w	r1, r5, r3
 8000454:	bd30      	pop	{r4, r5, pc}
 8000456:	f1c4 040c 	rsb	r4, r4, #12
 800045a:	f1c4 0220 	rsb	r2, r4, #32
 800045e:	fa20 f002 	lsr.w	r0, r0, r2
 8000462:	fa01 f304 	lsl.w	r3, r1, r4
 8000466:	ea40 0003 	orr.w	r0, r0, r3
 800046a:	4629      	mov	r1, r5
 800046c:	bd30      	pop	{r4, r5, pc}
 800046e:	fa21 f004 	lsr.w	r0, r1, r4
 8000472:	4629      	mov	r1, r5
 8000474:	bd30      	pop	{r4, r5, pc}
 8000476:	f094 0f00 	teq	r4, #0
 800047a:	f483 1380 	eor.w	r3, r3, #1048576	; 0x100000
 800047e:	bf06      	itte	eq
 8000480:	f481 1180 	eoreq.w	r1, r1, #1048576	; 0x100000
 8000484:	3401      	addeq	r4, #1
 8000486:	3d01      	subne	r5, #1
 8000488:	e74e      	b.n	8000328 <__adddf3+0x8c>
 800048a:	ea7f 5c64 	mvns.w	ip, r4, asr #21
 800048e:	bf18      	it	ne
 8000490:	ea7f 5c65 	mvnsne.w	ip, r5, asr #21
 8000494:	d029      	beq.n	80004ea <__adddf3+0x24e>
 8000496:	ea94 0f05 	teq	r4, r5
 800049a:	bf08      	it	eq
 800049c:	ea90 0f02 	teqeq	r0, r2
 80004a0:	d005      	beq.n	80004ae <__adddf3+0x212>
 80004a2:	ea54 0c00 	orrs.w	ip, r4, r0
 80004a6:	bf04      	itt	eq
 80004a8:	4619      	moveq	r1, r3
 80004aa:	4610      	moveq	r0, r2
 80004ac:	bd30      	pop	{r4, r5, pc}
 80004ae:	ea91 0f03 	teq	r1, r3
 80004b2:	bf1e      	ittt	ne
 80004b4:	2100      	movne	r1, #0
 80004b6:	2000      	movne	r0, #0
 80004b8:	bd30      	popne	{r4, r5, pc}
 80004ba:	ea5f 5c54 	movs.w	ip, r4, lsr #21
 80004be:	d105      	bne.n	80004cc <__adddf3+0x230>
 80004c0:	0040      	lsls	r0, r0, #1
 80004c2:	4149      	adcs	r1, r1
 80004c4:	bf28      	it	cs
 80004c6:	f041 4100 	orrcs.w	r1, r1, #2147483648	; 0x80000000
 80004ca:	bd30      	pop	{r4, r5, pc}
 80004cc:	f514 0480 	adds.w	r4, r4, #4194304	; 0x400000
 80004d0:	bf3c      	itt	cc
 80004d2:	f501 1180 	addcc.w	r1, r1, #1048576	; 0x100000
 80004d6:	bd30      	popcc	{r4, r5, pc}
 80004d8:	f001 4500 	and.w	r5, r1, #2147483648	; 0x80000000
 80004dc:	f045 41fe 	orr.w	r1, r5, #2130706432	; 0x7f000000
 80004e0:	f441 0170 	orr.w	r1, r1, #15728640	; 0xf00000
 80004e4:	f04f 0000 	mov.w	r0, #0
 80004e8:	bd30      	pop	{r4, r5, pc}
 80004ea:	ea7f 5c64 	mvns.w	ip, r4, asr #21
 80004ee:	bf1a      	itte	ne
 80004f0:	4619      	movne	r1, r3
 80004f2:	4610      	movne	r0, r2
 80004f4:	ea7f 5c65 	mvnseq.w	ip, r5, asr #21
 80004f8:	bf1c      	itt	ne
 80004fa:	460b      	movne	r3, r1
 80004fc:	4602      	movne	r2, r0
 80004fe:	ea50 3401 	orrs.w	r4, r0, r1, lsl #12
 8000502:	bf06      	itte	eq
 8000504:	ea52 3503 	orrseq.w	r5, r2, r3, lsl #12
 8000508:	ea91 0f03 	teqeq	r1, r3
 800050c:	f441 2100 	orrne.w	r1, r1, #524288	; 0x80000
 8000510:	bd30      	pop	{r4, r5, pc}
 8000512:	bf00      	nop

08000514 <__aeabi_ui2d>:
 8000514:	f090 0f00 	teq	r0, #0
 8000518:	bf04      	itt	eq
 800051a:	2100      	moveq	r1, #0
 800051c:	4770      	bxeq	lr
 800051e:	b530      	push	{r4, r5, lr}
 8000520:	f44f 6480 	mov.w	r4, #1024	; 0x400
 8000524:	f104 0432 	add.w	r4, r4, #50	; 0x32
 8000528:	f04f 0500 	mov.w	r5, #0
 800052c:	f04f 0100 	mov.w	r1, #0
 8000530:	e750      	b.n	80003d4 <__adddf3+0x138>
 8000532:	bf00      	nop

08000534 <__aeabi_i2d>:
 8000534:	f090 0f00 	teq	r0, #0
 8000538:	bf04      	itt	eq
 800053a:	2100      	moveq	r1, #0
 800053c:	4770      	bxeq	lr
 800053e:	b530      	push	{r4, r5, lr}
 8000540:	f44f 6480 	mov.w	r4, #1024	; 0x400
 8000544:	f104 0432 	add.w	r4, r4, #50	; 0x32
 8000548:	f010 4500 	ands.w	r5, r0, #2147483648	; 0x80000000
 800054c:	bf48      	it	mi
 800054e:	4240      	negmi	r0, r0
 8000550:	f04f 0100 	mov.w	r1, #0
 8000554:	e73e      	b.n	80003d4 <__adddf3+0x138>
 8000556:	bf00      	nop

08000558 <__aeabi_f2d>:
 8000558:	0042      	lsls	r2, r0, #1
 800055a:	ea4f 01e2 	mov.w	r1, r2, asr #3
 800055e:	ea4f 0131 	mov.w	r1, r1, rrx
 8000562:	ea4f 7002 	mov.w	r0, r2, lsl #28
 8000566:	bf1f      	itttt	ne
 8000568:	f012 437f 	andsne.w	r3, r2, #4278190080	; 0xff000000
 800056c:	f093 4f7f 	teqne	r3, #4278190080	; 0xff000000
 8000570:	f081 5160 	eorne.w	r1, r1, #939524096	; 0x38000000
 8000574:	4770      	bxne	lr
 8000576:	f032 427f 	bics.w	r2, r2, #4278190080	; 0xff000000
 800057a:	bf08      	it	eq
 800057c:	4770      	bxeq	lr
 800057e:	f093 4f7f 	teq	r3, #4278190080	; 0xff000000
 8000582:	bf04      	itt	eq
 8000584:	f441 2100 	orreq.w	r1, r1, #524288	; 0x80000
 8000588:	4770      	bxeq	lr
 800058a:	b530      	push	{r4, r5, lr}
 800058c:	f44f 7460 	mov.w	r4, #896	; 0x380
 8000590:	f001 4500 	and.w	r5, r1, #2147483648	; 0x80000000
 8000594:	f021 4100 	bic.w	r1, r1, #2147483648	; 0x80000000
 8000598:	e71c      	b.n	80003d4 <__adddf3+0x138>
 800059a:	bf00      	nop

0800059c <__aeabi_ul2d>:
 800059c:	ea50 0201 	orrs.w	r2, r0, r1
 80005a0:	bf08      	it	eq
 80005a2:	4770      	bxeq	lr
 80005a4:	b530      	push	{r4, r5, lr}
 80005a6:	f04f 0500 	mov.w	r5, #0
 80005aa:	e00a      	b.n	80005c2 <__aeabi_l2d+0x16>

080005ac <__aeabi_l2d>:
 80005ac:	ea50 0201 	orrs.w	r2, r0, r1
 80005b0:	bf08      	it	eq
 80005b2:	4770      	bxeq	lr
 80005b4:	b530      	push	{r4, r5, lr}
 80005b6:	f011 4500 	ands.w	r5, r1, #2147483648	; 0x80000000
 80005ba:	d502      	bpl.n	80005c2 <__aeabi_l2d+0x16>
 80005bc:	4240      	negs	r0, r0
 80005be:	eb61 0141 	sbc.w	r1, r1, r1, lsl #1
 80005c2:	f44f 6480 	mov.w	r4, #1024	; 0x400
 80005c6:	f104 0432 	add.w	r4, r4, #50	; 0x32
 80005ca:	ea5f 5c91 	movs.w	ip, r1, lsr #22
 80005ce:	f43f aed8 	beq.w	8000382 <__adddf3+0xe6>
 80005d2:	f04f 0203 	mov.w	r2, #3
 80005d6:	ea5f 0cdc 	movs.w	ip, ip, lsr #3
 80005da:	bf18      	it	ne
 80005dc:	3203      	addne	r2, #3
 80005de:	ea5f 0cdc 	movs.w	ip, ip, lsr #3
 80005e2:	bf18      	it	ne
 80005e4:	3203      	addne	r2, #3
 80005e6:	eb02 02dc 	add.w	r2, r2, ip, lsr #3
 80005ea:	f1c2 0320 	rsb	r3, r2, #32
 80005ee:	fa00 fc03 	lsl.w	ip, r0, r3
 80005f2:	fa20 f002 	lsr.w	r0, r0, r2
 80005f6:	fa01 fe03 	lsl.w	lr, r1, r3
 80005fa:	ea40 000e 	orr.w	r0, r0, lr
 80005fe:	fa21 f102 	lsr.w	r1, r1, r2
 8000602:	4414      	add	r4, r2
 8000604:	e6bd      	b.n	8000382 <__adddf3+0xe6>
 8000606:	bf00      	nop

08000608 <__aeabi_dmul>:
 8000608:	b570      	push	{r4, r5, r6, lr}
 800060a:	f04f 0cff 	mov.w	ip, #255	; 0xff
 800060e:	f44c 6ce0 	orr.w	ip, ip, #1792	; 0x700
 8000612:	ea1c 5411 	ands.w	r4, ip, r1, lsr #20
 8000616:	bf1d      	ittte	ne
 8000618:	ea1c 5513 	andsne.w	r5, ip, r3, lsr #20
 800061c:	ea94 0f0c 	teqne	r4, ip
 8000620:	ea95 0f0c 	teqne	r5, ip
 8000624:	f000 f8de 	bleq	80007e4 <__aeabi_dmul+0x1dc>
 8000628:	442c      	add	r4, r5
 800062a:	ea81 0603 	eor.w	r6, r1, r3
 800062e:	ea21 514c 	bic.w	r1, r1, ip, lsl #21
 8000632:	ea23 534c 	bic.w	r3, r3, ip, lsl #21
 8000636:	ea50 3501 	orrs.w	r5, r0, r1, lsl #12
 800063a:	bf18      	it	ne
 800063c:	ea52 3503 	orrsne.w	r5, r2, r3, lsl #12
 8000640:	f441 1180 	orr.w	r1, r1, #1048576	; 0x100000
 8000644:	f443 1380 	orr.w	r3, r3, #1048576	; 0x100000
 8000648:	d038      	beq.n	80006bc <__aeabi_dmul+0xb4>
 800064a:	fba0 ce02 	umull	ip, lr, r0, r2
 800064e:	f04f 0500 	mov.w	r5, #0
 8000652:	fbe1 e502 	umlal	lr, r5, r1, r2
 8000656:	f006 4200 	and.w	r2, r6, #2147483648	; 0x80000000
 800065a:	fbe0 e503 	umlal	lr, r5, r0, r3
 800065e:	f04f 0600 	mov.w	r6, #0
 8000662:	fbe1 5603 	umlal	r5, r6, r1, r3
 8000666:	f09c 0f00 	teq	ip, #0
 800066a:	bf18      	it	ne
 800066c:	f04e 0e01 	orrne.w	lr, lr, #1
 8000670:	f1a4 04ff 	sub.w	r4, r4, #255	; 0xff
 8000674:	f5b6 7f00 	cmp.w	r6, #512	; 0x200
 8000678:	f564 7440 	sbc.w	r4, r4, #768	; 0x300
 800067c:	d204      	bcs.n	8000688 <__aeabi_dmul+0x80>
 800067e:	ea5f 0e4e 	movs.w	lr, lr, lsl #1
 8000682:	416d      	adcs	r5, r5
 8000684:	eb46 0606 	adc.w	r6, r6, r6
 8000688:	ea42 21c6 	orr.w	r1, r2, r6, lsl #11
 800068c:	ea41 5155 	orr.w	r1, r1, r5, lsr #21
 8000690:	ea4f 20c5 	mov.w	r0, r5, lsl #11
 8000694:	ea40 505e 	orr.w	r0, r0, lr, lsr #21
 8000698:	ea4f 2ece 	mov.w	lr, lr, lsl #11
 800069c:	f1b4 0cfd 	subs.w	ip, r4, #253	; 0xfd
 80006a0:	bf88      	it	hi
 80006a2:	f5bc 6fe0 	cmphi.w	ip, #1792	; 0x700
 80006a6:	d81e      	bhi.n	80006e6 <__aeabi_dmul+0xde>
 80006a8:	f1be 4f00 	cmp.w	lr, #2147483648	; 0x80000000
 80006ac:	bf08      	it	eq
 80006ae:	ea5f 0e50 	movseq.w	lr, r0, lsr #1
 80006b2:	f150 0000 	adcs.w	r0, r0, #0
 80006b6:	eb41 5104 	adc.w	r1, r1, r4, lsl #20
 80006ba:	bd70      	pop	{r4, r5, r6, pc}
 80006bc:	f006 4600 	and.w	r6, r6, #2147483648	; 0x80000000
 80006c0:	ea46 0101 	orr.w	r1, r6, r1
 80006c4:	ea40 0002 	orr.w	r0, r0, r2
 80006c8:	ea81 0103 	eor.w	r1, r1, r3
 80006cc:	ebb4 045c 	subs.w	r4, r4, ip, lsr #1
 80006d0:	bfc2      	ittt	gt
 80006d2:	ebd4 050c 	rsbsgt	r5, r4, ip
 80006d6:	ea41 5104 	orrgt.w	r1, r1, r4, lsl #20
 80006da:	bd70      	popgt	{r4, r5, r6, pc}
 80006dc:	f441 1180 	orr.w	r1, r1, #1048576	; 0x100000
 80006e0:	f04f 0e00 	mov.w	lr, #0
 80006e4:	3c01      	subs	r4, #1
 80006e6:	f300 80ab 	bgt.w	8000840 <__aeabi_dmul+0x238>
 80006ea:	f114 0f36 	cmn.w	r4, #54	; 0x36
 80006ee:	bfde      	ittt	le
 80006f0:	2000      	movle	r0, #0
 80006f2:	f001 4100 	andle.w	r1, r1, #2147483648	; 0x80000000
 80006f6:	bd70      	pople	{r4, r5, r6, pc}
 80006f8:	f1c4 0400 	rsb	r4, r4, #0
 80006fc:	3c20      	subs	r4, #32
 80006fe:	da35      	bge.n	800076c <__aeabi_dmul+0x164>
 8000700:	340c      	adds	r4, #12
 8000702:	dc1b      	bgt.n	800073c <__aeabi_dmul+0x134>
 8000704:	f104 0414 	add.w	r4, r4, #20
 8000708:	f1c4 0520 	rsb	r5, r4, #32
 800070c:	fa00 f305 	lsl.w	r3, r0, r5
 8000710:	fa20 f004 	lsr.w	r0, r0, r4
 8000714:	fa01 f205 	lsl.w	r2, r1, r5
 8000718:	ea40 0002 	orr.w	r0, r0, r2
 800071c:	f001 4200 	and.w	r2, r1, #2147483648	; 0x80000000
 8000720:	f021 4100 	bic.w	r1, r1, #2147483648	; 0x80000000
 8000724:	eb10 70d3 	adds.w	r0, r0, r3, lsr #31
 8000728:	fa21 f604 	lsr.w	r6, r1, r4
 800072c:	eb42 0106 	adc.w	r1, r2, r6
 8000730:	ea5e 0e43 	orrs.w	lr, lr, r3, lsl #1
 8000734:	bf08      	it	eq
 8000736:	ea20 70d3 	biceq.w	r0, r0, r3, lsr #31
 800073a:	bd70      	pop	{r4, r5, r6, pc}
 800073c:	f1c4 040c 	rsb	r4, r4, #12
 8000740:	f1c4 0520 	rsb	r5, r4, #32
 8000744:	fa00 f304 	lsl.w	r3, r0, r4
 8000748:	fa20 f005 	lsr.w	r0, r0, r5
 800074c:	fa01 f204 	lsl.w	r2, r1, r4
 8000750:	ea40 0002 	orr.w	r0, r0, r2
 8000754:	f001 4100 	and.w	r1, r1, #2147483648	; 0x80000000
 8000758:	eb10 70d3 	adds.w	r0, r0, r3, lsr #31
 800075c:	f141 0100 	adc.w	r1, r1, #0
 8000760:	ea5e 0e43 	orrs.w	lr, lr, r3, lsl #1
 8000764:	bf08      	it	eq
 8000766:	ea20 70d3 	biceq.w	r0, r0, r3, lsr #31
 800076a:	bd70      	pop	{r4, r5, r6, pc}
 800076c:	f1c4 0520 	rsb	r5, r4, #32
 8000770:	fa00 f205 	lsl.w	r2, r0, r5
 8000774:	ea4e 0e02 	orr.w	lr, lr, r2
 8000778:	fa20 f304 	lsr.w	r3, r0, r4
 800077c:	fa01 f205 	lsl.w	r2, r1, r5
 8000780:	ea43 0302 	orr.w	r3, r3, r2
 8000784:	fa21 f004 	lsr.w	r0, r1, r4
 8000788:	f001 4100 	and.w	r1, r1, #2147483648	; 0x80000000
 800078c:	fa21 f204 	lsr.w	r2, r1, r4
 8000790:	ea20 0002 	bic.w	r0, r0, r2
 8000794:	eb00 70d3 	add.w	r0, r0, r3, lsr #31
 8000798:	ea5e 0e43 	orrs.w	lr, lr, r3, lsl #1
 800079c:	bf08      	it	eq
 800079e:	ea20 70d3 	biceq.w	r0, r0, r3, lsr #31
 80007a2:	bd70      	pop	{r4, r5, r6, pc}
 80007a4:	f094 0f00 	teq	r4, #0
 80007a8:	d10f      	bne.n	80007ca <__aeabi_dmul+0x1c2>
 80007aa:	f001 4600 	and.w	r6, r1, #2147483648	; 0x80000000
 80007ae:	0040      	lsls	r0, r0, #1
 80007b0:	eb41 0101 	adc.w	r1, r1, r1
 80007b4:	f411 1f80 	tst.w	r1, #1048576	; 0x100000
 80007b8:	bf08      	it	eq
 80007ba:	3c01      	subeq	r4, #1
 80007bc:	d0f7      	beq.n	80007ae <__aeabi_dmul+0x1a6>
 80007be:	ea41 0106 	orr.w	r1, r1, r6
 80007c2:	f095 0f00 	teq	r5, #0
 80007c6:	bf18      	it	ne
 80007c8:	4770      	bxne	lr
 80007ca:	f003 4600 	and.w	r6, r3, #2147483648	; 0x80000000
 80007ce:	0052      	lsls	r2, r2, #1
 80007d0:	eb43 0303 	adc.w	r3, r3, r3
 80007d4:	f413 1f80 	tst.w	r3, #1048576	; 0x100000
 80007d8:	bf08      	it	eq
 80007da:	3d01      	subeq	r5, #1
 80007dc:	d0f7      	beq.n	80007ce <__aeabi_dmul+0x1c6>
 80007de:	ea43 0306 	orr.w	r3, r3, r6
 80007e2:	4770      	bx	lr
 80007e4:	ea94 0f0c 	teq	r4, ip
 80007e8:	ea0c 5513 	and.w	r5, ip, r3, lsr #20
 80007ec:	bf18      	it	ne
 80007ee:	ea95 0f0c 	teqne	r5, ip
 80007f2:	d00c      	beq.n	800080e <__aeabi_dmul+0x206>
 80007f4:	ea50 0641 	orrs.w	r6, r0, r1, lsl #1
 80007f8:	bf18      	it	ne
 80007fa:	ea52 0643 	orrsne.w	r6, r2, r3, lsl #1
 80007fe:	d1d1      	bne.n	80007a4 <__aeabi_dmul+0x19c>
 8000800:	ea81 0103 	eor.w	r1, r1, r3
 8000804:	f001 4100 	and.w	r1, r1, #2147483648	; 0x80000000
 8000808:	f04f 0000 	mov.w	r0, #0
 800080c:	bd70      	pop	{r4, r5, r6, pc}
 800080e:	ea50 0641 	orrs.w	r6, r0, r1, lsl #1
 8000812:	bf06      	itte	eq
 8000814:	4610      	moveq	r0, r2
 8000816:	4619      	moveq	r1, r3
 8000818:	ea52 0643 	orrsne.w	r6, r2, r3, lsl #1
 800081c:	d019      	beq.n	8000852 <__aeabi_dmul+0x24a>
 800081e:	ea94 0f0c 	teq	r4, ip
 8000822:	d102      	bne.n	800082a <__aeabi_dmul+0x222>
 8000824:	ea50 3601 	orrs.w	r6, r0, r1, lsl #12
 8000828:	d113      	bne.n	8000852 <__aeabi_dmul+0x24a>
 800082a:	ea95 0f0c 	teq	r5, ip
 800082e:	d105      	bne.n	800083c <__aeabi_dmul+0x234>
 8000830:	ea52 3603 	orrs.w	r6, r2, r3, lsl #12
 8000834:	bf1c      	itt	ne
 8000836:	4610      	movne	r0, r2
 8000838:	4619      	movne	r1, r3
 800083a:	d10a      	bne.n	8000852 <__aeabi_dmul+0x24a>
 800083c:	ea81 0103 	eor.w	r1, r1, r3
 8000840:	f001 4100 	and.w	r1, r1, #2147483648	; 0x80000000
 8000844:	f041 41fe 	orr.w	r1, r1, #2130706432	; 0x7f000000
 8000848:	f441 0170 	orr.w	r1, r1, #15728640	; 0xf00000
 800084c:	f04f 0000 	mov.w	r0, #0
 8000850:	bd70      	pop	{r4, r5, r6, pc}
 8000852:	f041 41fe 	orr.w	r1, r1, #2130706432	; 0x7f000000
 8000856:	f441 0178 	orr.w	r1, r1, #16252928	; 0xf80000
 800085a:	bd70      	pop	{r4, r5, r6, pc}

0800085c <__aeabi_ddiv>:
 800085c:	b570      	push	{r4, r5, r6, lr}
 800085e:	f04f 0cff 	mov.w	ip, #255	; 0xff
 8000862:	f44c 6ce0 	orr.w	ip, ip, #1792	; 0x700
 8000866:	ea1c 5411 	ands.w	r4, ip, r1, lsr #20
 800086a:	bf1d      	ittte	ne
 800086c:	ea1c 5513 	andsne.w	r5, ip, r3, lsr #20
 8000870:	ea94 0f0c 	teqne	r4, ip
 8000874:	ea95 0f0c 	teqne	r5, ip
 8000878:	f000 f8a7 	bleq	80009ca <__aeabi_ddiv+0x16e>
 800087c:	eba4 0405 	sub.w	r4, r4, r5
 8000880:	ea81 0e03 	eor.w	lr, r1, r3
 8000884:	ea52 3503 	orrs.w	r5, r2, r3, lsl #12
 8000888:	ea4f 3101 	mov.w	r1, r1, lsl #12
 800088c:	f000 8088 	beq.w	80009a0 <__aeabi_ddiv+0x144>
 8000890:	ea4f 3303 	mov.w	r3, r3, lsl #12
 8000894:	f04f 5580 	mov.w	r5, #268435456	; 0x10000000
 8000898:	ea45 1313 	orr.w	r3, r5, r3, lsr #4
 800089c:	ea43 6312 	orr.w	r3, r3, r2, lsr #24
 80008a0:	ea4f 2202 	mov.w	r2, r2, lsl #8
 80008a4:	ea45 1511 	orr.w	r5, r5, r1, lsr #4
 80008a8:	ea45 6510 	orr.w	r5, r5, r0, lsr #24
 80008ac:	ea4f 2600 	mov.w	r6, r0, lsl #8
 80008b0:	f00e 4100 	and.w	r1, lr, #2147483648	; 0x80000000
 80008b4:	429d      	cmp	r5, r3
 80008b6:	bf08      	it	eq
 80008b8:	4296      	cmpeq	r6, r2
 80008ba:	f144 04fd 	adc.w	r4, r4, #253	; 0xfd
 80008be:	f504 7440 	add.w	r4, r4, #768	; 0x300
 80008c2:	d202      	bcs.n	80008ca <__aeabi_ddiv+0x6e>
 80008c4:	085b      	lsrs	r3, r3, #1
 80008c6:	ea4f 0232 	mov.w	r2, r2, rrx
 80008ca:	1ab6      	subs	r6, r6, r2
 80008cc:	eb65 0503 	sbc.w	r5, r5, r3
 80008d0:	085b      	lsrs	r3, r3, #1
 80008d2:	ea4f 0232 	mov.w	r2, r2, rrx
 80008d6:	f44f 1080 	mov.w	r0, #1048576	; 0x100000
 80008da:	f44f 2c00 	mov.w	ip, #524288	; 0x80000
 80008de:	ebb6 0e02 	subs.w	lr, r6, r2
 80008e2:	eb75 0e03 	sbcs.w	lr, r5, r3
 80008e6:	bf22      	ittt	cs
 80008e8:	1ab6      	subcs	r6, r6, r2
 80008ea:	4675      	movcs	r5, lr
 80008ec:	ea40 000c 	orrcs.w	r0, r0, ip
 80008f0:	085b      	lsrs	r3, r3, #1
 80008f2:	ea4f 0232 	mov.w	r2, r2, rrx
 80008f6:	ebb6 0e02 	subs.w	lr, r6, r2
 80008fa:	eb75 0e03 	sbcs.w	lr, r5, r3
 80008fe:	bf22      	ittt	cs
 8000900:	1ab6      	subcs	r6, r6, r2
 8000902:	4675      	movcs	r5, lr
 8000904:	ea40 005c 	orrcs.w	r0, r0, ip, lsr #1
 8000908:	085b      	lsrs	r3, r3, #1
 800090a:	ea4f 0232 	mov.w	r2, r2, rrx
 800090e:	ebb6 0e02 	subs.w	lr, r6, r2
 8000912:	eb75 0e03 	sbcs.w	lr, r5, r3
 8000916:	bf22      	ittt	cs
 8000918:	1ab6      	subcs	r6, r6, r2
 800091a:	4675      	movcs	r5, lr
 800091c:	ea40 009c 	orrcs.w	r0, r0, ip, lsr #2
 8000920:	085b      	lsrs	r3, r3, #1
 8000922:	ea4f 0232 	mov.w	r2, r2, rrx
 8000926:	ebb6 0e02 	subs.w	lr, r6, r2
 800092a:	eb75 0e03 	sbcs.w	lr, r5, r3
 800092e:	bf22      	ittt	cs
 8000930:	1ab6      	subcs	r6, r6, r2
 8000932:	4675      	movcs	r5, lr
 8000934:	ea40 00dc 	orrcs.w	r0, r0, ip, lsr #3
 8000938:	ea55 0e06 	orrs.w	lr, r5, r6
 800093c:	d018      	beq.n	8000970 <__aeabi_ddiv+0x114>
 800093e:	ea4f 1505 	mov.w	r5, r5, lsl #4
 8000942:	ea45 7516 	orr.w	r5, r5, r6, lsr #28
 8000946:	ea4f 1606 	mov.w	r6, r6, lsl #4
 800094a:	ea4f 03c3 	mov.w	r3, r3, lsl #3
 800094e:	ea43 7352 	orr.w	r3, r3, r2, lsr #29
 8000952:	ea4f 02c2 	mov.w	r2, r2, lsl #3
 8000956:	ea5f 1c1c 	movs.w	ip, ip, lsr #4
 800095a:	d1c0      	bne.n	80008de <__aeabi_ddiv+0x82>
 800095c:	f411 1f80 	tst.w	r1, #1048576	; 0x100000
 8000960:	d10b      	bne.n	800097a <__aeabi_ddiv+0x11e>
 8000962:	ea41 0100 	orr.w	r1, r1, r0
 8000966:	f04f 0000 	mov.w	r0, #0
 800096a:	f04f 4c00 	mov.w	ip, #2147483648	; 0x80000000
 800096e:	e7b6      	b.n	80008de <__aeabi_ddiv+0x82>
 8000970:	f411 1f80 	tst.w	r1, #1048576	; 0x100000
 8000974:	bf04      	itt	eq
 8000976:	4301      	orreq	r1, r0
 8000978:	2000      	moveq	r0, #0
 800097a:	f1b4 0cfd 	subs.w	ip, r4, #253	; 0xfd
 800097e:	bf88      	it	hi
 8000980:	f5bc 6fe0 	cmphi.w	ip, #1792	; 0x700
 8000984:	f63f aeaf 	bhi.w	80006e6 <__aeabi_dmul+0xde>
 8000988:	ebb5 0c03 	subs.w	ip, r5, r3
 800098c:	bf04      	itt	eq
 800098e:	ebb6 0c02 	subseq.w	ip, r6, r2
 8000992:	ea5f 0c50 	movseq.w	ip, r0, lsr #1
 8000996:	f150 0000 	adcs.w	r0, r0, #0
 800099a:	eb41 5104 	adc.w	r1, r1, r4, lsl #20
 800099e:	bd70      	pop	{r4, r5, r6, pc}
 80009a0:	f00e 4e00 	and.w	lr, lr, #2147483648	; 0x80000000
 80009a4:	ea4e 3111 	orr.w	r1, lr, r1, lsr #12
 80009a8:	eb14 045c 	adds.w	r4, r4, ip, lsr #1
 80009ac:	bfc2      	ittt	gt
 80009ae:	ebd4 050c 	rsbsgt	r5, r4, ip
 80009b2:	ea41 5104 	orrgt.w	r1, r1, r4, lsl #20
 80009b6:	bd70      	popgt	{r4, r5, r6, pc}
 80009b8:	f441 1180 	orr.w	r1, r1, #1048576	; 0x100000
 80009bc:	f04f 0e00 	mov.w	lr, #0
 80009c0:	3c01      	subs	r4, #1
 80009c2:	e690      	b.n	80006e6 <__aeabi_dmul+0xde>
 80009c4:	ea45 0e06 	orr.w	lr, r5, r6
 80009c8:	e68d      	b.n	80006e6 <__aeabi_dmul+0xde>
 80009ca:	ea0c 5513 	and.w	r5, ip, r3, lsr #20
 80009ce:	ea94 0f0c 	teq	r4, ip
 80009d2:	bf08      	it	eq
 80009d4:	ea95 0f0c 	teqeq	r5, ip
 80009d8:	f43f af3b 	beq.w	8000852 <__aeabi_dmul+0x24a>
 80009dc:	ea94 0f0c 	teq	r4, ip
 80009e0:	d10a      	bne.n	80009f8 <__aeabi_ddiv+0x19c>
 80009e2:	ea50 3401 	orrs.w	r4, r0, r1, lsl #12
 80009e6:	f47f af34 	bne.w	8000852 <__aeabi_dmul+0x24a>
 80009ea:	ea95 0f0c 	teq	r5, ip
 80009ee:	f47f af25 	bne.w	800083c <__aeabi_dmul+0x234>
 80009f2:	4610      	mov	r0, r2
 80009f4:	4619      	mov	r1, r3
 80009f6:	e72c      	b.n	8000852 <__aeabi_dmul+0x24a>
 80009f8:	ea95 0f0c 	teq	r5, ip
 80009fc:	d106      	bne.n	8000a0c <__aeabi_ddiv+0x1b0>
 80009fe:	ea52 3503 	orrs.w	r5, r2, r3, lsl #12
 8000a02:	f43f aefd 	beq.w	8000800 <__aeabi_dmul+0x1f8>
 8000a06:	4610      	mov	r0, r2
 8000a08:	4619      	mov	r1, r3
 8000a0a:	e722      	b.n	8000852 <__aeabi_dmul+0x24a>
 8000a0c:	ea50 0641 	orrs.w	r6, r0, r1, lsl #1
 8000a10:	bf18      	it	ne
 8000a12:	ea52 0643 	orrsne.w	r6, r2, r3, lsl #1
 8000a16:	f47f aec5 	bne.w	80007a4 <__aeabi_dmul+0x19c>
 8000a1a:	ea50 0441 	orrs.w	r4, r0, r1, lsl #1
 8000a1e:	f47f af0d 	bne.w	800083c <__aeabi_dmul+0x234>
 8000a22:	ea52 0543 	orrs.w	r5, r2, r3, lsl #1
 8000a26:	f47f aeeb 	bne.w	8000800 <__aeabi_dmul+0x1f8>
 8000a2a:	e712      	b.n	8000852 <__aeabi_dmul+0x24a>

08000a2c <__gedf2>:
 8000a2c:	f04f 3cff 	mov.w	ip, #4294967295
 8000a30:	e006      	b.n	8000a40 <__cmpdf2+0x4>
 8000a32:	bf00      	nop

08000a34 <__ledf2>:
 8000a34:	f04f 0c01 	mov.w	ip, #1
 8000a38:	e002      	b.n	8000a40 <__cmpdf2+0x4>
 8000a3a:	bf00      	nop

08000a3c <__cmpdf2>:
 8000a3c:	f04f 0c01 	mov.w	ip, #1
 8000a40:	f84d cd04 	str.w	ip, [sp, #-4]!
 8000a44:	ea4f 0c41 	mov.w	ip, r1, lsl #1
 8000a48:	ea7f 5c6c 	mvns.w	ip, ip, asr #21
 8000a4c:	ea4f 0c43 	mov.w	ip, r3, lsl #1
 8000a50:	bf18      	it	ne
 8000a52:	ea7f 5c6c 	mvnsne.w	ip, ip, asr #21
 8000a56:	d01b      	beq.n	8000a90 <__cmpdf2+0x54>
 8000a58:	b001      	add	sp, #4
 8000a5a:	ea50 0c41 	orrs.w	ip, r0, r1, lsl #1
 8000a5e:	bf0c      	ite	eq
 8000a60:	ea52 0c43 	orrseq.w	ip, r2, r3, lsl #1
 8000a64:	ea91 0f03 	teqne	r1, r3
 8000a68:	bf02      	ittt	eq
 8000a6a:	ea90 0f02 	teqeq	r0, r2
 8000a6e:	2000      	moveq	r0, #0
 8000a70:	4770      	bxeq	lr
 8000a72:	f110 0f00 	cmn.w	r0, #0
 8000a76:	ea91 0f03 	teq	r1, r3
 8000a7a:	bf58      	it	pl
 8000a7c:	4299      	cmppl	r1, r3
 8000a7e:	bf08      	it	eq
 8000a80:	4290      	cmpeq	r0, r2
 8000a82:	bf2c      	ite	cs
 8000a84:	17d8      	asrcs	r0, r3, #31
 8000a86:	ea6f 70e3 	mvncc.w	r0, r3, asr #31
 8000a8a:	f040 0001 	orr.w	r0, r0, #1
 8000a8e:	4770      	bx	lr
 8000a90:	ea4f 0c41 	mov.w	ip, r1, lsl #1
 8000a94:	ea7f 5c6c 	mvns.w	ip, ip, asr #21
 8000a98:	d102      	bne.n	8000aa0 <__cmpdf2+0x64>
 8000a9a:	ea50 3c01 	orrs.w	ip, r0, r1, lsl #12
 8000a9e:	d107      	bne.n	8000ab0 <__cmpdf2+0x74>
 8000aa0:	ea4f 0c43 	mov.w	ip, r3, lsl #1
 8000aa4:	ea7f 5c6c 	mvns.w	ip, ip, asr #21
 8000aa8:	d1d6      	bne.n	8000a58 <__cmpdf2+0x1c>
 8000aaa:	ea52 3c03 	orrs.w	ip, r2, r3, lsl #12
 8000aae:	d0d3      	beq.n	8000a58 <__cmpdf2+0x1c>
 8000ab0:	f85d 0b04 	ldr.w	r0, [sp], #4
 8000ab4:	4770      	bx	lr
 8000ab6:	bf00      	nop

08000ab8 <__aeabi_cdrcmple>:
 8000ab8:	4684      	mov	ip, r0
 8000aba:	4610      	mov	r0, r2
 8000abc:	4662      	mov	r2, ip
 8000abe:	468c      	mov	ip, r1
 8000ac0:	4619      	mov	r1, r3
 8000ac2:	4663      	mov	r3, ip
 8000ac4:	e000      	b.n	8000ac8 <__aeabi_cdcmpeq>
 8000ac6:	bf00      	nop

08000ac8 <__aeabi_cdcmpeq>:
 8000ac8:	b501      	push	{r0, lr}
 8000aca:	f7ff ffb7 	bl	8000a3c <__cmpdf2>
 8000ace:	2800      	cmp	r0, #0
 8000ad0:	bf48      	it	mi
 8000ad2:	f110 0f00 	cmnmi.w	r0, #0
 8000ad6:	bd01      	pop	{r0, pc}

08000ad8 <__aeabi_dcmpeq>:
 8000ad8:	f84d ed08 	str.w	lr, [sp, #-8]!
 8000adc:	f7ff fff4 	bl	8000ac8 <__aeabi_cdcmpeq>
 8000ae0:	bf0c      	ite	eq
 8000ae2:	2001      	moveq	r0, #1
 8000ae4:	2000      	movne	r0, #0
 8000ae6:	f85d fb08 	ldr.w	pc, [sp], #8
 8000aea:	bf00      	nop

08000aec <__aeabi_dcmplt>:
 8000aec:	f84d ed08 	str.w	lr, [sp, #-8]!
 8000af0:	f7ff ffea 	bl	8000ac8 <__aeabi_cdcmpeq>
 8000af4:	bf34      	ite	cc
 8000af6:	2001      	movcc	r0, #1
 8000af8:	2000      	movcs	r0, #0
 8000afa:	f85d fb08 	ldr.w	pc, [sp], #8
 8000afe:	bf00      	nop

08000b00 <__aeabi_dcmple>:
 8000b00:	f84d ed08 	str.w	lr, [sp, #-8]!
 8000b04:	f7ff ffe0 	bl	8000ac8 <__aeabi_cdcmpeq>
 8000b08:	bf94      	ite	ls
 8000b0a:	2001      	movls	r0, #1
 8000b0c:	2000      	movhi	r0, #0
 8000b0e:	f85d fb08 	ldr.w	pc, [sp], #8
 8000b12:	bf00      	nop

08000b14 <__aeabi_dcmpge>:
 8000b14:	f84d ed08 	str.w	lr, [sp, #-8]!
 8000b18:	f7ff ffce 	bl	8000ab8 <__aeabi_cdrcmple>
 8000b1c:	bf94      	ite	ls
 8000b1e:	2001      	movls	r0, #1
 8000b20:	2000      	movhi	r0, #0
 8000b22:	f85d fb08 	ldr.w	pc, [sp], #8
 8000b26:	bf00      	nop

08000b28 <__aeabi_dcmpgt>:
 8000b28:	f84d ed08 	str.w	lr, [sp, #-8]!
 8000b2c:	f7ff ffc4 	bl	8000ab8 <__aeabi_cdrcmple>
 8000b30:	bf34      	ite	cc
 8000b32:	2001      	movcc	r0, #1
 8000b34:	2000      	movcs	r0, #0
 8000b36:	f85d fb08 	ldr.w	pc, [sp], #8
 8000b3a:	bf00      	nop

08000b3c <__aeabi_dcmpun>:
 8000b3c:	ea4f 0c41 	mov.w	ip, r1, lsl #1
 8000b40:	ea7f 5c6c 	mvns.w	ip, ip, asr #21
 8000b44:	d102      	bne.n	8000b4c <__aeabi_dcmpun+0x10>
 8000b46:	ea50 3c01 	orrs.w	ip, r0, r1, lsl #12
 8000b4a:	d10a      	bne.n	8000b62 <__aeabi_dcmpun+0x26>
 8000b4c:	ea4f 0c43 	mov.w	ip, r3, lsl #1
 8000b50:	ea7f 5c6c 	mvns.w	ip, ip, asr #21
 8000b54:	d102      	bne.n	8000b5c <__aeabi_dcmpun+0x20>
 8000b56:	ea52 3c03 	orrs.w	ip, r2, r3, lsl #12
 8000b5a:	d102      	bne.n	8000b62 <__aeabi_dcmpun+0x26>
 8000b5c:	f04f 0000 	mov.w	r0, #0
 8000b60:	4770      	bx	lr
 8000b62:	f04f 0001 	mov.w	r0, #1
 8000b66:	4770      	bx	lr

08000b68 <__aeabi_d2iz>:
 8000b68:	ea4f 0241 	mov.w	r2, r1, lsl #1
 8000b6c:	f512 1200 	adds.w	r2, r2, #2097152	; 0x200000
 8000b70:	d215      	bcs.n	8000b9e <__aeabi_d2iz+0x36>
 8000b72:	d511      	bpl.n	8000b98 <__aeabi_d2iz+0x30>
 8000b74:	f46f 7378 	mvn.w	r3, #992	; 0x3e0
 8000b78:	ebb3 5262 	subs.w	r2, r3, r2, asr #21
 8000b7c:	d912      	bls.n	8000ba4 <__aeabi_d2iz+0x3c>
 8000b7e:	ea4f 23c1 	mov.w	r3, r1, lsl #11
 8000b82:	f043 4300 	orr.w	r3, r3, #2147483648	; 0x80000000
 8000b86:	ea43 5350 	orr.w	r3, r3, r0, lsr #21
 8000b8a:	f011 4f00 	tst.w	r1, #2147483648	; 0x80000000
 8000b8e:	fa23 f002 	lsr.w	r0, r3, r2
 8000b92:	bf18      	it	ne
 8000b94:	4240      	negne	r0, r0
 8000b96:	4770      	bx	lr
 8000b98:	f04f 0000 	mov.w	r0, #0
 8000b9c:	4770      	bx	lr
 8000b9e:	ea50 3001 	orrs.w	r0, r0, r1, lsl #12
 8000ba2:	d105      	bne.n	8000bb0 <__aeabi_d2iz+0x48>
 8000ba4:	f011 4000 	ands.w	r0, r1, #2147483648	; 0x80000000
 8000ba8:	bf08      	it	eq
 8000baa:	f06f 4000 	mvneq.w	r0, #2147483648	; 0x80000000
 8000bae:	4770      	bx	lr
 8000bb0:	f04f 0000 	mov.w	r0, #0
 8000bb4:	4770      	bx	lr
 8000bb6:	bf00      	nop

08000bb8 <__aeabi_d2uiz>:
 8000bb8:	004a      	lsls	r2, r1, #1
 8000bba:	d211      	bcs.n	8000be0 <__aeabi_d2uiz+0x28>
 8000bbc:	f512 1200 	adds.w	r2, r2, #2097152	; 0x200000
 8000bc0:	d211      	bcs.n	8000be6 <__aeabi_d2uiz+0x2e>
 8000bc2:	d50d      	bpl.n	8000be0 <__aeabi_d2uiz+0x28>
 8000bc4:	f46f 7378 	mvn.w	r3, #992	; 0x3e0
 8000bc8:	ebb3 5262 	subs.w	r2, r3, r2, asr #21
 8000bcc:	d40e      	bmi.n	8000bec <__aeabi_d2uiz+0x34>
 8000bce:	ea4f 23c1 	mov.w	r3, r1, lsl #11
 8000bd2:	f043 4300 	orr.w	r3, r3, #2147483648	; 0x80000000
 8000bd6:	ea43 5350 	orr.w	r3, r3, r0, lsr #21
 8000bda:	fa23 f002 	lsr.w	r0, r3, r2
 8000bde:	4770      	bx	lr
 8000be0:	f04f 0000 	mov.w	r0, #0
 8000be4:	4770      	bx	lr
 8000be6:	ea50 3001 	orrs.w	r0, r0, r1, lsl #12
 8000bea:	d102      	bne.n	8000bf2 <__aeabi_d2uiz+0x3a>
 8000bec:	f04f 30ff 	mov.w	r0, #4294967295
 8000bf0:	4770      	bx	lr
 8000bf2:	f04f 0000 	mov.w	r0, #0
 8000bf6:	4770      	bx	lr

08000bf8 <__aeabi_d2f>:
 8000bf8:	ea4f 0241 	mov.w	r2, r1, lsl #1
 8000bfc:	f1b2 43e0 	subs.w	r3, r2, #1879048192	; 0x70000000
 8000c00:	bf24      	itt	cs
 8000c02:	f5b3 1c00 	subscs.w	ip, r3, #2097152	; 0x200000
 8000c06:	f1dc 5cfe 	rsbscs	ip, ip, #532676608	; 0x1fc00000
 8000c0a:	d90d      	bls.n	8000c28 <__aeabi_d2f+0x30>
 8000c0c:	f001 4c00 	and.w	ip, r1, #2147483648	; 0x80000000
 8000c10:	ea4f 02c0 	mov.w	r2, r0, lsl #3
 8000c14:	ea4c 7050 	orr.w	r0, ip, r0, lsr #29
 8000c18:	f1b2 4f00 	cmp.w	r2, #2147483648	; 0x80000000
 8000c1c:	eb40 0083 	adc.w	r0, r0, r3, lsl #2
 8000c20:	bf08      	it	eq
 8000c22:	f020 0001 	biceq.w	r0, r0, #1
 8000c26:	4770      	bx	lr
 8000c28:	f011 4f80 	tst.w	r1, #1073741824	; 0x40000000
 8000c2c:	d121      	bne.n	8000c72 <__aeabi_d2f+0x7a>
 8000c2e:	f113 7238 	adds.w	r2, r3, #48234496	; 0x2e00000
 8000c32:	bfbc      	itt	lt
 8000c34:	f001 4000 	andlt.w	r0, r1, #2147483648	; 0x80000000
 8000c38:	4770      	bxlt	lr
 8000c3a:	f441 1180 	orr.w	r1, r1, #1048576	; 0x100000
 8000c3e:	ea4f 5252 	mov.w	r2, r2, lsr #21
 8000c42:	f1c2 0218 	rsb	r2, r2, #24
 8000c46:	f1c2 0c20 	rsb	ip, r2, #32
 8000c4a:	fa10 f30c 	lsls.w	r3, r0, ip
 8000c4e:	fa20 f002 	lsr.w	r0, r0, r2
 8000c52:	bf18      	it	ne
 8000c54:	f040 0001 	orrne.w	r0, r0, #1
 8000c58:	ea4f 23c1 	mov.w	r3, r1, lsl #11
 8000c5c:	ea4f 23d3 	mov.w	r3, r3, lsr #11
 8000c60:	fa03 fc0c 	lsl.w	ip, r3, ip
 8000c64:	ea40 000c 	orr.w	r0, r0, ip
 8000c68:	fa23 f302 	lsr.w	r3, r3, r2
 8000c6c:	ea4f 0343 	mov.w	r3, r3, lsl #1
 8000c70:	e7cc      	b.n	8000c0c <__aeabi_d2f+0x14>
 8000c72:	ea7f 5362 	mvns.w	r3, r2, asr #21
 8000c76:	d107      	bne.n	8000c88 <__aeabi_d2f+0x90>
 8000c78:	ea50 3301 	orrs.w	r3, r0, r1, lsl #12
 8000c7c:	bf1e      	ittt	ne
 8000c7e:	f04f 40fe 	movne.w	r0, #2130706432	; 0x7f000000
 8000c82:	f440 0040 	orrne.w	r0, r0, #12582912	; 0xc00000
 8000c86:	4770      	bxne	lr
 8000c88:	f001 4000 	and.w	r0, r1, #2147483648	; 0x80000000
 8000c8c:	f040 40fe 	orr.w	r0, r0, #2130706432	; 0x7f000000
 8000c90:	f440 0000 	orr.w	r0, r0, #8388608	; 0x800000
 8000c94:	4770      	bx	lr
 8000c96:	bf00      	nop

08000c98 <main>:
// VARIABLES VARIAS DEL ROBOT
#define fixed_dutty 28 // Fixed dutty cycle, velocidad constante
#define fixed_sample_period 16 // Periodo en milisegundos de muestreo de datos de encoder

int main(void)
{
 8000c98:	b580      	push	{r7, lr}
 8000c9a:	af00      	add	r7, sp, #0

	//Activamos el FPU o la unidad de punto flotante
 	SCB -> CPACR |= (0xF << 20);
 8000c9c:	4b3a      	ldr	r3, [pc, #232]	; (8000d88 <main+0xf0>)
 8000c9e:	f8d3 3088 	ldr.w	r3, [r3, #136]	; 0x88
 8000ca2:	4a39      	ldr	r2, [pc, #228]	; (8000d88 <main+0xf0>)
 8000ca4:	f443 0370 	orr.w	r3, r3, #15728640	; 0xf00000
 8000ca8:	f8c2 3088 	str.w	r3, [r2, #136]	; 0x88
	RCC_enableMaxFrequencies(RCC_100MHz);
 8000cac:	2008      	movs	r0, #8
 8000cae:	f003 fbc5 	bl	800443c <RCC_enableMaxFrequencies>
	inSystem ();
 8000cb2:	f000 f88d 	bl	8000dd0 <inSystem>

	//Calculamos el setpoint en la que queremos que el robot controle la velocidad de cada motor
	velSetPoint = (0.00169*fixed_dutty + 0.0619);
 8000cb6:	4b35      	ldr	r3, [pc, #212]	; (8000d8c <main+0xf4>)
 8000cb8:	4a35      	ldr	r2, [pc, #212]	; (8000d90 <main+0xf8>)
 8000cba:	601a      	str	r2, [r3, #0]

	On_motor_Straigh_Roll(handler_Motor_Array, *((uint8_t *) NULL), SET, sLine);
 8000cbc:	2300      	movs	r3, #0
 8000cbe:	7819      	ldrb	r1, [r3, #0]
 8000cc0:	2300      	movs	r3, #0
 8000cc2:	2201      	movs	r2, #1
 8000cc4:	4833      	ldr	r0, [pc, #204]	; (8000d94 <main+0xfc>)
 8000cc6:	f000 fcf9 	bl	80016bc <On_motor_Straigh_Roll>
//	cal_Gyro = calibracionGyros(&handler_MPUAccel_6050, CALIB_Z);

    /* Loop forever */
	while(1){

		if (rxData != '\0'){
 8000cca:	4b33      	ldr	r3, [pc, #204]	; (8000d98 <main+0x100>)
 8000ccc:	781b      	ldrb	r3, [r3, #0]
 8000cce:	2b00      	cmp	r3, #0
 8000cd0:	d036      	beq.n	8000d40 <main+0xa8>
			writeChar(&handlerUSART, rxData);
 8000cd2:	4b31      	ldr	r3, [pc, #196]	; (8000d98 <main+0x100>)
 8000cd4:	781b      	ldrb	r3, [r3, #0]
 8000cd6:	4619      	mov	r1, r3
 8000cd8:	4830      	ldr	r0, [pc, #192]	; (8000d9c <main+0x104>)
 8000cda:	f004 facb 	bl	8005274 <writeChar>
			bufferReception[counterReception] = rxData;
 8000cde:	4b30      	ldr	r3, [pc, #192]	; (8000da0 <main+0x108>)
 8000ce0:	781b      	ldrb	r3, [r3, #0]
 8000ce2:	461a      	mov	r2, r3
 8000ce4:	4b2c      	ldr	r3, [pc, #176]	; (8000d98 <main+0x100>)
 8000ce6:	7819      	ldrb	r1, [r3, #0]
 8000ce8:	4b2e      	ldr	r3, [pc, #184]	; (8000da4 <main+0x10c>)
 8000cea:	5499      	strb	r1, [r3, r2]
			counterReception++;
 8000cec:	4b2c      	ldr	r3, [pc, #176]	; (8000da0 <main+0x108>)
 8000cee:	781b      	ldrb	r3, [r3, #0]
 8000cf0:	3301      	adds	r3, #1
 8000cf2:	b2da      	uxtb	r2, r3
 8000cf4:	4b2a      	ldr	r3, [pc, #168]	; (8000da0 <main+0x108>)
 8000cf6:	701a      	strb	r2, [r3, #0]

			if (rxData == '@'){
 8000cf8:	4b27      	ldr	r3, [pc, #156]	; (8000d98 <main+0x100>)
 8000cfa:	781b      	ldrb	r3, [r3, #0]
 8000cfc:	2b40      	cmp	r3, #64	; 0x40
 8000cfe:	d10c      	bne.n	8000d1a <main+0x82>
				doneTransaction = SET;
 8000d00:	4b29      	ldr	r3, [pc, #164]	; (8000da8 <main+0x110>)
 8000d02:	2201      	movs	r2, #1
 8000d04:	701a      	strb	r2, [r3, #0]

				bufferReception[counterReception-1] = '\0';
 8000d06:	4b26      	ldr	r3, [pc, #152]	; (8000da0 <main+0x108>)
 8000d08:	781b      	ldrb	r3, [r3, #0]
 8000d0a:	3b01      	subs	r3, #1
 8000d0c:	4a25      	ldr	r2, [pc, #148]	; (8000da4 <main+0x10c>)
 8000d0e:	2100      	movs	r1, #0
 8000d10:	54d1      	strb	r1, [r2, r3]

				counterReception = 0;
 8000d12:	4b23      	ldr	r3, [pc, #140]	; (8000da0 <main+0x108>)
 8000d14:	2200      	movs	r2, #0
 8000d16:	701a      	strb	r2, [r3, #0]
 8000d18:	e00f      	b.n	8000d3a <main+0xa2>

			}else if (rxData == 'z'){
 8000d1a:	4b1f      	ldr	r3, [pc, #124]	; (8000d98 <main+0x100>)
 8000d1c:	781b      	ldrb	r3, [r3, #0]
 8000d1e:	2b7a      	cmp	r3, #122	; 0x7a
 8000d20:	d10b      	bne.n	8000d3a <main+0xa2>

				memset(bufferReception, 0, sizeof(bufferReception));
 8000d22:	2240      	movs	r2, #64	; 0x40
 8000d24:	2100      	movs	r1, #0
 8000d26:	481f      	ldr	r0, [pc, #124]	; (8000da4 <main+0x10c>)
 8000d28:	f004 fe7a 	bl	8005a20 <memset>
				counterReception = 0;
 8000d2c:	4b1c      	ldr	r3, [pc, #112]	; (8000da0 <main+0x108>)
 8000d2e:	2200      	movs	r2, #0
 8000d30:	701a      	strb	r2, [r3, #0]
				writeMsg(&handlerUSART, "Buffer Vaciado\n \r");
 8000d32:	491e      	ldr	r1, [pc, #120]	; (8000dac <main+0x114>)
 8000d34:	4819      	ldr	r0, [pc, #100]	; (8000d9c <main+0x104>)
 8000d36:	f004 fab5 	bl	80052a4 <writeMsg>
			}

				rxData = '\0';
 8000d3a:	4b17      	ldr	r3, [pc, #92]	; (8000d98 <main+0x100>)
 8000d3c:	2200      	movs	r2, #0
 8000d3e:	701a      	strb	r2, [r3, #0]

		////////////////////////////////////////BLOQUE DE MEDICION Y CONTROL//////////////////////////////////////////////////////


		//En este primera medicion se mide el el angulo actual del robot con respecto a una referencia.
		if (flag_angulo){
 8000d40:	4b1b      	ldr	r3, [pc, #108]	; (8000db0 <main+0x118>)
 8000d42:	781b      	ldrb	r3, [r3, #0]
 8000d44:	2b00      	cmp	r3, #0
 8000d46:	d00f      	beq.n	8000d68 <main+0xd0>

			// Medimos el angulo actual
			getAngle(&handler_MPUAccel_6050, 0, cal_Gyro, &parameters_Pos_Robot);
 8000d48:	4b1a      	ldr	r3, [pc, #104]	; (8000db4 <main+0x11c>)
 8000d4a:	ed93 7b00 	vldr	d7, [r3]
 8000d4e:	491a      	ldr	r1, [pc, #104]	; (8000db8 <main+0x120>)
 8000d50:	eeb0 1a47 	vmov.f32	s2, s14
 8000d54:	eef0 1a67 	vmov.f32	s3, s15
 8000d58:	ed9f 0a18 	vldr	s0, [pc, #96]	; 8000dbc <main+0x124>
 8000d5c:	4818      	ldr	r0, [pc, #96]	; (8000dc0 <main+0x128>)
 8000d5e:	f000 faa5 	bl	80012ac <getAngle>
			// bajamos la bandera
			flag_angulo = RESET;
 8000d62:	4b13      	ldr	r3, [pc, #76]	; (8000db0 <main+0x118>)
 8000d64:	2200      	movs	r2, #0
 8000d66:	701a      	strb	r2, [r3, #0]
		}
		// En la siguiente medicion medimos todos los parametros necesarios para el control posterior
		if (flag_measurements){
 8000d68:	4b16      	ldr	r3, [pc, #88]	; (8000dc4 <main+0x12c>)
 8000d6a:	781b      	ldrb	r3, [r3, #0]
 8000d6c:	2b00      	cmp	r3, #0
 8000d6e:	d0ac      	beq.n	8000cca <main+0x32>

			// Medimos el angulo actual
			get_measuremets_parameters(&handlerTIM2_PARAMETROS_MOVIMIENTO, handler_Motor_Array, &parameters_Pos_Robot, Mode);
 8000d70:	4b15      	ldr	r3, [pc, #84]	; (8000dc8 <main+0x130>)
 8000d72:	781b      	ldrb	r3, [r3, #0]
 8000d74:	4a10      	ldr	r2, [pc, #64]	; (8000db8 <main+0x120>)
 8000d76:	4907      	ldr	r1, [pc, #28]	; (8000d94 <main+0xfc>)
 8000d78:	4814      	ldr	r0, [pc, #80]	; (8000dcc <main+0x134>)
 8000d7a:	f000 fad5 	bl	8001328 <get_measuremets_parameters>
			// bajamos la bandera
			flag_measurements = RESET;
 8000d7e:	4b11      	ldr	r3, [pc, #68]	; (8000dc4 <main+0x12c>)
 8000d80:	2200      	movs	r2, #0
 8000d82:	701a      	strb	r2, [r3, #0]
		if (rxData != '\0'){
 8000d84:	e7a1      	b.n	8000cca <main+0x32>
 8000d86:	bf00      	nop
 8000d88:	e000ed00 	.word	0xe000ed00
 8000d8c:	20000488 	.word	0x20000488
 8000d90:	3ddfaebc 	.word	0x3ddfaebc
 8000d94:	200003c4 	.word	0x200003c4
 8000d98:	2000040e 	.word	0x2000040e
 8000d9c:	20000314 	.word	0x20000314
 8000da0:	2000040c 	.word	0x2000040c
 8000da4:	200003cc 	.word	0x200003cc
 8000da8:	2000040d 	.word	0x2000040d
 8000dac:	0800a848 	.word	0x0800a848
 8000db0:	20000411 	.word	0x20000411
 8000db4:	20000468 	.word	0x20000468
 8000db8:	20000420 	.word	0x20000420
 8000dbc:	00000000 	.word	0x00000000
 8000dc0:	200003b4 	.word	0x200003b4
 8000dc4:	20000412 	.word	0x20000412
 8000dc8:	2000040f 	.word	0x2000040f
 8000dcc:	200002bc 	.word	0x200002bc

08000dd0 <inSystem>:

	}
}


void inSystem (void){
 8000dd0:	b580      	push	{r7, lr}
 8000dd2:	af00      	add	r7, sp, #0
//	handlerMCO2Show.GPIO_PinConfig.GPIO_PinMode        = GPIO_MODE_ALTFN;
//	GPIO_Config(&handlerMCO2Show);

	//BLINKY LED

	handlerPinA5.pGPIOx = GPIOA;
 8000dd4:	4bb0      	ldr	r3, [pc, #704]	; (8001098 <inSystem+0x2c8>)
 8000dd6:	4ab1      	ldr	r2, [pc, #708]	; (800109c <inSystem+0x2cc>)
 8000dd8:	601a      	str	r2, [r3, #0]
	handlerPinA5.GPIO_PinConfig.GPIO_PinAltFunMode = AF0;
 8000dda:	4baf      	ldr	r3, [pc, #700]	; (8001098 <inSystem+0x2c8>)
 8000ddc:	2200      	movs	r2, #0
 8000dde:	725a      	strb	r2, [r3, #9]
	handlerPinA5.GPIO_PinConfig.GPIO_PinMode = GPIO_MODE_OUT;
 8000de0:	4bad      	ldr	r3, [pc, #692]	; (8001098 <inSystem+0x2c8>)
 8000de2:	2201      	movs	r2, #1
 8000de4:	715a      	strb	r2, [r3, #5]
	handlerPinA5.GPIO_PinConfig.GPIO_PinOPType = GPIO_OTYPE_PUSHPULL;
 8000de6:	4bac      	ldr	r3, [pc, #688]	; (8001098 <inSystem+0x2c8>)
 8000de8:	2200      	movs	r2, #0
 8000dea:	721a      	strb	r2, [r3, #8]
	handlerPinA5.GPIO_PinConfig.GPIO_PinNumber = PIN_5;
 8000dec:	4baa      	ldr	r3, [pc, #680]	; (8001098 <inSystem+0x2c8>)
 8000dee:	2205      	movs	r2, #5
 8000df0:	711a      	strb	r2, [r3, #4]
	handlerPinA5.GPIO_PinConfig.GPIO_PinPuPdControl = GPIO_PUPDR_NOTHING;
 8000df2:	4ba9      	ldr	r3, [pc, #676]	; (8001098 <inSystem+0x2c8>)
 8000df4:	2200      	movs	r2, #0
 8000df6:	71da      	strb	r2, [r3, #7]
	handlerPinA5.GPIO_PinConfig.GPIO_PinSpeed = GPIO_OSPEEDR_FAST;
 8000df8:	4ba7      	ldr	r3, [pc, #668]	; (8001098 <inSystem+0x2c8>)
 8000dfa:	2202      	movs	r2, #2
 8000dfc:	719a      	strb	r2, [r3, #6]
	GPIO_Config(&handlerPinA5);
 8000dfe:	48a6      	ldr	r0, [pc, #664]	; (8001098 <inSystem+0x2c8>)
 8000e00:	f002 fab6 	bl	8003370 <GPIO_Config>
	GPIO_WritePin(&handlerPinA5, SET);
 8000e04:	2101      	movs	r1, #1
 8000e06:	48a4      	ldr	r0, [pc, #656]	; (8001098 <inSystem+0x2c8>)
 8000e08:	f002 fbdc 	bl	80035c4 <GPIO_WritePin>

	handlerTimerBlinky.ptrTIMx                           = TIM3;
 8000e0c:	4ba4      	ldr	r3, [pc, #656]	; (80010a0 <inSystem+0x2d0>)
 8000e0e:	4aa5      	ldr	r2, [pc, #660]	; (80010a4 <inSystem+0x2d4>)
 8000e10:	601a      	str	r2, [r3, #0]
	handlerTimerBlinky.TIMx_Config.TIMx_interruptEnable  = BTIMER_ENABLE_INTERRUPT;
 8000e12:	4ba3      	ldr	r3, [pc, #652]	; (80010a0 <inSystem+0x2d0>)
 8000e14:	2201      	movs	r2, #1
 8000e16:	741a      	strb	r2, [r3, #16]
	handlerTimerBlinky.TIMx_Config.TIMx_mode             = BTIMER_MODE_UP;
 8000e18:	4ba1      	ldr	r3, [pc, #644]	; (80010a0 <inSystem+0x2d0>)
 8000e1a:	2200      	movs	r2, #0
 8000e1c:	711a      	strb	r2, [r3, #4]
	handlerTimerBlinky.TIMx_Config.TIMx_speed            = BTIMER_SPEED_100MHz_100us;
 8000e1e:	4ba0      	ldr	r3, [pc, #640]	; (80010a0 <inSystem+0x2d0>)
 8000e20:	f242 7210 	movw	r2, #10000	; 0x2710
 8000e24:	609a      	str	r2, [r3, #8]
	handlerTimerBlinky.TIMx_Config.TIMx_period           = 500;
 8000e26:	4b9e      	ldr	r3, [pc, #632]	; (80010a0 <inSystem+0x2d0>)
 8000e28:	f44f 72fa 	mov.w	r2, #500	; 0x1f4
 8000e2c:	60da      	str	r2, [r3, #12]
	BasicTimer_Config(&handlerTimerBlinky);
 8000e2e:	489c      	ldr	r0, [pc, #624]	; (80010a0 <inSystem+0x2d0>)
 8000e30:	f000 fe7c 	bl	8001b2c <BasicTimer_Config>
	startTimer(&handlerTimerBlinky);
 8000e34:	489a      	ldr	r0, [pc, #616]	; (80010a0 <inSystem+0x2d0>)
 8000e36:	f001 fa3d 	bl	80022b4 <startTimer>


	// DEFINICION DEL TIM4 PARA DELAY
	inTIM4();
 8000e3a:	f000 fe5b 	bl	8001af4 <inTIM4>
	//////////////////////////////////////////////////// Velocidad de motores //////////////////////////////////////////////


	//PWM
	// PWM motor 1
	handlerPinPwm_1.pGPIOx                             = GPIOA;
 8000e3e:	4b9a      	ldr	r3, [pc, #616]	; (80010a8 <inSystem+0x2d8>)
 8000e40:	4a96      	ldr	r2, [pc, #600]	; (800109c <inSystem+0x2cc>)
 8000e42:	601a      	str	r2, [r3, #0]
	handlerPinPwm_1.GPIO_PinConfig.GPIO_PinAltFunMode  = AF2;
 8000e44:	4b98      	ldr	r3, [pc, #608]	; (80010a8 <inSystem+0x2d8>)
 8000e46:	2202      	movs	r2, #2
 8000e48:	725a      	strb	r2, [r3, #9]
	handlerPinPwm_1.GPIO_PinConfig.GPIO_PinMode        = GPIO_MODE_ALTFN;
 8000e4a:	4b97      	ldr	r3, [pc, #604]	; (80010a8 <inSystem+0x2d8>)
 8000e4c:	2202      	movs	r2, #2
 8000e4e:	715a      	strb	r2, [r3, #5]
	handlerPinPwm_1.GPIO_PinConfig.GPIO_PinOPType      = GPIO_OTYPE_PUSHPULL;
 8000e50:	4b95      	ldr	r3, [pc, #596]	; (80010a8 <inSystem+0x2d8>)
 8000e52:	2200      	movs	r2, #0
 8000e54:	721a      	strb	r2, [r3, #8]
	handlerPinPwm_1.GPIO_PinConfig.GPIO_PinNumber      = PIN_0;
 8000e56:	4b94      	ldr	r3, [pc, #592]	; (80010a8 <inSystem+0x2d8>)
 8000e58:	2200      	movs	r2, #0
 8000e5a:	711a      	strb	r2, [r3, #4]
	handlerPinPwm_1.GPIO_PinConfig.GPIO_PinPuPdControl = GPIO_PUPDR_NOTHING;
 8000e5c:	4b92      	ldr	r3, [pc, #584]	; (80010a8 <inSystem+0x2d8>)
 8000e5e:	2200      	movs	r2, #0
 8000e60:	71da      	strb	r2, [r3, #7]
	handlerPinPwm_1.GPIO_PinConfig.GPIO_PinSpeed       = GPIO_OSPEEDR_FAST;
 8000e62:	4b91      	ldr	r3, [pc, #580]	; (80010a8 <inSystem+0x2d8>)
 8000e64:	2202      	movs	r2, #2
 8000e66:	719a      	strb	r2, [r3, #6]
	GPIO_Config(&handlerPinPwm_1);
 8000e68:	488f      	ldr	r0, [pc, #572]	; (80010a8 <inSystem+0x2d8>)
 8000e6a:	f002 fa81 	bl	8003370 <GPIO_Config>

	handlerPWM_1.ptrTIMx            = TIM5;
 8000e6e:	4b8f      	ldr	r3, [pc, #572]	; (80010ac <inSystem+0x2dc>)
 8000e70:	4a8f      	ldr	r2, [pc, #572]	; (80010b0 <inSystem+0x2e0>)
 8000e72:	601a      	str	r2, [r3, #0]
	handlerPWM_1.config.channel     = PWM_CHANNEL_1;
 8000e74:	4b8d      	ldr	r3, [pc, #564]	; (80010ac <inSystem+0x2dc>)
 8000e76:	2200      	movs	r2, #0
 8000e78:	711a      	strb	r2, [r3, #4]
	handlerPWM_1.config.duttyCicle  = 0;
 8000e7a:	4b8c      	ldr	r3, [pc, #560]	; (80010ac <inSystem+0x2dc>)
 8000e7c:	f04f 0200 	mov.w	r2, #0
 8000e80:	611a      	str	r2, [r3, #16]
//	counter = 50;
	handlerPWM_1.config.periodo     = 40; // se maneja 25 hz por testeo
 8000e82:	4b8a      	ldr	r3, [pc, #552]	; (80010ac <inSystem+0x2dc>)
 8000e84:	2228      	movs	r2, #40	; 0x28
 8000e86:	819a      	strh	r2, [r3, #12]
	handlerPWM_1.config.prescaler   = PWM_SPEED_100MHz_1us;
 8000e88:	4b88      	ldr	r3, [pc, #544]	; (80010ac <inSystem+0x2dc>)
 8000e8a:	2264      	movs	r2, #100	; 0x64
 8000e8c:	609a      	str	r2, [r3, #8]
	handlerPWM_1.config.polarity    = PWM_ENABLE_POLARITY;
 8000e8e:	4b87      	ldr	r3, [pc, #540]	; (80010ac <inSystem+0x2dc>)
 8000e90:	2201      	movs	r2, #1
 8000e92:	751a      	strb	r2, [r3, #20]
	handlerPWM_1.config.optocoupler = PWM_ENABLE_OPTOCOUPLER;
 8000e94:	4b85      	ldr	r3, [pc, #532]	; (80010ac <inSystem+0x2dc>)
 8000e96:	2201      	movs	r2, #1
 8000e98:	755a      	strb	r2, [r3, #21]
	pwm_Config(&handlerPWM_1);
 8000e9a:	4884      	ldr	r0, [pc, #528]	; (80010ac <inSystem+0x2dc>)
 8000e9c:	f002 fe32 	bl	8003b04 <pwm_Config>
	startPwmSignal(&handlerPWM_1);
 8000ea0:	4882      	ldr	r0, [pc, #520]	; (80010ac <inSystem+0x2dc>)
 8000ea2:	f002 ff19 	bl	8003cd8 <startPwmSignal>

	//PWM motor 2
	handlerPinPwm_2.pGPIOx                             = GPIOA;
 8000ea6:	4b83      	ldr	r3, [pc, #524]	; (80010b4 <inSystem+0x2e4>)
 8000ea8:	4a7c      	ldr	r2, [pc, #496]	; (800109c <inSystem+0x2cc>)
 8000eaa:	601a      	str	r2, [r3, #0]
	handlerPinPwm_2.GPIO_PinConfig.GPIO_PinAltFunMode  = AF2;
 8000eac:	4b81      	ldr	r3, [pc, #516]	; (80010b4 <inSystem+0x2e4>)
 8000eae:	2202      	movs	r2, #2
 8000eb0:	725a      	strb	r2, [r3, #9]
	handlerPinPwm_2.GPIO_PinConfig.GPIO_PinMode        = GPIO_MODE_ALTFN;
 8000eb2:	4b80      	ldr	r3, [pc, #512]	; (80010b4 <inSystem+0x2e4>)
 8000eb4:	2202      	movs	r2, #2
 8000eb6:	715a      	strb	r2, [r3, #5]
	handlerPinPwm_2.GPIO_PinConfig.GPIO_PinOPType      = GPIO_OTYPE_PUSHPULL;
 8000eb8:	4b7e      	ldr	r3, [pc, #504]	; (80010b4 <inSystem+0x2e4>)
 8000eba:	2200      	movs	r2, #0
 8000ebc:	721a      	strb	r2, [r3, #8]
	handlerPinPwm_2.GPIO_PinConfig.GPIO_PinNumber      = PIN_1;
 8000ebe:	4b7d      	ldr	r3, [pc, #500]	; (80010b4 <inSystem+0x2e4>)
 8000ec0:	2201      	movs	r2, #1
 8000ec2:	711a      	strb	r2, [r3, #4]
	handlerPinPwm_2.GPIO_PinConfig.GPIO_PinPuPdControl = GPIO_PUPDR_NOTHING;
 8000ec4:	4b7b      	ldr	r3, [pc, #492]	; (80010b4 <inSystem+0x2e4>)
 8000ec6:	2200      	movs	r2, #0
 8000ec8:	71da      	strb	r2, [r3, #7]
	handlerPinPwm_2.GPIO_PinConfig.GPIO_PinSpeed       = GPIO_OSPEEDR_FAST;
 8000eca:	4b7a      	ldr	r3, [pc, #488]	; (80010b4 <inSystem+0x2e4>)
 8000ecc:	2202      	movs	r2, #2
 8000ece:	719a      	strb	r2, [r3, #6]
	GPIO_Config(&handlerPinPwm_2);
 8000ed0:	4878      	ldr	r0, [pc, #480]	; (80010b4 <inSystem+0x2e4>)
 8000ed2:	f002 fa4d 	bl	8003370 <GPIO_Config>

	handlerPWM_2.ptrTIMx            = TIM5;
 8000ed6:	4b78      	ldr	r3, [pc, #480]	; (80010b8 <inSystem+0x2e8>)
 8000ed8:	4a75      	ldr	r2, [pc, #468]	; (80010b0 <inSystem+0x2e0>)
 8000eda:	601a      	str	r2, [r3, #0]
	handlerPWM_2.config.channel     = PWM_CHANNEL_2;
 8000edc:	4b76      	ldr	r3, [pc, #472]	; (80010b8 <inSystem+0x2e8>)
 8000ede:	2201      	movs	r2, #1
 8000ee0:	711a      	strb	r2, [r3, #4]
	handlerPWM_2.config.duttyCicle  = 0;
 8000ee2:	4b75      	ldr	r3, [pc, #468]	; (80010b8 <inSystem+0x2e8>)
 8000ee4:	f04f 0200 	mov.w	r2, #0
 8000ee8:	611a      	str	r2, [r3, #16]
	handlerPWM_2.config.periodo     = 40;// se maneja 25 hz por testeo
 8000eea:	4b73      	ldr	r3, [pc, #460]	; (80010b8 <inSystem+0x2e8>)
 8000eec:	2228      	movs	r2, #40	; 0x28
 8000eee:	819a      	strh	r2, [r3, #12]
	handlerPWM_2.config.prescaler   = PWM_SPEED_100MHz_1us;
 8000ef0:	4b71      	ldr	r3, [pc, #452]	; (80010b8 <inSystem+0x2e8>)
 8000ef2:	2264      	movs	r2, #100	; 0x64
 8000ef4:	609a      	str	r2, [r3, #8]
	handlerPWM_2.config.polarity    = PWM_ENABLE_POLARITY;
 8000ef6:	4b70      	ldr	r3, [pc, #448]	; (80010b8 <inSystem+0x2e8>)
 8000ef8:	2201      	movs	r2, #1
 8000efa:	751a      	strb	r2, [r3, #20]
	handlerPWM_2.config.optocoupler = PWM_ENABLE_OPTOCOUPLER;
 8000efc:	4b6e      	ldr	r3, [pc, #440]	; (80010b8 <inSystem+0x2e8>)
 8000efe:	2201      	movs	r2, #1
 8000f00:	755a      	strb	r2, [r3, #21]
	pwm_Config(&handlerPWM_2);
 8000f02:	486d      	ldr	r0, [pc, #436]	; (80010b8 <inSystem+0x2e8>)
 8000f04:	f002 fdfe 	bl	8003b04 <pwm_Config>
	startPwmSignal(&handlerPWM_2);
 8000f08:	486b      	ldr	r0, [pc, #428]	; (80010b8 <inSystem+0x2e8>)
 8000f0a:	f002 fee5 	bl	8003cd8 <startPwmSignal>

	////////////////////////////////////// Enable 1 y 2, encendido y apagado de motores //////////////////////////////////////////////



	handlerEn1PinC10.pGPIOx                             = GPIOC;
 8000f0e:	4b6b      	ldr	r3, [pc, #428]	; (80010bc <inSystem+0x2ec>)
 8000f10:	4a6b      	ldr	r2, [pc, #428]	; (80010c0 <inSystem+0x2f0>)
 8000f12:	601a      	str	r2, [r3, #0]
	handlerEn1PinC10.GPIO_PinConfig.GPIO_PinAltFunMode  = AF0;
 8000f14:	4b69      	ldr	r3, [pc, #420]	; (80010bc <inSystem+0x2ec>)
 8000f16:	2200      	movs	r2, #0
 8000f18:	725a      	strb	r2, [r3, #9]
	handlerEn1PinC10.GPIO_PinConfig.GPIO_PinMode        = GPIO_MODE_OUT;
 8000f1a:	4b68      	ldr	r3, [pc, #416]	; (80010bc <inSystem+0x2ec>)
 8000f1c:	2201      	movs	r2, #1
 8000f1e:	715a      	strb	r2, [r3, #5]
	handlerEn1PinC10.GPIO_PinConfig.GPIO_PinNumber      = PIN_10;
 8000f20:	4b66      	ldr	r3, [pc, #408]	; (80010bc <inSystem+0x2ec>)
 8000f22:	220a      	movs	r2, #10
 8000f24:	711a      	strb	r2, [r3, #4]
	handlerEn1PinC10.GPIO_PinConfig.GPIO_PinOPType      = GPIO_OTYPE_PUSHPULL;
 8000f26:	4b65      	ldr	r3, [pc, #404]	; (80010bc <inSystem+0x2ec>)
 8000f28:	2200      	movs	r2, #0
 8000f2a:	721a      	strb	r2, [r3, #8]
	handlerEn1PinC10.GPIO_PinConfig.GPIO_PinPuPdControl = GPIO_PUPDR_NOTHING;
 8000f2c:	4b63      	ldr	r3, [pc, #396]	; (80010bc <inSystem+0x2ec>)
 8000f2e:	2200      	movs	r2, #0
 8000f30:	71da      	strb	r2, [r3, #7]
	handlerEn1PinC10.GPIO_PinConfig.GPIO_PinSpeed       = GPIO_OSPEEDR_FAST;
 8000f32:	4b62      	ldr	r3, [pc, #392]	; (80010bc <inSystem+0x2ec>)
 8000f34:	2202      	movs	r2, #2
 8000f36:	719a      	strb	r2, [r3, #6]
	GPIO_Config(&handlerEn1PinC10);
 8000f38:	4860      	ldr	r0, [pc, #384]	; (80010bc <inSystem+0x2ec>)
 8000f3a:	f002 fa19 	bl	8003370 <GPIO_Config>
	GPIO_WritePin_Afopt(&handlerEn1PinC10, RESET);
 8000f3e:	2100      	movs	r1, #0
 8000f40:	485e      	ldr	r0, [pc, #376]	; (80010bc <inSystem+0x2ec>)
 8000f42:	f002 fb6a 	bl	800361a <GPIO_WritePin_Afopt>

	handlerEn2PinC11.pGPIOx                             = GPIOC;
 8000f46:	4b5f      	ldr	r3, [pc, #380]	; (80010c4 <inSystem+0x2f4>)
 8000f48:	4a5d      	ldr	r2, [pc, #372]	; (80010c0 <inSystem+0x2f0>)
 8000f4a:	601a      	str	r2, [r3, #0]
	handlerEn2PinC11.GPIO_PinConfig.GPIO_PinAltFunMode  = AF0;
 8000f4c:	4b5d      	ldr	r3, [pc, #372]	; (80010c4 <inSystem+0x2f4>)
 8000f4e:	2200      	movs	r2, #0
 8000f50:	725a      	strb	r2, [r3, #9]
	handlerEn2PinC11.GPIO_PinConfig.GPIO_PinMode        = GPIO_MODE_OUT;
 8000f52:	4b5c      	ldr	r3, [pc, #368]	; (80010c4 <inSystem+0x2f4>)
 8000f54:	2201      	movs	r2, #1
 8000f56:	715a      	strb	r2, [r3, #5]
	handlerEn2PinC11.GPIO_PinConfig.GPIO_PinNumber      = PIN_11;
 8000f58:	4b5a      	ldr	r3, [pc, #360]	; (80010c4 <inSystem+0x2f4>)
 8000f5a:	220b      	movs	r2, #11
 8000f5c:	711a      	strb	r2, [r3, #4]
	handlerEn2PinC11.GPIO_PinConfig.GPIO_PinOPType      = GPIO_OTYPE_PUSHPULL;
 8000f5e:	4b59      	ldr	r3, [pc, #356]	; (80010c4 <inSystem+0x2f4>)
 8000f60:	2200      	movs	r2, #0
 8000f62:	721a      	strb	r2, [r3, #8]
	handlerEn2PinC11.GPIO_PinConfig.GPIO_PinPuPdControl = GPIO_PUPDR_NOTHING;
 8000f64:	4b57      	ldr	r3, [pc, #348]	; (80010c4 <inSystem+0x2f4>)
 8000f66:	2200      	movs	r2, #0
 8000f68:	71da      	strb	r2, [r3, #7]
	handlerEn2PinC11.GPIO_PinConfig.GPIO_PinSpeed       = GPIO_OSPEEDR_FAST;
 8000f6a:	4b56      	ldr	r3, [pc, #344]	; (80010c4 <inSystem+0x2f4>)
 8000f6c:	2202      	movs	r2, #2
 8000f6e:	719a      	strb	r2, [r3, #6]
	GPIO_Config(&handlerEn2PinC11);
 8000f70:	4854      	ldr	r0, [pc, #336]	; (80010c4 <inSystem+0x2f4>)
 8000f72:	f002 f9fd 	bl	8003370 <GPIO_Config>
	GPIO_WritePin_Afopt(&handlerEn2PinC11, RESET);
 8000f76:	2100      	movs	r1, #0
 8000f78:	4852      	ldr	r0, [pc, #328]	; (80010c4 <inSystem+0x2f4>)
 8000f7a:	f002 fb4e 	bl	800361a <GPIO_WritePin_Afopt>

	//////////////////////////////////////////////////// /////////////////// //////////////////////////////////////////////

	////////////////////////////////////// In 1 y 2, direccion de colores CW y CCW //////////////////////////////////////////////

	handlerIn1PinC12.pGPIOx                             = GPIOC;
 8000f7e:	4b52      	ldr	r3, [pc, #328]	; (80010c8 <inSystem+0x2f8>)
 8000f80:	4a4f      	ldr	r2, [pc, #316]	; (80010c0 <inSystem+0x2f0>)
 8000f82:	601a      	str	r2, [r3, #0]
	handlerIn1PinC12.GPIO_PinConfig.GPIO_PinAltFunMode  = AF0;
 8000f84:	4b50      	ldr	r3, [pc, #320]	; (80010c8 <inSystem+0x2f8>)
 8000f86:	2200      	movs	r2, #0
 8000f88:	725a      	strb	r2, [r3, #9]
	handlerIn1PinC12.GPIO_PinConfig.GPIO_PinMode        = GPIO_MODE_OUT;
 8000f8a:	4b4f      	ldr	r3, [pc, #316]	; (80010c8 <inSystem+0x2f8>)
 8000f8c:	2201      	movs	r2, #1
 8000f8e:	715a      	strb	r2, [r3, #5]
	handlerIn1PinC12.GPIO_PinConfig.GPIO_PinNumber      = PIN_12;
 8000f90:	4b4d      	ldr	r3, [pc, #308]	; (80010c8 <inSystem+0x2f8>)
 8000f92:	220c      	movs	r2, #12
 8000f94:	711a      	strb	r2, [r3, #4]
	handlerIn1PinC12.GPIO_PinConfig.GPIO_PinOPType      = GPIO_OTYPE_PUSHPULL;
 8000f96:	4b4c      	ldr	r3, [pc, #304]	; (80010c8 <inSystem+0x2f8>)
 8000f98:	2200      	movs	r2, #0
 8000f9a:	721a      	strb	r2, [r3, #8]
	handlerIn1PinC12.GPIO_PinConfig.GPIO_PinPuPdControl = GPIO_PUPDR_NOTHING;
 8000f9c:	4b4a      	ldr	r3, [pc, #296]	; (80010c8 <inSystem+0x2f8>)
 8000f9e:	2200      	movs	r2, #0
 8000fa0:	71da      	strb	r2, [r3, #7]
	handlerIn1PinC12.GPIO_PinConfig.GPIO_PinSpeed       = GPIO_OSPEEDR_FAST;
 8000fa2:	4b49      	ldr	r3, [pc, #292]	; (80010c8 <inSystem+0x2f8>)
 8000fa4:	2202      	movs	r2, #2
 8000fa6:	719a      	strb	r2, [r3, #6]
	GPIO_Config(&handlerIn1PinC12);
 8000fa8:	4847      	ldr	r0, [pc, #284]	; (80010c8 <inSystem+0x2f8>)
 8000faa:	f002 f9e1 	bl	8003370 <GPIO_Config>
	GPIO_WritePin_Afopt(&handlerIn1PinC12, RESET); // default
 8000fae:	2100      	movs	r1, #0
 8000fb0:	4845      	ldr	r0, [pc, #276]	; (80010c8 <inSystem+0x2f8>)
 8000fb2:	f002 fb32 	bl	800361a <GPIO_WritePin_Afopt>

	handlerIn2PinD2.pGPIOx                             = GPIOD;
 8000fb6:	4b45      	ldr	r3, [pc, #276]	; (80010cc <inSystem+0x2fc>)
 8000fb8:	4a45      	ldr	r2, [pc, #276]	; (80010d0 <inSystem+0x300>)
 8000fba:	601a      	str	r2, [r3, #0]
	handlerIn2PinD2.GPIO_PinConfig.GPIO_PinAltFunMode  = AF0;
 8000fbc:	4b43      	ldr	r3, [pc, #268]	; (80010cc <inSystem+0x2fc>)
 8000fbe:	2200      	movs	r2, #0
 8000fc0:	725a      	strb	r2, [r3, #9]
	handlerIn2PinD2.GPIO_PinConfig.GPIO_PinMode        = GPIO_MODE_OUT;
 8000fc2:	4b42      	ldr	r3, [pc, #264]	; (80010cc <inSystem+0x2fc>)
 8000fc4:	2201      	movs	r2, #1
 8000fc6:	715a      	strb	r2, [r3, #5]
	handlerIn2PinD2.GPIO_PinConfig.GPIO_PinNumber      = PIN_2;
 8000fc8:	4b40      	ldr	r3, [pc, #256]	; (80010cc <inSystem+0x2fc>)
 8000fca:	2202      	movs	r2, #2
 8000fcc:	711a      	strb	r2, [r3, #4]
	handlerIn2PinD2.GPIO_PinConfig.GPIO_PinOPType      = GPIO_OTYPE_PUSHPULL;
 8000fce:	4b3f      	ldr	r3, [pc, #252]	; (80010cc <inSystem+0x2fc>)
 8000fd0:	2200      	movs	r2, #0
 8000fd2:	721a      	strb	r2, [r3, #8]
	handlerIn2PinD2.GPIO_PinConfig.GPIO_PinPuPdControl = GPIO_PUPDR_NOTHING;
 8000fd4:	4b3d      	ldr	r3, [pc, #244]	; (80010cc <inSystem+0x2fc>)
 8000fd6:	2200      	movs	r2, #0
 8000fd8:	71da      	strb	r2, [r3, #7]
	handlerIn2PinD2.GPIO_PinConfig.GPIO_PinSpeed       = GPIO_OSPEEDR_FAST;
 8000fda:	4b3c      	ldr	r3, [pc, #240]	; (80010cc <inSystem+0x2fc>)
 8000fdc:	2202      	movs	r2, #2
 8000fde:	719a      	strb	r2, [r3, #6]
	GPIO_Config(&handlerIn2PinD2);
 8000fe0:	483a      	ldr	r0, [pc, #232]	; (80010cc <inSystem+0x2fc>)
 8000fe2:	f002 f9c5 	bl	8003370 <GPIO_Config>
	GPIO_WritePin_Afopt(&handlerIn2PinD2, RESET); // default
 8000fe6:	2100      	movs	r1, #0
 8000fe8:	4838      	ldr	r0, [pc, #224]	; (80010cc <inSystem+0x2fc>)
 8000fea:	f002 fb16 	bl	800361a <GPIO_WritePin_Afopt>
	//////////////////////////////////////////////////// /////////////////// //////////////////////////////////////////////

	////////////////////////////////////// Conteo de encoders motor 1 y motor 2//////////////////////////////////////////////


	handlerEncoder1PinC1.pGPIOx                             = GPIOC;
 8000fee:	4b39      	ldr	r3, [pc, #228]	; (80010d4 <inSystem+0x304>)
 8000ff0:	4a33      	ldr	r2, [pc, #204]	; (80010c0 <inSystem+0x2f0>)
 8000ff2:	601a      	str	r2, [r3, #0]
	handlerEncoder1PinC1.GPIO_PinConfig.GPIO_PinAltFunMode  = AF0;
 8000ff4:	4b37      	ldr	r3, [pc, #220]	; (80010d4 <inSystem+0x304>)
 8000ff6:	2200      	movs	r2, #0
 8000ff8:	725a      	strb	r2, [r3, #9]
	handlerEncoder1PinC1.GPIO_PinConfig.GPIO_PinMode        = GPIO_MODE_IN;
 8000ffa:	4b36      	ldr	r3, [pc, #216]	; (80010d4 <inSystem+0x304>)
 8000ffc:	2200      	movs	r2, #0
 8000ffe:	715a      	strb	r2, [r3, #5]
	handlerEncoder1PinC1.GPIO_PinConfig.GPIO_PinNumber      = PIN_1;
 8001000:	4b34      	ldr	r3, [pc, #208]	; (80010d4 <inSystem+0x304>)
 8001002:	2201      	movs	r2, #1
 8001004:	711a      	strb	r2, [r3, #4]
	handlerEncoder1PinC1.GPIO_PinConfig.GPIO_PinOPType      = GPIO_OTYPE_PUSHPULL;
 8001006:	4b33      	ldr	r3, [pc, #204]	; (80010d4 <inSystem+0x304>)
 8001008:	2200      	movs	r2, #0
 800100a:	721a      	strb	r2, [r3, #8]
	handlerEncoder1PinC1.GPIO_PinConfig.GPIO_PinPuPdControl = GPIO_PUPDR_NOTHING;
 800100c:	4b31      	ldr	r3, [pc, #196]	; (80010d4 <inSystem+0x304>)
 800100e:	2200      	movs	r2, #0
 8001010:	71da      	strb	r2, [r3, #7]
	handlerEncoder1PinC1.GPIO_PinConfig.GPIO_PinSpeed       = GPIO_OSPEEDR_FAST;
 8001012:	4b30      	ldr	r3, [pc, #192]	; (80010d4 <inSystem+0x304>)
 8001014:	2202      	movs	r2, #2
 8001016:	719a      	strb	r2, [r3, #6]
	handlerExtiConEnc_1.pGPIOHandler                        = &handlerEncoder1PinC1;
 8001018:	4b2f      	ldr	r3, [pc, #188]	; (80010d8 <inSystem+0x308>)
 800101a:	4a2e      	ldr	r2, [pc, #184]	; (80010d4 <inSystem+0x304>)
 800101c:	601a      	str	r2, [r3, #0]
	handlerExtiConEnc_1.edgeType                            = EXTERNAL_INTERRUPT_RASINGANDFALLING_EDGE;
 800101e:	4b2e      	ldr	r3, [pc, #184]	; (80010d8 <inSystem+0x308>)
 8001020:	2202      	movs	r2, #2
 8001022:	711a      	strb	r2, [r3, #4]
	extInt_Config(&handlerExtiConEnc_1);
 8001024:	482c      	ldr	r0, [pc, #176]	; (80010d8 <inSystem+0x308>)
 8001026:	f001 f975 	bl	8002314 <extInt_Config>

	handlerEncoder2PinC3.pGPIOx                             = GPIOC;
 800102a:	4b2c      	ldr	r3, [pc, #176]	; (80010dc <inSystem+0x30c>)
 800102c:	4a24      	ldr	r2, [pc, #144]	; (80010c0 <inSystem+0x2f0>)
 800102e:	601a      	str	r2, [r3, #0]
	handlerEncoder2PinC3.GPIO_PinConfig.GPIO_PinAltFunMode  = AF0;
 8001030:	4b2a      	ldr	r3, [pc, #168]	; (80010dc <inSystem+0x30c>)
 8001032:	2200      	movs	r2, #0
 8001034:	725a      	strb	r2, [r3, #9]
	handlerEncoder2PinC3.GPIO_PinConfig.GPIO_PinMode        = GPIO_MODE_IN;
 8001036:	4b29      	ldr	r3, [pc, #164]	; (80010dc <inSystem+0x30c>)
 8001038:	2200      	movs	r2, #0
 800103a:	715a      	strb	r2, [r3, #5]
	handlerEncoder2PinC3.GPIO_PinConfig.GPIO_PinNumber      = PIN_3;
 800103c:	4b27      	ldr	r3, [pc, #156]	; (80010dc <inSystem+0x30c>)
 800103e:	2203      	movs	r2, #3
 8001040:	711a      	strb	r2, [r3, #4]
	handlerEncoder2PinC3.GPIO_PinConfig.GPIO_PinOPType      = GPIO_OTYPE_PUSHPULL;
 8001042:	4b26      	ldr	r3, [pc, #152]	; (80010dc <inSystem+0x30c>)
 8001044:	2200      	movs	r2, #0
 8001046:	721a      	strb	r2, [r3, #8]
	handlerEncoder2PinC3.GPIO_PinConfig.GPIO_PinPuPdControl = GPIO_PUPDR_NOTHING;
 8001048:	4b24      	ldr	r3, [pc, #144]	; (80010dc <inSystem+0x30c>)
 800104a:	2200      	movs	r2, #0
 800104c:	71da      	strb	r2, [r3, #7]
	handlerEncoder2PinC3.GPIO_PinConfig.GPIO_PinSpeed       = GPIO_OSPEEDR_FAST;
 800104e:	4b23      	ldr	r3, [pc, #140]	; (80010dc <inSystem+0x30c>)
 8001050:	2202      	movs	r2, #2
 8001052:	719a      	strb	r2, [r3, #6]
	handlerExtiConEnc_2.pGPIOHandler                        = &handlerEncoder2PinC3;
 8001054:	4b22      	ldr	r3, [pc, #136]	; (80010e0 <inSystem+0x310>)
 8001056:	4a21      	ldr	r2, [pc, #132]	; (80010dc <inSystem+0x30c>)
 8001058:	601a      	str	r2, [r3, #0]
	handlerExtiConEnc_2.edgeType                            = EXTERNAL_INTERRUPT_RASINGANDFALLING_EDGE;
 800105a:	4b21      	ldr	r3, [pc, #132]	; (80010e0 <inSystem+0x310>)
 800105c:	2202      	movs	r2, #2
 800105e:	711a      	strb	r2, [r3, #4]
	extInt_Config(&handlerExtiConEnc_2);
 8001060:	481f      	ldr	r0, [pc, #124]	; (80010e0 <inSystem+0x310>)
 8001062:	f001 f957 	bl	8002314 <extInt_Config>
	///////////////////////////////////////////Comunicacin serial para comandos //////////////////////////////////////////////


	//Comunicacion serial

	handlerPinTx.pGPIOx                             = GPIOA;
 8001066:	4b1f      	ldr	r3, [pc, #124]	; (80010e4 <inSystem+0x314>)
 8001068:	4a0c      	ldr	r2, [pc, #48]	; (800109c <inSystem+0x2cc>)
 800106a:	601a      	str	r2, [r3, #0]
	handlerPinTx.GPIO_PinConfig.GPIO_PinAltFunMode  = AF7;
 800106c:	4b1d      	ldr	r3, [pc, #116]	; (80010e4 <inSystem+0x314>)
 800106e:	2207      	movs	r2, #7
 8001070:	725a      	strb	r2, [r3, #9]
	handlerPinTx.GPIO_PinConfig.GPIO_PinMode        = GPIO_MODE_ALTFN;
 8001072:	4b1c      	ldr	r3, [pc, #112]	; (80010e4 <inSystem+0x314>)
 8001074:	2202      	movs	r2, #2
 8001076:	715a      	strb	r2, [r3, #5]
	handlerPinTx.GPIO_PinConfig.GPIO_PinOPType      = GPIO_OTYPE_PUSHPULL;
 8001078:	4b1a      	ldr	r3, [pc, #104]	; (80010e4 <inSystem+0x314>)
 800107a:	2200      	movs	r2, #0
 800107c:	721a      	strb	r2, [r3, #8]
	handlerPinTx.GPIO_PinConfig.GPIO_PinNumber      = PIN_2;
 800107e:	4b19      	ldr	r3, [pc, #100]	; (80010e4 <inSystem+0x314>)
 8001080:	2202      	movs	r2, #2
 8001082:	711a      	strb	r2, [r3, #4]
	handlerPinTx.GPIO_PinConfig.GPIO_PinPuPdControl = GPIO_PUPDR_NOTHING;
 8001084:	4b17      	ldr	r3, [pc, #92]	; (80010e4 <inSystem+0x314>)
 8001086:	2200      	movs	r2, #0
 8001088:	71da      	strb	r2, [r3, #7]
	handlerPinTx.GPIO_PinConfig.GPIO_PinSpeed       = GPIO_OSPEEDR_HIGH;
 800108a:	4b16      	ldr	r3, [pc, #88]	; (80010e4 <inSystem+0x314>)
 800108c:	2203      	movs	r2, #3
 800108e:	719a      	strb	r2, [r3, #6]
	GPIO_Config(&handlerPinTx);
 8001090:	4814      	ldr	r0, [pc, #80]	; (80010e4 <inSystem+0x314>)
 8001092:	f002 f96d 	bl	8003370 <GPIO_Config>
 8001096:	e027      	b.n	80010e8 <inSystem+0x318>
 8001098:	200001fc 	.word	0x200001fc
 800109c:	40020000 	.word	0x40020000
 80010a0:	200002a8 	.word	0x200002a8
 80010a4:	40000400 	.word	0x40000400
 80010a8:	20000208 	.word	0x20000208
 80010ac:	200002e4 	.word	0x200002e4
 80010b0:	40000c00 	.word	0x40000c00
 80010b4:	20000214 	.word	0x20000214
 80010b8:	200002fc 	.word	0x200002fc
 80010bc:	20000244 	.word	0x20000244
 80010c0:	40020800 	.word	0x40020800
 80010c4:	20000238 	.word	0x20000238
 80010c8:	2000025c 	.word	0x2000025c
 80010cc:	20000250 	.word	0x20000250
 80010d0:	40020c00 	.word	0x40020c00
 80010d4:	20000268 	.word	0x20000268
 80010d8:	20000298 	.word	0x20000298
 80010dc:	20000274 	.word	0x20000274
 80010e0:	200002a0 	.word	0x200002a0
 80010e4:	2000022c 	.word	0x2000022c

	handlerPinRx.pGPIOx                             = GPIOA;
 80010e8:	4b49      	ldr	r3, [pc, #292]	; (8001210 <inSystem+0x440>)
 80010ea:	4a4a      	ldr	r2, [pc, #296]	; (8001214 <inSystem+0x444>)
 80010ec:	601a      	str	r2, [r3, #0]
	handlerPinRx.GPIO_PinConfig.GPIO_PinAltFunMode  = AF7;
 80010ee:	4b48      	ldr	r3, [pc, #288]	; (8001210 <inSystem+0x440>)
 80010f0:	2207      	movs	r2, #7
 80010f2:	725a      	strb	r2, [r3, #9]
	handlerPinRx.GPIO_PinConfig.GPIO_PinMode        = GPIO_MODE_ALTFN;
 80010f4:	4b46      	ldr	r3, [pc, #280]	; (8001210 <inSystem+0x440>)
 80010f6:	2202      	movs	r2, #2
 80010f8:	715a      	strb	r2, [r3, #5]
	handlerPinRx.GPIO_PinConfig.GPIO_PinOPType      = GPIO_OTYPE_PUSHPULL;
 80010fa:	4b45      	ldr	r3, [pc, #276]	; (8001210 <inSystem+0x440>)
 80010fc:	2200      	movs	r2, #0
 80010fe:	721a      	strb	r2, [r3, #8]
	handlerPinRx.GPIO_PinConfig.GPIO_PinNumber      = PIN_3;
 8001100:	4b43      	ldr	r3, [pc, #268]	; (8001210 <inSystem+0x440>)
 8001102:	2203      	movs	r2, #3
 8001104:	711a      	strb	r2, [r3, #4]
	handlerPinRx.GPIO_PinConfig.GPIO_PinPuPdControl = GPIO_PUPDR_NOTHING;
 8001106:	4b42      	ldr	r3, [pc, #264]	; (8001210 <inSystem+0x440>)
 8001108:	2200      	movs	r2, #0
 800110a:	71da      	strb	r2, [r3, #7]
	handlerPinRx.GPIO_PinConfig.GPIO_PinSpeed       = GPIO_OSPEEDR_HIGH;
 800110c:	4b40      	ldr	r3, [pc, #256]	; (8001210 <inSystem+0x440>)
 800110e:	2203      	movs	r2, #3
 8001110:	719a      	strb	r2, [r3, #6]
	GPIO_Config(&handlerPinRx);
 8001112:	483f      	ldr	r0, [pc, #252]	; (8001210 <inSystem+0x440>)
 8001114:	f002 f92c 	bl	8003370 <GPIO_Config>

	handlerUSART.ptrUSARTx                      = USART2;
 8001118:	4b3f      	ldr	r3, [pc, #252]	; (8001218 <inSystem+0x448>)
 800111a:	4a40      	ldr	r2, [pc, #256]	; (800121c <inSystem+0x44c>)
 800111c:	601a      	str	r2, [r3, #0]
	handlerUSART.USART_Config.USART_MCUvelocity = USART_50MHz_VELOCITY;
 800111e:	4b3e      	ldr	r3, [pc, #248]	; (8001218 <inSystem+0x448>)
 8001120:	4a3f      	ldr	r2, [pc, #252]	; (8001220 <inSystem+0x450>)
 8001122:	60da      	str	r2, [r3, #12]
	handlerUSART.USART_Config.USART_baudrate    = USART_BAUDRATE_19200;
 8001124:	4b3c      	ldr	r3, [pc, #240]	; (8001218 <inSystem+0x448>)
 8001126:	2201      	movs	r2, #1
 8001128:	71da      	strb	r2, [r3, #7]
	handlerUSART.USART_Config.USART_enableInRx  = USART_INTERRUPT_RX_ENABLE;
 800112a:	4b3b      	ldr	r3, [pc, #236]	; (8001218 <inSystem+0x448>)
 800112c:	2201      	movs	r2, #1
 800112e:	715a      	strb	r2, [r3, #5]
	handlerUSART.USART_Config.USART_enableInTx  = USART_INTERRUPT_TX_DISABLE;
 8001130:	4b39      	ldr	r3, [pc, #228]	; (8001218 <inSystem+0x448>)
 8001132:	2200      	movs	r2, #0
 8001134:	711a      	strb	r2, [r3, #4]
	handlerUSART.USART_Config.USART_mode        = USART_MODE_RXTX;
 8001136:	4b38      	ldr	r3, [pc, #224]	; (8001218 <inSystem+0x448>)
 8001138:	2202      	movs	r2, #2
 800113a:	719a      	strb	r2, [r3, #6]
	handlerUSART.USART_Config.USART_parity      = USART_PARITY_NONE;
 800113c:	4b36      	ldr	r3, [pc, #216]	; (8001218 <inSystem+0x448>)
 800113e:	2200      	movs	r2, #0
 8001140:	725a      	strb	r2, [r3, #9]
	handlerUSART.USART_Config.USART_stopbits    = USART_STOPBIT_1;
 8001142:	4b35      	ldr	r3, [pc, #212]	; (8001218 <inSystem+0x448>)
 8001144:	2200      	movs	r2, #0
 8001146:	729a      	strb	r2, [r3, #10]
	handlerUSART.USART_Config.USART_datasize    = USART_DATASIZE_8BIT;
 8001148:	4b33      	ldr	r3, [pc, #204]	; (8001218 <inSystem+0x448>)
 800114a:	2200      	movs	r2, #0
 800114c:	721a      	strb	r2, [r3, #8]
	USART_Config(&handlerUSART);
 800114e:	4832      	ldr	r0, [pc, #200]	; (8001218 <inSystem+0x448>)
 8001150:	f003 fcc6 	bl	8004ae0 <USART_Config>

	//////////////////////////////////////////////////// /////////////////// //////////////////////////////////////////////

	///////////////////////////////////////////Timer para el control de la velocidad//////////////////////////////////////////////

	handlerTIM2_PARAMETROS_MOVIMIENTO.ptrTIMx                           = TIM2;
 8001154:	4b33      	ldr	r3, [pc, #204]	; (8001224 <inSystem+0x454>)
 8001156:	f04f 4280 	mov.w	r2, #1073741824	; 0x40000000
 800115a:	601a      	str	r2, [r3, #0]
	handlerTIM2_PARAMETROS_MOVIMIENTO.TIMx_Config.TIMx_interruptEnable  = BTIMER_ENABLE_INTERRUPT;
 800115c:	4b31      	ldr	r3, [pc, #196]	; (8001224 <inSystem+0x454>)
 800115e:	2201      	movs	r2, #1
 8001160:	741a      	strb	r2, [r3, #16]
	handlerTIM2_PARAMETROS_MOVIMIENTO.TIMx_Config.TIMx_mode             = BTIMER_MODE_UP;
 8001162:	4b30      	ldr	r3, [pc, #192]	; (8001224 <inSystem+0x454>)
 8001164:	2200      	movs	r2, #0
 8001166:	711a      	strb	r2, [r3, #4]
	handlerTIM2_PARAMETROS_MOVIMIENTO.TIMx_Config.TIMx_speed            = BTIMER_SPEED_100MHz_10us;
 8001168:	4b2e      	ldr	r3, [pc, #184]	; (8001224 <inSystem+0x454>)
 800116a:	f44f 727a 	mov.w	r2, #1000	; 0x3e8
 800116e:	609a      	str	r2, [r3, #8]
	handlerTIM2_PARAMETROS_MOVIMIENTO.TIMx_Config.TIMx_period           = fixed_sample_period;
 8001170:	4b2c      	ldr	r3, [pc, #176]	; (8001224 <inSystem+0x454>)
 8001172:	2210      	movs	r2, #16
 8001174:	60da      	str	r2, [r3, #12]
	BasicTimer_Config(&handlerTIM2_PARAMETROS_MOVIMIENTO);
 8001176:	482b      	ldr	r0, [pc, #172]	; (8001224 <inSystem+0x454>)
 8001178:	f000 fcd8 	bl	8001b2c <BasicTimer_Config>

	//////////////////////////////////////////////////// /////////////////// //////////////////////////////////////////////

		////////////////////////////////Configuracion PINES B8 (SCL) B9 (SDA) e I2C1 //////////////////////////////////////////////

	handler_PINB8_I2C1.pGPIOx                             = GPIOB;
 800117c:	4b2a      	ldr	r3, [pc, #168]	; (8001228 <inSystem+0x458>)
 800117e:	4a2b      	ldr	r2, [pc, #172]	; (800122c <inSystem+0x45c>)
 8001180:	601a      	str	r2, [r3, #0]
	handler_PINB8_I2C1.GPIO_PinConfig.GPIO_PinAltFunMode  = AF4;
 8001182:	4b29      	ldr	r3, [pc, #164]	; (8001228 <inSystem+0x458>)
 8001184:	2204      	movs	r2, #4
 8001186:	725a      	strb	r2, [r3, #9]
	handler_PINB8_I2C1.GPIO_PinConfig.GPIO_PinMode        = GPIO_MODE_ALTFN;
 8001188:	4b27      	ldr	r3, [pc, #156]	; (8001228 <inSystem+0x458>)
 800118a:	2202      	movs	r2, #2
 800118c:	715a      	strb	r2, [r3, #5]
	handler_PINB8_I2C1.GPIO_PinConfig.GPIO_PinNumber      = PIN_8;
 800118e:	4b26      	ldr	r3, [pc, #152]	; (8001228 <inSystem+0x458>)
 8001190:	2208      	movs	r2, #8
 8001192:	711a      	strb	r2, [r3, #4]
	handler_PINB8_I2C1.GPIO_PinConfig.GPIO_PinOPType      = GPIO_OTYPE_OPENDRAIN;
 8001194:	4b24      	ldr	r3, [pc, #144]	; (8001228 <inSystem+0x458>)
 8001196:	2201      	movs	r2, #1
 8001198:	721a      	strb	r2, [r3, #8]
	handler_PINB8_I2C1.GPIO_PinConfig.GPIO_PinPuPdControl = GPIO_PUPDR_NOTHING;
 800119a:	4b23      	ldr	r3, [pc, #140]	; (8001228 <inSystem+0x458>)
 800119c:	2200      	movs	r2, #0
 800119e:	71da      	strb	r2, [r3, #7]
	handler_PINB8_I2C1.GPIO_PinConfig.GPIO_PinSpeed       = GPIO_OSPEEDR_HIGH;
 80011a0:	4b21      	ldr	r3, [pc, #132]	; (8001228 <inSystem+0x458>)
 80011a2:	2203      	movs	r2, #3
 80011a4:	719a      	strb	r2, [r3, #6]

	handler_PINB9_I2C1.pGPIOx                             = GPIOB;
 80011a6:	4b22      	ldr	r3, [pc, #136]	; (8001230 <inSystem+0x460>)
 80011a8:	4a20      	ldr	r2, [pc, #128]	; (800122c <inSystem+0x45c>)
 80011aa:	601a      	str	r2, [r3, #0]
	handler_PINB9_I2C1.GPIO_PinConfig.GPIO_PinAltFunMode  = AF4;
 80011ac:	4b20      	ldr	r3, [pc, #128]	; (8001230 <inSystem+0x460>)
 80011ae:	2204      	movs	r2, #4
 80011b0:	725a      	strb	r2, [r3, #9]
	handler_PINB9_I2C1.GPIO_PinConfig.GPIO_PinMode        = GPIO_MODE_ALTFN;
 80011b2:	4b1f      	ldr	r3, [pc, #124]	; (8001230 <inSystem+0x460>)
 80011b4:	2202      	movs	r2, #2
 80011b6:	715a      	strb	r2, [r3, #5]
	handler_PINB9_I2C1.GPIO_PinConfig.GPIO_PinNumber      = PIN_9;
 80011b8:	4b1d      	ldr	r3, [pc, #116]	; (8001230 <inSystem+0x460>)
 80011ba:	2209      	movs	r2, #9
 80011bc:	711a      	strb	r2, [r3, #4]
	handler_PINB9_I2C1.GPIO_PinConfig.GPIO_PinOPType      = GPIO_OTYPE_OPENDRAIN;
 80011be:	4b1c      	ldr	r3, [pc, #112]	; (8001230 <inSystem+0x460>)
 80011c0:	2201      	movs	r2, #1
 80011c2:	721a      	strb	r2, [r3, #8]
	handler_PINB9_I2C1.GPIO_PinConfig.GPIO_PinPuPdControl = GPIO_PUPDR_NOTHING;
 80011c4:	4b1a      	ldr	r3, [pc, #104]	; (8001230 <inSystem+0x460>)
 80011c6:	2200      	movs	r2, #0
 80011c8:	71da      	strb	r2, [r3, #7]
	handler_PINB9_I2C1.GPIO_PinConfig.GPIO_PinSpeed       = GPIO_OSPEEDR_HIGH;
 80011ca:	4b19      	ldr	r3, [pc, #100]	; (8001230 <inSystem+0x460>)
 80011cc:	2203      	movs	r2, #3
 80011ce:	719a      	strb	r2, [r3, #6]

	handler_I2C1.ptrI2Cx = I2C1;
 80011d0:	4b18      	ldr	r3, [pc, #96]	; (8001234 <inSystem+0x464>)
 80011d2:	4a19      	ldr	r2, [pc, #100]	; (8001238 <inSystem+0x468>)
 80011d4:	601a      	str	r2, [r3, #0]
	handler_I2C1.I2C_Config.clkSpeed = MAIN_CLOCK_50_MHz_FOR_I2C;
 80011d6:	4b17      	ldr	r3, [pc, #92]	; (8001234 <inSystem+0x464>)
 80011d8:	2232      	movs	r2, #50	; 0x32
 80011da:	71da      	strb	r2, [r3, #7]
	handler_I2C1.I2C_Config.slaveAddress = ADDRESS_DOWN;
 80011dc:	4b15      	ldr	r3, [pc, #84]	; (8001234 <inSystem+0x464>)
 80011de:	2268      	movs	r2, #104	; 0x68
 80011e0:	711a      	strb	r2, [r3, #4]
	handler_I2C1.I2C_Config.modeI2C = I2C_MODE_FM;
 80011e2:	4b14      	ldr	r3, [pc, #80]	; (8001234 <inSystem+0x464>)
 80011e4:	2201      	movs	r2, #1
 80011e6:	715a      	strb	r2, [r3, #5]

	handler_MPUAccel_6050.ptrGPIOhandlerSCL  = &handler_PINB8_I2C1;
 80011e8:	4b14      	ldr	r3, [pc, #80]	; (800123c <inSystem+0x46c>)
 80011ea:	4a0f      	ldr	r2, [pc, #60]	; (8001228 <inSystem+0x458>)
 80011ec:	605a      	str	r2, [r3, #4]
	handler_MPUAccel_6050.ptrGPIOhandlerSDA  = &handler_PINB9_I2C1;
 80011ee:	4b13      	ldr	r3, [pc, #76]	; (800123c <inSystem+0x46c>)
 80011f0:	4a0f      	ldr	r2, [pc, #60]	; (8001230 <inSystem+0x460>)
 80011f2:	609a      	str	r2, [r3, #8]
	handler_MPUAccel_6050.ptrI2Chandler   = &handler_I2C1;
 80011f4:	4b11      	ldr	r3, [pc, #68]	; (800123c <inSystem+0x46c>)
 80011f6:	4a0f      	ldr	r2, [pc, #60]	; (8001234 <inSystem+0x464>)
 80011f8:	60da      	str	r2, [r3, #12]
	handler_MPUAccel_6050.fullScaleACCEL  = ACCEL_2G;
 80011fa:	4b10      	ldr	r3, [pc, #64]	; (800123c <inSystem+0x46c>)
 80011fc:	2200      	movs	r2, #0
 80011fe:	701a      	strb	r2, [r3, #0]
	handler_MPUAccel_6050.fullScaleGYRO   = GYRO_250;
 8001200:	4b0e      	ldr	r3, [pc, #56]	; (800123c <inSystem+0x46c>)
 8001202:	2200      	movs	r2, #0
 8001204:	705a      	strb	r2, [r3, #1]
	configMPUAccel(&handler_MPUAccel_6050);
 8001206:	480d      	ldr	r0, [pc, #52]	; (800123c <inSystem+0x46c>)
 8001208:	f002 fa6a 	bl	80036e0 <configMPUAccel>

}
 800120c:	bf00      	nop
 800120e:	bd80      	pop	{r7, pc}
 8001210:	20000220 	.word	0x20000220
 8001214:	40020000 	.word	0x40020000
 8001218:	20000314 	.word	0x20000314
 800121c:	40004400 	.word	0x40004400
 8001220:	02faf080 	.word	0x02faf080
 8001224:	200002bc 	.word	0x200002bc
 8001228:	20000280 	.word	0x20000280
 800122c:	40020400 	.word	0x40020400
 8001230:	2000028c 	.word	0x2000028c
 8001234:	200003a8 	.word	0x200003a8
 8001238:	40005400 	.word	0x40005400
 800123c:	200003b4 	.word	0x200003b4

08001240 <usart2Rx_Callback>:

}


// Interrupcion usart 1
void usart2Rx_Callback(void){
 8001240:	b580      	push	{r7, lr}
 8001242:	af00      	add	r7, sp, #0

	rxData = getRxData();
 8001244:	f004 f856 	bl	80052f4 <getRxData>
 8001248:	4603      	mov	r3, r0
 800124a:	461a      	mov	r2, r3
 800124c:	4b01      	ldr	r3, [pc, #4]	; (8001254 <usart2Rx_Callback+0x14>)
 800124e:	701a      	strb	r2, [r3, #0]

}
 8001250:	bf00      	nop
 8001252:	bd80      	pop	{r7, pc}
 8001254:	2000040e 	.word	0x2000040e

08001258 <BasicTimer3_Callback>:


//Interrupcin Timer 3
void BasicTimer3_Callback(void){
 8001258:	b580      	push	{r7, lr}
 800125a:	af00      	add	r7, sp, #0
	GPIOxTooglePin(&handlerPinA5);
 800125c:	4802      	ldr	r0, [pc, #8]	; (8001268 <BasicTimer3_Callback+0x10>)
 800125e:	f002 fa28 	bl	80036b2 <GPIOxTooglePin>
}
 8001262:	bf00      	nop
 8001264:	bd80      	pop	{r7, pc}
 8001266:	bf00      	nop
 8001268:	200001fc 	.word	0x200001fc

0800126c <BasicTimer2_Callback>:

//Interrupcion Timer 2

void BasicTimer2_Callback(void){
 800126c:	b480      	push	{r7}
 800126e:	af00      	add	r7, sp, #0


	// Levantamos bandera que calcula el angulo actual
	flag_angulo = SET;
 8001270:	4b05      	ldr	r3, [pc, #20]	; (8001288 <BasicTimer2_Callback+0x1c>)
 8001272:	2201      	movs	r2, #1
 8001274:	701a      	strb	r2, [r3, #0]

	// Levantamos la bandera que corresponde con los calculos  odometricos del robot, como la distancia
	// Recorrida, la posicion actual y la velocidad

	flag_measurements = SET;
 8001276:	4b05      	ldr	r3, [pc, #20]	; (800128c <BasicTimer2_Callback+0x20>)
 8001278:	2201      	movs	r2, #1
 800127a:	701a      	strb	r2, [r3, #0]

	// EN EL MAIN ESTAS DOS BANDERAS SE ANALIZARAN Y SE EJECUTARAN
}
 800127c:	bf00      	nop
 800127e:	46bd      	mov	sp, r7
 8001280:	f85d 7b04 	ldr.w	r7, [sp], #4
 8001284:	4770      	bx	lr
 8001286:	bf00      	nop
 8001288:	20000411 	.word	0x20000411
 800128c:	20000412 	.word	0x20000412

08001290 <callback_extInt1>:


//Interrupciones de Exti
void callback_extInt1(void){
 8001290:	b480      	push	{r7}
 8001292:	af00      	add	r7, sp, #0


}
 8001294:	bf00      	nop
 8001296:	46bd      	mov	sp, r7
 8001298:	f85d 7b04 	ldr.w	r7, [sp], #4
 800129c:	4770      	bx	lr

0800129e <callback_extInt3>:

void callback_extInt3(void){
 800129e:	b480      	push	{r7}
 80012a0:	af00      	add	r7, sp, #0


}
 80012a2:	bf00      	nop
 80012a4:	46bd      	mov	sp, r7
 80012a6:	f85d 7b04 	ldr.w	r7, [sp], #4
 80012aa:	4770      	bx	lr

080012ac <getAngle>:

	return promedio;
}


void getAngle(MPUAccel_Config *ptrMPUAccel,float angle_init, double calibr, Parameters_Position_t *ptrParameter_position){
 80012ac:	b580      	push	{r7, lr}
 80012ae:	b088      	sub	sp, #32
 80012b0:	af00      	add	r7, sp, #0
 80012b2:	6178      	str	r0, [r7, #20]
 80012b4:	ed87 0a04 	vstr	s0, [r7, #16]
 80012b8:	ed87 1b02 	vstr	d1, [r7, #8]
 80012bc:	6079      	str	r1, [r7, #4]
	///////////////////////////MEDIDA DEL ANGULO ACUMULADO////////////////////////////////////

	//----------------Accion a Realiza cada interrupcin------------------
		//Leemos el ngulo
		//Lectura velocidad angular
		float w = readGyro_Z(ptrMPUAccel) - calibr;
 80012be:	6978      	ldr	r0, [r7, #20]
 80012c0:	f002 fb9a 	bl	80039f8 <readGyro_Z>
 80012c4:	ee10 3a10 	vmov	r3, s0
 80012c8:	4618      	mov	r0, r3
 80012ca:	f7ff f945 	bl	8000558 <__aeabi_f2d>
 80012ce:	e9d7 2302 	ldrd	r2, r3, [r7, #8]
 80012d2:	f7fe ffe1 	bl	8000298 <__aeabi_dsub>
 80012d6:	4602      	mov	r2, r0
 80012d8:	460b      	mov	r3, r1
 80012da:	4610      	mov	r0, r2
 80012dc:	4619      	mov	r1, r3
 80012de:	f7ff fc8b 	bl	8000bf8 <__aeabi_d2f>
 80012e2:	4603      	mov	r3, r0
 80012e4:	61fb      	str	r3, [r7, #28]
		//Calculo angulo
		float ang_d = angle_init + (w * 16)/1000; // conversion de velocidad angular a grados absolutos con respecto al inicio del programa
 80012e6:	edd7 7a07 	vldr	s15, [r7, #28]
 80012ea:	eeb3 7a00 	vmov.f32	s14, #48	; 0x41800000  16.0
 80012ee:	ee27 7a87 	vmul.f32	s14, s15, s14
 80012f2:	eddf 6a0b 	vldr	s13, [pc, #44]	; 8001320 <getAngle+0x74>
 80012f6:	eec7 7a26 	vdiv.f32	s15, s14, s13
 80012fa:	ed97 7a04 	vldr	s14, [r7, #16]
 80012fe:	ee77 7a27 	vadd.f32	s15, s14, s15
 8001302:	edc7 7a06 	vstr	s15, [r7, #24]

		ptrParameter_position->grad_relativo = ang_d;
 8001306:	69b8      	ldr	r0, [r7, #24]
 8001308:	f7ff f926 	bl	8000558 <__aeabi_f2d>
 800130c:	4602      	mov	r2, r0
 800130e:	460b      	mov	r3, r1
 8001310:	6879      	ldr	r1, [r7, #4]
 8001312:	e9c1 2300 	strd	r2, r3, [r1]
}
 8001316:	bf00      	nop
 8001318:	3720      	adds	r7, #32
 800131a:	46bd      	mov	sp, r7
 800131c:	bd80      	pop	{r7, pc}
 800131e:	bf00      	nop
 8001320:	447a0000 	.word	0x447a0000
 8001324:	00000000 	.word	0x00000000

08001328 <get_measuremets_parameters>:

void get_measuremets_parameters(BasicTimer_Handler_t *ptrTimer ,Motor_Handler_t *ptrMotorHandler[2], Parameters_Position_t *ptrParameter_position, state_t operation_mode){
 8001328:	b580      	push	{r7, lr}
 800132a:	ed2d 8b02 	vpush	{d8}
 800132e:	b084      	sub	sp, #16
 8001330:	af00      	add	r7, sp, #0
 8001332:	60f8      	str	r0, [r7, #12]
 8001334:	60b9      	str	r1, [r7, #8]
 8001336:	607a      	str	r2, [r7, #4]
 8001338:	70fb      	strb	r3, [r7, #3]

	//Verificamos el modo
	if(operation_mode == sLine){ // Levantamos la vandera que calcula todos los parametros necesarios para el control
 800133a:	78fb      	ldrb	r3, [r7, #3]
 800133c:	2b00      	cmp	r3, #0
 800133e:	f040 80f7 	bne.w	8001530 <get_measuremets_parameters+0x208>



		//Acumulamos los angulos
		sum_ang += ptrParameter_position->grad_relativo;
 8001342:	4b71      	ldr	r3, [pc, #452]	; (8001508 <get_measuremets_parameters+0x1e0>)
 8001344:	681b      	ldr	r3, [r3, #0]
 8001346:	4618      	mov	r0, r3
 8001348:	f7ff f906 	bl	8000558 <__aeabi_f2d>
 800134c:	687b      	ldr	r3, [r7, #4]
 800134e:	e9d3 2300 	ldrd	r2, r3, [r3]
 8001352:	f7fe ffa3 	bl	800029c <__adddf3>
 8001356:	4602      	mov	r2, r0
 8001358:	460b      	mov	r3, r1
 800135a:	4610      	mov	r0, r2
 800135c:	4619      	mov	r1, r3
 800135e:	f7ff fc4b 	bl	8000bf8 <__aeabi_d2f>
 8001362:	4603      	mov	r3, r0
 8001364:	4a68      	ldr	r2, [pc, #416]	; (8001508 <get_measuremets_parameters+0x1e0>)
 8001366:	6013      	str	r3, [r2, #0]
		//Se acumula el tiempo
		time_accumulated += ptrTimer->TIMx_Config.TIMx_period;
 8001368:	68fb      	ldr	r3, [r7, #12]
 800136a:	68db      	ldr	r3, [r3, #12]
 800136c:	b29a      	uxth	r2, r3
 800136e:	4b67      	ldr	r3, [pc, #412]	; (800150c <get_measuremets_parameters+0x1e4>)
 8001370:	881b      	ldrh	r3, [r3, #0]
 8001372:	4413      	add	r3, r2
 8001374:	b29a      	uxth	r2, r3
 8001376:	4b65      	ldr	r3, [pc, #404]	; (800150c <get_measuremets_parameters+0x1e4>)
 8001378:	801a      	strh	r2, [r3, #0]

		//----------------Accion a realizar con un tiempo especifico--------------------
		if(counting_action >= timeAction_TIMER_Sampling)
 800137a:	4b65      	ldr	r3, [pc, #404]	; (8001510 <get_measuremets_parameters+0x1e8>)
 800137c:	781b      	ldrb	r3, [r3, #0]
 800137e:	b29a      	uxth	r2, r3
 8001380:	4b64      	ldr	r3, [pc, #400]	; (8001514 <get_measuremets_parameters+0x1ec>)
 8001382:	881b      	ldrh	r3, [r3, #0]
 8001384:	429a      	cmp	r2, r3
 8001386:	f200 80b1 	bhi.w	80014ec <get_measuremets_parameters+0x1c4>
		{
			//Guardamos el tiempo entre acciones especificas
			time_accion = time_accumulated;
 800138a:	4b60      	ldr	r3, [pc, #384]	; (800150c <get_measuremets_parameters+0x1e4>)
 800138c:	881b      	ldrh	r3, [r3, #0]
 800138e:	461a      	mov	r2, r3
 8001390:	4b61      	ldr	r3, [pc, #388]	; (8001518 <get_measuremets_parameters+0x1f0>)
 8001392:	601a      	str	r2, [r3, #0]
			//Calculamos el angulo promedio y la establecemos como el angulo relativo
			promAng = sum_ang / counting_action;
 8001394:	4b5c      	ldr	r3, [pc, #368]	; (8001508 <get_measuremets_parameters+0x1e0>)
 8001396:	edd3 6a00 	vldr	s13, [r3]
 800139a:	4b5e      	ldr	r3, [pc, #376]	; (8001514 <get_measuremets_parameters+0x1ec>)
 800139c:	881b      	ldrh	r3, [r3, #0]
 800139e:	ee07 3a90 	vmov	s15, r3
 80013a2:	eeb8 7ae7 	vcvt.f32.s32	s14, s15
 80013a6:	eec6 7a87 	vdiv.f32	s15, s13, s14
 80013aa:	4b5c      	ldr	r3, [pc, #368]	; (800151c <get_measuremets_parameters+0x1f4>)
 80013ac:	edc3 7a00 	vstr	s15, [r3]
			ptrParameter_position->phi_relativo = (promAng * M_PI) / 180;          //[rad]
 80013b0:	4b5a      	ldr	r3, [pc, #360]	; (800151c <get_measuremets_parameters+0x1f4>)
 80013b2:	681b      	ldr	r3, [r3, #0]
 80013b4:	4618      	mov	r0, r3
 80013b6:	f7ff f8cf 	bl	8000558 <__aeabi_f2d>
 80013ba:	a351      	add	r3, pc, #324	; (adr r3, 8001500 <get_measuremets_parameters+0x1d8>)
 80013bc:	e9d3 2300 	ldrd	r2, r3, [r3]
 80013c0:	f7ff f922 	bl	8000608 <__aeabi_dmul>
 80013c4:	4602      	mov	r2, r0
 80013c6:	460b      	mov	r3, r1
 80013c8:	4610      	mov	r0, r2
 80013ca:	4619      	mov	r1, r3
 80013cc:	f04f 0200 	mov.w	r2, #0
 80013d0:	4b53      	ldr	r3, [pc, #332]	; (8001520 <get_measuremets_parameters+0x1f8>)
 80013d2:	f7ff fa43 	bl	800085c <__aeabi_ddiv>
 80013d6:	4602      	mov	r2, r0
 80013d8:	460b      	mov	r3, r1
 80013da:	6879      	ldr	r1, [r7, #4]
 80013dc:	e9c1 2302 	strd	r2, r3, [r1, #8]
			// Con la siguiente accion lo que hacemos es conseguir un angulo con mucha mas precision decimal debido a la funcion atan2
			ptrParameter_position->phi_relativo = atan2(sin(ptrParameter_position->phi_relativo),cos(ptrParameter_position->phi_relativo));
 80013e0:	687b      	ldr	r3, [r7, #4]
 80013e2:	ed93 7b02 	vldr	d7, [r3, #8]
 80013e6:	eeb0 0a47 	vmov.f32	s0, s14
 80013ea:	eef0 0a67 	vmov.f32	s1, s15
 80013ee:	f007 f8c7 	bl	8008580 <sin>
 80013f2:	eeb0 8a40 	vmov.f32	s16, s0
 80013f6:	eef0 8a60 	vmov.f32	s17, s1
 80013fa:	687b      	ldr	r3, [r7, #4]
 80013fc:	ed93 7b02 	vldr	d7, [r3, #8]
 8001400:	eeb0 0a47 	vmov.f32	s0, s14
 8001404:	eef0 0a67 	vmov.f32	s1, s15
 8001408:	f007 f81e 	bl	8008448 <cos>
 800140c:	eeb0 7a40 	vmov.f32	s14, s0
 8001410:	eef0 7a60 	vmov.f32	s15, s1
 8001414:	eeb0 1a47 	vmov.f32	s2, s14
 8001418:	eef0 1a67 	vmov.f32	s3, s15
 800141c:	eeb0 0a48 	vmov.f32	s0, s16
 8001420:	eef0 0a68 	vmov.f32	s1, s17
 8001424:	f007 f904 	bl	8008630 <atan2>
 8001428:	eeb0 7a40 	vmov.f32	s14, s0
 800142c:	eef0 7a60 	vmov.f32	s15, s1
 8001430:	687b      	ldr	r3, [r7, #4]
 8001432:	ed83 7b02 	vstr	d7, [r3, #8]
			//Calculamos la velocidad
			ptrMotorHandler[0]->parametersMotor.dis = (paso_mm_1 * ptrMotorHandler[0]->parametersMotor.counts);      //[mm]
 8001436:	68bb      	ldr	r3, [r7, #8]
 8001438:	681b      	ldr	r3, [r3, #0]
 800143a:	791b      	ldrb	r3, [r3, #4]
 800143c:	ee07 3a90 	vmov	s15, r3
 8001440:	eeb8 7ae7 	vcvt.f32.s32	s14, s15
 8001444:	4b37      	ldr	r3, [pc, #220]	; (8001524 <get_measuremets_parameters+0x1fc>)
 8001446:	edd3 7a00 	vldr	s15, [r3]
 800144a:	68bb      	ldr	r3, [r7, #8]
 800144c:	681b      	ldr	r3, [r3, #0]
 800144e:	ee67 7a27 	vmul.f32	s15, s14, s15
 8001452:	edc3 7a03 	vstr	s15, [r3, #12]
			ptrMotorHandler[1]->parametersMotor.dis = (paso_mm_2 * ptrMotorHandler[1]->parametersMotor.counts);      //[mm]
 8001456:	68bb      	ldr	r3, [r7, #8]
 8001458:	3304      	adds	r3, #4
 800145a:	681b      	ldr	r3, [r3, #0]
 800145c:	791b      	ldrb	r3, [r3, #4]
 800145e:	ee07 3a90 	vmov	s15, r3
 8001462:	eeb8 7ae7 	vcvt.f32.s32	s14, s15
 8001466:	4b30      	ldr	r3, [pc, #192]	; (8001528 <get_measuremets_parameters+0x200>)
 8001468:	edd3 7a00 	vldr	s15, [r3]
 800146c:	68bb      	ldr	r3, [r7, #8]
 800146e:	3304      	adds	r3, #4
 8001470:	681b      	ldr	r3, [r3, #0]
 8001472:	ee67 7a27 	vmul.f32	s15, s14, s15
 8001476:	edc3 7a03 	vstr	s15, [r3, #12]
			ptrMotorHandler[0]->parametersMotor.vel = ptrMotorHandler[0]->parametersMotor.dis / time_accion;      //[m/s]
 800147a:	68bb      	ldr	r3, [r7, #8]
 800147c:	681b      	ldr	r3, [r3, #0]
 800147e:	edd3 6a03 	vldr	s13, [r3, #12]
 8001482:	4b25      	ldr	r3, [pc, #148]	; (8001518 <get_measuremets_parameters+0x1f0>)
 8001484:	681b      	ldr	r3, [r3, #0]
 8001486:	ee07 3a90 	vmov	s15, r3
 800148a:	eeb8 7a67 	vcvt.f32.u32	s14, s15
 800148e:	68bb      	ldr	r3, [r7, #8]
 8001490:	681b      	ldr	r3, [r3, #0]
 8001492:	eec6 7a87 	vdiv.f32	s15, s13, s14
 8001496:	edc3 7a02 	vstr	s15, [r3, #8]
			ptrMotorHandler[1]->parametersMotor.vel = ptrMotorHandler[1]->parametersMotor.dis / time_accion;      //[m/s]
 800149a:	68bb      	ldr	r3, [r7, #8]
 800149c:	3304      	adds	r3, #4
 800149e:	681b      	ldr	r3, [r3, #0]
 80014a0:	edd3 6a03 	vldr	s13, [r3, #12]
 80014a4:	4b1c      	ldr	r3, [pc, #112]	; (8001518 <get_measuremets_parameters+0x1f0>)
 80014a6:	681b      	ldr	r3, [r3, #0]
 80014a8:	ee07 3a90 	vmov	s15, r3
 80014ac:	eeb8 7a67 	vcvt.f32.u32	s14, s15
 80014b0:	68bb      	ldr	r3, [r7, #8]
 80014b2:	3304      	adds	r3, #4
 80014b4:	681b      	ldr	r3, [r3, #0]
 80014b6:	eec6 7a87 	vdiv.f32	s15, s13, s14
 80014ba:	edc3 7a02 	vstr	s15, [r3, #8]
			//Reiniciamos el numero de conteos
			ptrMotorHandler[0]->parametersMotor.counts = 0;
 80014be:	68bb      	ldr	r3, [r7, #8]
 80014c0:	681b      	ldr	r3, [r3, #0]
 80014c2:	2200      	movs	r2, #0
 80014c4:	711a      	strb	r2, [r3, #4]
			ptrMotorHandler[1]->parametersMotor.counts = 0;
 80014c6:	68bb      	ldr	r3, [r7, #8]
 80014c8:	3304      	adds	r3, #4
 80014ca:	681b      	ldr	r3, [r3, #0]
 80014cc:	2200      	movs	r2, #0
 80014ce:	711a      	strb	r2, [r3, #4]
			//Reiniciamos variable
			sum_ang = 0;
 80014d0:	4b0d      	ldr	r3, [pc, #52]	; (8001508 <get_measuremets_parameters+0x1e0>)
 80014d2:	f04f 0200 	mov.w	r2, #0
 80014d6:	601a      	str	r2, [r3, #0]
			//Reiniciamos tiempo
			time_accumulated = 0;
 80014d8:	4b0c      	ldr	r3, [pc, #48]	; (800150c <get_measuremets_parameters+0x1e4>)
 80014da:	2200      	movs	r2, #0
 80014dc:	801a      	strh	r2, [r3, #0]
			//Reiniciamos el contador de accion
			counting_action = 0;
 80014de:	4b0d      	ldr	r3, [pc, #52]	; (8001514 <get_measuremets_parameters+0x1ec>)
 80014e0:	2200      	movs	r2, #0
 80014e2:	801a      	strh	r2, [r3, #0]
			//Levantamos bandera
			flag_action = 1;
 80014e4:	4b11      	ldr	r3, [pc, #68]	; (800152c <get_measuremets_parameters+0x204>)
 80014e6:	2201      	movs	r2, #1
 80014e8:	701a      	strb	r2, [r3, #0]
		//Combinar ambos ngulos
		ang_complementary = ptrParameter_position->grad_relativo + ang_for_Displament;
	}
	else{  __NOP(); }

}
 80014ea:	e0c6      	b.n	800167a <get_measuremets_parameters+0x352>
		else{ counting_action++; }
 80014ec:	4b09      	ldr	r3, [pc, #36]	; (8001514 <get_measuremets_parameters+0x1ec>)
 80014ee:	881b      	ldrh	r3, [r3, #0]
 80014f0:	3301      	adds	r3, #1
 80014f2:	b29a      	uxth	r2, r3
 80014f4:	4b07      	ldr	r3, [pc, #28]	; (8001514 <get_measuremets_parameters+0x1ec>)
 80014f6:	801a      	strh	r2, [r3, #0]
}
 80014f8:	e0bf      	b.n	800167a <get_measuremets_parameters+0x352>
 80014fa:	bf00      	nop
 80014fc:	f3af 8000 	nop.w
 8001500:	54442d18 	.word	0x54442d18
 8001504:	400921fb 	.word	0x400921fb
 8001508:	20000470 	.word	0x20000470
 800150c:	20000414 	.word	0x20000414
 8001510:	20000000 	.word	0x20000000
 8001514:	20000416 	.word	0x20000416
 8001518:	20000418 	.word	0x20000418
 800151c:	20000474 	.word	0x20000474
 8001520:	40668000 	.word	0x40668000
 8001524:	20000004 	.word	0x20000004
 8001528:	20000008 	.word	0x20000008
 800152c:	20000410 	.word	0x20000410
	else if(Mode == sRoll)
 8001530:	4b57      	ldr	r3, [pc, #348]	; (8001690 <get_measuremets_parameters+0x368>)
 8001532:	781b      	ldrb	r3, [r3, #0]
 8001534:	2b01      	cmp	r3, #1
 8001536:	f040 809f 	bne.w	8001678 <get_measuremets_parameters+0x350>
		if(counting_action>=timeAction_TIMER_Sampling)
 800153a:	4b56      	ldr	r3, [pc, #344]	; (8001694 <get_measuremets_parameters+0x36c>)
 800153c:	781b      	ldrb	r3, [r3, #0]
 800153e:	b29a      	uxth	r2, r3
 8001540:	4b55      	ldr	r3, [pc, #340]	; (8001698 <get_measuremets_parameters+0x370>)
 8001542:	881b      	ldrh	r3, [r3, #0]
 8001544:	429a      	cmp	r2, r3
 8001546:	f200 8083 	bhi.w	8001650 <get_measuremets_parameters+0x328>
			time_accion = time_accumulated;
 800154a:	4b54      	ldr	r3, [pc, #336]	; (800169c <get_measuremets_parameters+0x374>)
 800154c:	881b      	ldrh	r3, [r3, #0]
 800154e:	461a      	mov	r2, r3
 8001550:	4b53      	ldr	r3, [pc, #332]	; (80016a0 <get_measuremets_parameters+0x378>)
 8001552:	601a      	str	r2, [r3, #0]
			ptrMotorHandler[0]->parametersMotor.dis = (paso_mm_1 * ptrMotorHandler[0]->parametersMotor.counts);// Calculamos la distancia recorrida contando cuantos pasos a dado la rueda izquierda //[mm]
 8001554:	68bb      	ldr	r3, [r7, #8]
 8001556:	681b      	ldr	r3, [r3, #0]
 8001558:	791b      	ldrb	r3, [r3, #4]
 800155a:	ee07 3a90 	vmov	s15, r3
 800155e:	eeb8 7ae7 	vcvt.f32.s32	s14, s15
 8001562:	4b50      	ldr	r3, [pc, #320]	; (80016a4 <get_measuremets_parameters+0x37c>)
 8001564:	edd3 7a00 	vldr	s15, [r3]
 8001568:	68bb      	ldr	r3, [r7, #8]
 800156a:	681b      	ldr	r3, [r3, #0]
 800156c:	ee67 7a27 	vmul.f32	s15, s14, s15
 8001570:	edc3 7a03 	vstr	s15, [r3, #12]
			ptrMotorHandler[1]->parametersMotor.dis = (paso_mm_2 * ptrMotorHandler[1]->parametersMotor.counts);// Calculamos la distancia recorrida contando cuantos pasos a dado la rueda derecha   //[mm]
 8001574:	68bb      	ldr	r3, [r7, #8]
 8001576:	3304      	adds	r3, #4
 8001578:	681b      	ldr	r3, [r3, #0]
 800157a:	791b      	ldrb	r3, [r3, #4]
 800157c:	ee07 3a90 	vmov	s15, r3
 8001580:	eeb8 7ae7 	vcvt.f32.s32	s14, s15
 8001584:	4b48      	ldr	r3, [pc, #288]	; (80016a8 <get_measuremets_parameters+0x380>)
 8001586:	edd3 7a00 	vldr	s15, [r3]
 800158a:	68bb      	ldr	r3, [r7, #8]
 800158c:	3304      	adds	r3, #4
 800158e:	681b      	ldr	r3, [r3, #0]
 8001590:	ee67 7a27 	vmul.f32	s15, s14, s15
 8001594:	edc3 7a03 	vstr	s15, [r3, #12]
			ptrMotorHandler[0]->parametersMotor.vel = ptrMotorHandler[0]->parametersMotor.dis / time_accion; // Calculamos la velocidad de la rueda izquierda     //[m/s]
 8001598:	68bb      	ldr	r3, [r7, #8]
 800159a:	681b      	ldr	r3, [r3, #0]
 800159c:	edd3 6a03 	vldr	s13, [r3, #12]
 80015a0:	4b3f      	ldr	r3, [pc, #252]	; (80016a0 <get_measuremets_parameters+0x378>)
 80015a2:	681b      	ldr	r3, [r3, #0]
 80015a4:	ee07 3a90 	vmov	s15, r3
 80015a8:	eeb8 7a67 	vcvt.f32.u32	s14, s15
 80015ac:	68bb      	ldr	r3, [r7, #8]
 80015ae:	681b      	ldr	r3, [r3, #0]
 80015b0:	eec6 7a87 	vdiv.f32	s15, s13, s14
 80015b4:	edc3 7a02 	vstr	s15, [r3, #8]
			ptrMotorHandler[1]->parametersMotor.vel = ptrMotorHandler[1]->parametersMotor.dis / time_accion; // Calculamos la velocidad de la rueda derecha    //[m/s]
 80015b8:	68bb      	ldr	r3, [r7, #8]
 80015ba:	3304      	adds	r3, #4
 80015bc:	681b      	ldr	r3, [r3, #0]
 80015be:	edd3 6a03 	vldr	s13, [r3, #12]
 80015c2:	4b37      	ldr	r3, [pc, #220]	; (80016a0 <get_measuremets_parameters+0x378>)
 80015c4:	681b      	ldr	r3, [r3, #0]
 80015c6:	ee07 3a90 	vmov	s15, r3
 80015ca:	eeb8 7a67 	vcvt.f32.u32	s14, s15
 80015ce:	68bb      	ldr	r3, [r7, #8]
 80015d0:	3304      	adds	r3, #4
 80015d2:	681b      	ldr	r3, [r3, #0]
 80015d4:	eec6 7a87 	vdiv.f32	s15, s13, s14
 80015d8:	edc3 7a02 	vstr	s15, [r3, #8]
			ptrMotorHandler[0]->parametersMotor.counts = 0;
 80015dc:	68bb      	ldr	r3, [r7, #8]
 80015de:	681b      	ldr	r3, [r3, #0]
 80015e0:	2200      	movs	r2, #0
 80015e2:	711a      	strb	r2, [r3, #4]
			ptrMotorHandler[1]->parametersMotor.counts = 0; // RESETEAMOS LAS CUENTAS
 80015e4:	68bb      	ldr	r3, [r7, #8]
 80015e6:	3304      	adds	r3, #4
 80015e8:	681b      	ldr	r3, [r3, #0]
 80015ea:	2200      	movs	r2, #0
 80015ec:	711a      	strb	r2, [r3, #4]
			ang_for_Displament += (((ptrMotorHandler[1]->parametersMotor.dis - ptrMotorHandler[0]->parametersMotor.dis) * 100)/ distanceBetweenWheels)*(180/M_PI); //[]
 80015ee:	68bb      	ldr	r3, [r7, #8]
 80015f0:	3304      	adds	r3, #4
 80015f2:	681b      	ldr	r3, [r3, #0]
 80015f4:	ed93 7a03 	vldr	s14, [r3, #12]
 80015f8:	68bb      	ldr	r3, [r7, #8]
 80015fa:	681b      	ldr	r3, [r3, #0]
 80015fc:	edd3 7a03 	vldr	s15, [r3, #12]
 8001600:	ee77 7a67 	vsub.f32	s15, s14, s15
 8001604:	ed9f 7a29 	vldr	s14, [pc, #164]	; 80016ac <get_measuremets_parameters+0x384>
 8001608:	ee67 7a87 	vmul.f32	s15, s15, s14
 800160c:	ed9f 7a28 	vldr	s14, [pc, #160]	; 80016b0 <get_measuremets_parameters+0x388>
 8001610:	eec7 6a87 	vdiv.f32	s13, s15, s14
 8001614:	ee16 0a90 	vmov	r0, s13
 8001618:	f7fe ff9e 	bl	8000558 <__aeabi_f2d>
 800161c:	a31a      	add	r3, pc, #104	; (adr r3, 8001688 <get_measuremets_parameters+0x360>)
 800161e:	e9d3 2300 	ldrd	r2, r3, [r3]
 8001622:	f7fe fff1 	bl	8000608 <__aeabi_dmul>
 8001626:	4602      	mov	r2, r0
 8001628:	460b      	mov	r3, r1
 800162a:	4610      	mov	r0, r2
 800162c:	4619      	mov	r1, r3
 800162e:	4b21      	ldr	r3, [pc, #132]	; (80016b4 <get_measuremets_parameters+0x38c>)
 8001630:	e9d3 2300 	ldrd	r2, r3, [r3]
 8001634:	f7fe fe32 	bl	800029c <__adddf3>
 8001638:	4602      	mov	r2, r0
 800163a:	460b      	mov	r3, r1
 800163c:	491d      	ldr	r1, [pc, #116]	; (80016b4 <get_measuremets_parameters+0x38c>)
 800163e:	e9c1 2300 	strd	r2, r3, [r1]
			time_accumulated = 0;
 8001642:	4b16      	ldr	r3, [pc, #88]	; (800169c <get_measuremets_parameters+0x374>)
 8001644:	2200      	movs	r2, #0
 8001646:	801a      	strh	r2, [r3, #0]
			counting_action  = 0;
 8001648:	4b13      	ldr	r3, [pc, #76]	; (8001698 <get_measuremets_parameters+0x370>)
 800164a:	2200      	movs	r2, #0
 800164c:	801a      	strh	r2, [r3, #0]
 800164e:	e005      	b.n	800165c <get_measuremets_parameters+0x334>
		else{counting_action++;}
 8001650:	4b11      	ldr	r3, [pc, #68]	; (8001698 <get_measuremets_parameters+0x370>)
 8001652:	881b      	ldrh	r3, [r3, #0]
 8001654:	3301      	adds	r3, #1
 8001656:	b29a      	uxth	r2, r3
 8001658:	4b0f      	ldr	r3, [pc, #60]	; (8001698 <get_measuremets_parameters+0x370>)
 800165a:	801a      	strh	r2, [r3, #0]
		ang_complementary = ptrParameter_position->grad_relativo + ang_for_Displament;
 800165c:	687b      	ldr	r3, [r7, #4]
 800165e:	e9d3 0100 	ldrd	r0, r1, [r3]
 8001662:	4b14      	ldr	r3, [pc, #80]	; (80016b4 <get_measuremets_parameters+0x38c>)
 8001664:	e9d3 2300 	ldrd	r2, r3, [r3]
 8001668:	f7fe fe18 	bl	800029c <__adddf3>
 800166c:	4602      	mov	r2, r0
 800166e:	460b      	mov	r3, r1
 8001670:	4911      	ldr	r1, [pc, #68]	; (80016b8 <get_measuremets_parameters+0x390>)
 8001672:	e9c1 2300 	strd	r2, r3, [r1]
}
 8001676:	e000      	b.n	800167a <get_measuremets_parameters+0x352>
	else{  __NOP(); }
 8001678:	bf00      	nop
}
 800167a:	bf00      	nop
 800167c:	3710      	adds	r7, #16
 800167e:	46bd      	mov	sp, r7
 8001680:	ecbd 8b02 	vpop	{d8}
 8001684:	bd80      	pop	{r7, pc}
 8001686:	bf00      	nop
 8001688:	1a63c1f8 	.word	0x1a63c1f8
 800168c:	404ca5dc 	.word	0x404ca5dc
 8001690:	2000040f 	.word	0x2000040f
 8001694:	20000000 	.word	0x20000000
 8001698:	20000416 	.word	0x20000416
 800169c:	20000414 	.word	0x20000414
 80016a0:	20000418 	.word	0x20000418
 80016a4:	20000004 	.word	0x20000004
 80016a8:	20000008 	.word	0x20000008
 80016ac:	42c80000 	.word	0x42c80000
 80016b0:	4625a000 	.word	0x4625a000
 80016b4:	20000478 	.word	0x20000478
 80016b8:	20000480 	.word	0x20000480

080016bc <On_motor_Straigh_Roll>:

void On_motor_Straigh_Roll(Motor_Handler_t *ptrMotorhandler[2], uint8_t dir_s, uint8_t dir_r, state_t operation_mode){
 80016bc:	b580      	push	{r7, lr}
 80016be:	b082      	sub	sp, #8
 80016c0:	af00      	add	r7, sp, #0
 80016c2:	6078      	str	r0, [r7, #4]
 80016c4:	4608      	mov	r0, r1
 80016c6:	4611      	mov	r1, r2
 80016c8:	461a      	mov	r2, r3
 80016ca:	4603      	mov	r3, r0
 80016cc:	70fb      	strb	r3, [r7, #3]
 80016ce:	460b      	mov	r3, r1
 80016d0:	70bb      	strb	r3, [r7, #2]
 80016d2:	4613      	mov	r3, r2
 80016d4:	707b      	strb	r3, [r7, #1]


	if (operation_mode == sLine){
 80016d6:	787b      	ldrb	r3, [r7, #1]
 80016d8:	2b00      	cmp	r3, #0
 80016da:	d122      	bne.n	8001722 <On_motor_Straigh_Roll+0x66>
				//Activamos el motor
				// ENCENCEMOS EL MOTOR 1 (LEFT)
					// Seteamos correctamente la direccion de cada motor
					set_direction_straigh_roll(ptrMotorhandler, dir_r, dir_s, operation_mode);
 80016dc:	787b      	ldrb	r3, [r7, #1]
 80016de:	78fa      	ldrb	r2, [r7, #3]
 80016e0:	78b9      	ldrb	r1, [r7, #2]
 80016e2:	6878      	ldr	r0, [r7, #4]
 80016e4:	f000 f846 	bl	8001774 <set_direction_straigh_roll>

					enableOutput(ptrMotorhandler[0]->phandlerPWM);
 80016e8:	687b      	ldr	r3, [r7, #4]
 80016ea:	681b      	ldr	r3, [r3, #0]
 80016ec:	6a9b      	ldr	r3, [r3, #40]	; 0x28
 80016ee:	4618      	mov	r0, r3
 80016f0:	f002 fb04 	bl	8003cfc <enableOutput>
					GPIO_WritePin_Afopt(ptrMotorhandler[0]->phandlerGPIOEN,SET); // Encendemos el motor 1
 80016f4:	687b      	ldr	r3, [r7, #4]
 80016f6:	681b      	ldr	r3, [r3, #0]
 80016f8:	6a5b      	ldr	r3, [r3, #36]	; 0x24
 80016fa:	2101      	movs	r1, #1
 80016fc:	4618      	mov	r0, r3
 80016fe:	f001 ff8c 	bl	800361a <GPIO_WritePin_Afopt>

					// ENCENCEMOS EL MOTOR 2 (Right)
					//Se enciende el motor 2
					enableOutput(ptrMotorhandler[1]->phandlerPWM);
 8001702:	687b      	ldr	r3, [r7, #4]
 8001704:	3304      	adds	r3, #4
 8001706:	681b      	ldr	r3, [r3, #0]
 8001708:	6a9b      	ldr	r3, [r3, #40]	; 0x28
 800170a:	4618      	mov	r0, r3
 800170c:	f002 faf6 	bl	8003cfc <enableOutput>
					GPIO_WritePin_Afopt (ptrMotorhandler[1]->phandlerGPIOEN,SET);
 8001710:	687b      	ldr	r3, [r7, #4]
 8001712:	3304      	adds	r3, #4
 8001714:	681b      	ldr	r3, [r3, #0]
 8001716:	6a5b      	ldr	r3, [r3, #36]	; 0x24
 8001718:	2101      	movs	r1, #1
 800171a:	4618      	mov	r0, r3
 800171c:	f001 ff7d 	bl	800361a <GPIO_WritePin_Afopt>
					GPIO_WritePin_Afopt (ptrMotorhandler[1]->phandlerGPIOEN,SET);


	}

}
 8001720:	e024      	b.n	800176c <On_motor_Straigh_Roll+0xb0>
	}else if (operation_mode == sRoll){
 8001722:	787b      	ldrb	r3, [r7, #1]
 8001724:	2b01      	cmp	r3, #1
 8001726:	d121      	bne.n	800176c <On_motor_Straigh_Roll+0xb0>
					set_direction_straigh_roll(ptrMotorhandler, dir_r, dir_s, operation_mode);
 8001728:	787b      	ldrb	r3, [r7, #1]
 800172a:	78fa      	ldrb	r2, [r7, #3]
 800172c:	78b9      	ldrb	r1, [r7, #2]
 800172e:	6878      	ldr	r0, [r7, #4]
 8001730:	f000 f820 	bl	8001774 <set_direction_straigh_roll>
					enableOutput(ptrMotorhandler[0]->phandlerPWM);
 8001734:	687b      	ldr	r3, [r7, #4]
 8001736:	681b      	ldr	r3, [r3, #0]
 8001738:	6a9b      	ldr	r3, [r3, #40]	; 0x28
 800173a:	4618      	mov	r0, r3
 800173c:	f002 fade 	bl	8003cfc <enableOutput>
					GPIO_WritePin_Afopt(ptrMotorhandler[0]->phandlerGPIOEN,SET); // Encendemos el motor 1
 8001740:	687b      	ldr	r3, [r7, #4]
 8001742:	681b      	ldr	r3, [r3, #0]
 8001744:	6a5b      	ldr	r3, [r3, #36]	; 0x24
 8001746:	2101      	movs	r1, #1
 8001748:	4618      	mov	r0, r3
 800174a:	f001 ff66 	bl	800361a <GPIO_WritePin_Afopt>
					enableOutput(ptrMotorhandler[1]->phandlerPWM);
 800174e:	687b      	ldr	r3, [r7, #4]
 8001750:	3304      	adds	r3, #4
 8001752:	681b      	ldr	r3, [r3, #0]
 8001754:	6a9b      	ldr	r3, [r3, #40]	; 0x28
 8001756:	4618      	mov	r0, r3
 8001758:	f002 fad0 	bl	8003cfc <enableOutput>
					GPIO_WritePin_Afopt (ptrMotorhandler[1]->phandlerGPIOEN,SET);
 800175c:	687b      	ldr	r3, [r7, #4]
 800175e:	3304      	adds	r3, #4
 8001760:	681b      	ldr	r3, [r3, #0]
 8001762:	6a5b      	ldr	r3, [r3, #36]	; 0x24
 8001764:	2101      	movs	r1, #1
 8001766:	4618      	mov	r0, r3
 8001768:	f001 ff57 	bl	800361a <GPIO_WritePin_Afopt>
}
 800176c:	bf00      	nop
 800176e:	3708      	adds	r7, #8
 8001770:	46bd      	mov	sp, r7
 8001772:	bd80      	pop	{r7, pc}

08001774 <set_direction_straigh_roll>:

void set_direction_straigh_roll (Motor_Handler_t *ptrMotorhandler[2], uint8_t dir_r, uint8_t dir_s, state_t operation_mode){
 8001774:	b580      	push	{r7, lr}
 8001776:	b082      	sub	sp, #8
 8001778:	af00      	add	r7, sp, #0
 800177a:	6078      	str	r0, [r7, #4]
 800177c:	4608      	mov	r0, r1
 800177e:	4611      	mov	r1, r2
 8001780:	461a      	mov	r2, r3
 8001782:	4603      	mov	r3, r0
 8001784:	70fb      	strb	r3, [r7, #3]
 8001786:	460b      	mov	r3, r1
 8001788:	70bb      	strb	r3, [r7, #2]
 800178a:	4613      	mov	r3, r2
 800178c:	707b      	strb	r3, [r7, #1]

	// Esta funcion setea correctamente la direccion de los motores dependiendo de lo que se quiera.
	if (operation_mode == sLine){
 800178e:	787b      	ldrb	r3, [r7, #1]
 8001790:	2b00      	cmp	r3, #0
 8001792:	d132      	bne.n	80017fa <set_direction_straigh_roll+0x86>

		// Si queremos ir hacia adelante

		// Primero revisamos en que direccion se encuentra el robot para ver si si se aplica
		// el cambio o no
		if ((ptrMotorhandler[0]->configMotor.dir != dir_s)){
 8001794:	687b      	ldr	r3, [r7, #4]
 8001796:	681b      	ldr	r3, [r3, #0]
 8001798:	7f1b      	ldrb	r3, [r3, #28]
 800179a:	78ba      	ldrb	r2, [r7, #2]
 800179c:	429a      	cmp	r2, r3
 800179e:	d010      	beq.n	80017c2 <set_direction_straigh_roll+0x4e>
			// cambiamos la direccion cambiando los pines in pero tambien aplicando un toogle al PWM en cada caso
			GPIO_WritePin_Afopt(ptrMotorhandler[0]->phandlerGPIOIN, dir_s & SET); // La direccion estaba en RESET, la cambiamos a SET
 80017a0:	687b      	ldr	r3, [r7, #4]
 80017a2:	681b      	ldr	r3, [r3, #0]
 80017a4:	6a1a      	ldr	r2, [r3, #32]
 80017a6:	78bb      	ldrb	r3, [r7, #2]
 80017a8:	f003 0301 	and.w	r3, r3, #1
 80017ac:	b2db      	uxtb	r3, r3
 80017ae:	4619      	mov	r1, r3
 80017b0:	4610      	mov	r0, r2
 80017b2:	f001 ff32 	bl	800361a <GPIO_WritePin_Afopt>
			PWMx_Toggle(ptrMotorhandler[0]->phandlerPWM);
 80017b6:	687b      	ldr	r3, [r7, #4]
 80017b8:	681b      	ldr	r3, [r3, #0]
 80017ba:	6a9b      	ldr	r3, [r3, #40]	; 0x28
 80017bc:	4618      	mov	r0, r3
 80017be:	f002 fdfd 	bl	80043bc <PWMx_Toggle>

		}

		if ((ptrMotorhandler[1]->configMotor.dir != dir_s)){
 80017c2:	687b      	ldr	r3, [r7, #4]
 80017c4:	3304      	adds	r3, #4
 80017c6:	681b      	ldr	r3, [r3, #0]
 80017c8:	7f1b      	ldrb	r3, [r3, #28]
 80017ca:	78ba      	ldrb	r2, [r7, #2]
 80017cc:	429a      	cmp	r2, r3
 80017ce:	f000 808d 	beq.w	80018ec <set_direction_straigh_roll+0x178>
			// cambiamos la direccion cambiando los pines in pero tambien aplicando un toogle al PWM en cada caso
			GPIO_WritePin_Afopt(ptrMotorhandler[1]->phandlerGPIOEN, dir_s & SET); // La direccion estaba en RESET, la cambiamos a SET
 80017d2:	687b      	ldr	r3, [r7, #4]
 80017d4:	3304      	adds	r3, #4
 80017d6:	681b      	ldr	r3, [r3, #0]
 80017d8:	6a5a      	ldr	r2, [r3, #36]	; 0x24
 80017da:	78bb      	ldrb	r3, [r7, #2]
 80017dc:	f003 0301 	and.w	r3, r3, #1
 80017e0:	b2db      	uxtb	r3, r3
 80017e2:	4619      	mov	r1, r3
 80017e4:	4610      	mov	r0, r2
 80017e6:	f001 ff18 	bl	800361a <GPIO_WritePin_Afopt>
			PWMx_Toggle(ptrMotorhandler[1]->phandlerPWM);
 80017ea:	687b      	ldr	r3, [r7, #4]
 80017ec:	3304      	adds	r3, #4
 80017ee:	681b      	ldr	r3, [r3, #0]
 80017f0:	6a9b      	ldr	r3, [r3, #40]	; 0x28
 80017f2:	4618      	mov	r0, r3
 80017f4:	f002 fde2 	bl	80043bc <PWMx_Toggle>


		}

	}
}
 80017f8:	e078      	b.n	80018ec <set_direction_straigh_roll+0x178>
	}else if (operation_mode == sRoll){
 80017fa:	787b      	ldrb	r3, [r7, #1]
 80017fc:	2b01      	cmp	r3, #1
 80017fe:	d175      	bne.n	80018ec <set_direction_straigh_roll+0x178>
		if (dir_r == 0){
 8001800:	78fb      	ldrb	r3, [r7, #3]
 8001802:	2b00      	cmp	r3, #0
 8001804:	d139      	bne.n	800187a <set_direction_straigh_roll+0x106>
			if ((ptrMotorhandler[0]->configMotor.dir != !dir_r)){
 8001806:	687b      	ldr	r3, [r7, #4]
 8001808:	681b      	ldr	r3, [r3, #0]
 800180a:	7f1b      	ldrb	r3, [r3, #28]
 800180c:	461a      	mov	r2, r3
 800180e:	78fb      	ldrb	r3, [r7, #3]
 8001810:	2b00      	cmp	r3, #0
 8001812:	bf0c      	ite	eq
 8001814:	2301      	moveq	r3, #1
 8001816:	2300      	movne	r3, #0
 8001818:	b2db      	uxtb	r3, r3
 800181a:	429a      	cmp	r2, r3
 800181c:	d012      	beq.n	8001844 <set_direction_straigh_roll+0xd0>
				GPIO_WritePin_Afopt(ptrMotorhandler[0]->phandlerGPIOIN, !dir_r & SET); // La direccion estaba en RESET, la cambiamos a SET
 800181e:	687b      	ldr	r3, [r7, #4]
 8001820:	681b      	ldr	r3, [r3, #0]
 8001822:	6a1a      	ldr	r2, [r3, #32]
 8001824:	78fb      	ldrb	r3, [r7, #3]
 8001826:	2b00      	cmp	r3, #0
 8001828:	bf0c      	ite	eq
 800182a:	2301      	moveq	r3, #1
 800182c:	2300      	movne	r3, #0
 800182e:	b2db      	uxtb	r3, r3
 8001830:	4619      	mov	r1, r3
 8001832:	4610      	mov	r0, r2
 8001834:	f001 fef1 	bl	800361a <GPIO_WritePin_Afopt>
				PWMx_Toggle(ptrMotorhandler[0]->phandlerPWM);
 8001838:	687b      	ldr	r3, [r7, #4]
 800183a:	681b      	ldr	r3, [r3, #0]
 800183c:	6a9b      	ldr	r3, [r3, #40]	; 0x28
 800183e:	4618      	mov	r0, r3
 8001840:	f002 fdbc 	bl	80043bc <PWMx_Toggle>
			if ((ptrMotorhandler[1]->configMotor.dir != dir_r)){
 8001844:	687b      	ldr	r3, [r7, #4]
 8001846:	3304      	adds	r3, #4
 8001848:	681b      	ldr	r3, [r3, #0]
 800184a:	7f1b      	ldrb	r3, [r3, #28]
 800184c:	78fa      	ldrb	r2, [r7, #3]
 800184e:	429a      	cmp	r2, r3
 8001850:	d04c      	beq.n	80018ec <set_direction_straigh_roll+0x178>
				GPIO_WritePin_Afopt(ptrMotorhandler[1]->phandlerGPIOEN, dir_r & SET); // La direccion estaba en SET, la cambiamos a RESET
 8001852:	687b      	ldr	r3, [r7, #4]
 8001854:	3304      	adds	r3, #4
 8001856:	681b      	ldr	r3, [r3, #0]
 8001858:	6a5a      	ldr	r2, [r3, #36]	; 0x24
 800185a:	78fb      	ldrb	r3, [r7, #3]
 800185c:	f003 0301 	and.w	r3, r3, #1
 8001860:	b2db      	uxtb	r3, r3
 8001862:	4619      	mov	r1, r3
 8001864:	4610      	mov	r0, r2
 8001866:	f001 fed8 	bl	800361a <GPIO_WritePin_Afopt>
				PWMx_Toggle(ptrMotorhandler[1]->phandlerPWM);
 800186a:	687b      	ldr	r3, [r7, #4]
 800186c:	3304      	adds	r3, #4
 800186e:	681b      	ldr	r3, [r3, #0]
 8001870:	6a9b      	ldr	r3, [r3, #40]	; 0x28
 8001872:	4618      	mov	r0, r3
 8001874:	f002 fda2 	bl	80043bc <PWMx_Toggle>
}
 8001878:	e038      	b.n	80018ec <set_direction_straigh_roll+0x178>
			if ((ptrMotorhandler[0]->configMotor.dir != !dir_r)){
 800187a:	687b      	ldr	r3, [r7, #4]
 800187c:	681b      	ldr	r3, [r3, #0]
 800187e:	7f1b      	ldrb	r3, [r3, #28]
 8001880:	461a      	mov	r2, r3
 8001882:	78fb      	ldrb	r3, [r7, #3]
 8001884:	2b00      	cmp	r3, #0
 8001886:	bf0c      	ite	eq
 8001888:	2301      	moveq	r3, #1
 800188a:	2300      	movne	r3, #0
 800188c:	b2db      	uxtb	r3, r3
 800188e:	429a      	cmp	r2, r3
 8001890:	d012      	beq.n	80018b8 <set_direction_straigh_roll+0x144>
				GPIO_WritePin_Afopt(ptrMotorhandler[0]->phandlerGPIOIN, !dir_r & SET); // La direccion estaba en SET, la cambiamos a RESET
 8001892:	687b      	ldr	r3, [r7, #4]
 8001894:	681b      	ldr	r3, [r3, #0]
 8001896:	6a1a      	ldr	r2, [r3, #32]
 8001898:	78fb      	ldrb	r3, [r7, #3]
 800189a:	2b00      	cmp	r3, #0
 800189c:	bf0c      	ite	eq
 800189e:	2301      	moveq	r3, #1
 80018a0:	2300      	movne	r3, #0
 80018a2:	b2db      	uxtb	r3, r3
 80018a4:	4619      	mov	r1, r3
 80018a6:	4610      	mov	r0, r2
 80018a8:	f001 feb7 	bl	800361a <GPIO_WritePin_Afopt>
				PWMx_Toggle(ptrMotorhandler[0]->phandlerPWM);
 80018ac:	687b      	ldr	r3, [r7, #4]
 80018ae:	681b      	ldr	r3, [r3, #0]
 80018b0:	6a9b      	ldr	r3, [r3, #40]	; 0x28
 80018b2:	4618      	mov	r0, r3
 80018b4:	f002 fd82 	bl	80043bc <PWMx_Toggle>
			if ((ptrMotorhandler[1]->configMotor.dir != dir_r)){
 80018b8:	687b      	ldr	r3, [r7, #4]
 80018ba:	3304      	adds	r3, #4
 80018bc:	681b      	ldr	r3, [r3, #0]
 80018be:	7f1b      	ldrb	r3, [r3, #28]
 80018c0:	78fa      	ldrb	r2, [r7, #3]
 80018c2:	429a      	cmp	r2, r3
 80018c4:	d012      	beq.n	80018ec <set_direction_straigh_roll+0x178>
				GPIO_WritePin_Afopt(ptrMotorhandler[1]->phandlerGPIOEN, dir_r & SET); // La direccion estaba en RESET, la cambiamos a SET
 80018c6:	687b      	ldr	r3, [r7, #4]
 80018c8:	3304      	adds	r3, #4
 80018ca:	681b      	ldr	r3, [r3, #0]
 80018cc:	6a5a      	ldr	r2, [r3, #36]	; 0x24
 80018ce:	78fb      	ldrb	r3, [r7, #3]
 80018d0:	f003 0301 	and.w	r3, r3, #1
 80018d4:	b2db      	uxtb	r3, r3
 80018d6:	4619      	mov	r1, r3
 80018d8:	4610      	mov	r0, r2
 80018da:	f001 fe9e 	bl	800361a <GPIO_WritePin_Afopt>
				PWMx_Toggle(ptrMotorhandler[1]->phandlerPWM);
 80018de:	687b      	ldr	r3, [r7, #4]
 80018e0:	3304      	adds	r3, #4
 80018e2:	681b      	ldr	r3, [r3, #0]
 80018e4:	6a9b      	ldr	r3, [r3, #40]	; 0x28
 80018e6:	4618      	mov	r0, r3
 80018e8:	f002 fd68 	bl	80043bc <PWMx_Toggle>
}
 80018ec:	bf00      	nop
 80018ee:	3708      	adds	r7, #8
 80018f0:	46bd      	mov	sp, r7
 80018f2:	bd80      	pop	{r7, pc}

080018f4 <ITM_SendChar>:
/* ITM register addresses */
#define ITM_STIMULUS_PORT0   	*((volatile uint32_t*) 0xE0000000 )
#define ITM_TRACE_EN          	*((volatile uint32_t*) 0xE0000E00 )

void ITM_SendChar(uint8_t ch)
{
 80018f4:	b480      	push	{r7}
 80018f6:	b083      	sub	sp, #12
 80018f8:	af00      	add	r7, sp, #0
 80018fa:	4603      	mov	r3, r0
 80018fc:	71fb      	strb	r3, [r7, #7]

	//Enable TRCENA
	DEMCR |= ( 1 << 24);
 80018fe:	4b0f      	ldr	r3, [pc, #60]	; (800193c <ITM_SendChar+0x48>)
 8001900:	681b      	ldr	r3, [r3, #0]
 8001902:	4a0e      	ldr	r2, [pc, #56]	; (800193c <ITM_SendChar+0x48>)
 8001904:	f043 7380 	orr.w	r3, r3, #16777216	; 0x1000000
 8001908:	6013      	str	r3, [r2, #0]

	//enable stimulus port 0
	ITM_TRACE_EN |= ( 1 << 0);
 800190a:	4b0d      	ldr	r3, [pc, #52]	; (8001940 <ITM_SendChar+0x4c>)
 800190c:	681b      	ldr	r3, [r3, #0]
 800190e:	4a0c      	ldr	r2, [pc, #48]	; (8001940 <ITM_SendChar+0x4c>)
 8001910:	f043 0301 	orr.w	r3, r3, #1
 8001914:	6013      	str	r3, [r2, #0]

	// read FIFO status in bit [0]:
	while(!(ITM_STIMULUS_PORT0 & 1));
 8001916:	bf00      	nop
 8001918:	f04f 4360 	mov.w	r3, #3758096384	; 0xe0000000
 800191c:	681b      	ldr	r3, [r3, #0]
 800191e:	f003 0301 	and.w	r3, r3, #1
 8001922:	2b00      	cmp	r3, #0
 8001924:	d0f8      	beq.n	8001918 <ITM_SendChar+0x24>

	//Write to ITM stimulus port0
	ITM_STIMULUS_PORT0 = ch;
 8001926:	f04f 4260 	mov.w	r2, #3758096384	; 0xe0000000
 800192a:	79fb      	ldrb	r3, [r7, #7]
 800192c:	6013      	str	r3, [r2, #0]
}
 800192e:	bf00      	nop
 8001930:	370c      	adds	r7, #12
 8001932:	46bd      	mov	sp, r7
 8001934:	f85d 7b04 	ldr.w	r7, [sp], #4
 8001938:	4770      	bx	lr
 800193a:	bf00      	nop
 800193c:	e000edfc 	.word	0xe000edfc
 8001940:	e0000e00 	.word	0xe0000e00

08001944 <_getpid>:
void initialise_monitor_handles()
{
}

int _getpid(void)
{
 8001944:	b480      	push	{r7}
 8001946:	af00      	add	r7, sp, #0
	return 1;
 8001948:	2301      	movs	r3, #1
}
 800194a:	4618      	mov	r0, r3
 800194c:	46bd      	mov	sp, r7
 800194e:	f85d 7b04 	ldr.w	r7, [sp], #4
 8001952:	4770      	bx	lr

08001954 <_kill>:

int _kill(int pid, int sig)
{
 8001954:	b580      	push	{r7, lr}
 8001956:	b082      	sub	sp, #8
 8001958:	af00      	add	r7, sp, #0
 800195a:	6078      	str	r0, [r7, #4]
 800195c:	6039      	str	r1, [r7, #0]
	errno = EINVAL;
 800195e:	f004 f82d 	bl	80059bc <__errno>
 8001962:	4603      	mov	r3, r0
 8001964:	2216      	movs	r2, #22
 8001966:	601a      	str	r2, [r3, #0]
	return -1;
 8001968:	f04f 33ff 	mov.w	r3, #4294967295
}
 800196c:	4618      	mov	r0, r3
 800196e:	3708      	adds	r7, #8
 8001970:	46bd      	mov	sp, r7
 8001972:	bd80      	pop	{r7, pc}

08001974 <_exit>:

void _exit (int status)
{
 8001974:	b580      	push	{r7, lr}
 8001976:	b082      	sub	sp, #8
 8001978:	af00      	add	r7, sp, #0
 800197a:	6078      	str	r0, [r7, #4]
	_kill(status, -1);
 800197c:	f04f 31ff 	mov.w	r1, #4294967295
 8001980:	6878      	ldr	r0, [r7, #4]
 8001982:	f7ff ffe7 	bl	8001954 <_kill>
	while (1) {}		/* Make sure we hang here */
 8001986:	e7fe      	b.n	8001986 <_exit+0x12>

08001988 <_read>:
}

__attribute__((weak)) int _read(int file, char *ptr, int len)
{
 8001988:	b580      	push	{r7, lr}
 800198a:	b086      	sub	sp, #24
 800198c:	af00      	add	r7, sp, #0
 800198e:	60f8      	str	r0, [r7, #12]
 8001990:	60b9      	str	r1, [r7, #8]
 8001992:	607a      	str	r2, [r7, #4]
	int DataIdx;

	for (DataIdx = 0; DataIdx < len; DataIdx++)
 8001994:	2300      	movs	r3, #0
 8001996:	617b      	str	r3, [r7, #20]
 8001998:	e00a      	b.n	80019b0 <_read+0x28>
	{
		*ptr++ = __io_getchar();
 800199a:	f3af 8000 	nop.w
 800199e:	4601      	mov	r1, r0
 80019a0:	68bb      	ldr	r3, [r7, #8]
 80019a2:	1c5a      	adds	r2, r3, #1
 80019a4:	60ba      	str	r2, [r7, #8]
 80019a6:	b2ca      	uxtb	r2, r1
 80019a8:	701a      	strb	r2, [r3, #0]
	for (DataIdx = 0; DataIdx < len; DataIdx++)
 80019aa:	697b      	ldr	r3, [r7, #20]
 80019ac:	3301      	adds	r3, #1
 80019ae:	617b      	str	r3, [r7, #20]
 80019b0:	697a      	ldr	r2, [r7, #20]
 80019b2:	687b      	ldr	r3, [r7, #4]
 80019b4:	429a      	cmp	r2, r3
 80019b6:	dbf0      	blt.n	800199a <_read+0x12>
	}

return len;
 80019b8:	687b      	ldr	r3, [r7, #4]
}
 80019ba:	4618      	mov	r0, r3
 80019bc:	3718      	adds	r7, #24
 80019be:	46bd      	mov	sp, r7
 80019c0:	bd80      	pop	{r7, pc}

080019c2 <_write>:

__attribute__((weak)) int _write(int file, char *ptr, int len)
{
 80019c2:	b580      	push	{r7, lr}
 80019c4:	b086      	sub	sp, #24
 80019c6:	af00      	add	r7, sp, #0
 80019c8:	60f8      	str	r0, [r7, #12]
 80019ca:	60b9      	str	r1, [r7, #8]
 80019cc:	607a      	str	r2, [r7, #4]
	int DataIdx;

	for (DataIdx = 0; DataIdx < len; DataIdx++)
 80019ce:	2300      	movs	r3, #0
 80019d0:	617b      	str	r3, [r7, #20]
 80019d2:	e009      	b.n	80019e8 <_write+0x26>
	{
		//__io_putchar(*ptr++);
		ITM_SendChar(*ptr++);
 80019d4:	68bb      	ldr	r3, [r7, #8]
 80019d6:	1c5a      	adds	r2, r3, #1
 80019d8:	60ba      	str	r2, [r7, #8]
 80019da:	781b      	ldrb	r3, [r3, #0]
 80019dc:	4618      	mov	r0, r3
 80019de:	f7ff ff89 	bl	80018f4 <ITM_SendChar>
	for (DataIdx = 0; DataIdx < len; DataIdx++)
 80019e2:	697b      	ldr	r3, [r7, #20]
 80019e4:	3301      	adds	r3, #1
 80019e6:	617b      	str	r3, [r7, #20]
 80019e8:	697a      	ldr	r2, [r7, #20]
 80019ea:	687b      	ldr	r3, [r7, #4]
 80019ec:	429a      	cmp	r2, r3
 80019ee:	dbf1      	blt.n	80019d4 <_write+0x12>
	}
	return len;
 80019f0:	687b      	ldr	r3, [r7, #4]
}
 80019f2:	4618      	mov	r0, r3
 80019f4:	3718      	adds	r7, #24
 80019f6:	46bd      	mov	sp, r7
 80019f8:	bd80      	pop	{r7, pc}

080019fa <_close>:

int _close(int file)
{
 80019fa:	b480      	push	{r7}
 80019fc:	b083      	sub	sp, #12
 80019fe:	af00      	add	r7, sp, #0
 8001a00:	6078      	str	r0, [r7, #4]
	return -1;
 8001a02:	f04f 33ff 	mov.w	r3, #4294967295
}
 8001a06:	4618      	mov	r0, r3
 8001a08:	370c      	adds	r7, #12
 8001a0a:	46bd      	mov	sp, r7
 8001a0c:	f85d 7b04 	ldr.w	r7, [sp], #4
 8001a10:	4770      	bx	lr

08001a12 <_fstat>:


int _fstat(int file, struct stat *st)
{
 8001a12:	b480      	push	{r7}
 8001a14:	b083      	sub	sp, #12
 8001a16:	af00      	add	r7, sp, #0
 8001a18:	6078      	str	r0, [r7, #4]
 8001a1a:	6039      	str	r1, [r7, #0]
	st->st_mode = S_IFCHR;
 8001a1c:	683b      	ldr	r3, [r7, #0]
 8001a1e:	f44f 5200 	mov.w	r2, #8192	; 0x2000
 8001a22:	605a      	str	r2, [r3, #4]
	return 0;
 8001a24:	2300      	movs	r3, #0
}
 8001a26:	4618      	mov	r0, r3
 8001a28:	370c      	adds	r7, #12
 8001a2a:	46bd      	mov	sp, r7
 8001a2c:	f85d 7b04 	ldr.w	r7, [sp], #4
 8001a30:	4770      	bx	lr

08001a32 <_isatty>:

int _isatty(int file)
{
 8001a32:	b480      	push	{r7}
 8001a34:	b083      	sub	sp, #12
 8001a36:	af00      	add	r7, sp, #0
 8001a38:	6078      	str	r0, [r7, #4]
	return 1;
 8001a3a:	2301      	movs	r3, #1
}
 8001a3c:	4618      	mov	r0, r3
 8001a3e:	370c      	adds	r7, #12
 8001a40:	46bd      	mov	sp, r7
 8001a42:	f85d 7b04 	ldr.w	r7, [sp], #4
 8001a46:	4770      	bx	lr

08001a48 <_lseek>:

int _lseek(int file, int ptr, int dir)
{
 8001a48:	b480      	push	{r7}
 8001a4a:	b085      	sub	sp, #20
 8001a4c:	af00      	add	r7, sp, #0
 8001a4e:	60f8      	str	r0, [r7, #12]
 8001a50:	60b9      	str	r1, [r7, #8]
 8001a52:	607a      	str	r2, [r7, #4]
	return 0;
 8001a54:	2300      	movs	r3, #0
}
 8001a56:	4618      	mov	r0, r3
 8001a58:	3714      	adds	r7, #20
 8001a5a:	46bd      	mov	sp, r7
 8001a5c:	f85d 7b04 	ldr.w	r7, [sp], #4
 8001a60:	4770      	bx	lr
	...

08001a64 <Reset_Handler>:

  .section .text.Reset_Handler
  .weak Reset_Handler
  .type Reset_Handler, %function
Reset_Handler:
  ldr   r0, =_estack
 8001a64:	480d      	ldr	r0, [pc, #52]	; (8001a9c <LoopForever+0x2>)
  mov   sp, r0          /* set stack pointer */
 8001a66:	4685      	mov	sp, r0
/* Call the clock system initialization function.*/
  bl  SystemInit
 8001a68:	f003 fce2 	bl	8005430 <SystemInit>

/* Copy the data segment initializers from flash to SRAM */
  ldr r0, =_sdata
 8001a6c:	480c      	ldr	r0, [pc, #48]	; (8001aa0 <LoopForever+0x6>)
  ldr r1, =_edata
 8001a6e:	490d      	ldr	r1, [pc, #52]	; (8001aa4 <LoopForever+0xa>)
  ldr r2, =_sidata
 8001a70:	4a0d      	ldr	r2, [pc, #52]	; (8001aa8 <LoopForever+0xe>)
  movs r3, #0
 8001a72:	2300      	movs	r3, #0
  b LoopCopyDataInit
 8001a74:	e002      	b.n	8001a7c <LoopCopyDataInit>

08001a76 <CopyDataInit>:

CopyDataInit:
  ldr r4, [r2, r3]
 8001a76:	58d4      	ldr	r4, [r2, r3]
  str r4, [r0, r3]
 8001a78:	50c4      	str	r4, [r0, r3]
  adds r3, r3, #4
 8001a7a:	3304      	adds	r3, #4

08001a7c <LoopCopyDataInit>:

LoopCopyDataInit:
  adds r4, r0, r3
 8001a7c:	18c4      	adds	r4, r0, r3
  cmp r4, r1
 8001a7e:	428c      	cmp	r4, r1
  bcc CopyDataInit
 8001a80:	d3f9      	bcc.n	8001a76 <CopyDataInit>

/* Zero fill the bss segment. */
  ldr r2, =_sbss
 8001a82:	4a0a      	ldr	r2, [pc, #40]	; (8001aac <LoopForever+0x12>)
  ldr r4, =_ebss
 8001a84:	4c0a      	ldr	r4, [pc, #40]	; (8001ab0 <LoopForever+0x16>)
  movs r3, #0
 8001a86:	2300      	movs	r3, #0
  b LoopFillZerobss
 8001a88:	e001      	b.n	8001a8e <LoopFillZerobss>

08001a8a <FillZerobss>:

FillZerobss:
  str  r3, [r2]
 8001a8a:	6013      	str	r3, [r2, #0]
  adds r2, r2, #4
 8001a8c:	3204      	adds	r2, #4

08001a8e <LoopFillZerobss>:

LoopFillZerobss:
  cmp r2, r4
 8001a8e:	42a2      	cmp	r2, r4
  bcc FillZerobss
 8001a90:	d3fb      	bcc.n	8001a8a <FillZerobss>

/* Call static constructors */
  bl __libc_init_array
 8001a92:	f003 ff99 	bl	80059c8 <__libc_init_array>
/* Call the application's entry point.*/
  bl main
 8001a96:	f7ff f8ff 	bl	8000c98 <main>

08001a9a <LoopForever>:

LoopForever:
    b LoopForever
 8001a9a:	e7fe      	b.n	8001a9a <LoopForever>
  ldr   r0, =_estack
 8001a9c:	20020000 	.word	0x20020000
  ldr r0, =_sdata
 8001aa0:	20000000 	.word	0x20000000
  ldr r1, =_edata
 8001aa4:	200001e0 	.word	0x200001e0
  ldr r2, =_sidata
 8001aa8:	0800af70 	.word	0x0800af70
  ldr r2, =_sbss
 8001aac:	200001e0 	.word	0x200001e0
  ldr r4, =_ebss
 8001ab0:	200004b8 	.word	0x200004b8

08001ab4 <ADC_IRQHandler>:
 * @retval : None
*/
  .section .text.Default_Handler,"ax",%progbits
Default_Handler:
Infinite_Loop:
  b Infinite_Loop
 8001ab4:	e7fe      	b.n	8001ab4 <ADC_IRQHandler>
	...

08001ab8 <__NVIC_EnableIRQ>:
  \details Enables a device specific interrupt in the NVIC interrupt controller.
  \param [in]      IRQn  Device specific interrupt number.
  \note    IRQn must not be negative.
 */
__STATIC_INLINE void __NVIC_EnableIRQ(IRQn_Type IRQn)
{
 8001ab8:	b480      	push	{r7}
 8001aba:	b083      	sub	sp, #12
 8001abc:	af00      	add	r7, sp, #0
 8001abe:	4603      	mov	r3, r0
 8001ac0:	71fb      	strb	r3, [r7, #7]
  if ((int32_t)(IRQn) >= 0)
 8001ac2:	f997 3007 	ldrsb.w	r3, [r7, #7]
 8001ac6:	2b00      	cmp	r3, #0
 8001ac8:	db0b      	blt.n	8001ae2 <__NVIC_EnableIRQ+0x2a>
  {
    NVIC->ISER[(((uint32_t)IRQn) >> 5UL)] = (uint32_t)(1UL << (((uint32_t)IRQn) & 0x1FUL));
 8001aca:	79fb      	ldrb	r3, [r7, #7]
 8001acc:	f003 021f 	and.w	r2, r3, #31
 8001ad0:	4907      	ldr	r1, [pc, #28]	; (8001af0 <__NVIC_EnableIRQ+0x38>)
 8001ad2:	f997 3007 	ldrsb.w	r3, [r7, #7]
 8001ad6:	095b      	lsrs	r3, r3, #5
 8001ad8:	2001      	movs	r0, #1
 8001ada:	fa00 f202 	lsl.w	r2, r0, r2
 8001ade:	f841 2023 	str.w	r2, [r1, r3, lsl #2]
  }
}
 8001ae2:	bf00      	nop
 8001ae4:	370c      	adds	r7, #12
 8001ae6:	46bd      	mov	sp, r7
 8001ae8:	f85d 7b04 	ldr.w	r7, [sp], #4
 8001aec:	4770      	bx	lr
 8001aee:	bf00      	nop
 8001af0:	e000e100 	.word	0xe000e100

08001af4 <inTIM4>:
 *  el sistema global de interrupciones, activar la IRQ especfica y luego volver a encender
 *  el sistema.
 */


void inTIM4(void){
 8001af4:	b580      	push	{r7, lr}
 8001af6:	af00      	add	r7, sp, #0

	//////////////////////////////////////////////////// /////////////////// //////////////////////////////////////////////

	////////////////////////////////Timer 4 para contador de tiempo ////////////////////////////////////

	handlerTIM4_time.ptrTIMx                           = TIM4;
 8001af8:	4b0a      	ldr	r3, [pc, #40]	; (8001b24 <inTIM4+0x30>)
 8001afa:	4a0b      	ldr	r2, [pc, #44]	; (8001b28 <inTIM4+0x34>)
 8001afc:	601a      	str	r2, [r3, #0]
	handlerTIM4_time.TIMx_Config.TIMx_interruptEnable  = BTIMER_DISABLE_INTERRUPT;
 8001afe:	4b09      	ldr	r3, [pc, #36]	; (8001b24 <inTIM4+0x30>)
 8001b00:	2200      	movs	r2, #0
 8001b02:	741a      	strb	r2, [r3, #16]
	handlerTIM4_time.TIMx_Config.TIMx_mode             = BTIMER_MODE_UP;
 8001b04:	4b07      	ldr	r3, [pc, #28]	; (8001b24 <inTIM4+0x30>)
 8001b06:	2200      	movs	r2, #0
 8001b08:	711a      	strb	r2, [r3, #4]
	handlerTIM4_time.TIMx_Config.TIMx_speed            = BTIMER_SPEED_100MHz_100us;
 8001b0a:	4b06      	ldr	r3, [pc, #24]	; (8001b24 <inTIM4+0x30>)
 8001b0c:	f242 7210 	movw	r2, #10000	; 0x2710
 8001b10:	609a      	str	r2, [r3, #8]
	handlerTIM4_time.TIMx_Config.TIMx_period           = 10;
 8001b12:	4b04      	ldr	r3, [pc, #16]	; (8001b24 <inTIM4+0x30>)
 8001b14:	220a      	movs	r2, #10
 8001b16:	60da      	str	r2, [r3, #12]
	BasicTimer_Config(&handlerTIM4_time);
 8001b18:	4802      	ldr	r0, [pc, #8]	; (8001b24 <inTIM4+0x30>)
 8001b1a:	f000 f807 	bl	8001b2c <BasicTimer_Config>

}
 8001b1e:	bf00      	nop
 8001b20:	bd80      	pop	{r7, pc}
 8001b22:	bf00      	nop
 8001b24:	200002d0 	.word	0x200002d0
 8001b28:	40000800 	.word	0x40000800

08001b2c <BasicTimer_Config>:

void BasicTimer_Config(BasicTimer_Handler_t *ptrBTimerHandler){
 8001b2c:	b580      	push	{r7, lr}
 8001b2e:	b084      	sub	sp, #16
 8001b30:	af00      	add	r7, sp, #0
 8001b32:	6078      	str	r0, [r7, #4]

	uint32_t period = 0;
 8001b34:	2300      	movs	r3, #0
 8001b36:	60fb      	str	r3, [r7, #12]
	uint32_t speed   = 0;
 8001b38:	2300      	movs	r3, #0
 8001b3a:	60bb      	str	r3, [r7, #8]
  \details Disables IRQ interrupts by setting the I-bit in the CPSR.
           Can only be executed in Privileged modes.
 */
__STATIC_FORCEINLINE void __disable_irq(void)
{
  __ASM volatile ("cpsid i" : : : "memory");
 8001b3c:	b672      	cpsid	i
}
 8001b3e:	bf00      	nop

	/* 0. Desactivamos las interrupciones globales mientras configuramos el sistema.*/
	__disable_irq();

	/* 1. Activar la seal de reloj del perifrico requerido */
	if (ptrBTimerHandler->ptrTIMx == TIM1){
 8001b40:	687b      	ldr	r3, [r7, #4]
 8001b42:	681b      	ldr	r3, [r3, #0]
 8001b44:	4a85      	ldr	r2, [pc, #532]	; (8001d5c <BasicTimer_Config+0x230>)
 8001b46:	4293      	cmp	r3, r2
 8001b48:	d106      	bne.n	8001b58 <BasicTimer_Config+0x2c>
		RCC->APB2ENR |= RCC_APB2ENR_TIM1EN;
 8001b4a:	4b85      	ldr	r3, [pc, #532]	; (8001d60 <BasicTimer_Config+0x234>)
 8001b4c:	6c5b      	ldr	r3, [r3, #68]	; 0x44
 8001b4e:	4a84      	ldr	r2, [pc, #528]	; (8001d60 <BasicTimer_Config+0x234>)
 8001b50:	f043 0301 	orr.w	r3, r3, #1
 8001b54:	6453      	str	r3, [r2, #68]	; 0x44
 8001b56:	e030      	b.n	8001bba <BasicTimer_Config+0x8e>

	}else if(ptrBTimerHandler->ptrTIMx == TIM2){
 8001b58:	687b      	ldr	r3, [r7, #4]
 8001b5a:	681b      	ldr	r3, [r3, #0]
 8001b5c:	f1b3 4f80 	cmp.w	r3, #1073741824	; 0x40000000
 8001b60:	d106      	bne.n	8001b70 <BasicTimer_Config+0x44>
		// Registro del RCC que nos activa la seal de reloj para el TIM2
		RCC->APB1ENR |= RCC_APB1ENR_TIM2EN;
 8001b62:	4b7f      	ldr	r3, [pc, #508]	; (8001d60 <BasicTimer_Config+0x234>)
 8001b64:	6c1b      	ldr	r3, [r3, #64]	; 0x40
 8001b66:	4a7e      	ldr	r2, [pc, #504]	; (8001d60 <BasicTimer_Config+0x234>)
 8001b68:	f043 0301 	orr.w	r3, r3, #1
 8001b6c:	6413      	str	r3, [r2, #64]	; 0x40
 8001b6e:	e024      	b.n	8001bba <BasicTimer_Config+0x8e>
	}
	else if(ptrBTimerHandler->ptrTIMx == TIM3){
 8001b70:	687b      	ldr	r3, [r7, #4]
 8001b72:	681b      	ldr	r3, [r3, #0]
 8001b74:	4a7b      	ldr	r2, [pc, #492]	; (8001d64 <BasicTimer_Config+0x238>)
 8001b76:	4293      	cmp	r3, r2
 8001b78:	d106      	bne.n	8001b88 <BasicTimer_Config+0x5c>
		// Registro del RCC que nos activa la seal de reloj para el TIM3
		RCC->APB1ENR |= RCC_APB1ENR_TIM3EN;
 8001b7a:	4b79      	ldr	r3, [pc, #484]	; (8001d60 <BasicTimer_Config+0x234>)
 8001b7c:	6c1b      	ldr	r3, [r3, #64]	; 0x40
 8001b7e:	4a78      	ldr	r2, [pc, #480]	; (8001d60 <BasicTimer_Config+0x234>)
 8001b80:	f043 0302 	orr.w	r3, r3, #2
 8001b84:	6413      	str	r3, [r2, #64]	; 0x40
 8001b86:	e018      	b.n	8001bba <BasicTimer_Config+0x8e>
	}
	else if(ptrBTimerHandler->ptrTIMx == TIM4){
 8001b88:	687b      	ldr	r3, [r7, #4]
 8001b8a:	681b      	ldr	r3, [r3, #0]
 8001b8c:	4a76      	ldr	r2, [pc, #472]	; (8001d68 <BasicTimer_Config+0x23c>)
 8001b8e:	4293      	cmp	r3, r2
 8001b90:	d106      	bne.n	8001ba0 <BasicTimer_Config+0x74>
		// Registro del RCC que nos activa la seal de reloj para el TIM4
		RCC->APB1ENR |= RCC_APB1ENR_TIM4EN;
 8001b92:	4b73      	ldr	r3, [pc, #460]	; (8001d60 <BasicTimer_Config+0x234>)
 8001b94:	6c1b      	ldr	r3, [r3, #64]	; 0x40
 8001b96:	4a72      	ldr	r2, [pc, #456]	; (8001d60 <BasicTimer_Config+0x234>)
 8001b98:	f043 0304 	orr.w	r3, r3, #4
 8001b9c:	6413      	str	r3, [r2, #64]	; 0x40
 8001b9e:	e00c      	b.n	8001bba <BasicTimer_Config+0x8e>
	}
	else if(ptrBTimerHandler->ptrTIMx == TIM5){
 8001ba0:	687b      	ldr	r3, [r7, #4]
 8001ba2:	681b      	ldr	r3, [r3, #0]
 8001ba4:	4a71      	ldr	r2, [pc, #452]	; (8001d6c <BasicTimer_Config+0x240>)
 8001ba6:	4293      	cmp	r3, r2
 8001ba8:	d106      	bne.n	8001bb8 <BasicTimer_Config+0x8c>
		// Registro del RCC que nos activa la seal de reloj para el TIM5
		RCC->APB1ENR |= RCC_APB1ENR_TIM5EN;
 8001baa:	4b6d      	ldr	r3, [pc, #436]	; (8001d60 <BasicTimer_Config+0x234>)
 8001bac:	6c1b      	ldr	r3, [r3, #64]	; 0x40
 8001bae:	4a6c      	ldr	r2, [pc, #432]	; (8001d60 <BasicTimer_Config+0x234>)
 8001bb0:	f043 0308 	orr.w	r3, r3, #8
 8001bb4:	6413      	str	r3, [r2, #64]	; 0x40
 8001bb6:	e000      	b.n	8001bba <BasicTimer_Config+0x8e>
	}
	else{
		__NOP();
 8001bb8:	bf00      	nop
	}

	//Dejamos una relacion 1 a 1 para la velocidad de conteo del timer
	ptrBTimerHandler->ptrTIMx->CR1 &= ~(TIM_CR1_CKD);
 8001bba:	687b      	ldr	r3, [r7, #4]
 8001bbc:	681b      	ldr	r3, [r3, #0]
 8001bbe:	681a      	ldr	r2, [r3, #0]
 8001bc0:	687b      	ldr	r3, [r7, #4]
 8001bc2:	681b      	ldr	r3, [r3, #0]
 8001bc4:	f422 7240 	bic.w	r2, r2, #768	; 0x300
 8001bc8:	601a      	str	r2, [r3, #0]
	 * Recordar que el prescaler nos indica la velocidad a la que se incrementa el counter, de forma que
	 * periodo_incremento * veces_incremento_counter = periodo_update
	 * Modificar el valor del registro PSC en el TIM utilizado
	 */

	ptrBTimerHandler->ptrTIMx->PSC = ptrBTimerHandler->TIMx_Config.TIMx_speed;
 8001bca:	687b      	ldr	r3, [r7, #4]
 8001bcc:	681b      	ldr	r3, [r3, #0]
 8001bce:	687a      	ldr	r2, [r7, #4]
 8001bd0:	6892      	ldr	r2, [r2, #8]
 8001bd2:	629a      	str	r2, [r3, #40]	; 0x28


	/* 3. Configuramos la direccin del counter (up/down)*/
	if(ptrBTimerHandler->TIMx_Config.TIMx_mode == BTIMER_MODE_UP){
 8001bd4:	687b      	ldr	r3, [r7, #4]
 8001bd6:	791b      	ldrb	r3, [r3, #4]
 8001bd8:	2b00      	cmp	r3, #0
 8001bda:	f040 80d3 	bne.w	8001d84 <BasicTimer_Config+0x258>

		/* 3a. Estamos en UP_Mode, el limite se carga en ARR y se comienza en 0 */
		// Configurar el registro que nos controla el modo up or down
		ptrBTimerHandler->ptrTIMx->CR1 &= ~TIM_CR1_DIR;
 8001bde:	687b      	ldr	r3, [r7, #4]
 8001be0:	681b      	ldr	r3, [r3, #0]
 8001be2:	681a      	ldr	r2, [r3, #0]
 8001be4:	687b      	ldr	r3, [r7, #4]
 8001be6:	681b      	ldr	r3, [r3, #0]
 8001be8:	f022 0210 	bic.w	r2, r2, #16
 8001bec:	601a      	str	r2, [r3, #0]

		speed = ptrBTimerHandler->TIMx_Config.TIMx_speed;
 8001bee:	687b      	ldr	r3, [r7, #4]
 8001bf0:	689b      	ldr	r3, [r3, #8]
 8001bf2:	60bb      	str	r3, [r7, #8]

		/* 3b. Configuramos el Auto-reload. Este es el "limite" hasta donde el CNT va a contar */
		if ((speed == BTIMER_SPEED_16MHz_10us )
 8001bf4:	68bb      	ldr	r3, [r7, #8]
 8001bf6:	2ba0      	cmp	r3, #160	; 0xa0
 8001bf8:	d022      	beq.n	8001c40 <BasicTimer_Config+0x114>
		  ||(speed == BTIMER_SPEED_20MHz_10us)
 8001bfa:	68bb      	ldr	r3, [r7, #8]
 8001bfc:	2bc8      	cmp	r3, #200	; 0xc8
 8001bfe:	d01f      	beq.n	8001c40 <BasicTimer_Config+0x114>
		  ||(speed == BTIMER_SPEED_30MHz_10us)
 8001c00:	68bb      	ldr	r3, [r7, #8]
 8001c02:	f5b3 7f96 	cmp.w	r3, #300	; 0x12c
 8001c06:	d01b      	beq.n	8001c40 <BasicTimer_Config+0x114>
		  ||(speed == BTIMER_SPEED_40MHz_10us)
 8001c08:	68bb      	ldr	r3, [r7, #8]
 8001c0a:	f5b3 7fc8 	cmp.w	r3, #400	; 0x190
 8001c0e:	d017      	beq.n	8001c40 <BasicTimer_Config+0x114>
		  ||(speed == BTIMER_SPEED_50MHz_10us)
 8001c10:	68bb      	ldr	r3, [r7, #8]
 8001c12:	f5b3 7ffa 	cmp.w	r3, #500	; 0x1f4
 8001c16:	d013      	beq.n	8001c40 <BasicTimer_Config+0x114>
		  ||(speed == BTIMER_SPEED_60MHz_10us)
 8001c18:	68bb      	ldr	r3, [r7, #8]
 8001c1a:	f5b3 7f16 	cmp.w	r3, #600	; 0x258
 8001c1e:	d00f      	beq.n	8001c40 <BasicTimer_Config+0x114>
		  ||(speed == BTIMER_SPEED_70MHz_10us)
 8001c20:	68bb      	ldr	r3, [r7, #8]
 8001c22:	f5b3 7f2f 	cmp.w	r3, #700	; 0x2bc
 8001c26:	d00b      	beq.n	8001c40 <BasicTimer_Config+0x114>
		  ||(speed == BTIMER_SPEED_80MHz_10us)
 8001c28:	68bb      	ldr	r3, [r7, #8]
 8001c2a:	f5b3 7f48 	cmp.w	r3, #800	; 0x320
 8001c2e:	d007      	beq.n	8001c40 <BasicTimer_Config+0x114>
		  ||(speed == BTIMER_SPEED_90MHz_10us)
 8001c30:	68bb      	ldr	r3, [r7, #8]
 8001c32:	f5b3 7f61 	cmp.w	r3, #900	; 0x384
 8001c36:	d003      	beq.n	8001c40 <BasicTimer_Config+0x114>
		  ||(speed == BTIMER_SPEED_100MHz_10us)){
 8001c38:	68bb      	ldr	r3, [r7, #8]
 8001c3a:	f5b3 7f7a 	cmp.w	r3, #1000	; 0x3e8
 8001c3e:	d10b      	bne.n	8001c58 <BasicTimer_Config+0x12c>

			period = ptrBTimerHandler->TIMx_Config.TIMx_period * 100 ;
 8001c40:	687b      	ldr	r3, [r7, #4]
 8001c42:	68db      	ldr	r3, [r3, #12]
 8001c44:	2264      	movs	r2, #100	; 0x64
 8001c46:	fb02 f303 	mul.w	r3, r2, r3
 8001c4a:	60fb      	str	r3, [r7, #12]

			ptrBTimerHandler->ptrTIMx->ARR = period - 1;
 8001c4c:	687b      	ldr	r3, [r7, #4]
 8001c4e:	681b      	ldr	r3, [r3, #0]
 8001c50:	68fa      	ldr	r2, [r7, #12]
 8001c52:	3a01      	subs	r2, #1
 8001c54:	62da      	str	r2, [r3, #44]	; 0x2c
 8001c56:	e07c      	b.n	8001d52 <BasicTimer_Config+0x226>

		}else if ((speed == BTIMER_SPEED_16MHz_100us )
 8001c58:	68bb      	ldr	r3, [r7, #8]
 8001c5a:	f5b3 6fc8 	cmp.w	r3, #1600	; 0x640
 8001c5e:	d029      	beq.n	8001cb4 <BasicTimer_Config+0x188>
			   || (speed == BTIMER_SPEED_20MHz_100us)
 8001c60:	68bb      	ldr	r3, [r7, #8]
 8001c62:	f5b3 6ffa 	cmp.w	r3, #2000	; 0x7d0
 8001c66:	d025      	beq.n	8001cb4 <BasicTimer_Config+0x188>
			   || (speed == BTIMER_SPEED_30MHz_100us)
 8001c68:	68bb      	ldr	r3, [r7, #8]
 8001c6a:	f640 32b8 	movw	r2, #3000	; 0xbb8
 8001c6e:	4293      	cmp	r3, r2
 8001c70:	d020      	beq.n	8001cb4 <BasicTimer_Config+0x188>
			   || (speed == BTIMER_SPEED_40MHz_100us)
 8001c72:	68bb      	ldr	r3, [r7, #8]
 8001c74:	f5b3 6f7a 	cmp.w	r3, #4000	; 0xfa0
 8001c78:	d01c      	beq.n	8001cb4 <BasicTimer_Config+0x188>
			   || (speed == BTIMER_SPEED_50MHz_100us)
 8001c7a:	68bb      	ldr	r3, [r7, #8]
 8001c7c:	f241 3288 	movw	r2, #5000	; 0x1388
 8001c80:	4293      	cmp	r3, r2
 8001c82:	d017      	beq.n	8001cb4 <BasicTimer_Config+0x188>
			   || (speed == BTIMER_SPEED_60MHz_100us)
 8001c84:	68bb      	ldr	r3, [r7, #8]
 8001c86:	f241 7270 	movw	r2, #6000	; 0x1770
 8001c8a:	4293      	cmp	r3, r2
 8001c8c:	d012      	beq.n	8001cb4 <BasicTimer_Config+0x188>
			   || (speed == BTIMER_SPEED_70MHz_100us)
 8001c8e:	68bb      	ldr	r3, [r7, #8]
 8001c90:	f641 3258 	movw	r2, #7000	; 0x1b58
 8001c94:	4293      	cmp	r3, r2
 8001c96:	d00d      	beq.n	8001cb4 <BasicTimer_Config+0x188>
			   || (speed == BTIMER_SPEED_80MHz_100us)
 8001c98:	68bb      	ldr	r3, [r7, #8]
 8001c9a:	f5b3 5ffa 	cmp.w	r3, #8000	; 0x1f40
 8001c9e:	d009      	beq.n	8001cb4 <BasicTimer_Config+0x188>
			   || (speed == BTIMER_SPEED_90MHz_100us)
 8001ca0:	68bb      	ldr	r3, [r7, #8]
 8001ca2:	f242 3228 	movw	r2, #9000	; 0x2328
 8001ca6:	4293      	cmp	r3, r2
 8001ca8:	d004      	beq.n	8001cb4 <BasicTimer_Config+0x188>
			   || (speed == BTIMER_SPEED_100MHz_100us)){
 8001caa:	68bb      	ldr	r3, [r7, #8]
 8001cac:	f242 7210 	movw	r2, #10000	; 0x2710
 8001cb0:	4293      	cmp	r3, r2
 8001cb2:	d10c      	bne.n	8001cce <BasicTimer_Config+0x1a2>

			period = ptrBTimerHandler->TIMx_Config.TIMx_period * 10   ;
 8001cb4:	687b      	ldr	r3, [r7, #4]
 8001cb6:	68da      	ldr	r2, [r3, #12]
 8001cb8:	4613      	mov	r3, r2
 8001cba:	009b      	lsls	r3, r3, #2
 8001cbc:	4413      	add	r3, r2
 8001cbe:	005b      	lsls	r3, r3, #1
 8001cc0:	60fb      	str	r3, [r7, #12]

			ptrBTimerHandler->ptrTIMx->ARR = period - 1;
 8001cc2:	687b      	ldr	r3, [r7, #4]
 8001cc4:	681b      	ldr	r3, [r3, #0]
 8001cc6:	68fa      	ldr	r2, [r7, #12]
 8001cc8:	3a01      	subs	r2, #1
 8001cca:	62da      	str	r2, [r3, #44]	; 0x2c
 8001ccc:	e041      	b.n	8001d52 <BasicTimer_Config+0x226>



		}else if ((speed == BTIMER_SPEED_16MHz_1ms)
 8001cce:	68bb      	ldr	r3, [r7, #8]
 8001cd0:	f5b3 5f7a 	cmp.w	r3, #16000	; 0x3e80
 8001cd4:	d028      	beq.n	8001d28 <BasicTimer_Config+0x1fc>
			   || (speed == BTIMER_SPEED_20MHz_1ms)
 8001cd6:	68bb      	ldr	r3, [r7, #8]
 8001cd8:	f644 6220 	movw	r2, #20000	; 0x4e20
 8001cdc:	4293      	cmp	r3, r2
 8001cde:	d023      	beq.n	8001d28 <BasicTimer_Config+0x1fc>
			   || (speed == BTIMER_SPEED_30MHz_1ms)
 8001ce0:	68bb      	ldr	r3, [r7, #8]
 8001ce2:	f247 5230 	movw	r2, #30000	; 0x7530
 8001ce6:	4293      	cmp	r3, r2
 8001ce8:	d01e      	beq.n	8001d28 <BasicTimer_Config+0x1fc>
			   || (speed == BTIMER_SPEED_40MHz_1ms)
 8001cea:	68bb      	ldr	r3, [r7, #8]
 8001cec:	f649 4240 	movw	r2, #40000	; 0x9c40
 8001cf0:	4293      	cmp	r3, r2
 8001cf2:	d019      	beq.n	8001d28 <BasicTimer_Config+0x1fc>
			   || (speed == BTIMER_SPEED_50MHz_1ms)
 8001cf4:	68bb      	ldr	r3, [r7, #8]
 8001cf6:	f24c 3250 	movw	r2, #50000	; 0xc350
 8001cfa:	4293      	cmp	r3, r2
 8001cfc:	d014      	beq.n	8001d28 <BasicTimer_Config+0x1fc>
			   || (speed == BTIMER_SPEED_60MHz_1ms)
 8001cfe:	68bb      	ldr	r3, [r7, #8]
 8001d00:	f64e 2260 	movw	r2, #60000	; 0xea60
 8001d04:	4293      	cmp	r3, r2
 8001d06:	d00f      	beq.n	8001d28 <BasicTimer_Config+0x1fc>
			   || (speed == BTIMER_SPEED_70MHz_1ms)
 8001d08:	68bb      	ldr	r3, [r7, #8]
 8001d0a:	4a19      	ldr	r2, [pc, #100]	; (8001d70 <BasicTimer_Config+0x244>)
 8001d0c:	4293      	cmp	r3, r2
 8001d0e:	d00b      	beq.n	8001d28 <BasicTimer_Config+0x1fc>
			   || (speed == BTIMER_SPEED_80MHz_1ms)
 8001d10:	68bb      	ldr	r3, [r7, #8]
 8001d12:	4a18      	ldr	r2, [pc, #96]	; (8001d74 <BasicTimer_Config+0x248>)
 8001d14:	4293      	cmp	r3, r2
 8001d16:	d007      	beq.n	8001d28 <BasicTimer_Config+0x1fc>
			   || (speed == BTIMER_SPEED_90MHz_1ms)
 8001d18:	68bb      	ldr	r3, [r7, #8]
 8001d1a:	4a17      	ldr	r2, [pc, #92]	; (8001d78 <BasicTimer_Config+0x24c>)
 8001d1c:	4293      	cmp	r3, r2
 8001d1e:	d003      	beq.n	8001d28 <BasicTimer_Config+0x1fc>
			   || (speed == BTIMER_SPEED_100MHz_1ms)){
 8001d20:	68bb      	ldr	r3, [r7, #8]
 8001d22:	4a16      	ldr	r2, [pc, #88]	; (8001d7c <BasicTimer_Config+0x250>)
 8001d24:	4293      	cmp	r3, r2
 8001d26:	d108      	bne.n	8001d3a <BasicTimer_Config+0x20e>

			period = ptrBTimerHandler->TIMx_Config.TIMx_period;
 8001d28:	687b      	ldr	r3, [r7, #4]
 8001d2a:	68db      	ldr	r3, [r3, #12]
 8001d2c:	60fb      	str	r3, [r7, #12]

			ptrBTimerHandler->ptrTIMx->ARR = period - 1;
 8001d2e:	687b      	ldr	r3, [r7, #4]
 8001d30:	681b      	ldr	r3, [r3, #0]
 8001d32:	68fa      	ldr	r2, [r7, #12]
 8001d34:	3a01      	subs	r2, #1
 8001d36:	62da      	str	r2, [r3, #44]	; 0x2c
 8001d38:	e00b      	b.n	8001d52 <BasicTimer_Config+0x226>

		}else{
			period = ptrBTimerHandler->TIMx_Config.TIMx_period / 10;  //Se tiene el caso mas minimo posible, donde el contador cuenta cada 10 nanosegundos
 8001d3a:	687b      	ldr	r3, [r7, #4]
 8001d3c:	68db      	ldr	r3, [r3, #12]
 8001d3e:	4a10      	ldr	r2, [pc, #64]	; (8001d80 <BasicTimer_Config+0x254>)
 8001d40:	fba2 2303 	umull	r2, r3, r2, r3
 8001d44:	08db      	lsrs	r3, r3, #3
 8001d46:	60fb      	str	r3, [r7, #12]

			ptrBTimerHandler->ptrTIMx->ARR = period - 1;
 8001d48:	687b      	ldr	r3, [r7, #4]
 8001d4a:	681b      	ldr	r3, [r3, #0]
 8001d4c:	68fa      	ldr	r2, [r7, #12]
 8001d4e:	3a01      	subs	r2, #1
 8001d50:	62da      	str	r2, [r3, #44]	; 0x2c
		}


		/* 3c. Reiniciamos el registro counter*/
		ptrBTimerHandler->ptrTIMx->CNT = 0;
 8001d52:	687b      	ldr	r3, [r7, #4]
 8001d54:	681b      	ldr	r3, [r3, #0]
 8001d56:	2200      	movs	r2, #0
 8001d58:	625a      	str	r2, [r3, #36]	; 0x24
 8001d5a:	e027      	b.n	8001dac <BasicTimer_Config+0x280>
 8001d5c:	40010000 	.word	0x40010000
 8001d60:	40023800 	.word	0x40023800
 8001d64:	40000400 	.word	0x40000400
 8001d68:	40000800 	.word	0x40000800
 8001d6c:	40000c00 	.word	0x40000c00
 8001d70:	00011170 	.word	0x00011170
 8001d74:	00013880 	.word	0x00013880
 8001d78:	00015f90 	.word	0x00015f90
 8001d7c:	000186a0 	.word	0x000186a0
 8001d80:	cccccccd 	.word	0xcccccccd

	}else{
		/* 3a. Estamos en DOWN_Mode, el limite se carga en ARR (0) y se comienza en un valor alto
		 * Trabaja contando en direccion descendente*/
		/* Escriba codigo aca */
		ptrBTimerHandler->ptrTIMx->CR1 |= TIM_CR1_DIR;
 8001d84:	687b      	ldr	r3, [r7, #4]
 8001d86:	681b      	ldr	r3, [r3, #0]
 8001d88:	681a      	ldr	r2, [r3, #0]
 8001d8a:	687b      	ldr	r3, [r7, #4]
 8001d8c:	681b      	ldr	r3, [r3, #0]
 8001d8e:	f042 0210 	orr.w	r2, r2, #16
 8001d92:	601a      	str	r2, [r3, #0]

		/* 3b. Configuramos el Auto-reload. Este es el "limite" hasta donde el CNT va a contar
		 * En modo descendente, con numero positivos, cual es el minimi valor al que ARR puede llegar*/
		/* Escriba codigo aca */
		ptrBTimerHandler->ptrTIMx->ARR = ptrBTimerHandler->TIMx_Config.TIMx_period - 1;
 8001d94:	687b      	ldr	r3, [r7, #4]
 8001d96:	68da      	ldr	r2, [r3, #12]
 8001d98:	687b      	ldr	r3, [r7, #4]
 8001d9a:	681b      	ldr	r3, [r3, #0]
 8001d9c:	3a01      	subs	r2, #1
 8001d9e:	62da      	str	r2, [r3, #44]	; 0x2c

		/* 3c. Reiniciamos el registro counter
		 * Este es el valor con el que el counter comienza */
		ptrBTimerHandler->ptrTIMx->CNT = ptrBTimerHandler->TIMx_Config.TIMx_period - 1;
 8001da0:	687b      	ldr	r3, [r7, #4]
 8001da2:	68da      	ldr	r2, [r3, #12]
 8001da4:	687b      	ldr	r3, [r7, #4]
 8001da6:	681b      	ldr	r3, [r3, #0]
 8001da8:	3a01      	subs	r2, #1
 8001daa:	625a      	str	r2, [r3, #36]	; 0x24
	/* 4. Activamos el Timer (el CNT debe comenzar a contar*/
	//ptrBTimerHandler->ptrTIMx->CR1 |= TIM_CR1_CEN;

	/* 5. Activamos la interrupcin debida al Timerx Utilizado
	 * Modificar el registro encargado de activar la interrupcion generada por el TIMx*/
	if (ptrBTimerHandler->TIMx_Config.TIMx_interruptEnable == BTIMER_ENABLE_INTERRUPT){
 8001dac:	687b      	ldr	r3, [r7, #4]
 8001dae:	7c1b      	ldrb	r3, [r3, #16]
 8001db0:	2b01      	cmp	r3, #1
 8001db2:	d12d      	bne.n	8001e10 <BasicTimer_Config+0x2e4>

		ptrBTimerHandler->ptrTIMx->DIER |= TIM_DIER_UIE;
 8001db4:	687b      	ldr	r3, [r7, #4]
 8001db6:	681b      	ldr	r3, [r3, #0]
 8001db8:	68da      	ldr	r2, [r3, #12]
 8001dba:	687b      	ldr	r3, [r7, #4]
 8001dbc:	681b      	ldr	r3, [r3, #0]
 8001dbe:	f042 0201 	orr.w	r2, r2, #1
 8001dc2:	60da      	str	r2, [r3, #12]

		/* 6. Activamos el canal del sistema NVIC para que lea la interrupcin*/

		if(ptrBTimerHandler->ptrTIMx == TIM2){
 8001dc4:	687b      	ldr	r3, [r7, #4]
 8001dc6:	681b      	ldr	r3, [r3, #0]
 8001dc8:	f1b3 4f80 	cmp.w	r3, #1073741824	; 0x40000000
 8001dcc:	d103      	bne.n	8001dd6 <BasicTimer_Config+0x2aa>
			// Activando en NVIC para la interrupcin del TIM2
			NVIC_EnableIRQ(TIM2_IRQn);
 8001dce:	201c      	movs	r0, #28
 8001dd0:	f7ff fe72 	bl	8001ab8 <__NVIC_EnableIRQ>
 8001dd4:	e024      	b.n	8001e20 <BasicTimer_Config+0x2f4>
		}
		else if(ptrBTimerHandler->ptrTIMx == TIM3){
 8001dd6:	687b      	ldr	r3, [r7, #4]
 8001dd8:	681b      	ldr	r3, [r3, #0]
 8001dda:	4a14      	ldr	r2, [pc, #80]	; (8001e2c <BasicTimer_Config+0x300>)
 8001ddc:	4293      	cmp	r3, r2
 8001dde:	d103      	bne.n	8001de8 <BasicTimer_Config+0x2bc>
			// Activando en NVIC para la interrupcin del TIM3
			NVIC_EnableIRQ(TIM3_IRQn);
 8001de0:	201d      	movs	r0, #29
 8001de2:	f7ff fe69 	bl	8001ab8 <__NVIC_EnableIRQ>
 8001de6:	e01b      	b.n	8001e20 <BasicTimer_Config+0x2f4>
		}
		else if(ptrBTimerHandler->ptrTIMx == TIM4){
 8001de8:	687b      	ldr	r3, [r7, #4]
 8001dea:	681b      	ldr	r3, [r3, #0]
 8001dec:	4a10      	ldr	r2, [pc, #64]	; (8001e30 <BasicTimer_Config+0x304>)
 8001dee:	4293      	cmp	r3, r2
 8001df0:	d103      	bne.n	8001dfa <BasicTimer_Config+0x2ce>
			// Activando en NVIC para la interrupcin del TIM4
			NVIC_EnableIRQ(TIM4_IRQn);
 8001df2:	201e      	movs	r0, #30
 8001df4:	f7ff fe60 	bl	8001ab8 <__NVIC_EnableIRQ>
 8001df8:	e012      	b.n	8001e20 <BasicTimer_Config+0x2f4>
		}
		else if(ptrBTimerHandler->ptrTIMx == TIM5){
 8001dfa:	687b      	ldr	r3, [r7, #4]
 8001dfc:	681b      	ldr	r3, [r3, #0]
 8001dfe:	4a0d      	ldr	r2, [pc, #52]	; (8001e34 <BasicTimer_Config+0x308>)
 8001e00:	4293      	cmp	r3, r2
 8001e02:	d103      	bne.n	8001e0c <BasicTimer_Config+0x2e0>
			// Activando en NVIC para la interrupcin del TIM5
			NVIC_EnableIRQ(TIM5_IRQn);
 8001e04:	2032      	movs	r0, #50	; 0x32
 8001e06:	f7ff fe57 	bl	8001ab8 <__NVIC_EnableIRQ>
 8001e0a:	e009      	b.n	8001e20 <BasicTimer_Config+0x2f4>
		}
		else{
			__NOP();
 8001e0c:	bf00      	nop
 8001e0e:	e007      	b.n	8001e20 <BasicTimer_Config+0x2f4>
		}


	}else{
		ptrBTimerHandler->ptrTIMx->DIER &= ~TIM_DIER_UIE;
 8001e10:	687b      	ldr	r3, [r7, #4]
 8001e12:	681b      	ldr	r3, [r3, #0]
 8001e14:	68da      	ldr	r2, [r3, #12]
 8001e16:	687b      	ldr	r3, [r7, #4]
 8001e18:	681b      	ldr	r3, [r3, #0]
 8001e1a:	f022 0201 	bic.w	r2, r2, #1
 8001e1e:	60da      	str	r2, [r3, #12]
  __ASM volatile ("cpsie i" : : : "memory");
 8001e20:	b662      	cpsie	i
}
 8001e22:	bf00      	nop
	}


	/* 7. Volvemos a activar las interrupciones del sistema */
	__enable_irq();
}
 8001e24:	bf00      	nop
 8001e26:	3710      	adds	r7, #16
 8001e28:	46bd      	mov	sp, r7
 8001e2a:	bd80      	pop	{r7, pc}
 8001e2c:	40000400 	.word	0x40000400
 8001e30:	40000800 	.word	0x40000800
 8001e34:	40000c00 	.word	0x40000c00

08001e38 <BasicTimer4_Callback>:
	  /* NOTE : This function should not be modified, when the callback is needed,
	            the BasicTimerX_Callback could be implemented in the main file
	   */
	__NOP();
}
__attribute__((weak)) void BasicTimer4_Callback(void){
 8001e38:	b480      	push	{r7}
 8001e3a:	af00      	add	r7, sp, #0
	  /* NOTE : This function should not be modified, when the callback is needed,
	            the BasicTimerX_Callback could be implemented in the main file
	   */
	__NOP();
 8001e3c:	bf00      	nop
}
 8001e3e:	bf00      	nop
 8001e40:	46bd      	mov	sp, r7
 8001e42:	f85d 7b04 	ldr.w	r7, [sp], #4
 8001e46:	4770      	bx	lr

08001e48 <BasicTimer5_Callback>:
__attribute__((weak)) void BasicTimer5_Callback(void){
 8001e48:	b480      	push	{r7}
 8001e4a:	af00      	add	r7, sp, #0
	  /* NOTE : This function should not be modified, when the callback is needed,
	            the BasicTimerX_Callback could be implemented in the main file
	   */
	__NOP();
 8001e4c:	bf00      	nop
}
 8001e4e:	bf00      	nop
 8001e50:	46bd      	mov	sp, r7
 8001e52:	f85d 7b04 	ldr.w	r7, [sp], #4
 8001e56:	4770      	bx	lr

08001e58 <Capture_TIM2_Ch1_Callback>:

__attribute__((weak)) void Capture_TIM2_Ch1_Callback(void){
 8001e58:	b480      	push	{r7}
 8001e5a:	af00      	add	r7, sp, #0
	  /* NOTE : This function should not be modified, when the callback is needed,
	            the BasicTimerX_Callback could be implemented in the main file
	   */
	__NOP();
 8001e5c:	bf00      	nop
}
 8001e5e:	bf00      	nop
 8001e60:	46bd      	mov	sp, r7
 8001e62:	f85d 7b04 	ldr.w	r7, [sp], #4
 8001e66:	4770      	bx	lr

08001e68 <Capture_TIM2_Ch2_Callback>:
__attribute__((weak)) void Capture_TIM2_Ch2_Callback(void){
 8001e68:	b480      	push	{r7}
 8001e6a:	af00      	add	r7, sp, #0
	  /* NOTE : This function should not be modified, when the callback is needed,
	            the BasicTimerX_Callback could be implemented in the main file
	   */
	__NOP();
 8001e6c:	bf00      	nop
}
 8001e6e:	bf00      	nop
 8001e70:	46bd      	mov	sp, r7
 8001e72:	f85d 7b04 	ldr.w	r7, [sp], #4
 8001e76:	4770      	bx	lr

08001e78 <Capture_TIM2_Ch3_Callback>:
__attribute__((weak)) void Capture_TIM2_Ch3_Callback(void){
 8001e78:	b480      	push	{r7}
 8001e7a:	af00      	add	r7, sp, #0
	  /* NOTE : This function should not be modified, when the callback is needed,
	            the BasicTimerX_Callback could be implemented in the main file
	   */
	__NOP();
 8001e7c:	bf00      	nop
}
 8001e7e:	bf00      	nop
 8001e80:	46bd      	mov	sp, r7
 8001e82:	f85d 7b04 	ldr.w	r7, [sp], #4
 8001e86:	4770      	bx	lr

08001e88 <Capture_TIM2_Ch4_Callback>:
__attribute__((weak)) void Capture_TIM2_Ch4_Callback(void){
 8001e88:	b480      	push	{r7}
 8001e8a:	af00      	add	r7, sp, #0
	  /* NOTE : This function should not be modified, when the callback is needed,
	            the BasicTimerX_Callback could be implemented in the main file
	   */
	__NOP();
 8001e8c:	bf00      	nop
}
 8001e8e:	bf00      	nop
 8001e90:	46bd      	mov	sp, r7
 8001e92:	f85d 7b04 	ldr.w	r7, [sp], #4
 8001e96:	4770      	bx	lr

08001e98 <Capture_TIM3_Ch1_Callback>:
__attribute__((weak)) void Capture_TIM3_Ch1_Callback(void){
 8001e98:	b480      	push	{r7}
 8001e9a:	af00      	add	r7, sp, #0
	  /* NOTE : This function should not be modified, when the callback is needed,
	            the BasicTimerX_Callback could be implemented in the main file
	   */
	__NOP();
 8001e9c:	bf00      	nop
}
 8001e9e:	bf00      	nop
 8001ea0:	46bd      	mov	sp, r7
 8001ea2:	f85d 7b04 	ldr.w	r7, [sp], #4
 8001ea6:	4770      	bx	lr

08001ea8 <Capture_TIM3_Ch2_Callback>:
__attribute__((weak)) void Capture_TIM3_Ch2_Callback(void){
 8001ea8:	b480      	push	{r7}
 8001eaa:	af00      	add	r7, sp, #0
	  /* NOTE : This function should not be modified, when the callback is needed,
	            the BasicTimerX_Callback could be implemented in the main file
	   */
	__NOP();
 8001eac:	bf00      	nop
}
 8001eae:	bf00      	nop
 8001eb0:	46bd      	mov	sp, r7
 8001eb2:	f85d 7b04 	ldr.w	r7, [sp], #4
 8001eb6:	4770      	bx	lr

08001eb8 <Capture_TIM3_Ch3_Callback>:
__attribute__((weak)) void Capture_TIM3_Ch3_Callback(void){
 8001eb8:	b480      	push	{r7}
 8001eba:	af00      	add	r7, sp, #0
	  /* NOTE : This function should not be modified, when the callback is needed,
	            the BasicTimerX_Callback could be implemented in the main file
	   */
	__NOP();
 8001ebc:	bf00      	nop
}
 8001ebe:	bf00      	nop
 8001ec0:	46bd      	mov	sp, r7
 8001ec2:	f85d 7b04 	ldr.w	r7, [sp], #4
 8001ec6:	4770      	bx	lr

08001ec8 <Capture_TIM3_Ch4_Callback>:
__attribute__((weak)) void Capture_TIM3_Ch4_Callback(void){
 8001ec8:	b480      	push	{r7}
 8001eca:	af00      	add	r7, sp, #0
	  /* NOTE : This function should not be modified, when the callback is needed,
	            the BasicTimerX_Callback could be implemented in the main file
	   */
	__NOP();
 8001ecc:	bf00      	nop
}
 8001ece:	bf00      	nop
 8001ed0:	46bd      	mov	sp, r7
 8001ed2:	f85d 7b04 	ldr.w	r7, [sp], #4
 8001ed6:	4770      	bx	lr

08001ed8 <Capture_TIM4_Ch1_Callback>:
__attribute__((weak)) void Capture_TIM4_Ch1_Callback(void){
 8001ed8:	b480      	push	{r7}
 8001eda:	af00      	add	r7, sp, #0
	  /* NOTE : This function should not be modified, when the callback is needed,
	            the BasicTimerX_Callback could be implemented in the main file
	   */
	__NOP();
 8001edc:	bf00      	nop
}
 8001ede:	bf00      	nop
 8001ee0:	46bd      	mov	sp, r7
 8001ee2:	f85d 7b04 	ldr.w	r7, [sp], #4
 8001ee6:	4770      	bx	lr

08001ee8 <Capture_TIM4_Ch3_Callback>:
	  /* NOTE : This function should not be modified, when the callback is needed,
	            the BasicTimerX_Callback could be implemented in the main file
	   */
	__NOP();
}
__attribute__((weak)) void Capture_TIM4_Ch3_Callback(void){
 8001ee8:	b480      	push	{r7}
 8001eea:	af00      	add	r7, sp, #0
	  /* NOTE : This function should not be modified, when the callback is needed,
	            the BasicTimerX_Callback could be implemented in the main file
	   */
	__NOP();
 8001eec:	bf00      	nop
}
 8001eee:	bf00      	nop
 8001ef0:	46bd      	mov	sp, r7
 8001ef2:	f85d 7b04 	ldr.w	r7, [sp], #4
 8001ef6:	4770      	bx	lr

08001ef8 <Capture_TIM4_Ch4_Callback>:
__attribute__((weak)) void Capture_TIM4_Ch4_Callback(void){
 8001ef8:	b480      	push	{r7}
 8001efa:	af00      	add	r7, sp, #0
	  /* NOTE : This function should not be modified, when the callback is needed,
	            the BasicTimerX_Callback could be implemented in the main file
	   */
	__NOP();
 8001efc:	bf00      	nop
}
 8001efe:	bf00      	nop
 8001f00:	46bd      	mov	sp, r7
 8001f02:	f85d 7b04 	ldr.w	r7, [sp], #4
 8001f06:	4770      	bx	lr

08001f08 <Capture_TIM5_Ch1_Callback>:
__attribute__((weak)) void Capture_TIM5_Ch1_Callback(void){
 8001f08:	b480      	push	{r7}
 8001f0a:	af00      	add	r7, sp, #0
	  /* NOTE : This function should not be modified, when the callback is needed,
	            the BasicTimerX_Callback could be implemented in the main file
	   */
	__NOP();
 8001f0c:	bf00      	nop
}
 8001f0e:	bf00      	nop
 8001f10:	46bd      	mov	sp, r7
 8001f12:	f85d 7b04 	ldr.w	r7, [sp], #4
 8001f16:	4770      	bx	lr

08001f18 <Capture_TIM5_Ch2_Callback>:
__attribute__((weak)) void Capture_TIM5_Ch2_Callback(void){
 8001f18:	b480      	push	{r7}
 8001f1a:	af00      	add	r7, sp, #0
	  /* NOTE : This function should not be modified, when the callback is needed,
	            the BasicTimerX_Callback could be implemented in the main file
	   */
	__NOP();
 8001f1c:	bf00      	nop
}
 8001f1e:	bf00      	nop
 8001f20:	46bd      	mov	sp, r7
 8001f22:	f85d 7b04 	ldr.w	r7, [sp], #4
 8001f26:	4770      	bx	lr

08001f28 <Capture_TIM5_Ch3_Callback>:
__attribute__((weak)) void Capture_TIM5_Ch3_Callback(void){
 8001f28:	b480      	push	{r7}
 8001f2a:	af00      	add	r7, sp, #0
	  /* NOTE : This function should not be modified, when the callback is needed,
	            the BasicTimerX_Callback could be implemented in the main file
	   */
	__NOP();
 8001f2c:	bf00      	nop
}
 8001f2e:	bf00      	nop
 8001f30:	46bd      	mov	sp, r7
 8001f32:	f85d 7b04 	ldr.w	r7, [sp], #4
 8001f36:	4770      	bx	lr

08001f38 <Capture_TIM5_Ch4_Callback>:
__attribute__((weak)) void Capture_TIM5_Ch4_Callback(void){
 8001f38:	b480      	push	{r7}
 8001f3a:	af00      	add	r7, sp, #0
	  /* NOTE : This function should not be modified, when the callback is needed,
	            the BasicTimerX_Callback could be implemented in the main file
	   */
	__NOP();
 8001f3c:	bf00      	nop
}
 8001f3e:	bf00      	nop
 8001f40:	46bd      	mov	sp, r7
 8001f42:	f85d 7b04 	ldr.w	r7, [sp], #4
 8001f46:	4770      	bx	lr

08001f48 <TIM2_IRQHandler>:

/* Esta es la funcin a la que apunta el sistema en el vector de interrupciones.
 * Se debe utilizar usando exactamente el mismo nombre definido en el vector de interrupciones,
 * Al hacerlo correctamente, el sistema apunta a esta funcin y cuando la interrupcin se lanza
 * el sistema inmediatamente salta a este lugar en la memoria*/
void TIM2_IRQHandler(void){
 8001f48:	b580      	push	{r7, lr}
 8001f4a:	af00      	add	r7, sp, #0
	/* Limpiamos la bandera que indica que la interrupcin se ha generado */
	if (TIM2->SR & TIM_SR_UIF){
 8001f4c:	f04f 4380 	mov.w	r3, #1073741824	; 0x40000000
 8001f50:	691b      	ldr	r3, [r3, #16]
 8001f52:	f003 0301 	and.w	r3, r3, #1
 8001f56:	2b00      	cmp	r3, #0
 8001f58:	d00a      	beq.n	8001f70 <TIM2_IRQHandler+0x28>
			TIM2->SR &= ~TIM_SR_UIF;
 8001f5a:	f04f 4380 	mov.w	r3, #1073741824	; 0x40000000
 8001f5e:	691b      	ldr	r3, [r3, #16]
 8001f60:	f04f 4280 	mov.w	r2, #1073741824	; 0x40000000
 8001f64:	f023 0301 	bic.w	r3, r3, #1
 8001f68:	6113      	str	r3, [r2, #16]
			/* LLamamos a la funcin que se debe encargar de hacer algo con esta interrupcin*/
			BasicTimer2_Callback();
 8001f6a:	f7ff f97f 	bl	800126c <BasicTimer2_Callback>
			TIM2->SR &= ~TIM_SR_CC4IF;
			TIM2->SR &= ~TIM_SR_CC4OF;
			Capture_TIM2_Ch4_Callback();
		}

}
 8001f6e:	e066      	b.n	800203e <TIM2_IRQHandler+0xf6>
		}else if (TIM2->SR & TIM_SR_CC1IF){
 8001f70:	f04f 4380 	mov.w	r3, #1073741824	; 0x40000000
 8001f74:	691b      	ldr	r3, [r3, #16]
 8001f76:	f003 0302 	and.w	r3, r3, #2
 8001f7a:	2b00      	cmp	r3, #0
 8001f7c:	d012      	beq.n	8001fa4 <TIM2_IRQHandler+0x5c>
			TIM2->SR &= ~TIM_SR_CC1IF;
 8001f7e:	f04f 4380 	mov.w	r3, #1073741824	; 0x40000000
 8001f82:	691b      	ldr	r3, [r3, #16]
 8001f84:	f04f 4280 	mov.w	r2, #1073741824	; 0x40000000
 8001f88:	f023 0302 	bic.w	r3, r3, #2
 8001f8c:	6113      	str	r3, [r2, #16]
			TIM2->SR &= ~TIM_SR_CC1OF;
 8001f8e:	f04f 4380 	mov.w	r3, #1073741824	; 0x40000000
 8001f92:	691b      	ldr	r3, [r3, #16]
 8001f94:	f04f 4280 	mov.w	r2, #1073741824	; 0x40000000
 8001f98:	f423 7300 	bic.w	r3, r3, #512	; 0x200
 8001f9c:	6113      	str	r3, [r2, #16]
			Capture_TIM2_Ch1_Callback();
 8001f9e:	f7ff ff5b 	bl	8001e58 <Capture_TIM2_Ch1_Callback>
}
 8001fa2:	e04c      	b.n	800203e <TIM2_IRQHandler+0xf6>
		}else if (TIM2->SR & TIM_SR_CC2IF){
 8001fa4:	f04f 4380 	mov.w	r3, #1073741824	; 0x40000000
 8001fa8:	691b      	ldr	r3, [r3, #16]
 8001faa:	f003 0304 	and.w	r3, r3, #4
 8001fae:	2b00      	cmp	r3, #0
 8001fb0:	d012      	beq.n	8001fd8 <TIM2_IRQHandler+0x90>
			TIM2->SR &= ~TIM_SR_CC2IF;
 8001fb2:	f04f 4380 	mov.w	r3, #1073741824	; 0x40000000
 8001fb6:	691b      	ldr	r3, [r3, #16]
 8001fb8:	f04f 4280 	mov.w	r2, #1073741824	; 0x40000000
 8001fbc:	f023 0304 	bic.w	r3, r3, #4
 8001fc0:	6113      	str	r3, [r2, #16]
			TIM2->SR &= ~TIM_SR_CC2OF;
 8001fc2:	f04f 4380 	mov.w	r3, #1073741824	; 0x40000000
 8001fc6:	691b      	ldr	r3, [r3, #16]
 8001fc8:	f04f 4280 	mov.w	r2, #1073741824	; 0x40000000
 8001fcc:	f423 6380 	bic.w	r3, r3, #1024	; 0x400
 8001fd0:	6113      	str	r3, [r2, #16]
			Capture_TIM2_Ch2_Callback();
 8001fd2:	f7ff ff49 	bl	8001e68 <Capture_TIM2_Ch2_Callback>
}
 8001fd6:	e032      	b.n	800203e <TIM2_IRQHandler+0xf6>
		}else if (TIM2->SR & TIM_SR_CC3IF){
 8001fd8:	f04f 4380 	mov.w	r3, #1073741824	; 0x40000000
 8001fdc:	691b      	ldr	r3, [r3, #16]
 8001fde:	f003 0308 	and.w	r3, r3, #8
 8001fe2:	2b00      	cmp	r3, #0
 8001fe4:	d012      	beq.n	800200c <TIM2_IRQHandler+0xc4>
			TIM2->SR &= ~TIM_SR_CC3IF;
 8001fe6:	f04f 4380 	mov.w	r3, #1073741824	; 0x40000000
 8001fea:	691b      	ldr	r3, [r3, #16]
 8001fec:	f04f 4280 	mov.w	r2, #1073741824	; 0x40000000
 8001ff0:	f023 0308 	bic.w	r3, r3, #8
 8001ff4:	6113      	str	r3, [r2, #16]
			TIM2->SR &= ~TIM_SR_CC3OF;
 8001ff6:	f04f 4380 	mov.w	r3, #1073741824	; 0x40000000
 8001ffa:	691b      	ldr	r3, [r3, #16]
 8001ffc:	f04f 4280 	mov.w	r2, #1073741824	; 0x40000000
 8002000:	f423 6300 	bic.w	r3, r3, #2048	; 0x800
 8002004:	6113      	str	r3, [r2, #16]
			Capture_TIM2_Ch3_Callback();
 8002006:	f7ff ff37 	bl	8001e78 <Capture_TIM2_Ch3_Callback>
}
 800200a:	e018      	b.n	800203e <TIM2_IRQHandler+0xf6>
		}else if (TIM2->SR & TIM_SR_CC4IF){
 800200c:	f04f 4380 	mov.w	r3, #1073741824	; 0x40000000
 8002010:	691b      	ldr	r3, [r3, #16]
 8002012:	f003 0310 	and.w	r3, r3, #16
 8002016:	2b00      	cmp	r3, #0
 8002018:	d011      	beq.n	800203e <TIM2_IRQHandler+0xf6>
			TIM2->SR &= ~TIM_SR_CC4IF;
 800201a:	f04f 4380 	mov.w	r3, #1073741824	; 0x40000000
 800201e:	691b      	ldr	r3, [r3, #16]
 8002020:	f04f 4280 	mov.w	r2, #1073741824	; 0x40000000
 8002024:	f023 0310 	bic.w	r3, r3, #16
 8002028:	6113      	str	r3, [r2, #16]
			TIM2->SR &= ~TIM_SR_CC4OF;
 800202a:	f04f 4380 	mov.w	r3, #1073741824	; 0x40000000
 800202e:	691b      	ldr	r3, [r3, #16]
 8002030:	f04f 4280 	mov.w	r2, #1073741824	; 0x40000000
 8002034:	f423 5380 	bic.w	r3, r3, #4096	; 0x1000
 8002038:	6113      	str	r3, [r2, #16]
			Capture_TIM2_Ch4_Callback();
 800203a:	f7ff ff25 	bl	8001e88 <Capture_TIM2_Ch4_Callback>
}
 800203e:	bf00      	nop
 8002040:	bd80      	pop	{r7, pc}
	...

08002044 <TIM3_IRQHandler>:

void TIM3_IRQHandler(void){
 8002044:	b580      	push	{r7, lr}
 8002046:	af00      	add	r7, sp, #0

	/* Limpiamos la bandera que indica que la interrupcin se ha generado */
	if (TIM3->SR & TIM_SR_UIF){
 8002048:	4b31      	ldr	r3, [pc, #196]	; (8002110 <TIM3_IRQHandler+0xcc>)
 800204a:	691b      	ldr	r3, [r3, #16]
 800204c:	f003 0301 	and.w	r3, r3, #1
 8002050:	2b00      	cmp	r3, #0
 8002052:	d008      	beq.n	8002066 <TIM3_IRQHandler+0x22>
		TIM3->SR &= ~TIM_SR_UIF;
 8002054:	4b2e      	ldr	r3, [pc, #184]	; (8002110 <TIM3_IRQHandler+0xcc>)
 8002056:	691b      	ldr	r3, [r3, #16]
 8002058:	4a2d      	ldr	r2, [pc, #180]	; (8002110 <TIM3_IRQHandler+0xcc>)
 800205a:	f023 0301 	bic.w	r3, r3, #1
 800205e:	6113      	str	r3, [r2, #16]
		/* LLamamos a la funcin que se debe encargar de hacer algo con esta interrupcin*/
		BasicTimer3_Callback();
 8002060:	f7ff f8fa 	bl	8001258 <BasicTimer3_Callback>
	}else if (TIM3->SR & TIM_SR_CC4IF){
		TIM3->SR &= ~TIM_SR_CC4IF;
		TIM3->SR &= ~TIM_SR_CC4OF;
		Capture_TIM3_Ch4_Callback();
	}
}
 8002064:	e052      	b.n	800210c <TIM3_IRQHandler+0xc8>
	}else if (TIM3->SR & TIM_SR_CC1IF){
 8002066:	4b2a      	ldr	r3, [pc, #168]	; (8002110 <TIM3_IRQHandler+0xcc>)
 8002068:	691b      	ldr	r3, [r3, #16]
 800206a:	f003 0302 	and.w	r3, r3, #2
 800206e:	2b00      	cmp	r3, #0
 8002070:	d00e      	beq.n	8002090 <TIM3_IRQHandler+0x4c>
		TIM3->SR &= ~TIM_SR_CC1IF;
 8002072:	4b27      	ldr	r3, [pc, #156]	; (8002110 <TIM3_IRQHandler+0xcc>)
 8002074:	691b      	ldr	r3, [r3, #16]
 8002076:	4a26      	ldr	r2, [pc, #152]	; (8002110 <TIM3_IRQHandler+0xcc>)
 8002078:	f023 0302 	bic.w	r3, r3, #2
 800207c:	6113      	str	r3, [r2, #16]
		TIM3->SR &= ~TIM_SR_CC1OF;
 800207e:	4b24      	ldr	r3, [pc, #144]	; (8002110 <TIM3_IRQHandler+0xcc>)
 8002080:	691b      	ldr	r3, [r3, #16]
 8002082:	4a23      	ldr	r2, [pc, #140]	; (8002110 <TIM3_IRQHandler+0xcc>)
 8002084:	f423 7300 	bic.w	r3, r3, #512	; 0x200
 8002088:	6113      	str	r3, [r2, #16]
		Capture_TIM3_Ch1_Callback();
 800208a:	f7ff ff05 	bl	8001e98 <Capture_TIM3_Ch1_Callback>
}
 800208e:	e03d      	b.n	800210c <TIM3_IRQHandler+0xc8>
	}else if (TIM3->SR & TIM_SR_CC2IF){
 8002090:	4b1f      	ldr	r3, [pc, #124]	; (8002110 <TIM3_IRQHandler+0xcc>)
 8002092:	691b      	ldr	r3, [r3, #16]
 8002094:	f003 0304 	and.w	r3, r3, #4
 8002098:	2b00      	cmp	r3, #0
 800209a:	d00e      	beq.n	80020ba <TIM3_IRQHandler+0x76>
		TIM3->SR &= ~TIM_SR_CC2IF;
 800209c:	4b1c      	ldr	r3, [pc, #112]	; (8002110 <TIM3_IRQHandler+0xcc>)
 800209e:	691b      	ldr	r3, [r3, #16]
 80020a0:	4a1b      	ldr	r2, [pc, #108]	; (8002110 <TIM3_IRQHandler+0xcc>)
 80020a2:	f023 0304 	bic.w	r3, r3, #4
 80020a6:	6113      	str	r3, [r2, #16]
		TIM3->SR &= ~TIM_SR_CC2OF;
 80020a8:	4b19      	ldr	r3, [pc, #100]	; (8002110 <TIM3_IRQHandler+0xcc>)
 80020aa:	691b      	ldr	r3, [r3, #16]
 80020ac:	4a18      	ldr	r2, [pc, #96]	; (8002110 <TIM3_IRQHandler+0xcc>)
 80020ae:	f423 6380 	bic.w	r3, r3, #1024	; 0x400
 80020b2:	6113      	str	r3, [r2, #16]
		Capture_TIM3_Ch2_Callback();
 80020b4:	f7ff fef8 	bl	8001ea8 <Capture_TIM3_Ch2_Callback>
}
 80020b8:	e028      	b.n	800210c <TIM3_IRQHandler+0xc8>
	}else if (TIM3->SR & TIM_SR_CC3IF){
 80020ba:	4b15      	ldr	r3, [pc, #84]	; (8002110 <TIM3_IRQHandler+0xcc>)
 80020bc:	691b      	ldr	r3, [r3, #16]
 80020be:	f003 0308 	and.w	r3, r3, #8
 80020c2:	2b00      	cmp	r3, #0
 80020c4:	d00e      	beq.n	80020e4 <TIM3_IRQHandler+0xa0>
		TIM3->SR &= ~TIM_SR_CC3IF;
 80020c6:	4b12      	ldr	r3, [pc, #72]	; (8002110 <TIM3_IRQHandler+0xcc>)
 80020c8:	691b      	ldr	r3, [r3, #16]
 80020ca:	4a11      	ldr	r2, [pc, #68]	; (8002110 <TIM3_IRQHandler+0xcc>)
 80020cc:	f023 0308 	bic.w	r3, r3, #8
 80020d0:	6113      	str	r3, [r2, #16]
		TIM3->SR &= ~TIM_SR_CC3OF;
 80020d2:	4b0f      	ldr	r3, [pc, #60]	; (8002110 <TIM3_IRQHandler+0xcc>)
 80020d4:	691b      	ldr	r3, [r3, #16]
 80020d6:	4a0e      	ldr	r2, [pc, #56]	; (8002110 <TIM3_IRQHandler+0xcc>)
 80020d8:	f423 6300 	bic.w	r3, r3, #2048	; 0x800
 80020dc:	6113      	str	r3, [r2, #16]
		Capture_TIM3_Ch3_Callback();
 80020de:	f7ff feeb 	bl	8001eb8 <Capture_TIM3_Ch3_Callback>
}
 80020e2:	e013      	b.n	800210c <TIM3_IRQHandler+0xc8>
	}else if (TIM3->SR & TIM_SR_CC4IF){
 80020e4:	4b0a      	ldr	r3, [pc, #40]	; (8002110 <TIM3_IRQHandler+0xcc>)
 80020e6:	691b      	ldr	r3, [r3, #16]
 80020e8:	f003 0310 	and.w	r3, r3, #16
 80020ec:	2b00      	cmp	r3, #0
 80020ee:	d00d      	beq.n	800210c <TIM3_IRQHandler+0xc8>
		TIM3->SR &= ~TIM_SR_CC4IF;
 80020f0:	4b07      	ldr	r3, [pc, #28]	; (8002110 <TIM3_IRQHandler+0xcc>)
 80020f2:	691b      	ldr	r3, [r3, #16]
 80020f4:	4a06      	ldr	r2, [pc, #24]	; (8002110 <TIM3_IRQHandler+0xcc>)
 80020f6:	f023 0310 	bic.w	r3, r3, #16
 80020fa:	6113      	str	r3, [r2, #16]
		TIM3->SR &= ~TIM_SR_CC4OF;
 80020fc:	4b04      	ldr	r3, [pc, #16]	; (8002110 <TIM3_IRQHandler+0xcc>)
 80020fe:	691b      	ldr	r3, [r3, #16]
 8002100:	4a03      	ldr	r2, [pc, #12]	; (8002110 <TIM3_IRQHandler+0xcc>)
 8002102:	f423 5380 	bic.w	r3, r3, #4096	; 0x1000
 8002106:	6113      	str	r3, [r2, #16]
		Capture_TIM3_Ch4_Callback();
 8002108:	f7ff fede 	bl	8001ec8 <Capture_TIM3_Ch4_Callback>
}
 800210c:	bf00      	nop
 800210e:	bd80      	pop	{r7, pc}
 8002110:	40000400 	.word	0x40000400

08002114 <TIM4_IRQHandler>:

void TIM4_IRQHandler(void){
 8002114:	b580      	push	{r7, lr}
 8002116:	af00      	add	r7, sp, #0

	/* Limpiamos la bandera que indica que la interrupcin se ha generado */
	if (TIM4->SR & TIM_SR_UIF){
 8002118:	4b31      	ldr	r3, [pc, #196]	; (80021e0 <TIM4_IRQHandler+0xcc>)
 800211a:	691b      	ldr	r3, [r3, #16]
 800211c:	f003 0301 	and.w	r3, r3, #1
 8002120:	2b00      	cmp	r3, #0
 8002122:	d008      	beq.n	8002136 <TIM4_IRQHandler+0x22>
		TIM4->SR &= ~TIM_SR_UIF;
 8002124:	4b2e      	ldr	r3, [pc, #184]	; (80021e0 <TIM4_IRQHandler+0xcc>)
 8002126:	691b      	ldr	r3, [r3, #16]
 8002128:	4a2d      	ldr	r2, [pc, #180]	; (80021e0 <TIM4_IRQHandler+0xcc>)
 800212a:	f023 0301 	bic.w	r3, r3, #1
 800212e:	6113      	str	r3, [r2, #16]
		/* LLamamos a la funcin que se debe encargar de hacer algo con esta interrupcin*/
		BasicTimer4_Callback();
 8002130:	f7ff fe82 	bl	8001e38 <BasicTimer4_Callback>
		TIM4->SR &= ~TIM_SR_CC4IF;
		TIM4->SR &= ~TIM_SR_CC4OF;
		Capture_TIM4_Ch4_Callback();
	}

}
 8002134:	e052      	b.n	80021dc <TIM4_IRQHandler+0xc8>
	}else if (TIM4->SR & TIM_SR_CC1IF){
 8002136:	4b2a      	ldr	r3, [pc, #168]	; (80021e0 <TIM4_IRQHandler+0xcc>)
 8002138:	691b      	ldr	r3, [r3, #16]
 800213a:	f003 0302 	and.w	r3, r3, #2
 800213e:	2b00      	cmp	r3, #0
 8002140:	d00e      	beq.n	8002160 <TIM4_IRQHandler+0x4c>
		TIM4->SR &= ~TIM_SR_CC1IF;
 8002142:	4b27      	ldr	r3, [pc, #156]	; (80021e0 <TIM4_IRQHandler+0xcc>)
 8002144:	691b      	ldr	r3, [r3, #16]
 8002146:	4a26      	ldr	r2, [pc, #152]	; (80021e0 <TIM4_IRQHandler+0xcc>)
 8002148:	f023 0302 	bic.w	r3, r3, #2
 800214c:	6113      	str	r3, [r2, #16]
		TIM4->SR &= ~TIM_SR_CC1OF;
 800214e:	4b24      	ldr	r3, [pc, #144]	; (80021e0 <TIM4_IRQHandler+0xcc>)
 8002150:	691b      	ldr	r3, [r3, #16]
 8002152:	4a23      	ldr	r2, [pc, #140]	; (80021e0 <TIM4_IRQHandler+0xcc>)
 8002154:	f423 7300 	bic.w	r3, r3, #512	; 0x200
 8002158:	6113      	str	r3, [r2, #16]
		Capture_TIM4_Ch1_Callback();
 800215a:	f7ff febd 	bl	8001ed8 <Capture_TIM4_Ch1_Callback>
}
 800215e:	e03d      	b.n	80021dc <TIM4_IRQHandler+0xc8>
	}else if (TIM4->SR & TIM_SR_CC2IF){
 8002160:	4b1f      	ldr	r3, [pc, #124]	; (80021e0 <TIM4_IRQHandler+0xcc>)
 8002162:	691b      	ldr	r3, [r3, #16]
 8002164:	f003 0304 	and.w	r3, r3, #4
 8002168:	2b00      	cmp	r3, #0
 800216a:	d00e      	beq.n	800218a <TIM4_IRQHandler+0x76>
		TIM4->SR &= ~TIM_SR_CC2IF;
 800216c:	4b1c      	ldr	r3, [pc, #112]	; (80021e0 <TIM4_IRQHandler+0xcc>)
 800216e:	691b      	ldr	r3, [r3, #16]
 8002170:	4a1b      	ldr	r2, [pc, #108]	; (80021e0 <TIM4_IRQHandler+0xcc>)
 8002172:	f023 0304 	bic.w	r3, r3, #4
 8002176:	6113      	str	r3, [r2, #16]
		TIM4->SR &= ~TIM_SR_CC2OF;
 8002178:	4b19      	ldr	r3, [pc, #100]	; (80021e0 <TIM4_IRQHandler+0xcc>)
 800217a:	691b      	ldr	r3, [r3, #16]
 800217c:	4a18      	ldr	r2, [pc, #96]	; (80021e0 <TIM4_IRQHandler+0xcc>)
 800217e:	f423 6380 	bic.w	r3, r3, #1024	; 0x400
 8002182:	6113      	str	r3, [r2, #16]
		Capture_TIM5_Ch2_Callback();
 8002184:	f7ff fec8 	bl	8001f18 <Capture_TIM5_Ch2_Callback>
}
 8002188:	e028      	b.n	80021dc <TIM4_IRQHandler+0xc8>
	}else if (TIM4->SR & TIM_SR_CC3IF){
 800218a:	4b15      	ldr	r3, [pc, #84]	; (80021e0 <TIM4_IRQHandler+0xcc>)
 800218c:	691b      	ldr	r3, [r3, #16]
 800218e:	f003 0308 	and.w	r3, r3, #8
 8002192:	2b00      	cmp	r3, #0
 8002194:	d00e      	beq.n	80021b4 <TIM4_IRQHandler+0xa0>
		TIM4->SR &= ~TIM_SR_CC3IF;
 8002196:	4b12      	ldr	r3, [pc, #72]	; (80021e0 <TIM4_IRQHandler+0xcc>)
 8002198:	691b      	ldr	r3, [r3, #16]
 800219a:	4a11      	ldr	r2, [pc, #68]	; (80021e0 <TIM4_IRQHandler+0xcc>)
 800219c:	f023 0308 	bic.w	r3, r3, #8
 80021a0:	6113      	str	r3, [r2, #16]
		TIM4->SR &= ~TIM_SR_CC3OF;
 80021a2:	4b0f      	ldr	r3, [pc, #60]	; (80021e0 <TIM4_IRQHandler+0xcc>)
 80021a4:	691b      	ldr	r3, [r3, #16]
 80021a6:	4a0e      	ldr	r2, [pc, #56]	; (80021e0 <TIM4_IRQHandler+0xcc>)
 80021a8:	f423 6300 	bic.w	r3, r3, #2048	; 0x800
 80021ac:	6113      	str	r3, [r2, #16]
		Capture_TIM4_Ch3_Callback();
 80021ae:	f7ff fe9b 	bl	8001ee8 <Capture_TIM4_Ch3_Callback>
}
 80021b2:	e013      	b.n	80021dc <TIM4_IRQHandler+0xc8>
	}else if (TIM4->SR & TIM_SR_CC4IF){
 80021b4:	4b0a      	ldr	r3, [pc, #40]	; (80021e0 <TIM4_IRQHandler+0xcc>)
 80021b6:	691b      	ldr	r3, [r3, #16]
 80021b8:	f003 0310 	and.w	r3, r3, #16
 80021bc:	2b00      	cmp	r3, #0
 80021be:	d00d      	beq.n	80021dc <TIM4_IRQHandler+0xc8>
		TIM4->SR &= ~TIM_SR_CC4IF;
 80021c0:	4b07      	ldr	r3, [pc, #28]	; (80021e0 <TIM4_IRQHandler+0xcc>)
 80021c2:	691b      	ldr	r3, [r3, #16]
 80021c4:	4a06      	ldr	r2, [pc, #24]	; (80021e0 <TIM4_IRQHandler+0xcc>)
 80021c6:	f023 0310 	bic.w	r3, r3, #16
 80021ca:	6113      	str	r3, [r2, #16]
		TIM4->SR &= ~TIM_SR_CC4OF;
 80021cc:	4b04      	ldr	r3, [pc, #16]	; (80021e0 <TIM4_IRQHandler+0xcc>)
 80021ce:	691b      	ldr	r3, [r3, #16]
 80021d0:	4a03      	ldr	r2, [pc, #12]	; (80021e0 <TIM4_IRQHandler+0xcc>)
 80021d2:	f423 5380 	bic.w	r3, r3, #4096	; 0x1000
 80021d6:	6113      	str	r3, [r2, #16]
		Capture_TIM4_Ch4_Callback();
 80021d8:	f7ff fe8e 	bl	8001ef8 <Capture_TIM4_Ch4_Callback>
}
 80021dc:	bf00      	nop
 80021de:	bd80      	pop	{r7, pc}
 80021e0:	40000800 	.word	0x40000800

080021e4 <TIM5_IRQHandler>:

void TIM5_IRQHandler(void){
 80021e4:	b580      	push	{r7, lr}
 80021e6:	af00      	add	r7, sp, #0

	/* Limpiamos la bandera que indica que la interrupcin se ha generado */
	if (TIM5->SR & TIM_SR_UIF){
 80021e8:	4b31      	ldr	r3, [pc, #196]	; (80022b0 <TIM5_IRQHandler+0xcc>)
 80021ea:	691b      	ldr	r3, [r3, #16]
 80021ec:	f003 0301 	and.w	r3, r3, #1
 80021f0:	2b00      	cmp	r3, #0
 80021f2:	d008      	beq.n	8002206 <TIM5_IRQHandler+0x22>
		TIM5->SR &= ~TIM_SR_UIF;
 80021f4:	4b2e      	ldr	r3, [pc, #184]	; (80022b0 <TIM5_IRQHandler+0xcc>)
 80021f6:	691b      	ldr	r3, [r3, #16]
 80021f8:	4a2d      	ldr	r2, [pc, #180]	; (80022b0 <TIM5_IRQHandler+0xcc>)
 80021fa:	f023 0301 	bic.w	r3, r3, #1
 80021fe:	6113      	str	r3, [r2, #16]
		/* LLamamos a la funcin que se debe encargar de hacer algo con esta interrupcin*/
		BasicTimer5_Callback();
 8002200:	f7ff fe22 	bl	8001e48 <BasicTimer5_Callback>
		TIM5->SR &= ~TIM_SR_CC4OF;
		Capture_TIM5_Ch4_Callback();
	}


}
 8002204:	e052      	b.n	80022ac <TIM5_IRQHandler+0xc8>
	}else if (TIM5->SR & TIM_SR_CC1IF){
 8002206:	4b2a      	ldr	r3, [pc, #168]	; (80022b0 <TIM5_IRQHandler+0xcc>)
 8002208:	691b      	ldr	r3, [r3, #16]
 800220a:	f003 0302 	and.w	r3, r3, #2
 800220e:	2b00      	cmp	r3, #0
 8002210:	d00e      	beq.n	8002230 <TIM5_IRQHandler+0x4c>
		TIM5->SR &= ~TIM_SR_CC1IF;
 8002212:	4b27      	ldr	r3, [pc, #156]	; (80022b0 <TIM5_IRQHandler+0xcc>)
 8002214:	691b      	ldr	r3, [r3, #16]
 8002216:	4a26      	ldr	r2, [pc, #152]	; (80022b0 <TIM5_IRQHandler+0xcc>)
 8002218:	f023 0302 	bic.w	r3, r3, #2
 800221c:	6113      	str	r3, [r2, #16]
		TIM5->SR &= ~TIM_SR_CC1OF;
 800221e:	4b24      	ldr	r3, [pc, #144]	; (80022b0 <TIM5_IRQHandler+0xcc>)
 8002220:	691b      	ldr	r3, [r3, #16]
 8002222:	4a23      	ldr	r2, [pc, #140]	; (80022b0 <TIM5_IRQHandler+0xcc>)
 8002224:	f423 7300 	bic.w	r3, r3, #512	; 0x200
 8002228:	6113      	str	r3, [r2, #16]
		Capture_TIM5_Ch1_Callback();
 800222a:	f7ff fe6d 	bl	8001f08 <Capture_TIM5_Ch1_Callback>
}
 800222e:	e03d      	b.n	80022ac <TIM5_IRQHandler+0xc8>
	}else if (TIM5->SR & TIM_SR_CC2IF){
 8002230:	4b1f      	ldr	r3, [pc, #124]	; (80022b0 <TIM5_IRQHandler+0xcc>)
 8002232:	691b      	ldr	r3, [r3, #16]
 8002234:	f003 0304 	and.w	r3, r3, #4
 8002238:	2b00      	cmp	r3, #0
 800223a:	d00e      	beq.n	800225a <TIM5_IRQHandler+0x76>
		TIM5->SR &= ~TIM_SR_CC2IF;
 800223c:	4b1c      	ldr	r3, [pc, #112]	; (80022b0 <TIM5_IRQHandler+0xcc>)
 800223e:	691b      	ldr	r3, [r3, #16]
 8002240:	4a1b      	ldr	r2, [pc, #108]	; (80022b0 <TIM5_IRQHandler+0xcc>)
 8002242:	f023 0304 	bic.w	r3, r3, #4
 8002246:	6113      	str	r3, [r2, #16]
		TIM5->SR &= ~TIM_SR_CC2OF;
 8002248:	4b19      	ldr	r3, [pc, #100]	; (80022b0 <TIM5_IRQHandler+0xcc>)
 800224a:	691b      	ldr	r3, [r3, #16]
 800224c:	4a18      	ldr	r2, [pc, #96]	; (80022b0 <TIM5_IRQHandler+0xcc>)
 800224e:	f423 6380 	bic.w	r3, r3, #1024	; 0x400
 8002252:	6113      	str	r3, [r2, #16]
		Capture_TIM5_Ch2_Callback();
 8002254:	f7ff fe60 	bl	8001f18 <Capture_TIM5_Ch2_Callback>
}
 8002258:	e028      	b.n	80022ac <TIM5_IRQHandler+0xc8>
	}else if (TIM5->SR & TIM_SR_CC3IF){
 800225a:	4b15      	ldr	r3, [pc, #84]	; (80022b0 <TIM5_IRQHandler+0xcc>)
 800225c:	691b      	ldr	r3, [r3, #16]
 800225e:	f003 0308 	and.w	r3, r3, #8
 8002262:	2b00      	cmp	r3, #0
 8002264:	d00e      	beq.n	8002284 <TIM5_IRQHandler+0xa0>
		TIM5->SR &= ~TIM_SR_CC3IF;
 8002266:	4b12      	ldr	r3, [pc, #72]	; (80022b0 <TIM5_IRQHandler+0xcc>)
 8002268:	691b      	ldr	r3, [r3, #16]
 800226a:	4a11      	ldr	r2, [pc, #68]	; (80022b0 <TIM5_IRQHandler+0xcc>)
 800226c:	f023 0308 	bic.w	r3, r3, #8
 8002270:	6113      	str	r3, [r2, #16]
		TIM5->SR &= ~TIM_SR_CC3OF;
 8002272:	4b0f      	ldr	r3, [pc, #60]	; (80022b0 <TIM5_IRQHandler+0xcc>)
 8002274:	691b      	ldr	r3, [r3, #16]
 8002276:	4a0e      	ldr	r2, [pc, #56]	; (80022b0 <TIM5_IRQHandler+0xcc>)
 8002278:	f423 6300 	bic.w	r3, r3, #2048	; 0x800
 800227c:	6113      	str	r3, [r2, #16]
		Capture_TIM5_Ch3_Callback();
 800227e:	f7ff fe53 	bl	8001f28 <Capture_TIM5_Ch3_Callback>
}
 8002282:	e013      	b.n	80022ac <TIM5_IRQHandler+0xc8>
	}else if (TIM5->SR & TIM_SR_CC4IF){
 8002284:	4b0a      	ldr	r3, [pc, #40]	; (80022b0 <TIM5_IRQHandler+0xcc>)
 8002286:	691b      	ldr	r3, [r3, #16]
 8002288:	f003 0310 	and.w	r3, r3, #16
 800228c:	2b00      	cmp	r3, #0
 800228e:	d00d      	beq.n	80022ac <TIM5_IRQHandler+0xc8>
		TIM5->SR &= ~TIM_SR_CC4IF;
 8002290:	4b07      	ldr	r3, [pc, #28]	; (80022b0 <TIM5_IRQHandler+0xcc>)
 8002292:	691b      	ldr	r3, [r3, #16]
 8002294:	4a06      	ldr	r2, [pc, #24]	; (80022b0 <TIM5_IRQHandler+0xcc>)
 8002296:	f023 0310 	bic.w	r3, r3, #16
 800229a:	6113      	str	r3, [r2, #16]
		TIM5->SR &= ~TIM_SR_CC4OF;
 800229c:	4b04      	ldr	r3, [pc, #16]	; (80022b0 <TIM5_IRQHandler+0xcc>)
 800229e:	691b      	ldr	r3, [r3, #16]
 80022a0:	4a03      	ldr	r2, [pc, #12]	; (80022b0 <TIM5_IRQHandler+0xcc>)
 80022a2:	f423 5380 	bic.w	r3, r3, #4096	; 0x1000
 80022a6:	6113      	str	r3, [r2, #16]
		Capture_TIM5_Ch4_Callback();
 80022a8:	f7ff fe46 	bl	8001f38 <Capture_TIM5_Ch4_Callback>
}
 80022ac:	bf00      	nop
 80022ae:	bd80      	pop	{r7, pc}
 80022b0:	40000c00 	.word	0x40000c00

080022b4 <startTimer>:



void startTimer (BasicTimer_Handler_t *ptrTimerConfig){
 80022b4:	b480      	push	{r7}
 80022b6:	b083      	sub	sp, #12
 80022b8:	af00      	add	r7, sp, #0
 80022ba:	6078      	str	r0, [r7, #4]
	ptrTimerConfig->ptrTIMx->CR1 |= TIM_CR1_CEN;
 80022bc:	687b      	ldr	r3, [r7, #4]
 80022be:	681b      	ldr	r3, [r3, #0]
 80022c0:	681a      	ldr	r2, [r3, #0]
 80022c2:	687b      	ldr	r3, [r7, #4]
 80022c4:	681b      	ldr	r3, [r3, #0]
 80022c6:	f042 0201 	orr.w	r2, r2, #1
 80022ca:	601a      	str	r2, [r3, #0]
}
 80022cc:	bf00      	nop
 80022ce:	370c      	adds	r7, #12
 80022d0:	46bd      	mov	sp, r7
 80022d2:	f85d 7b04 	ldr.w	r7, [sp], #4
 80022d6:	4770      	bx	lr

080022d8 <__NVIC_EnableIRQ>:
{
 80022d8:	b480      	push	{r7}
 80022da:	b083      	sub	sp, #12
 80022dc:	af00      	add	r7, sp, #0
 80022de:	4603      	mov	r3, r0
 80022e0:	71fb      	strb	r3, [r7, #7]
  if ((int32_t)(IRQn) >= 0)
 80022e2:	f997 3007 	ldrsb.w	r3, [r7, #7]
 80022e6:	2b00      	cmp	r3, #0
 80022e8:	db0b      	blt.n	8002302 <__NVIC_EnableIRQ+0x2a>
    NVIC->ISER[(((uint32_t)IRQn) >> 5UL)] = (uint32_t)(1UL << (((uint32_t)IRQn) & 0x1FUL));
 80022ea:	79fb      	ldrb	r3, [r7, #7]
 80022ec:	f003 021f 	and.w	r2, r3, #31
 80022f0:	4907      	ldr	r1, [pc, #28]	; (8002310 <__NVIC_EnableIRQ+0x38>)
 80022f2:	f997 3007 	ldrsb.w	r3, [r7, #7]
 80022f6:	095b      	lsrs	r3, r3, #5
 80022f8:	2001      	movs	r0, #1
 80022fa:	fa00 f202 	lsl.w	r2, r0, r2
 80022fe:	f841 2023 	str.w	r2, [r1, r3, lsl #2]
}
 8002302:	bf00      	nop
 8002304:	370c      	adds	r7, #12
 8002306:	46bd      	mov	sp, r7
 8002308:	f85d 7b04 	ldr.w	r7, [sp], #4
 800230c:	4770      	bx	lr
 800230e:	bf00      	nop
 8002310:	e000e100 	.word	0xe000e100

08002314 <extInt_Config>:
#include "EXTIDriver.h"
#include "GPIOxDriver.h"
GPIO_Handler_t handlerSimplePin = {0};

// Haciendo prueba con PC15
void extInt_Config(EXTI_Config_t *extiConfig){
 8002314:	b580      	push	{r7, lr}
 8002316:	b082      	sub	sp, #8
 8002318:	af00      	add	r7, sp, #0
 800231a:	6078      	str	r0, [r7, #4]

	/* 1.0 Se carga la configuracin, que debe ser el PINx como entrada "simple" */
	GPIO_Config(extiConfig->pGPIOHandler);
 800231c:	687b      	ldr	r3, [r7, #4]
 800231e:	681b      	ldr	r3, [r3, #0]
 8002320:	4618      	mov	r0, r3
 8002322:	f001 f825 	bl	8003370 <GPIO_Config>

	/* 2.0 Activamos el acceso al SYSCFG */
	RCC->APB2ENR = RCC_APB2ENR_SYSCFGEN;
 8002326:	4b96      	ldr	r3, [pc, #600]	; (8002580 <extInt_Config+0x26c>)
 8002328:	f44f 4280 	mov.w	r2, #16384	; 0x4000
 800232c:	645a      	str	r2, [r3, #68]	; 0x44

	/* 3.0  Asignamos el canal EXTI que corresponde al PIN_y del puerto GPIO_X
	 * Debemos activar la lnea PIN_Xy (Y = A, B, C... y x = 0, 1, 2, 3...)
	 * en el mdulo EXTI */
		switch (extiConfig->pGPIOHandler->GPIO_PinConfig.GPIO_PinNumber) {
 800232e:	687b      	ldr	r3, [r7, #4]
 8002330:	681b      	ldr	r3, [r3, #0]
 8002332:	791b      	ldrb	r3, [r3, #4]
 8002334:	2b0f      	cmp	r3, #15
 8002336:	f200 85cd 	bhi.w	8002ed4 <extInt_Config+0xbc0>
 800233a:	a201      	add	r2, pc, #4	; (adr r2, 8002340 <extInt_Config+0x2c>)
 800233c:	f852 f023 	ldr.w	pc, [r2, r3, lsl #2]
 8002340:	08002381 	.word	0x08002381
 8002344:	08002437 	.word	0x08002437
 8002348:	080024ed 	.word	0x080024ed
 800234c:	080025c3 	.word	0x080025c3
 8002350:	08002679 	.word	0x08002679
 8002354:	08002727 	.word	0x08002727
 8002358:	080027ed 	.word	0x080027ed
 800235c:	08002895 	.word	0x08002895
 8002360:	0800293d 	.word	0x0800293d
 8002364:	080029e5 	.word	0x080029e5
 8002368:	08002aab 	.word	0x08002aab
 800236c:	08002b53 	.word	0x08002b53
 8002370:	08002bfb 	.word	0x08002bfb
 8002374:	08002cc1 	.word	0x08002cc1
 8002378:	08002d67 	.word	0x08002d67
 800237c:	08002e0f 	.word	0x08002e0f
		/* Configurando para el todos los pines GPIOX_0*/
				case 0: {
					/* SYSCFG_EXTICR1 */
					// Limpiamos primero la posicin que deseamos configurar
					SYSCFG->EXTICR[0] &= ~(0xF << SYSCFG_EXTICR1_EXTI0_Pos);
 8002380:	4b80      	ldr	r3, [pc, #512]	; (8002584 <extInt_Config+0x270>)
 8002382:	689b      	ldr	r3, [r3, #8]
 8002384:	4a7f      	ldr	r2, [pc, #508]	; (8002584 <extInt_Config+0x270>)
 8002386:	f023 030f 	bic.w	r3, r3, #15
 800238a:	6093      	str	r3, [r2, #8]

					// Ahora seleccionamos el valor a cargar en la posicin, segun sea la seleccin
					// del puerto que vamos a utilizar: GPIOA_0,  GPIOB_0,  GPIOC_0, etc
					if (extiConfig->pGPIOHandler->pGPIOx == GPIOA) {
 800238c:	687b      	ldr	r3, [r7, #4]
 800238e:	681b      	ldr	r3, [r3, #0]
 8002390:	681b      	ldr	r3, [r3, #0]
 8002392:	4a7d      	ldr	r2, [pc, #500]	; (8002588 <extInt_Config+0x274>)
 8002394:	4293      	cmp	r3, r2
 8002396:	d105      	bne.n	80023a4 <extInt_Config+0x90>
						SYSCFG->EXTICR[0] |= (SYSCFG_EXTICR1_EXTI0_PA);
 8002398:	4b7a      	ldr	r3, [pc, #488]	; (8002584 <extInt_Config+0x270>)
 800239a:	4a7a      	ldr	r2, [pc, #488]	; (8002584 <extInt_Config+0x270>)
 800239c:	689b      	ldr	r3, [r3, #8]
 800239e:	6093      	str	r3, [r2, #8]

					} else {
						__NOP();
					}

					break;
 80023a0:	f000 bd9a 	b.w	8002ed8 <extInt_Config+0xbc4>
					} else if (extiConfig->pGPIOHandler->pGPIOx == GPIOB) {
 80023a4:	687b      	ldr	r3, [r7, #4]
 80023a6:	681b      	ldr	r3, [r3, #0]
 80023a8:	681b      	ldr	r3, [r3, #0]
 80023aa:	4a78      	ldr	r2, [pc, #480]	; (800258c <extInt_Config+0x278>)
 80023ac:	4293      	cmp	r3, r2
 80023ae:	d107      	bne.n	80023c0 <extInt_Config+0xac>
						SYSCFG->EXTICR[0] |= (SYSCFG_EXTICR1_EXTI0_PB);
 80023b0:	4b74      	ldr	r3, [pc, #464]	; (8002584 <extInt_Config+0x270>)
 80023b2:	689b      	ldr	r3, [r3, #8]
 80023b4:	4a73      	ldr	r2, [pc, #460]	; (8002584 <extInt_Config+0x270>)
 80023b6:	f043 0301 	orr.w	r3, r3, #1
 80023ba:	6093      	str	r3, [r2, #8]
					break;
 80023bc:	f000 bd8c 	b.w	8002ed8 <extInt_Config+0xbc4>
					} else if (extiConfig->pGPIOHandler->pGPIOx == GPIOC) {
 80023c0:	687b      	ldr	r3, [r7, #4]
 80023c2:	681b      	ldr	r3, [r3, #0]
 80023c4:	681b      	ldr	r3, [r3, #0]
 80023c6:	4a72      	ldr	r2, [pc, #456]	; (8002590 <extInt_Config+0x27c>)
 80023c8:	4293      	cmp	r3, r2
 80023ca:	d107      	bne.n	80023dc <extInt_Config+0xc8>
						SYSCFG->EXTICR[0] |= (SYSCFG_EXTICR1_EXTI0_PC);
 80023cc:	4b6d      	ldr	r3, [pc, #436]	; (8002584 <extInt_Config+0x270>)
 80023ce:	689b      	ldr	r3, [r3, #8]
 80023d0:	4a6c      	ldr	r2, [pc, #432]	; (8002584 <extInt_Config+0x270>)
 80023d2:	f043 0302 	orr.w	r3, r3, #2
 80023d6:	6093      	str	r3, [r2, #8]
					break;
 80023d8:	f000 bd7e 	b.w	8002ed8 <extInt_Config+0xbc4>
					} else if (extiConfig->pGPIOHandler->pGPIOx == GPIOD) {
 80023dc:	687b      	ldr	r3, [r7, #4]
 80023de:	681b      	ldr	r3, [r3, #0]
 80023e0:	681b      	ldr	r3, [r3, #0]
 80023e2:	4a6c      	ldr	r2, [pc, #432]	; (8002594 <extInt_Config+0x280>)
 80023e4:	4293      	cmp	r3, r2
 80023e6:	d107      	bne.n	80023f8 <extInt_Config+0xe4>
						SYSCFG->EXTICR[0] |= (SYSCFG_EXTICR1_EXTI0_PD);
 80023e8:	4b66      	ldr	r3, [pc, #408]	; (8002584 <extInt_Config+0x270>)
 80023ea:	689b      	ldr	r3, [r3, #8]
 80023ec:	4a65      	ldr	r2, [pc, #404]	; (8002584 <extInt_Config+0x270>)
 80023ee:	f043 0303 	orr.w	r3, r3, #3
 80023f2:	6093      	str	r3, [r2, #8]
					break;
 80023f4:	f000 bd70 	b.w	8002ed8 <extInt_Config+0xbc4>
					} else if (extiConfig->pGPIOHandler->pGPIOx == GPIOE) {
 80023f8:	687b      	ldr	r3, [r7, #4]
 80023fa:	681b      	ldr	r3, [r3, #0]
 80023fc:	681b      	ldr	r3, [r3, #0]
 80023fe:	4a66      	ldr	r2, [pc, #408]	; (8002598 <extInt_Config+0x284>)
 8002400:	4293      	cmp	r3, r2
 8002402:	d107      	bne.n	8002414 <extInt_Config+0x100>
						SYSCFG->EXTICR[0] |= (SYSCFG_EXTICR1_EXTI0_PE);
 8002404:	4b5f      	ldr	r3, [pc, #380]	; (8002584 <extInt_Config+0x270>)
 8002406:	689b      	ldr	r3, [r3, #8]
 8002408:	4a5e      	ldr	r2, [pc, #376]	; (8002584 <extInt_Config+0x270>)
 800240a:	f043 0304 	orr.w	r3, r3, #4
 800240e:	6093      	str	r3, [r2, #8]
					break;
 8002410:	f000 bd62 	b.w	8002ed8 <extInt_Config+0xbc4>
					} else if (extiConfig->pGPIOHandler->pGPIOx == GPIOH) {
 8002414:	687b      	ldr	r3, [r7, #4]
 8002416:	681b      	ldr	r3, [r3, #0]
 8002418:	681b      	ldr	r3, [r3, #0]
 800241a:	4a60      	ldr	r2, [pc, #384]	; (800259c <extInt_Config+0x288>)
 800241c:	4293      	cmp	r3, r2
 800241e:	d107      	bne.n	8002430 <extInt_Config+0x11c>
						SYSCFG->EXTICR[0] |= (SYSCFG_EXTICR1_EXTI0_PH);
 8002420:	4b58      	ldr	r3, [pc, #352]	; (8002584 <extInt_Config+0x270>)
 8002422:	689b      	ldr	r3, [r3, #8]
 8002424:	4a57      	ldr	r2, [pc, #348]	; (8002584 <extInt_Config+0x270>)
 8002426:	f043 0307 	orr.w	r3, r3, #7
 800242a:	6093      	str	r3, [r2, #8]
					break;
 800242c:	f000 bd54 	b.w	8002ed8 <extInt_Config+0xbc4>
						__NOP();
 8002430:	bf00      	nop
					break;
 8002432:	f000 bd51 	b.w	8002ed8 <extInt_Config+0xbc4>
				}

				/* Configurando para el todos los pines GPIOX_1*/
				case 1: {
					/* SYSCFG_EXTICR1 */
					SYSCFG->EXTICR[0] &= ~(0xF << SYSCFG_EXTICR1_EXTI1_Pos);
 8002436:	4b53      	ldr	r3, [pc, #332]	; (8002584 <extInt_Config+0x270>)
 8002438:	689b      	ldr	r3, [r3, #8]
 800243a:	4a52      	ldr	r2, [pc, #328]	; (8002584 <extInt_Config+0x270>)
 800243c:	f023 03f0 	bic.w	r3, r3, #240	; 0xf0
 8002440:	6093      	str	r3, [r2, #8]
					if (extiConfig->pGPIOHandler->pGPIOx == GPIOA) {
 8002442:	687b      	ldr	r3, [r7, #4]
 8002444:	681b      	ldr	r3, [r3, #0]
 8002446:	681b      	ldr	r3, [r3, #0]
 8002448:	4a4f      	ldr	r2, [pc, #316]	; (8002588 <extInt_Config+0x274>)
 800244a:	4293      	cmp	r3, r2
 800244c:	d105      	bne.n	800245a <extInt_Config+0x146>
						SYSCFG->EXTICR[0] |= (SYSCFG_EXTICR1_EXTI1_PA);
 800244e:	4b4d      	ldr	r3, [pc, #308]	; (8002584 <extInt_Config+0x270>)
 8002450:	4a4c      	ldr	r2, [pc, #304]	; (8002584 <extInt_Config+0x270>)
 8002452:	689b      	ldr	r3, [r3, #8]
 8002454:	6093      	str	r3, [r2, #8]

					} else {
						__NOP();
					}

					break;
 8002456:	f000 bd3f 	b.w	8002ed8 <extInt_Config+0xbc4>
					} else if (extiConfig->pGPIOHandler->pGPIOx == GPIOB) {
 800245a:	687b      	ldr	r3, [r7, #4]
 800245c:	681b      	ldr	r3, [r3, #0]
 800245e:	681b      	ldr	r3, [r3, #0]
 8002460:	4a4a      	ldr	r2, [pc, #296]	; (800258c <extInt_Config+0x278>)
 8002462:	4293      	cmp	r3, r2
 8002464:	d107      	bne.n	8002476 <extInt_Config+0x162>
						SYSCFG->EXTICR[0] |= (SYSCFG_EXTICR1_EXTI1_PB);
 8002466:	4b47      	ldr	r3, [pc, #284]	; (8002584 <extInt_Config+0x270>)
 8002468:	689b      	ldr	r3, [r3, #8]
 800246a:	4a46      	ldr	r2, [pc, #280]	; (8002584 <extInt_Config+0x270>)
 800246c:	f043 0310 	orr.w	r3, r3, #16
 8002470:	6093      	str	r3, [r2, #8]
					break;
 8002472:	f000 bd31 	b.w	8002ed8 <extInt_Config+0xbc4>
					} else if (extiConfig->pGPIOHandler->pGPIOx == GPIOC) {
 8002476:	687b      	ldr	r3, [r7, #4]
 8002478:	681b      	ldr	r3, [r3, #0]
 800247a:	681b      	ldr	r3, [r3, #0]
 800247c:	4a44      	ldr	r2, [pc, #272]	; (8002590 <extInt_Config+0x27c>)
 800247e:	4293      	cmp	r3, r2
 8002480:	d107      	bne.n	8002492 <extInt_Config+0x17e>
						SYSCFG->EXTICR[0] |= (SYSCFG_EXTICR1_EXTI1_PC);
 8002482:	4b40      	ldr	r3, [pc, #256]	; (8002584 <extInt_Config+0x270>)
 8002484:	689b      	ldr	r3, [r3, #8]
 8002486:	4a3f      	ldr	r2, [pc, #252]	; (8002584 <extInt_Config+0x270>)
 8002488:	f043 0320 	orr.w	r3, r3, #32
 800248c:	6093      	str	r3, [r2, #8]
					break;
 800248e:	f000 bd23 	b.w	8002ed8 <extInt_Config+0xbc4>
					} else if (extiConfig->pGPIOHandler->pGPIOx == GPIOD) {
 8002492:	687b      	ldr	r3, [r7, #4]
 8002494:	681b      	ldr	r3, [r3, #0]
 8002496:	681b      	ldr	r3, [r3, #0]
 8002498:	4a3e      	ldr	r2, [pc, #248]	; (8002594 <extInt_Config+0x280>)
 800249a:	4293      	cmp	r3, r2
 800249c:	d107      	bne.n	80024ae <extInt_Config+0x19a>
						SYSCFG->EXTICR[0] |= (SYSCFG_EXTICR1_EXTI1_PD);
 800249e:	4b39      	ldr	r3, [pc, #228]	; (8002584 <extInt_Config+0x270>)
 80024a0:	689b      	ldr	r3, [r3, #8]
 80024a2:	4a38      	ldr	r2, [pc, #224]	; (8002584 <extInt_Config+0x270>)
 80024a4:	f043 0330 	orr.w	r3, r3, #48	; 0x30
 80024a8:	6093      	str	r3, [r2, #8]
					break;
 80024aa:	f000 bd15 	b.w	8002ed8 <extInt_Config+0xbc4>
					} else if (extiConfig->pGPIOHandler->pGPIOx == GPIOE) {
 80024ae:	687b      	ldr	r3, [r7, #4]
 80024b0:	681b      	ldr	r3, [r3, #0]
 80024b2:	681b      	ldr	r3, [r3, #0]
 80024b4:	4a38      	ldr	r2, [pc, #224]	; (8002598 <extInt_Config+0x284>)
 80024b6:	4293      	cmp	r3, r2
 80024b8:	d107      	bne.n	80024ca <extInt_Config+0x1b6>
						SYSCFG->EXTICR[0] |= (SYSCFG_EXTICR1_EXTI1_PE);
 80024ba:	4b32      	ldr	r3, [pc, #200]	; (8002584 <extInt_Config+0x270>)
 80024bc:	689b      	ldr	r3, [r3, #8]
 80024be:	4a31      	ldr	r2, [pc, #196]	; (8002584 <extInt_Config+0x270>)
 80024c0:	f043 0340 	orr.w	r3, r3, #64	; 0x40
 80024c4:	6093      	str	r3, [r2, #8]
					break;
 80024c6:	f000 bd07 	b.w	8002ed8 <extInt_Config+0xbc4>
					} else if (extiConfig->pGPIOHandler->pGPIOx == GPIOH) {
 80024ca:	687b      	ldr	r3, [r7, #4]
 80024cc:	681b      	ldr	r3, [r3, #0]
 80024ce:	681b      	ldr	r3, [r3, #0]
 80024d0:	4a32      	ldr	r2, [pc, #200]	; (800259c <extInt_Config+0x288>)
 80024d2:	4293      	cmp	r3, r2
 80024d4:	d107      	bne.n	80024e6 <extInt_Config+0x1d2>
						SYSCFG->EXTICR[0] |= (SYSCFG_EXTICR1_EXTI1_PH);
 80024d6:	4b2b      	ldr	r3, [pc, #172]	; (8002584 <extInt_Config+0x270>)
 80024d8:	689b      	ldr	r3, [r3, #8]
 80024da:	4a2a      	ldr	r2, [pc, #168]	; (8002584 <extInt_Config+0x270>)
 80024dc:	f043 0370 	orr.w	r3, r3, #112	; 0x70
 80024e0:	6093      	str	r3, [r2, #8]
					break;
 80024e2:	f000 bcf9 	b.w	8002ed8 <extInt_Config+0xbc4>
						__NOP();
 80024e6:	bf00      	nop
					break;
 80024e8:	f000 bcf6 	b.w	8002ed8 <extInt_Config+0xbc4>

				}

				/* Configurando para el todos los pines GPIOX_2*/
				case 2: {
					SYSCFG->EXTICR[0] &= ~(0xF << SYSCFG_EXTICR1_EXTI2_Pos);
 80024ec:	4b25      	ldr	r3, [pc, #148]	; (8002584 <extInt_Config+0x270>)
 80024ee:	689b      	ldr	r3, [r3, #8]
 80024f0:	4a24      	ldr	r2, [pc, #144]	; (8002584 <extInt_Config+0x270>)
 80024f2:	f423 6370 	bic.w	r3, r3, #3840	; 0xf00
 80024f6:	6093      	str	r3, [r2, #8]
					if (extiConfig->pGPIOHandler->pGPIOx == GPIOA) {
 80024f8:	687b      	ldr	r3, [r7, #4]
 80024fa:	681b      	ldr	r3, [r3, #0]
 80024fc:	681b      	ldr	r3, [r3, #0]
 80024fe:	4a22      	ldr	r2, [pc, #136]	; (8002588 <extInt_Config+0x274>)
 8002500:	4293      	cmp	r3, r2
 8002502:	d105      	bne.n	8002510 <extInt_Config+0x1fc>
						SYSCFG->EXTICR[0] |= (SYSCFG_EXTICR1_EXTI2_PA);
 8002504:	4b1f      	ldr	r3, [pc, #124]	; (8002584 <extInt_Config+0x270>)
 8002506:	4a1f      	ldr	r2, [pc, #124]	; (8002584 <extInt_Config+0x270>)
 8002508:	689b      	ldr	r3, [r3, #8]
 800250a:	6093      	str	r3, [r2, #8]

					} else {
						__NOP();
					}

					break;
 800250c:	f000 bce4 	b.w	8002ed8 <extInt_Config+0xbc4>
					} else if (extiConfig->pGPIOHandler->pGPIOx == GPIOB) {
 8002510:	687b      	ldr	r3, [r7, #4]
 8002512:	681b      	ldr	r3, [r3, #0]
 8002514:	681b      	ldr	r3, [r3, #0]
 8002516:	4a1d      	ldr	r2, [pc, #116]	; (800258c <extInt_Config+0x278>)
 8002518:	4293      	cmp	r3, r2
 800251a:	d107      	bne.n	800252c <extInt_Config+0x218>
						SYSCFG->EXTICR[0] |= (SYSCFG_EXTICR1_EXTI2_PB);
 800251c:	4b19      	ldr	r3, [pc, #100]	; (8002584 <extInt_Config+0x270>)
 800251e:	689b      	ldr	r3, [r3, #8]
 8002520:	4a18      	ldr	r2, [pc, #96]	; (8002584 <extInt_Config+0x270>)
 8002522:	f443 7380 	orr.w	r3, r3, #256	; 0x100
 8002526:	6093      	str	r3, [r2, #8]
					break;
 8002528:	f000 bcd6 	b.w	8002ed8 <extInt_Config+0xbc4>
					} else if (extiConfig->pGPIOHandler->pGPIOx == GPIOC) {
 800252c:	687b      	ldr	r3, [r7, #4]
 800252e:	681b      	ldr	r3, [r3, #0]
 8002530:	681b      	ldr	r3, [r3, #0]
 8002532:	4a17      	ldr	r2, [pc, #92]	; (8002590 <extInt_Config+0x27c>)
 8002534:	4293      	cmp	r3, r2
 8002536:	d107      	bne.n	8002548 <extInt_Config+0x234>
						SYSCFG->EXTICR[0] |= (SYSCFG_EXTICR1_EXTI2_PC);
 8002538:	4b12      	ldr	r3, [pc, #72]	; (8002584 <extInt_Config+0x270>)
 800253a:	689b      	ldr	r3, [r3, #8]
 800253c:	4a11      	ldr	r2, [pc, #68]	; (8002584 <extInt_Config+0x270>)
 800253e:	f443 7300 	orr.w	r3, r3, #512	; 0x200
 8002542:	6093      	str	r3, [r2, #8]
					break;
 8002544:	f000 bcc8 	b.w	8002ed8 <extInt_Config+0xbc4>
					} else if (extiConfig->pGPIOHandler->pGPIOx == GPIOD) {
 8002548:	687b      	ldr	r3, [r7, #4]
 800254a:	681b      	ldr	r3, [r3, #0]
 800254c:	681b      	ldr	r3, [r3, #0]
 800254e:	4a11      	ldr	r2, [pc, #68]	; (8002594 <extInt_Config+0x280>)
 8002550:	4293      	cmp	r3, r2
 8002552:	d107      	bne.n	8002564 <extInt_Config+0x250>
						SYSCFG->EXTICR[0] |= (SYSCFG_EXTICR1_EXTI2_PD);
 8002554:	4b0b      	ldr	r3, [pc, #44]	; (8002584 <extInt_Config+0x270>)
 8002556:	689b      	ldr	r3, [r3, #8]
 8002558:	4a0a      	ldr	r2, [pc, #40]	; (8002584 <extInt_Config+0x270>)
 800255a:	f443 7340 	orr.w	r3, r3, #768	; 0x300
 800255e:	6093      	str	r3, [r2, #8]
					break;
 8002560:	f000 bcba 	b.w	8002ed8 <extInt_Config+0xbc4>
					} else if (extiConfig->pGPIOHandler->pGPIOx == GPIOE) {
 8002564:	687b      	ldr	r3, [r7, #4]
 8002566:	681b      	ldr	r3, [r3, #0]
 8002568:	681b      	ldr	r3, [r3, #0]
 800256a:	4a0b      	ldr	r2, [pc, #44]	; (8002598 <extInt_Config+0x284>)
 800256c:	4293      	cmp	r3, r2
 800256e:	d117      	bne.n	80025a0 <extInt_Config+0x28c>
						SYSCFG->EXTICR[0] |= (SYSCFG_EXTICR1_EXTI2_PE);
 8002570:	4b04      	ldr	r3, [pc, #16]	; (8002584 <extInt_Config+0x270>)
 8002572:	689b      	ldr	r3, [r3, #8]
 8002574:	4a03      	ldr	r2, [pc, #12]	; (8002584 <extInt_Config+0x270>)
 8002576:	f443 6380 	orr.w	r3, r3, #1024	; 0x400
 800257a:	6093      	str	r3, [r2, #8]
					break;
 800257c:	f000 bcac 	b.w	8002ed8 <extInt_Config+0xbc4>
 8002580:	40023800 	.word	0x40023800
 8002584:	40013800 	.word	0x40013800
 8002588:	40020000 	.word	0x40020000
 800258c:	40020400 	.word	0x40020400
 8002590:	40020800 	.word	0x40020800
 8002594:	40020c00 	.word	0x40020c00
 8002598:	40021000 	.word	0x40021000
 800259c:	40021c00 	.word	0x40021c00
					} else if (extiConfig->pGPIOHandler->pGPIOx == GPIOH) {
 80025a0:	687b      	ldr	r3, [r7, #4]
 80025a2:	681b      	ldr	r3, [r3, #0]
 80025a4:	681b      	ldr	r3, [r3, #0]
 80025a6:	4a8a      	ldr	r2, [pc, #552]	; (80027d0 <extInt_Config+0x4bc>)
 80025a8:	4293      	cmp	r3, r2
 80025aa:	d107      	bne.n	80025bc <extInt_Config+0x2a8>
						SYSCFG->EXTICR[0] |= (SYSCFG_EXTICR1_EXTI2_PH);
 80025ac:	4b89      	ldr	r3, [pc, #548]	; (80027d4 <extInt_Config+0x4c0>)
 80025ae:	689b      	ldr	r3, [r3, #8]
 80025b0:	4a88      	ldr	r2, [pc, #544]	; (80027d4 <extInt_Config+0x4c0>)
 80025b2:	f443 63e0 	orr.w	r3, r3, #1792	; 0x700
 80025b6:	6093      	str	r3, [r2, #8]
					break;
 80025b8:	f000 bc8e 	b.w	8002ed8 <extInt_Config+0xbc4>
						__NOP();
 80025bc:	bf00      	nop
					break;
 80025be:	f000 bc8b 	b.w	8002ed8 <extInt_Config+0xbc4>

				}

				case 3:{
					SYSCFG->EXTICR[0] &= ~(0xF << SYSCFG_EXTICR1_EXTI3_Pos);
 80025c2:	4b84      	ldr	r3, [pc, #528]	; (80027d4 <extInt_Config+0x4c0>)
 80025c4:	689b      	ldr	r3, [r3, #8]
 80025c6:	4a83      	ldr	r2, [pc, #524]	; (80027d4 <extInt_Config+0x4c0>)
 80025c8:	f423 4370 	bic.w	r3, r3, #61440	; 0xf000
 80025cc:	6093      	str	r3, [r2, #8]
					if (extiConfig->pGPIOHandler->pGPIOx == GPIOA) {
 80025ce:	687b      	ldr	r3, [r7, #4]
 80025d0:	681b      	ldr	r3, [r3, #0]
 80025d2:	681b      	ldr	r3, [r3, #0]
 80025d4:	4a80      	ldr	r2, [pc, #512]	; (80027d8 <extInt_Config+0x4c4>)
 80025d6:	4293      	cmp	r3, r2
 80025d8:	d105      	bne.n	80025e6 <extInt_Config+0x2d2>
						SYSCFG->EXTICR[0] |= (SYSCFG_EXTICR1_EXTI3_PA);
 80025da:	4b7e      	ldr	r3, [pc, #504]	; (80027d4 <extInt_Config+0x4c0>)
 80025dc:	4a7d      	ldr	r2, [pc, #500]	; (80027d4 <extInt_Config+0x4c0>)
 80025de:	689b      	ldr	r3, [r3, #8]
 80025e0:	6093      	str	r3, [r2, #8]

					} else {
						__NOP();
					}

					break;
 80025e2:	f000 bc79 	b.w	8002ed8 <extInt_Config+0xbc4>
					} else if (extiConfig->pGPIOHandler->pGPIOx == GPIOB) {
 80025e6:	687b      	ldr	r3, [r7, #4]
 80025e8:	681b      	ldr	r3, [r3, #0]
 80025ea:	681b      	ldr	r3, [r3, #0]
 80025ec:	4a7b      	ldr	r2, [pc, #492]	; (80027dc <extInt_Config+0x4c8>)
 80025ee:	4293      	cmp	r3, r2
 80025f0:	d107      	bne.n	8002602 <extInt_Config+0x2ee>
						SYSCFG->EXTICR[0] |= (SYSCFG_EXTICR1_EXTI3_PB);
 80025f2:	4b78      	ldr	r3, [pc, #480]	; (80027d4 <extInt_Config+0x4c0>)
 80025f4:	689b      	ldr	r3, [r3, #8]
 80025f6:	4a77      	ldr	r2, [pc, #476]	; (80027d4 <extInt_Config+0x4c0>)
 80025f8:	f443 5380 	orr.w	r3, r3, #4096	; 0x1000
 80025fc:	6093      	str	r3, [r2, #8]
					break;
 80025fe:	f000 bc6b 	b.w	8002ed8 <extInt_Config+0xbc4>
					} else if (extiConfig->pGPIOHandler->pGPIOx == GPIOC) {
 8002602:	687b      	ldr	r3, [r7, #4]
 8002604:	681b      	ldr	r3, [r3, #0]
 8002606:	681b      	ldr	r3, [r3, #0]
 8002608:	4a75      	ldr	r2, [pc, #468]	; (80027e0 <extInt_Config+0x4cc>)
 800260a:	4293      	cmp	r3, r2
 800260c:	d107      	bne.n	800261e <extInt_Config+0x30a>
						SYSCFG->EXTICR[0] |= (SYSCFG_EXTICR1_EXTI3_PC);
 800260e:	4b71      	ldr	r3, [pc, #452]	; (80027d4 <extInt_Config+0x4c0>)
 8002610:	689b      	ldr	r3, [r3, #8]
 8002612:	4a70      	ldr	r2, [pc, #448]	; (80027d4 <extInt_Config+0x4c0>)
 8002614:	f443 5300 	orr.w	r3, r3, #8192	; 0x2000
 8002618:	6093      	str	r3, [r2, #8]
					break;
 800261a:	f000 bc5d 	b.w	8002ed8 <extInt_Config+0xbc4>
					} else if (extiConfig->pGPIOHandler->pGPIOx == GPIOD) {
 800261e:	687b      	ldr	r3, [r7, #4]
 8002620:	681b      	ldr	r3, [r3, #0]
 8002622:	681b      	ldr	r3, [r3, #0]
 8002624:	4a6f      	ldr	r2, [pc, #444]	; (80027e4 <extInt_Config+0x4d0>)
 8002626:	4293      	cmp	r3, r2
 8002628:	d107      	bne.n	800263a <extInt_Config+0x326>
						SYSCFG->EXTICR[0] |= (SYSCFG_EXTICR1_EXTI3_PD);
 800262a:	4b6a      	ldr	r3, [pc, #424]	; (80027d4 <extInt_Config+0x4c0>)
 800262c:	689b      	ldr	r3, [r3, #8]
 800262e:	4a69      	ldr	r2, [pc, #420]	; (80027d4 <extInt_Config+0x4c0>)
 8002630:	f443 5340 	orr.w	r3, r3, #12288	; 0x3000
 8002634:	6093      	str	r3, [r2, #8]
					break;
 8002636:	f000 bc4f 	b.w	8002ed8 <extInt_Config+0xbc4>
					} else if (extiConfig->pGPIOHandler->pGPIOx == GPIOE) {
 800263a:	687b      	ldr	r3, [r7, #4]
 800263c:	681b      	ldr	r3, [r3, #0]
 800263e:	681b      	ldr	r3, [r3, #0]
 8002640:	4a69      	ldr	r2, [pc, #420]	; (80027e8 <extInt_Config+0x4d4>)
 8002642:	4293      	cmp	r3, r2
 8002644:	d107      	bne.n	8002656 <extInt_Config+0x342>
						SYSCFG->EXTICR[0] |= (SYSCFG_EXTICR1_EXTI3_PE);
 8002646:	4b63      	ldr	r3, [pc, #396]	; (80027d4 <extInt_Config+0x4c0>)
 8002648:	689b      	ldr	r3, [r3, #8]
 800264a:	4a62      	ldr	r2, [pc, #392]	; (80027d4 <extInt_Config+0x4c0>)
 800264c:	f443 4380 	orr.w	r3, r3, #16384	; 0x4000
 8002650:	6093      	str	r3, [r2, #8]
					break;
 8002652:	f000 bc41 	b.w	8002ed8 <extInt_Config+0xbc4>
					} else if (extiConfig->pGPIOHandler->pGPIOx == GPIOH) {
 8002656:	687b      	ldr	r3, [r7, #4]
 8002658:	681b      	ldr	r3, [r3, #0]
 800265a:	681b      	ldr	r3, [r3, #0]
 800265c:	4a5c      	ldr	r2, [pc, #368]	; (80027d0 <extInt_Config+0x4bc>)
 800265e:	4293      	cmp	r3, r2
 8002660:	d107      	bne.n	8002672 <extInt_Config+0x35e>
						SYSCFG->EXTICR[0] |= (SYSCFG_EXTICR1_EXTI3_PH);
 8002662:	4b5c      	ldr	r3, [pc, #368]	; (80027d4 <extInt_Config+0x4c0>)
 8002664:	689b      	ldr	r3, [r3, #8]
 8002666:	4a5b      	ldr	r2, [pc, #364]	; (80027d4 <extInt_Config+0x4c0>)
 8002668:	f443 43e0 	orr.w	r3, r3, #28672	; 0x7000
 800266c:	6093      	str	r3, [r2, #8]
					break;
 800266e:	f000 bc33 	b.w	8002ed8 <extInt_Config+0xbc4>
						__NOP();
 8002672:	bf00      	nop
					break;
 8002674:	f000 bc30 	b.w	8002ed8 <extInt_Config+0xbc4>
				}
				case 4:{
					SYSCFG->EXTICR[1] &= ~(0xF << SYSCFG_EXTICR2_EXTI4_Pos);
 8002678:	4b56      	ldr	r3, [pc, #344]	; (80027d4 <extInt_Config+0x4c0>)
 800267a:	68db      	ldr	r3, [r3, #12]
 800267c:	4a55      	ldr	r2, [pc, #340]	; (80027d4 <extInt_Config+0x4c0>)
 800267e:	f023 030f 	bic.w	r3, r3, #15
 8002682:	60d3      	str	r3, [r2, #12]
					if (extiConfig->pGPIOHandler->pGPIOx == GPIOA) {
 8002684:	687b      	ldr	r3, [r7, #4]
 8002686:	681b      	ldr	r3, [r3, #0]
 8002688:	681b      	ldr	r3, [r3, #0]
 800268a:	4a53      	ldr	r2, [pc, #332]	; (80027d8 <extInt_Config+0x4c4>)
 800268c:	4293      	cmp	r3, r2
 800268e:	d105      	bne.n	800269c <extInt_Config+0x388>
						SYSCFG->EXTICR[1] |= (SYSCFG_EXTICR2_EXTI4_PA);
 8002690:	4b50      	ldr	r3, [pc, #320]	; (80027d4 <extInt_Config+0x4c0>)
 8002692:	4a50      	ldr	r2, [pc, #320]	; (80027d4 <extInt_Config+0x4c0>)
 8002694:	68db      	ldr	r3, [r3, #12]
 8002696:	60d3      	str	r3, [r2, #12]

					} else {
						__NOP();
					}

					break;
 8002698:	f000 bc1e 	b.w	8002ed8 <extInt_Config+0xbc4>
					} else if (extiConfig->pGPIOHandler->pGPIOx == GPIOB) {
 800269c:	687b      	ldr	r3, [r7, #4]
 800269e:	681b      	ldr	r3, [r3, #0]
 80026a0:	681b      	ldr	r3, [r3, #0]
 80026a2:	4a4e      	ldr	r2, [pc, #312]	; (80027dc <extInt_Config+0x4c8>)
 80026a4:	4293      	cmp	r3, r2
 80026a6:	d107      	bne.n	80026b8 <extInt_Config+0x3a4>
						SYSCFG->EXTICR[1] |= (SYSCFG_EXTICR2_EXTI4_PB);
 80026a8:	4b4a      	ldr	r3, [pc, #296]	; (80027d4 <extInt_Config+0x4c0>)
 80026aa:	68db      	ldr	r3, [r3, #12]
 80026ac:	4a49      	ldr	r2, [pc, #292]	; (80027d4 <extInt_Config+0x4c0>)
 80026ae:	f043 0301 	orr.w	r3, r3, #1
 80026b2:	60d3      	str	r3, [r2, #12]
					break;
 80026b4:	f000 bc10 	b.w	8002ed8 <extInt_Config+0xbc4>
					} else if (extiConfig->pGPIOHandler->pGPIOx == GPIOC) {
 80026b8:	687b      	ldr	r3, [r7, #4]
 80026ba:	681b      	ldr	r3, [r3, #0]
 80026bc:	681b      	ldr	r3, [r3, #0]
 80026be:	4a48      	ldr	r2, [pc, #288]	; (80027e0 <extInt_Config+0x4cc>)
 80026c0:	4293      	cmp	r3, r2
 80026c2:	d107      	bne.n	80026d4 <extInt_Config+0x3c0>
						SYSCFG->EXTICR[1] |= (SYSCFG_EXTICR2_EXTI4_PC);
 80026c4:	4b43      	ldr	r3, [pc, #268]	; (80027d4 <extInt_Config+0x4c0>)
 80026c6:	68db      	ldr	r3, [r3, #12]
 80026c8:	4a42      	ldr	r2, [pc, #264]	; (80027d4 <extInt_Config+0x4c0>)
 80026ca:	f043 0302 	orr.w	r3, r3, #2
 80026ce:	60d3      	str	r3, [r2, #12]
					break;
 80026d0:	f000 bc02 	b.w	8002ed8 <extInt_Config+0xbc4>
					} else if (extiConfig->pGPIOHandler->pGPIOx == GPIOD) {
 80026d4:	687b      	ldr	r3, [r7, #4]
 80026d6:	681b      	ldr	r3, [r3, #0]
 80026d8:	681b      	ldr	r3, [r3, #0]
 80026da:	4a42      	ldr	r2, [pc, #264]	; (80027e4 <extInt_Config+0x4d0>)
 80026dc:	4293      	cmp	r3, r2
 80026de:	d106      	bne.n	80026ee <extInt_Config+0x3da>
						SYSCFG->EXTICR[1] |= (SYSCFG_EXTICR2_EXTI4_PD);
 80026e0:	4b3c      	ldr	r3, [pc, #240]	; (80027d4 <extInt_Config+0x4c0>)
 80026e2:	68db      	ldr	r3, [r3, #12]
 80026e4:	4a3b      	ldr	r2, [pc, #236]	; (80027d4 <extInt_Config+0x4c0>)
 80026e6:	f043 0303 	orr.w	r3, r3, #3
 80026ea:	60d3      	str	r3, [r2, #12]
					break;
 80026ec:	e3f4      	b.n	8002ed8 <extInt_Config+0xbc4>
					} else if (extiConfig->pGPIOHandler->pGPIOx == GPIOE) {
 80026ee:	687b      	ldr	r3, [r7, #4]
 80026f0:	681b      	ldr	r3, [r3, #0]
 80026f2:	681b      	ldr	r3, [r3, #0]
 80026f4:	4a3c      	ldr	r2, [pc, #240]	; (80027e8 <extInt_Config+0x4d4>)
 80026f6:	4293      	cmp	r3, r2
 80026f8:	d106      	bne.n	8002708 <extInt_Config+0x3f4>
						SYSCFG->EXTICR[1] |= (SYSCFG_EXTICR2_EXTI4_PE);
 80026fa:	4b36      	ldr	r3, [pc, #216]	; (80027d4 <extInt_Config+0x4c0>)
 80026fc:	68db      	ldr	r3, [r3, #12]
 80026fe:	4a35      	ldr	r2, [pc, #212]	; (80027d4 <extInt_Config+0x4c0>)
 8002700:	f043 0304 	orr.w	r3, r3, #4
 8002704:	60d3      	str	r3, [r2, #12]
					break;
 8002706:	e3e7      	b.n	8002ed8 <extInt_Config+0xbc4>
					} else if (extiConfig->pGPIOHandler->pGPIOx == GPIOH) {
 8002708:	687b      	ldr	r3, [r7, #4]
 800270a:	681b      	ldr	r3, [r3, #0]
 800270c:	681b      	ldr	r3, [r3, #0]
 800270e:	4a30      	ldr	r2, [pc, #192]	; (80027d0 <extInt_Config+0x4bc>)
 8002710:	4293      	cmp	r3, r2
 8002712:	d106      	bne.n	8002722 <extInt_Config+0x40e>
						SYSCFG->EXTICR[1] |= (SYSCFG_EXTICR2_EXTI4_PH);
 8002714:	4b2f      	ldr	r3, [pc, #188]	; (80027d4 <extInt_Config+0x4c0>)
 8002716:	68db      	ldr	r3, [r3, #12]
 8002718:	4a2e      	ldr	r2, [pc, #184]	; (80027d4 <extInt_Config+0x4c0>)
 800271a:	f043 0307 	orr.w	r3, r3, #7
 800271e:	60d3      	str	r3, [r2, #12]
					break;
 8002720:	e3da      	b.n	8002ed8 <extInt_Config+0xbc4>
						__NOP();
 8002722:	bf00      	nop
					break;
 8002724:	e3d8      	b.n	8002ed8 <extInt_Config+0xbc4>
				}
				case 5:{
					SYSCFG->EXTICR[1] &= ~(0xF << SYSCFG_EXTICR2_EXTI5_Pos);
 8002726:	4b2b      	ldr	r3, [pc, #172]	; (80027d4 <extInt_Config+0x4c0>)
 8002728:	68db      	ldr	r3, [r3, #12]
 800272a:	4a2a      	ldr	r2, [pc, #168]	; (80027d4 <extInt_Config+0x4c0>)
 800272c:	f023 03f0 	bic.w	r3, r3, #240	; 0xf0
 8002730:	60d3      	str	r3, [r2, #12]
					if (extiConfig->pGPIOHandler->pGPIOx == GPIOA) {
 8002732:	687b      	ldr	r3, [r7, #4]
 8002734:	681b      	ldr	r3, [r3, #0]
 8002736:	681b      	ldr	r3, [r3, #0]
 8002738:	4a27      	ldr	r2, [pc, #156]	; (80027d8 <extInt_Config+0x4c4>)
 800273a:	4293      	cmp	r3, r2
 800273c:	d104      	bne.n	8002748 <extInt_Config+0x434>
						SYSCFG->EXTICR[1] |= (SYSCFG_EXTICR2_EXTI5_PA);
 800273e:	4b25      	ldr	r3, [pc, #148]	; (80027d4 <extInt_Config+0x4c0>)
 8002740:	4a24      	ldr	r2, [pc, #144]	; (80027d4 <extInt_Config+0x4c0>)
 8002742:	68db      	ldr	r3, [r3, #12]
 8002744:	60d3      	str	r3, [r2, #12]

					} else {
						__NOP();
					}

					break;
 8002746:	e3c7      	b.n	8002ed8 <extInt_Config+0xbc4>
					} else if (extiConfig->pGPIOHandler->pGPIOx == GPIOB) {
 8002748:	687b      	ldr	r3, [r7, #4]
 800274a:	681b      	ldr	r3, [r3, #0]
 800274c:	681b      	ldr	r3, [r3, #0]
 800274e:	4a23      	ldr	r2, [pc, #140]	; (80027dc <extInt_Config+0x4c8>)
 8002750:	4293      	cmp	r3, r2
 8002752:	d106      	bne.n	8002762 <extInt_Config+0x44e>
						SYSCFG->EXTICR[1] |= (SYSCFG_EXTICR2_EXTI5_PB);
 8002754:	4b1f      	ldr	r3, [pc, #124]	; (80027d4 <extInt_Config+0x4c0>)
 8002756:	68db      	ldr	r3, [r3, #12]
 8002758:	4a1e      	ldr	r2, [pc, #120]	; (80027d4 <extInt_Config+0x4c0>)
 800275a:	f043 0310 	orr.w	r3, r3, #16
 800275e:	60d3      	str	r3, [r2, #12]
					break;
 8002760:	e3ba      	b.n	8002ed8 <extInt_Config+0xbc4>
					} else if (extiConfig->pGPIOHandler->pGPIOx == GPIOC) {
 8002762:	687b      	ldr	r3, [r7, #4]
 8002764:	681b      	ldr	r3, [r3, #0]
 8002766:	681b      	ldr	r3, [r3, #0]
 8002768:	4a1d      	ldr	r2, [pc, #116]	; (80027e0 <extInt_Config+0x4cc>)
 800276a:	4293      	cmp	r3, r2
 800276c:	d106      	bne.n	800277c <extInt_Config+0x468>
						SYSCFG->EXTICR[1] |= (SYSCFG_EXTICR2_EXTI5_PC);
 800276e:	4b19      	ldr	r3, [pc, #100]	; (80027d4 <extInt_Config+0x4c0>)
 8002770:	68db      	ldr	r3, [r3, #12]
 8002772:	4a18      	ldr	r2, [pc, #96]	; (80027d4 <extInt_Config+0x4c0>)
 8002774:	f043 0320 	orr.w	r3, r3, #32
 8002778:	60d3      	str	r3, [r2, #12]
					break;
 800277a:	e3ad      	b.n	8002ed8 <extInt_Config+0xbc4>
					} else if (extiConfig->pGPIOHandler->pGPIOx == GPIOD) {
 800277c:	687b      	ldr	r3, [r7, #4]
 800277e:	681b      	ldr	r3, [r3, #0]
 8002780:	681b      	ldr	r3, [r3, #0]
 8002782:	4a18      	ldr	r2, [pc, #96]	; (80027e4 <extInt_Config+0x4d0>)
 8002784:	4293      	cmp	r3, r2
 8002786:	d106      	bne.n	8002796 <extInt_Config+0x482>
						SYSCFG->EXTICR[1] |= (SYSCFG_EXTICR2_EXTI5_PD);
 8002788:	4b12      	ldr	r3, [pc, #72]	; (80027d4 <extInt_Config+0x4c0>)
 800278a:	68db      	ldr	r3, [r3, #12]
 800278c:	4a11      	ldr	r2, [pc, #68]	; (80027d4 <extInt_Config+0x4c0>)
 800278e:	f043 0330 	orr.w	r3, r3, #48	; 0x30
 8002792:	60d3      	str	r3, [r2, #12]
					break;
 8002794:	e3a0      	b.n	8002ed8 <extInt_Config+0xbc4>
					} else if (extiConfig->pGPIOHandler->pGPIOx == GPIOE) {
 8002796:	687b      	ldr	r3, [r7, #4]
 8002798:	681b      	ldr	r3, [r3, #0]
 800279a:	681b      	ldr	r3, [r3, #0]
 800279c:	4a12      	ldr	r2, [pc, #72]	; (80027e8 <extInt_Config+0x4d4>)
 800279e:	4293      	cmp	r3, r2
 80027a0:	d106      	bne.n	80027b0 <extInt_Config+0x49c>
						SYSCFG->EXTICR[1] |= (SYSCFG_EXTICR2_EXTI5_PE);
 80027a2:	4b0c      	ldr	r3, [pc, #48]	; (80027d4 <extInt_Config+0x4c0>)
 80027a4:	68db      	ldr	r3, [r3, #12]
 80027a6:	4a0b      	ldr	r2, [pc, #44]	; (80027d4 <extInt_Config+0x4c0>)
 80027a8:	f043 0340 	orr.w	r3, r3, #64	; 0x40
 80027ac:	60d3      	str	r3, [r2, #12]
					break;
 80027ae:	e393      	b.n	8002ed8 <extInt_Config+0xbc4>
					} else if (extiConfig->pGPIOHandler->pGPIOx == GPIOH) {
 80027b0:	687b      	ldr	r3, [r7, #4]
 80027b2:	681b      	ldr	r3, [r3, #0]
 80027b4:	681b      	ldr	r3, [r3, #0]
 80027b6:	4a06      	ldr	r2, [pc, #24]	; (80027d0 <extInt_Config+0x4bc>)
 80027b8:	4293      	cmp	r3, r2
 80027ba:	d106      	bne.n	80027ca <extInt_Config+0x4b6>
						SYSCFG->EXTICR[1] |= (SYSCFG_EXTICR2_EXTI5_PH);
 80027bc:	4b05      	ldr	r3, [pc, #20]	; (80027d4 <extInt_Config+0x4c0>)
 80027be:	68db      	ldr	r3, [r3, #12]
 80027c0:	4a04      	ldr	r2, [pc, #16]	; (80027d4 <extInt_Config+0x4c0>)
 80027c2:	f043 0370 	orr.w	r3, r3, #112	; 0x70
 80027c6:	60d3      	str	r3, [r2, #12]
					break;
 80027c8:	e386      	b.n	8002ed8 <extInt_Config+0xbc4>
						__NOP();
 80027ca:	bf00      	nop
					break;
 80027cc:	e384      	b.n	8002ed8 <extInt_Config+0xbc4>
 80027ce:	bf00      	nop
 80027d0:	40021c00 	.word	0x40021c00
 80027d4:	40013800 	.word	0x40013800
 80027d8:	40020000 	.word	0x40020000
 80027dc:	40020400 	.word	0x40020400
 80027e0:	40020800 	.word	0x40020800
 80027e4:	40020c00 	.word	0x40020c00
 80027e8:	40021000 	.word	0x40021000
				}
				case 6:{
					SYSCFG->EXTICR[1] &= ~(0xF << SYSCFG_EXTICR2_EXTI6_Pos);
 80027ec:	4b86      	ldr	r3, [pc, #536]	; (8002a08 <extInt_Config+0x6f4>)
 80027ee:	68db      	ldr	r3, [r3, #12]
 80027f0:	4a85      	ldr	r2, [pc, #532]	; (8002a08 <extInt_Config+0x6f4>)
 80027f2:	f423 6370 	bic.w	r3, r3, #3840	; 0xf00
 80027f6:	60d3      	str	r3, [r2, #12]
					if (extiConfig->pGPIOHandler->pGPIOx == GPIOA) {
 80027f8:	687b      	ldr	r3, [r7, #4]
 80027fa:	681b      	ldr	r3, [r3, #0]
 80027fc:	681b      	ldr	r3, [r3, #0]
 80027fe:	4a83      	ldr	r2, [pc, #524]	; (8002a0c <extInt_Config+0x6f8>)
 8002800:	4293      	cmp	r3, r2
 8002802:	d104      	bne.n	800280e <extInt_Config+0x4fa>
						SYSCFG->EXTICR[1] |= (SYSCFG_EXTICR2_EXTI6_PA);
 8002804:	4b80      	ldr	r3, [pc, #512]	; (8002a08 <extInt_Config+0x6f4>)
 8002806:	4a80      	ldr	r2, [pc, #512]	; (8002a08 <extInt_Config+0x6f4>)
 8002808:	68db      	ldr	r3, [r3, #12]
 800280a:	60d3      	str	r3, [r2, #12]

					} else {
						__NOP();
					}

					break;
 800280c:	e364      	b.n	8002ed8 <extInt_Config+0xbc4>
					} else if (extiConfig->pGPIOHandler->pGPIOx == GPIOB) {
 800280e:	687b      	ldr	r3, [r7, #4]
 8002810:	681b      	ldr	r3, [r3, #0]
 8002812:	681b      	ldr	r3, [r3, #0]
 8002814:	4a7e      	ldr	r2, [pc, #504]	; (8002a10 <extInt_Config+0x6fc>)
 8002816:	4293      	cmp	r3, r2
 8002818:	d106      	bne.n	8002828 <extInt_Config+0x514>
						SYSCFG->EXTICR[1] |= (SYSCFG_EXTICR2_EXTI6_PB);
 800281a:	4b7b      	ldr	r3, [pc, #492]	; (8002a08 <extInt_Config+0x6f4>)
 800281c:	68db      	ldr	r3, [r3, #12]
 800281e:	4a7a      	ldr	r2, [pc, #488]	; (8002a08 <extInt_Config+0x6f4>)
 8002820:	f443 7380 	orr.w	r3, r3, #256	; 0x100
 8002824:	60d3      	str	r3, [r2, #12]
					break;
 8002826:	e357      	b.n	8002ed8 <extInt_Config+0xbc4>
					} else if (extiConfig->pGPIOHandler->pGPIOx == GPIOC) {
 8002828:	687b      	ldr	r3, [r7, #4]
 800282a:	681b      	ldr	r3, [r3, #0]
 800282c:	681b      	ldr	r3, [r3, #0]
 800282e:	4a79      	ldr	r2, [pc, #484]	; (8002a14 <extInt_Config+0x700>)
 8002830:	4293      	cmp	r3, r2
 8002832:	d106      	bne.n	8002842 <extInt_Config+0x52e>
						SYSCFG->EXTICR[1] |= (SYSCFG_EXTICR2_EXTI6_PC);
 8002834:	4b74      	ldr	r3, [pc, #464]	; (8002a08 <extInt_Config+0x6f4>)
 8002836:	68db      	ldr	r3, [r3, #12]
 8002838:	4a73      	ldr	r2, [pc, #460]	; (8002a08 <extInt_Config+0x6f4>)
 800283a:	f443 7300 	orr.w	r3, r3, #512	; 0x200
 800283e:	60d3      	str	r3, [r2, #12]
					break;
 8002840:	e34a      	b.n	8002ed8 <extInt_Config+0xbc4>
					} else if (extiConfig->pGPIOHandler->pGPIOx == GPIOD) {
 8002842:	687b      	ldr	r3, [r7, #4]
 8002844:	681b      	ldr	r3, [r3, #0]
 8002846:	681b      	ldr	r3, [r3, #0]
 8002848:	4a73      	ldr	r2, [pc, #460]	; (8002a18 <extInt_Config+0x704>)
 800284a:	4293      	cmp	r3, r2
 800284c:	d106      	bne.n	800285c <extInt_Config+0x548>
						SYSCFG->EXTICR[1] |= (SYSCFG_EXTICR2_EXTI6_PD);
 800284e:	4b6e      	ldr	r3, [pc, #440]	; (8002a08 <extInt_Config+0x6f4>)
 8002850:	68db      	ldr	r3, [r3, #12]
 8002852:	4a6d      	ldr	r2, [pc, #436]	; (8002a08 <extInt_Config+0x6f4>)
 8002854:	f443 7340 	orr.w	r3, r3, #768	; 0x300
 8002858:	60d3      	str	r3, [r2, #12]
					break;
 800285a:	e33d      	b.n	8002ed8 <extInt_Config+0xbc4>
					} else if (extiConfig->pGPIOHandler->pGPIOx == GPIOE) {
 800285c:	687b      	ldr	r3, [r7, #4]
 800285e:	681b      	ldr	r3, [r3, #0]
 8002860:	681b      	ldr	r3, [r3, #0]
 8002862:	4a6e      	ldr	r2, [pc, #440]	; (8002a1c <extInt_Config+0x708>)
 8002864:	4293      	cmp	r3, r2
 8002866:	d106      	bne.n	8002876 <extInt_Config+0x562>
						SYSCFG->EXTICR[1] |= (SYSCFG_EXTICR2_EXTI6_PE);
 8002868:	4b67      	ldr	r3, [pc, #412]	; (8002a08 <extInt_Config+0x6f4>)
 800286a:	68db      	ldr	r3, [r3, #12]
 800286c:	4a66      	ldr	r2, [pc, #408]	; (8002a08 <extInt_Config+0x6f4>)
 800286e:	f443 6380 	orr.w	r3, r3, #1024	; 0x400
 8002872:	60d3      	str	r3, [r2, #12]
					break;
 8002874:	e330      	b.n	8002ed8 <extInt_Config+0xbc4>
					} else if (extiConfig->pGPIOHandler->pGPIOx == GPIOH) {
 8002876:	687b      	ldr	r3, [r7, #4]
 8002878:	681b      	ldr	r3, [r3, #0]
 800287a:	681b      	ldr	r3, [r3, #0]
 800287c:	4a68      	ldr	r2, [pc, #416]	; (8002a20 <extInt_Config+0x70c>)
 800287e:	4293      	cmp	r3, r2
 8002880:	d106      	bne.n	8002890 <extInt_Config+0x57c>
						SYSCFG->EXTICR[1] |= (SYSCFG_EXTICR2_EXTI6_PH);
 8002882:	4b61      	ldr	r3, [pc, #388]	; (8002a08 <extInt_Config+0x6f4>)
 8002884:	68db      	ldr	r3, [r3, #12]
 8002886:	4a60      	ldr	r2, [pc, #384]	; (8002a08 <extInt_Config+0x6f4>)
 8002888:	f443 63e0 	orr.w	r3, r3, #1792	; 0x700
 800288c:	60d3      	str	r3, [r2, #12]
					break;
 800288e:	e323      	b.n	8002ed8 <extInt_Config+0xbc4>
						__NOP();
 8002890:	bf00      	nop
					break;
 8002892:	e321      	b.n	8002ed8 <extInt_Config+0xbc4>
				}
				case 7:{
					SYSCFG->EXTICR[1] &= ~(0xF << SYSCFG_EXTICR2_EXTI7_Pos);
 8002894:	4b5c      	ldr	r3, [pc, #368]	; (8002a08 <extInt_Config+0x6f4>)
 8002896:	68db      	ldr	r3, [r3, #12]
 8002898:	4a5b      	ldr	r2, [pc, #364]	; (8002a08 <extInt_Config+0x6f4>)
 800289a:	f423 4370 	bic.w	r3, r3, #61440	; 0xf000
 800289e:	60d3      	str	r3, [r2, #12]
					if (extiConfig->pGPIOHandler->pGPIOx == GPIOA) {
 80028a0:	687b      	ldr	r3, [r7, #4]
 80028a2:	681b      	ldr	r3, [r3, #0]
 80028a4:	681b      	ldr	r3, [r3, #0]
 80028a6:	4a59      	ldr	r2, [pc, #356]	; (8002a0c <extInt_Config+0x6f8>)
 80028a8:	4293      	cmp	r3, r2
 80028aa:	d104      	bne.n	80028b6 <extInt_Config+0x5a2>
						SYSCFG->EXTICR[1] |= (SYSCFG_EXTICR2_EXTI7_PA);
 80028ac:	4b56      	ldr	r3, [pc, #344]	; (8002a08 <extInt_Config+0x6f4>)
 80028ae:	4a56      	ldr	r2, [pc, #344]	; (8002a08 <extInt_Config+0x6f4>)
 80028b0:	68db      	ldr	r3, [r3, #12]
 80028b2:	60d3      	str	r3, [r2, #12]

					} else {
						__NOP();
					}

					break;
 80028b4:	e310      	b.n	8002ed8 <extInt_Config+0xbc4>
					} else if (extiConfig->pGPIOHandler->pGPIOx == GPIOB) {
 80028b6:	687b      	ldr	r3, [r7, #4]
 80028b8:	681b      	ldr	r3, [r3, #0]
 80028ba:	681b      	ldr	r3, [r3, #0]
 80028bc:	4a54      	ldr	r2, [pc, #336]	; (8002a10 <extInt_Config+0x6fc>)
 80028be:	4293      	cmp	r3, r2
 80028c0:	d106      	bne.n	80028d0 <extInt_Config+0x5bc>
						SYSCFG->EXTICR[1] |= (SYSCFG_EXTICR2_EXTI7_PB);
 80028c2:	4b51      	ldr	r3, [pc, #324]	; (8002a08 <extInt_Config+0x6f4>)
 80028c4:	68db      	ldr	r3, [r3, #12]
 80028c6:	4a50      	ldr	r2, [pc, #320]	; (8002a08 <extInt_Config+0x6f4>)
 80028c8:	f443 5380 	orr.w	r3, r3, #4096	; 0x1000
 80028cc:	60d3      	str	r3, [r2, #12]
					break;
 80028ce:	e303      	b.n	8002ed8 <extInt_Config+0xbc4>
					} else if (extiConfig->pGPIOHandler->pGPIOx == GPIOC) {
 80028d0:	687b      	ldr	r3, [r7, #4]
 80028d2:	681b      	ldr	r3, [r3, #0]
 80028d4:	681b      	ldr	r3, [r3, #0]
 80028d6:	4a4f      	ldr	r2, [pc, #316]	; (8002a14 <extInt_Config+0x700>)
 80028d8:	4293      	cmp	r3, r2
 80028da:	d106      	bne.n	80028ea <extInt_Config+0x5d6>
						SYSCFG->EXTICR[1] |= (SYSCFG_EXTICR2_EXTI7_PC);
 80028dc:	4b4a      	ldr	r3, [pc, #296]	; (8002a08 <extInt_Config+0x6f4>)
 80028de:	68db      	ldr	r3, [r3, #12]
 80028e0:	4a49      	ldr	r2, [pc, #292]	; (8002a08 <extInt_Config+0x6f4>)
 80028e2:	f443 5300 	orr.w	r3, r3, #8192	; 0x2000
 80028e6:	60d3      	str	r3, [r2, #12]
					break;
 80028e8:	e2f6      	b.n	8002ed8 <extInt_Config+0xbc4>
					} else if (extiConfig->pGPIOHandler->pGPIOx == GPIOD) {
 80028ea:	687b      	ldr	r3, [r7, #4]
 80028ec:	681b      	ldr	r3, [r3, #0]
 80028ee:	681b      	ldr	r3, [r3, #0]
 80028f0:	4a49      	ldr	r2, [pc, #292]	; (8002a18 <extInt_Config+0x704>)
 80028f2:	4293      	cmp	r3, r2
 80028f4:	d106      	bne.n	8002904 <extInt_Config+0x5f0>
						SYSCFG->EXTICR[1] |= (SYSCFG_EXTICR2_EXTI7_PD);
 80028f6:	4b44      	ldr	r3, [pc, #272]	; (8002a08 <extInt_Config+0x6f4>)
 80028f8:	68db      	ldr	r3, [r3, #12]
 80028fa:	4a43      	ldr	r2, [pc, #268]	; (8002a08 <extInt_Config+0x6f4>)
 80028fc:	f443 5340 	orr.w	r3, r3, #12288	; 0x3000
 8002900:	60d3      	str	r3, [r2, #12]
					break;
 8002902:	e2e9      	b.n	8002ed8 <extInt_Config+0xbc4>
					} else if (extiConfig->pGPIOHandler->pGPIOx == GPIOE) {
 8002904:	687b      	ldr	r3, [r7, #4]
 8002906:	681b      	ldr	r3, [r3, #0]
 8002908:	681b      	ldr	r3, [r3, #0]
 800290a:	4a44      	ldr	r2, [pc, #272]	; (8002a1c <extInt_Config+0x708>)
 800290c:	4293      	cmp	r3, r2
 800290e:	d106      	bne.n	800291e <extInt_Config+0x60a>
						SYSCFG->EXTICR[1] |= (SYSCFG_EXTICR2_EXTI7_PE);
 8002910:	4b3d      	ldr	r3, [pc, #244]	; (8002a08 <extInt_Config+0x6f4>)
 8002912:	68db      	ldr	r3, [r3, #12]
 8002914:	4a3c      	ldr	r2, [pc, #240]	; (8002a08 <extInt_Config+0x6f4>)
 8002916:	f443 4380 	orr.w	r3, r3, #16384	; 0x4000
 800291a:	60d3      	str	r3, [r2, #12]
					break;
 800291c:	e2dc      	b.n	8002ed8 <extInt_Config+0xbc4>
					} else if (extiConfig->pGPIOHandler->pGPIOx == GPIOH) {
 800291e:	687b      	ldr	r3, [r7, #4]
 8002920:	681b      	ldr	r3, [r3, #0]
 8002922:	681b      	ldr	r3, [r3, #0]
 8002924:	4a3e      	ldr	r2, [pc, #248]	; (8002a20 <extInt_Config+0x70c>)
 8002926:	4293      	cmp	r3, r2
 8002928:	d106      	bne.n	8002938 <extInt_Config+0x624>
						SYSCFG->EXTICR[1] |= (SYSCFG_EXTICR2_EXTI7_PH);
 800292a:	4b37      	ldr	r3, [pc, #220]	; (8002a08 <extInt_Config+0x6f4>)
 800292c:	68db      	ldr	r3, [r3, #12]
 800292e:	4a36      	ldr	r2, [pc, #216]	; (8002a08 <extInt_Config+0x6f4>)
 8002930:	f443 43e0 	orr.w	r3, r3, #28672	; 0x7000
 8002934:	60d3      	str	r3, [r2, #12]
					break;
 8002936:	e2cf      	b.n	8002ed8 <extInt_Config+0xbc4>
						__NOP();
 8002938:	bf00      	nop
					break;
 800293a:	e2cd      	b.n	8002ed8 <extInt_Config+0xbc4>
				}
				case 8:{
					SYSCFG->EXTICR[2] &= ~(0xF << SYSCFG_EXTICR3_EXTI8_Pos);
 800293c:	4b32      	ldr	r3, [pc, #200]	; (8002a08 <extInt_Config+0x6f4>)
 800293e:	691b      	ldr	r3, [r3, #16]
 8002940:	4a31      	ldr	r2, [pc, #196]	; (8002a08 <extInt_Config+0x6f4>)
 8002942:	f023 030f 	bic.w	r3, r3, #15
 8002946:	6113      	str	r3, [r2, #16]
					if (extiConfig->pGPIOHandler->pGPIOx == GPIOA) {
 8002948:	687b      	ldr	r3, [r7, #4]
 800294a:	681b      	ldr	r3, [r3, #0]
 800294c:	681b      	ldr	r3, [r3, #0]
 800294e:	4a2f      	ldr	r2, [pc, #188]	; (8002a0c <extInt_Config+0x6f8>)
 8002950:	4293      	cmp	r3, r2
 8002952:	d104      	bne.n	800295e <extInt_Config+0x64a>
						SYSCFG->EXTICR[2] |= (SYSCFG_EXTICR3_EXTI8_PA);
 8002954:	4b2c      	ldr	r3, [pc, #176]	; (8002a08 <extInt_Config+0x6f4>)
 8002956:	4a2c      	ldr	r2, [pc, #176]	; (8002a08 <extInt_Config+0x6f4>)
 8002958:	691b      	ldr	r3, [r3, #16]
 800295a:	6113      	str	r3, [r2, #16]

					} else {
						__NOP();
					}

					break;
 800295c:	e2bc      	b.n	8002ed8 <extInt_Config+0xbc4>
					} else if (extiConfig->pGPIOHandler->pGPIOx == GPIOB) {
 800295e:	687b      	ldr	r3, [r7, #4]
 8002960:	681b      	ldr	r3, [r3, #0]
 8002962:	681b      	ldr	r3, [r3, #0]
 8002964:	4a2a      	ldr	r2, [pc, #168]	; (8002a10 <extInt_Config+0x6fc>)
 8002966:	4293      	cmp	r3, r2
 8002968:	d106      	bne.n	8002978 <extInt_Config+0x664>
						SYSCFG->EXTICR[2] |= (SYSCFG_EXTICR3_EXTI8_PB);
 800296a:	4b27      	ldr	r3, [pc, #156]	; (8002a08 <extInt_Config+0x6f4>)
 800296c:	691b      	ldr	r3, [r3, #16]
 800296e:	4a26      	ldr	r2, [pc, #152]	; (8002a08 <extInt_Config+0x6f4>)
 8002970:	f043 0301 	orr.w	r3, r3, #1
 8002974:	6113      	str	r3, [r2, #16]
					break;
 8002976:	e2af      	b.n	8002ed8 <extInt_Config+0xbc4>
					} else if (extiConfig->pGPIOHandler->pGPIOx == GPIOC) {
 8002978:	687b      	ldr	r3, [r7, #4]
 800297a:	681b      	ldr	r3, [r3, #0]
 800297c:	681b      	ldr	r3, [r3, #0]
 800297e:	4a25      	ldr	r2, [pc, #148]	; (8002a14 <extInt_Config+0x700>)
 8002980:	4293      	cmp	r3, r2
 8002982:	d106      	bne.n	8002992 <extInt_Config+0x67e>
						SYSCFG->EXTICR[2] |= (SYSCFG_EXTICR3_EXTI8_PC);
 8002984:	4b20      	ldr	r3, [pc, #128]	; (8002a08 <extInt_Config+0x6f4>)
 8002986:	691b      	ldr	r3, [r3, #16]
 8002988:	4a1f      	ldr	r2, [pc, #124]	; (8002a08 <extInt_Config+0x6f4>)
 800298a:	f043 0302 	orr.w	r3, r3, #2
 800298e:	6113      	str	r3, [r2, #16]
					break;
 8002990:	e2a2      	b.n	8002ed8 <extInt_Config+0xbc4>
					} else if (extiConfig->pGPIOHandler->pGPIOx == GPIOD) {
 8002992:	687b      	ldr	r3, [r7, #4]
 8002994:	681b      	ldr	r3, [r3, #0]
 8002996:	681b      	ldr	r3, [r3, #0]
 8002998:	4a1f      	ldr	r2, [pc, #124]	; (8002a18 <extInt_Config+0x704>)
 800299a:	4293      	cmp	r3, r2
 800299c:	d106      	bne.n	80029ac <extInt_Config+0x698>
						SYSCFG->EXTICR[2] |= (SYSCFG_EXTICR3_EXTI8_PD);
 800299e:	4b1a      	ldr	r3, [pc, #104]	; (8002a08 <extInt_Config+0x6f4>)
 80029a0:	691b      	ldr	r3, [r3, #16]
 80029a2:	4a19      	ldr	r2, [pc, #100]	; (8002a08 <extInt_Config+0x6f4>)
 80029a4:	f043 0303 	orr.w	r3, r3, #3
 80029a8:	6113      	str	r3, [r2, #16]
					break;
 80029aa:	e295      	b.n	8002ed8 <extInt_Config+0xbc4>
					} else if (extiConfig->pGPIOHandler->pGPIOx == GPIOE) {
 80029ac:	687b      	ldr	r3, [r7, #4]
 80029ae:	681b      	ldr	r3, [r3, #0]
 80029b0:	681b      	ldr	r3, [r3, #0]
 80029b2:	4a1a      	ldr	r2, [pc, #104]	; (8002a1c <extInt_Config+0x708>)
 80029b4:	4293      	cmp	r3, r2
 80029b6:	d106      	bne.n	80029c6 <extInt_Config+0x6b2>
						SYSCFG->EXTICR[2] |= (SYSCFG_EXTICR3_EXTI8_PE);
 80029b8:	4b13      	ldr	r3, [pc, #76]	; (8002a08 <extInt_Config+0x6f4>)
 80029ba:	691b      	ldr	r3, [r3, #16]
 80029bc:	4a12      	ldr	r2, [pc, #72]	; (8002a08 <extInt_Config+0x6f4>)
 80029be:	f043 0304 	orr.w	r3, r3, #4
 80029c2:	6113      	str	r3, [r2, #16]
					break;
 80029c4:	e288      	b.n	8002ed8 <extInt_Config+0xbc4>
					} else if (extiConfig->pGPIOHandler->pGPIOx == GPIOH) {
 80029c6:	687b      	ldr	r3, [r7, #4]
 80029c8:	681b      	ldr	r3, [r3, #0]
 80029ca:	681b      	ldr	r3, [r3, #0]
 80029cc:	4a14      	ldr	r2, [pc, #80]	; (8002a20 <extInt_Config+0x70c>)
 80029ce:	4293      	cmp	r3, r2
 80029d0:	d106      	bne.n	80029e0 <extInt_Config+0x6cc>
						SYSCFG->EXTICR[2] |= (SYSCFG_EXTICR3_EXTI8_PH);
 80029d2:	4b0d      	ldr	r3, [pc, #52]	; (8002a08 <extInt_Config+0x6f4>)
 80029d4:	691b      	ldr	r3, [r3, #16]
 80029d6:	4a0c      	ldr	r2, [pc, #48]	; (8002a08 <extInt_Config+0x6f4>)
 80029d8:	f043 0307 	orr.w	r3, r3, #7
 80029dc:	6113      	str	r3, [r2, #16]
					break;
 80029de:	e27b      	b.n	8002ed8 <extInt_Config+0xbc4>
						__NOP();
 80029e0:	bf00      	nop
					break;
 80029e2:	e279      	b.n	8002ed8 <extInt_Config+0xbc4>
				}
				case 9:{
					SYSCFG->EXTICR[2] &= ~(0xF << SYSCFG_EXTICR3_EXTI9_Pos);
 80029e4:	4b08      	ldr	r3, [pc, #32]	; (8002a08 <extInt_Config+0x6f4>)
 80029e6:	691b      	ldr	r3, [r3, #16]
 80029e8:	4a07      	ldr	r2, [pc, #28]	; (8002a08 <extInt_Config+0x6f4>)
 80029ea:	f023 03f0 	bic.w	r3, r3, #240	; 0xf0
 80029ee:	6113      	str	r3, [r2, #16]
					if (extiConfig->pGPIOHandler->pGPIOx == GPIOA) {
 80029f0:	687b      	ldr	r3, [r7, #4]
 80029f2:	681b      	ldr	r3, [r3, #0]
 80029f4:	681b      	ldr	r3, [r3, #0]
 80029f6:	4a05      	ldr	r2, [pc, #20]	; (8002a0c <extInt_Config+0x6f8>)
 80029f8:	4293      	cmp	r3, r2
 80029fa:	d113      	bne.n	8002a24 <extInt_Config+0x710>
						SYSCFG->EXTICR[2] |= (SYSCFG_EXTICR3_EXTI9_PA);
 80029fc:	4b02      	ldr	r3, [pc, #8]	; (8002a08 <extInt_Config+0x6f4>)
 80029fe:	4a02      	ldr	r2, [pc, #8]	; (8002a08 <extInt_Config+0x6f4>)
 8002a00:	691b      	ldr	r3, [r3, #16]
 8002a02:	6113      	str	r3, [r2, #16]

					} else {
						__NOP();
					}

					break;
 8002a04:	e268      	b.n	8002ed8 <extInt_Config+0xbc4>
 8002a06:	bf00      	nop
 8002a08:	40013800 	.word	0x40013800
 8002a0c:	40020000 	.word	0x40020000
 8002a10:	40020400 	.word	0x40020400
 8002a14:	40020800 	.word	0x40020800
 8002a18:	40020c00 	.word	0x40020c00
 8002a1c:	40021000 	.word	0x40021000
 8002a20:	40021c00 	.word	0x40021c00
					} else if (extiConfig->pGPIOHandler->pGPIOx == GPIOB) {
 8002a24:	687b      	ldr	r3, [r7, #4]
 8002a26:	681b      	ldr	r3, [r3, #0]
 8002a28:	681b      	ldr	r3, [r3, #0]
 8002a2a:	4a83      	ldr	r2, [pc, #524]	; (8002c38 <extInt_Config+0x924>)
 8002a2c:	4293      	cmp	r3, r2
 8002a2e:	d106      	bne.n	8002a3e <extInt_Config+0x72a>
						SYSCFG->EXTICR[2] |= (SYSCFG_EXTICR3_EXTI9_PB);
 8002a30:	4b82      	ldr	r3, [pc, #520]	; (8002c3c <extInt_Config+0x928>)
 8002a32:	691b      	ldr	r3, [r3, #16]
 8002a34:	4a81      	ldr	r2, [pc, #516]	; (8002c3c <extInt_Config+0x928>)
 8002a36:	f043 0310 	orr.w	r3, r3, #16
 8002a3a:	6113      	str	r3, [r2, #16]
					break;
 8002a3c:	e24c      	b.n	8002ed8 <extInt_Config+0xbc4>
					} else if (extiConfig->pGPIOHandler->pGPIOx == GPIOC) {
 8002a3e:	687b      	ldr	r3, [r7, #4]
 8002a40:	681b      	ldr	r3, [r3, #0]
 8002a42:	681b      	ldr	r3, [r3, #0]
 8002a44:	4a7e      	ldr	r2, [pc, #504]	; (8002c40 <extInt_Config+0x92c>)
 8002a46:	4293      	cmp	r3, r2
 8002a48:	d106      	bne.n	8002a58 <extInt_Config+0x744>
						SYSCFG->EXTICR[2] |= (SYSCFG_EXTICR3_EXTI9_PC);
 8002a4a:	4b7c      	ldr	r3, [pc, #496]	; (8002c3c <extInt_Config+0x928>)
 8002a4c:	691b      	ldr	r3, [r3, #16]
 8002a4e:	4a7b      	ldr	r2, [pc, #492]	; (8002c3c <extInt_Config+0x928>)
 8002a50:	f043 0320 	orr.w	r3, r3, #32
 8002a54:	6113      	str	r3, [r2, #16]
					break;
 8002a56:	e23f      	b.n	8002ed8 <extInt_Config+0xbc4>
					} else if (extiConfig->pGPIOHandler->pGPIOx == GPIOD) {
 8002a58:	687b      	ldr	r3, [r7, #4]
 8002a5a:	681b      	ldr	r3, [r3, #0]
 8002a5c:	681b      	ldr	r3, [r3, #0]
 8002a5e:	4a79      	ldr	r2, [pc, #484]	; (8002c44 <extInt_Config+0x930>)
 8002a60:	4293      	cmp	r3, r2
 8002a62:	d106      	bne.n	8002a72 <extInt_Config+0x75e>
						SYSCFG->EXTICR[2] |= (SYSCFG_EXTICR3_EXTI9_PD);
 8002a64:	4b75      	ldr	r3, [pc, #468]	; (8002c3c <extInt_Config+0x928>)
 8002a66:	691b      	ldr	r3, [r3, #16]
 8002a68:	4a74      	ldr	r2, [pc, #464]	; (8002c3c <extInt_Config+0x928>)
 8002a6a:	f043 0330 	orr.w	r3, r3, #48	; 0x30
 8002a6e:	6113      	str	r3, [r2, #16]
					break;
 8002a70:	e232      	b.n	8002ed8 <extInt_Config+0xbc4>
					} else if (extiConfig->pGPIOHandler->pGPIOx == GPIOE) {
 8002a72:	687b      	ldr	r3, [r7, #4]
 8002a74:	681b      	ldr	r3, [r3, #0]
 8002a76:	681b      	ldr	r3, [r3, #0]
 8002a78:	4a73      	ldr	r2, [pc, #460]	; (8002c48 <extInt_Config+0x934>)
 8002a7a:	4293      	cmp	r3, r2
 8002a7c:	d106      	bne.n	8002a8c <extInt_Config+0x778>
						SYSCFG->EXTICR[2] |= (SYSCFG_EXTICR3_EXTI9_PE);
 8002a7e:	4b6f      	ldr	r3, [pc, #444]	; (8002c3c <extInt_Config+0x928>)
 8002a80:	691b      	ldr	r3, [r3, #16]
 8002a82:	4a6e      	ldr	r2, [pc, #440]	; (8002c3c <extInt_Config+0x928>)
 8002a84:	f043 0340 	orr.w	r3, r3, #64	; 0x40
 8002a88:	6113      	str	r3, [r2, #16]
					break;
 8002a8a:	e225      	b.n	8002ed8 <extInt_Config+0xbc4>
					} else if (extiConfig->pGPIOHandler->pGPIOx == GPIOH) {
 8002a8c:	687b      	ldr	r3, [r7, #4]
 8002a8e:	681b      	ldr	r3, [r3, #0]
 8002a90:	681b      	ldr	r3, [r3, #0]
 8002a92:	4a6e      	ldr	r2, [pc, #440]	; (8002c4c <extInt_Config+0x938>)
 8002a94:	4293      	cmp	r3, r2
 8002a96:	d106      	bne.n	8002aa6 <extInt_Config+0x792>
						SYSCFG->EXTICR[2] |= (SYSCFG_EXTICR3_EXTI9_PH);
 8002a98:	4b68      	ldr	r3, [pc, #416]	; (8002c3c <extInt_Config+0x928>)
 8002a9a:	691b      	ldr	r3, [r3, #16]
 8002a9c:	4a67      	ldr	r2, [pc, #412]	; (8002c3c <extInt_Config+0x928>)
 8002a9e:	f043 0370 	orr.w	r3, r3, #112	; 0x70
 8002aa2:	6113      	str	r3, [r2, #16]
					break;
 8002aa4:	e218      	b.n	8002ed8 <extInt_Config+0xbc4>
						__NOP();
 8002aa6:	bf00      	nop
					break;
 8002aa8:	e216      	b.n	8002ed8 <extInt_Config+0xbc4>
				}

				case 10:{
					SYSCFG->EXTICR[2] &= ~(0xF << SYSCFG_EXTICR3_EXTI10_Pos);
 8002aaa:	4b64      	ldr	r3, [pc, #400]	; (8002c3c <extInt_Config+0x928>)
 8002aac:	691b      	ldr	r3, [r3, #16]
 8002aae:	4a63      	ldr	r2, [pc, #396]	; (8002c3c <extInt_Config+0x928>)
 8002ab0:	f423 6370 	bic.w	r3, r3, #3840	; 0xf00
 8002ab4:	6113      	str	r3, [r2, #16]
					if (extiConfig->pGPIOHandler->pGPIOx == GPIOA) {
 8002ab6:	687b      	ldr	r3, [r7, #4]
 8002ab8:	681b      	ldr	r3, [r3, #0]
 8002aba:	681b      	ldr	r3, [r3, #0]
 8002abc:	4a64      	ldr	r2, [pc, #400]	; (8002c50 <extInt_Config+0x93c>)
 8002abe:	4293      	cmp	r3, r2
 8002ac0:	d104      	bne.n	8002acc <extInt_Config+0x7b8>
						SYSCFG->EXTICR[2] |= (SYSCFG_EXTICR3_EXTI10_PA);
 8002ac2:	4b5e      	ldr	r3, [pc, #376]	; (8002c3c <extInt_Config+0x928>)
 8002ac4:	4a5d      	ldr	r2, [pc, #372]	; (8002c3c <extInt_Config+0x928>)
 8002ac6:	691b      	ldr	r3, [r3, #16]
 8002ac8:	6113      	str	r3, [r2, #16]

					} else {
						__NOP();
					}

					break;
 8002aca:	e205      	b.n	8002ed8 <extInt_Config+0xbc4>
					} else if (extiConfig->pGPIOHandler->pGPIOx == GPIOB) {
 8002acc:	687b      	ldr	r3, [r7, #4]
 8002ace:	681b      	ldr	r3, [r3, #0]
 8002ad0:	681b      	ldr	r3, [r3, #0]
 8002ad2:	4a59      	ldr	r2, [pc, #356]	; (8002c38 <extInt_Config+0x924>)
 8002ad4:	4293      	cmp	r3, r2
 8002ad6:	d106      	bne.n	8002ae6 <extInt_Config+0x7d2>
						SYSCFG->EXTICR[2] |= (SYSCFG_EXTICR3_EXTI10_PB);
 8002ad8:	4b58      	ldr	r3, [pc, #352]	; (8002c3c <extInt_Config+0x928>)
 8002ada:	691b      	ldr	r3, [r3, #16]
 8002adc:	4a57      	ldr	r2, [pc, #348]	; (8002c3c <extInt_Config+0x928>)
 8002ade:	f443 7380 	orr.w	r3, r3, #256	; 0x100
 8002ae2:	6113      	str	r3, [r2, #16]
					break;
 8002ae4:	e1f8      	b.n	8002ed8 <extInt_Config+0xbc4>
					} else if (extiConfig->pGPIOHandler->pGPIOx == GPIOC) {
 8002ae6:	687b      	ldr	r3, [r7, #4]
 8002ae8:	681b      	ldr	r3, [r3, #0]
 8002aea:	681b      	ldr	r3, [r3, #0]
 8002aec:	4a54      	ldr	r2, [pc, #336]	; (8002c40 <extInt_Config+0x92c>)
 8002aee:	4293      	cmp	r3, r2
 8002af0:	d106      	bne.n	8002b00 <extInt_Config+0x7ec>
						SYSCFG->EXTICR[2] |= (SYSCFG_EXTICR3_EXTI10_PC);
 8002af2:	4b52      	ldr	r3, [pc, #328]	; (8002c3c <extInt_Config+0x928>)
 8002af4:	691b      	ldr	r3, [r3, #16]
 8002af6:	4a51      	ldr	r2, [pc, #324]	; (8002c3c <extInt_Config+0x928>)
 8002af8:	f443 7300 	orr.w	r3, r3, #512	; 0x200
 8002afc:	6113      	str	r3, [r2, #16]
					break;
 8002afe:	e1eb      	b.n	8002ed8 <extInt_Config+0xbc4>
					} else if (extiConfig->pGPIOHandler->pGPIOx == GPIOD) {
 8002b00:	687b      	ldr	r3, [r7, #4]
 8002b02:	681b      	ldr	r3, [r3, #0]
 8002b04:	681b      	ldr	r3, [r3, #0]
 8002b06:	4a4f      	ldr	r2, [pc, #316]	; (8002c44 <extInt_Config+0x930>)
 8002b08:	4293      	cmp	r3, r2
 8002b0a:	d106      	bne.n	8002b1a <extInt_Config+0x806>
						SYSCFG->EXTICR[2] |= (SYSCFG_EXTICR3_EXTI10_PD);
 8002b0c:	4b4b      	ldr	r3, [pc, #300]	; (8002c3c <extInt_Config+0x928>)
 8002b0e:	691b      	ldr	r3, [r3, #16]
 8002b10:	4a4a      	ldr	r2, [pc, #296]	; (8002c3c <extInt_Config+0x928>)
 8002b12:	f443 7340 	orr.w	r3, r3, #768	; 0x300
 8002b16:	6113      	str	r3, [r2, #16]
					break;
 8002b18:	e1de      	b.n	8002ed8 <extInt_Config+0xbc4>
					} else if (extiConfig->pGPIOHandler->pGPIOx == GPIOE) {
 8002b1a:	687b      	ldr	r3, [r7, #4]
 8002b1c:	681b      	ldr	r3, [r3, #0]
 8002b1e:	681b      	ldr	r3, [r3, #0]
 8002b20:	4a49      	ldr	r2, [pc, #292]	; (8002c48 <extInt_Config+0x934>)
 8002b22:	4293      	cmp	r3, r2
 8002b24:	d106      	bne.n	8002b34 <extInt_Config+0x820>
						SYSCFG->EXTICR[2] |= (SYSCFG_EXTICR3_EXTI10_PE);
 8002b26:	4b45      	ldr	r3, [pc, #276]	; (8002c3c <extInt_Config+0x928>)
 8002b28:	691b      	ldr	r3, [r3, #16]
 8002b2a:	4a44      	ldr	r2, [pc, #272]	; (8002c3c <extInt_Config+0x928>)
 8002b2c:	f443 6380 	orr.w	r3, r3, #1024	; 0x400
 8002b30:	6113      	str	r3, [r2, #16]
					break;
 8002b32:	e1d1      	b.n	8002ed8 <extInt_Config+0xbc4>
					} else if (extiConfig->pGPIOHandler->pGPIOx == GPIOH) {
 8002b34:	687b      	ldr	r3, [r7, #4]
 8002b36:	681b      	ldr	r3, [r3, #0]
 8002b38:	681b      	ldr	r3, [r3, #0]
 8002b3a:	4a44      	ldr	r2, [pc, #272]	; (8002c4c <extInt_Config+0x938>)
 8002b3c:	4293      	cmp	r3, r2
 8002b3e:	d106      	bne.n	8002b4e <extInt_Config+0x83a>
						SYSCFG->EXTICR[2] |= (SYSCFG_EXTICR3_EXTI10_PH);
 8002b40:	4b3e      	ldr	r3, [pc, #248]	; (8002c3c <extInt_Config+0x928>)
 8002b42:	691b      	ldr	r3, [r3, #16]
 8002b44:	4a3d      	ldr	r2, [pc, #244]	; (8002c3c <extInt_Config+0x928>)
 8002b46:	f443 63e0 	orr.w	r3, r3, #1792	; 0x700
 8002b4a:	6113      	str	r3, [r2, #16]
					break;
 8002b4c:	e1c4      	b.n	8002ed8 <extInt_Config+0xbc4>
						__NOP();
 8002b4e:	bf00      	nop
					break;
 8002b50:	e1c2      	b.n	8002ed8 <extInt_Config+0xbc4>
				}
				case 11:{
					SYSCFG->EXTICR[2] &= ~(0xF << SYSCFG_EXTICR3_EXTI11_Pos);
 8002b52:	4b3a      	ldr	r3, [pc, #232]	; (8002c3c <extInt_Config+0x928>)
 8002b54:	691b      	ldr	r3, [r3, #16]
 8002b56:	4a39      	ldr	r2, [pc, #228]	; (8002c3c <extInt_Config+0x928>)
 8002b58:	f423 4370 	bic.w	r3, r3, #61440	; 0xf000
 8002b5c:	6113      	str	r3, [r2, #16]
					if (extiConfig->pGPIOHandler->pGPIOx == GPIOA) {
 8002b5e:	687b      	ldr	r3, [r7, #4]
 8002b60:	681b      	ldr	r3, [r3, #0]
 8002b62:	681b      	ldr	r3, [r3, #0]
 8002b64:	4a3a      	ldr	r2, [pc, #232]	; (8002c50 <extInt_Config+0x93c>)
 8002b66:	4293      	cmp	r3, r2
 8002b68:	d104      	bne.n	8002b74 <extInt_Config+0x860>
						SYSCFG->EXTICR[2] |= (SYSCFG_EXTICR3_EXTI11_PA);
 8002b6a:	4b34      	ldr	r3, [pc, #208]	; (8002c3c <extInt_Config+0x928>)
 8002b6c:	4a33      	ldr	r2, [pc, #204]	; (8002c3c <extInt_Config+0x928>)
 8002b6e:	691b      	ldr	r3, [r3, #16]
 8002b70:	6113      	str	r3, [r2, #16]

					} else {
						__NOP();
					}

					break;
 8002b72:	e1b1      	b.n	8002ed8 <extInt_Config+0xbc4>
					} else if (extiConfig->pGPIOHandler->pGPIOx == GPIOB) {
 8002b74:	687b      	ldr	r3, [r7, #4]
 8002b76:	681b      	ldr	r3, [r3, #0]
 8002b78:	681b      	ldr	r3, [r3, #0]
 8002b7a:	4a2f      	ldr	r2, [pc, #188]	; (8002c38 <extInt_Config+0x924>)
 8002b7c:	4293      	cmp	r3, r2
 8002b7e:	d106      	bne.n	8002b8e <extInt_Config+0x87a>
						SYSCFG->EXTICR[2] |= (SYSCFG_EXTICR3_EXTI11_PB);
 8002b80:	4b2e      	ldr	r3, [pc, #184]	; (8002c3c <extInt_Config+0x928>)
 8002b82:	691b      	ldr	r3, [r3, #16]
 8002b84:	4a2d      	ldr	r2, [pc, #180]	; (8002c3c <extInt_Config+0x928>)
 8002b86:	f443 5380 	orr.w	r3, r3, #4096	; 0x1000
 8002b8a:	6113      	str	r3, [r2, #16]
					break;
 8002b8c:	e1a4      	b.n	8002ed8 <extInt_Config+0xbc4>
					} else if (extiConfig->pGPIOHandler->pGPIOx == GPIOC) {
 8002b8e:	687b      	ldr	r3, [r7, #4]
 8002b90:	681b      	ldr	r3, [r3, #0]
 8002b92:	681b      	ldr	r3, [r3, #0]
 8002b94:	4a2a      	ldr	r2, [pc, #168]	; (8002c40 <extInt_Config+0x92c>)
 8002b96:	4293      	cmp	r3, r2
 8002b98:	d106      	bne.n	8002ba8 <extInt_Config+0x894>
						SYSCFG->EXTICR[2] |= (SYSCFG_EXTICR3_EXTI11_PC);
 8002b9a:	4b28      	ldr	r3, [pc, #160]	; (8002c3c <extInt_Config+0x928>)
 8002b9c:	691b      	ldr	r3, [r3, #16]
 8002b9e:	4a27      	ldr	r2, [pc, #156]	; (8002c3c <extInt_Config+0x928>)
 8002ba0:	f443 5300 	orr.w	r3, r3, #8192	; 0x2000
 8002ba4:	6113      	str	r3, [r2, #16]
					break;
 8002ba6:	e197      	b.n	8002ed8 <extInt_Config+0xbc4>
					} else if (extiConfig->pGPIOHandler->pGPIOx == GPIOD) {
 8002ba8:	687b      	ldr	r3, [r7, #4]
 8002baa:	681b      	ldr	r3, [r3, #0]
 8002bac:	681b      	ldr	r3, [r3, #0]
 8002bae:	4a25      	ldr	r2, [pc, #148]	; (8002c44 <extInt_Config+0x930>)
 8002bb0:	4293      	cmp	r3, r2
 8002bb2:	d106      	bne.n	8002bc2 <extInt_Config+0x8ae>
						SYSCFG->EXTICR[2] |= (SYSCFG_EXTICR3_EXTI11_PD);
 8002bb4:	4b21      	ldr	r3, [pc, #132]	; (8002c3c <extInt_Config+0x928>)
 8002bb6:	691b      	ldr	r3, [r3, #16]
 8002bb8:	4a20      	ldr	r2, [pc, #128]	; (8002c3c <extInt_Config+0x928>)
 8002bba:	f443 5340 	orr.w	r3, r3, #12288	; 0x3000
 8002bbe:	6113      	str	r3, [r2, #16]
					break;
 8002bc0:	e18a      	b.n	8002ed8 <extInt_Config+0xbc4>
					} else if (extiConfig->pGPIOHandler->pGPIOx == GPIOE) {
 8002bc2:	687b      	ldr	r3, [r7, #4]
 8002bc4:	681b      	ldr	r3, [r3, #0]
 8002bc6:	681b      	ldr	r3, [r3, #0]
 8002bc8:	4a1f      	ldr	r2, [pc, #124]	; (8002c48 <extInt_Config+0x934>)
 8002bca:	4293      	cmp	r3, r2
 8002bcc:	d106      	bne.n	8002bdc <extInt_Config+0x8c8>
						SYSCFG->EXTICR[2] |= (SYSCFG_EXTICR3_EXTI11_PE);
 8002bce:	4b1b      	ldr	r3, [pc, #108]	; (8002c3c <extInt_Config+0x928>)
 8002bd0:	691b      	ldr	r3, [r3, #16]
 8002bd2:	4a1a      	ldr	r2, [pc, #104]	; (8002c3c <extInt_Config+0x928>)
 8002bd4:	f443 4380 	orr.w	r3, r3, #16384	; 0x4000
 8002bd8:	6113      	str	r3, [r2, #16]
					break;
 8002bda:	e17d      	b.n	8002ed8 <extInt_Config+0xbc4>
					} else if (extiConfig->pGPIOHandler->pGPIOx == GPIOH) {
 8002bdc:	687b      	ldr	r3, [r7, #4]
 8002bde:	681b      	ldr	r3, [r3, #0]
 8002be0:	681b      	ldr	r3, [r3, #0]
 8002be2:	4a1a      	ldr	r2, [pc, #104]	; (8002c4c <extInt_Config+0x938>)
 8002be4:	4293      	cmp	r3, r2
 8002be6:	d106      	bne.n	8002bf6 <extInt_Config+0x8e2>
						SYSCFG->EXTICR[2] |= (SYSCFG_EXTICR3_EXTI11_PH);
 8002be8:	4b14      	ldr	r3, [pc, #80]	; (8002c3c <extInt_Config+0x928>)
 8002bea:	691b      	ldr	r3, [r3, #16]
 8002bec:	4a13      	ldr	r2, [pc, #76]	; (8002c3c <extInt_Config+0x928>)
 8002bee:	f443 43e0 	orr.w	r3, r3, #28672	; 0x7000
 8002bf2:	6113      	str	r3, [r2, #16]
					break;
 8002bf4:	e170      	b.n	8002ed8 <extInt_Config+0xbc4>
						__NOP();
 8002bf6:	bf00      	nop
					break;
 8002bf8:	e16e      	b.n	8002ed8 <extInt_Config+0xbc4>
				}
				case 12:{
					SYSCFG->EXTICR[3] &= ~(0xF << SYSCFG_EXTICR4_EXTI12_Pos);
 8002bfa:	4b10      	ldr	r3, [pc, #64]	; (8002c3c <extInt_Config+0x928>)
 8002bfc:	695b      	ldr	r3, [r3, #20]
 8002bfe:	4a0f      	ldr	r2, [pc, #60]	; (8002c3c <extInt_Config+0x928>)
 8002c00:	f023 030f 	bic.w	r3, r3, #15
 8002c04:	6153      	str	r3, [r2, #20]
					if (extiConfig->pGPIOHandler->pGPIOx == GPIOA) {
 8002c06:	687b      	ldr	r3, [r7, #4]
 8002c08:	681b      	ldr	r3, [r3, #0]
 8002c0a:	681b      	ldr	r3, [r3, #0]
 8002c0c:	4a10      	ldr	r2, [pc, #64]	; (8002c50 <extInt_Config+0x93c>)
 8002c0e:	4293      	cmp	r3, r2
 8002c10:	d104      	bne.n	8002c1c <extInt_Config+0x908>
						SYSCFG->EXTICR[3] |= (SYSCFG_EXTICR4_EXTI12_PA);
 8002c12:	4b0a      	ldr	r3, [pc, #40]	; (8002c3c <extInt_Config+0x928>)
 8002c14:	4a09      	ldr	r2, [pc, #36]	; (8002c3c <extInt_Config+0x928>)
 8002c16:	695b      	ldr	r3, [r3, #20]
 8002c18:	6153      	str	r3, [r2, #20]

					} else {
						__NOP();
					}

					break;
 8002c1a:	e15d      	b.n	8002ed8 <extInt_Config+0xbc4>
					} else if (extiConfig->pGPIOHandler->pGPIOx == GPIOB) {
 8002c1c:	687b      	ldr	r3, [r7, #4]
 8002c1e:	681b      	ldr	r3, [r3, #0]
 8002c20:	681b      	ldr	r3, [r3, #0]
 8002c22:	4a05      	ldr	r2, [pc, #20]	; (8002c38 <extInt_Config+0x924>)
 8002c24:	4293      	cmp	r3, r2
 8002c26:	d115      	bne.n	8002c54 <extInt_Config+0x940>
						SYSCFG->EXTICR[3] |= (SYSCFG_EXTICR4_EXTI12_PB);
 8002c28:	4b04      	ldr	r3, [pc, #16]	; (8002c3c <extInt_Config+0x928>)
 8002c2a:	695b      	ldr	r3, [r3, #20]
 8002c2c:	4a03      	ldr	r2, [pc, #12]	; (8002c3c <extInt_Config+0x928>)
 8002c2e:	f043 0301 	orr.w	r3, r3, #1
 8002c32:	6153      	str	r3, [r2, #20]
					break;
 8002c34:	e150      	b.n	8002ed8 <extInt_Config+0xbc4>
 8002c36:	bf00      	nop
 8002c38:	40020400 	.word	0x40020400
 8002c3c:	40013800 	.word	0x40013800
 8002c40:	40020800 	.word	0x40020800
 8002c44:	40020c00 	.word	0x40020c00
 8002c48:	40021000 	.word	0x40021000
 8002c4c:	40021c00 	.word	0x40021c00
 8002c50:	40020000 	.word	0x40020000
					} else if (extiConfig->pGPIOHandler->pGPIOx == GPIOC) {
 8002c54:	687b      	ldr	r3, [r7, #4]
 8002c56:	681b      	ldr	r3, [r3, #0]
 8002c58:	681b      	ldr	r3, [r3, #0]
 8002c5a:	4a89      	ldr	r2, [pc, #548]	; (8002e80 <extInt_Config+0xb6c>)
 8002c5c:	4293      	cmp	r3, r2
 8002c5e:	d106      	bne.n	8002c6e <extInt_Config+0x95a>
						SYSCFG->EXTICR[3] |= (SYSCFG_EXTICR4_EXTI12_PC);
 8002c60:	4b88      	ldr	r3, [pc, #544]	; (8002e84 <extInt_Config+0xb70>)
 8002c62:	695b      	ldr	r3, [r3, #20]
 8002c64:	4a87      	ldr	r2, [pc, #540]	; (8002e84 <extInt_Config+0xb70>)
 8002c66:	f043 0302 	orr.w	r3, r3, #2
 8002c6a:	6153      	str	r3, [r2, #20]
					break;
 8002c6c:	e134      	b.n	8002ed8 <extInt_Config+0xbc4>
					} else if (extiConfig->pGPIOHandler->pGPIOx == GPIOD) {
 8002c6e:	687b      	ldr	r3, [r7, #4]
 8002c70:	681b      	ldr	r3, [r3, #0]
 8002c72:	681b      	ldr	r3, [r3, #0]
 8002c74:	4a84      	ldr	r2, [pc, #528]	; (8002e88 <extInt_Config+0xb74>)
 8002c76:	4293      	cmp	r3, r2
 8002c78:	d106      	bne.n	8002c88 <extInt_Config+0x974>
						SYSCFG->EXTICR[3] |= (SYSCFG_EXTICR4_EXTI12_PD);
 8002c7a:	4b82      	ldr	r3, [pc, #520]	; (8002e84 <extInt_Config+0xb70>)
 8002c7c:	695b      	ldr	r3, [r3, #20]
 8002c7e:	4a81      	ldr	r2, [pc, #516]	; (8002e84 <extInt_Config+0xb70>)
 8002c80:	f043 0303 	orr.w	r3, r3, #3
 8002c84:	6153      	str	r3, [r2, #20]
					break;
 8002c86:	e127      	b.n	8002ed8 <extInt_Config+0xbc4>
					} else if (extiConfig->pGPIOHandler->pGPIOx == GPIOE) {
 8002c88:	687b      	ldr	r3, [r7, #4]
 8002c8a:	681b      	ldr	r3, [r3, #0]
 8002c8c:	681b      	ldr	r3, [r3, #0]
 8002c8e:	4a7f      	ldr	r2, [pc, #508]	; (8002e8c <extInt_Config+0xb78>)
 8002c90:	4293      	cmp	r3, r2
 8002c92:	d106      	bne.n	8002ca2 <extInt_Config+0x98e>
						SYSCFG->EXTICR[3] |= (SYSCFG_EXTICR4_EXTI12_PE);
 8002c94:	4b7b      	ldr	r3, [pc, #492]	; (8002e84 <extInt_Config+0xb70>)
 8002c96:	695b      	ldr	r3, [r3, #20]
 8002c98:	4a7a      	ldr	r2, [pc, #488]	; (8002e84 <extInt_Config+0xb70>)
 8002c9a:	f043 0304 	orr.w	r3, r3, #4
 8002c9e:	6153      	str	r3, [r2, #20]
					break;
 8002ca0:	e11a      	b.n	8002ed8 <extInt_Config+0xbc4>
					} else if (extiConfig->pGPIOHandler->pGPIOx == GPIOH) {
 8002ca2:	687b      	ldr	r3, [r7, #4]
 8002ca4:	681b      	ldr	r3, [r3, #0]
 8002ca6:	681b      	ldr	r3, [r3, #0]
 8002ca8:	4a79      	ldr	r2, [pc, #484]	; (8002e90 <extInt_Config+0xb7c>)
 8002caa:	4293      	cmp	r3, r2
 8002cac:	d106      	bne.n	8002cbc <extInt_Config+0x9a8>
						SYSCFG->EXTICR[3] |= (SYSCFG_EXTICR4_EXTI12_PH);
 8002cae:	4b75      	ldr	r3, [pc, #468]	; (8002e84 <extInt_Config+0xb70>)
 8002cb0:	695b      	ldr	r3, [r3, #20]
 8002cb2:	4a74      	ldr	r2, [pc, #464]	; (8002e84 <extInt_Config+0xb70>)
 8002cb4:	f043 0307 	orr.w	r3, r3, #7
 8002cb8:	6153      	str	r3, [r2, #20]
					break;
 8002cba:	e10d      	b.n	8002ed8 <extInt_Config+0xbc4>
						__NOP();
 8002cbc:	bf00      	nop
					break;
 8002cbe:	e10b      	b.n	8002ed8 <extInt_Config+0xbc4>
				}
				case 13:{
					SYSCFG->EXTICR[3] &= ~(0xF << SYSCFG_EXTICR4_EXTI13_Pos);
 8002cc0:	4b70      	ldr	r3, [pc, #448]	; (8002e84 <extInt_Config+0xb70>)
 8002cc2:	695b      	ldr	r3, [r3, #20]
 8002cc4:	4a6f      	ldr	r2, [pc, #444]	; (8002e84 <extInt_Config+0xb70>)
 8002cc6:	f023 03f0 	bic.w	r3, r3, #240	; 0xf0
 8002cca:	6153      	str	r3, [r2, #20]
					if (extiConfig->pGPIOHandler->pGPIOx == GPIOA) {
 8002ccc:	687b      	ldr	r3, [r7, #4]
 8002cce:	681b      	ldr	r3, [r3, #0]
 8002cd0:	681b      	ldr	r3, [r3, #0]
 8002cd2:	4a70      	ldr	r2, [pc, #448]	; (8002e94 <extInt_Config+0xb80>)
 8002cd4:	4293      	cmp	r3, r2
 8002cd6:	d104      	bne.n	8002ce2 <extInt_Config+0x9ce>
						SYSCFG->EXTICR[3] |= (SYSCFG_EXTICR4_EXTI13_PA);
 8002cd8:	4b6a      	ldr	r3, [pc, #424]	; (8002e84 <extInt_Config+0xb70>)
 8002cda:	4a6a      	ldr	r2, [pc, #424]	; (8002e84 <extInt_Config+0xb70>)
 8002cdc:	695b      	ldr	r3, [r3, #20]
 8002cde:	6153      	str	r3, [r2, #20]
 8002ce0:	e041      	b.n	8002d66 <extInt_Config+0xa52>

					} else if (extiConfig->pGPIOHandler->pGPIOx == GPIOB) {
 8002ce2:	687b      	ldr	r3, [r7, #4]
 8002ce4:	681b      	ldr	r3, [r3, #0]
 8002ce6:	681b      	ldr	r3, [r3, #0]
 8002ce8:	4a6b      	ldr	r2, [pc, #428]	; (8002e98 <extInt_Config+0xb84>)
 8002cea:	4293      	cmp	r3, r2
 8002cec:	d106      	bne.n	8002cfc <extInt_Config+0x9e8>
						SYSCFG->EXTICR[3] |= (SYSCFG_EXTICR4_EXTI13_PB);
 8002cee:	4b65      	ldr	r3, [pc, #404]	; (8002e84 <extInt_Config+0xb70>)
 8002cf0:	695b      	ldr	r3, [r3, #20]
 8002cf2:	4a64      	ldr	r2, [pc, #400]	; (8002e84 <extInt_Config+0xb70>)
 8002cf4:	f043 0310 	orr.w	r3, r3, #16
 8002cf8:	6153      	str	r3, [r2, #20]
 8002cfa:	e034      	b.n	8002d66 <extInt_Config+0xa52>

					} else if (extiConfig->pGPIOHandler->pGPIOx == GPIOC) {
 8002cfc:	687b      	ldr	r3, [r7, #4]
 8002cfe:	681b      	ldr	r3, [r3, #0]
 8002d00:	681b      	ldr	r3, [r3, #0]
 8002d02:	4a5f      	ldr	r2, [pc, #380]	; (8002e80 <extInt_Config+0xb6c>)
 8002d04:	4293      	cmp	r3, r2
 8002d06:	d106      	bne.n	8002d16 <extInt_Config+0xa02>
						SYSCFG->EXTICR[3] |= (SYSCFG_EXTICR4_EXTI13_PC);
 8002d08:	4b5e      	ldr	r3, [pc, #376]	; (8002e84 <extInt_Config+0xb70>)
 8002d0a:	695b      	ldr	r3, [r3, #20]
 8002d0c:	4a5d      	ldr	r2, [pc, #372]	; (8002e84 <extInt_Config+0xb70>)
 8002d0e:	f043 0320 	orr.w	r3, r3, #32
 8002d12:	6153      	str	r3, [r2, #20]
 8002d14:	e027      	b.n	8002d66 <extInt_Config+0xa52>

					} else if (extiConfig->pGPIOHandler->pGPIOx == GPIOD) {
 8002d16:	687b      	ldr	r3, [r7, #4]
 8002d18:	681b      	ldr	r3, [r3, #0]
 8002d1a:	681b      	ldr	r3, [r3, #0]
 8002d1c:	4a5a      	ldr	r2, [pc, #360]	; (8002e88 <extInt_Config+0xb74>)
 8002d1e:	4293      	cmp	r3, r2
 8002d20:	d106      	bne.n	8002d30 <extInt_Config+0xa1c>
						SYSCFG->EXTICR[3] |= (SYSCFG_EXTICR4_EXTI13_PD);
 8002d22:	4b58      	ldr	r3, [pc, #352]	; (8002e84 <extInt_Config+0xb70>)
 8002d24:	695b      	ldr	r3, [r3, #20]
 8002d26:	4a57      	ldr	r2, [pc, #348]	; (8002e84 <extInt_Config+0xb70>)
 8002d28:	f043 0330 	orr.w	r3, r3, #48	; 0x30
 8002d2c:	6153      	str	r3, [r2, #20]
 8002d2e:	e01a      	b.n	8002d66 <extInt_Config+0xa52>

					} else if (extiConfig->pGPIOHandler->pGPIOx == GPIOE) {
 8002d30:	687b      	ldr	r3, [r7, #4]
 8002d32:	681b      	ldr	r3, [r3, #0]
 8002d34:	681b      	ldr	r3, [r3, #0]
 8002d36:	4a55      	ldr	r2, [pc, #340]	; (8002e8c <extInt_Config+0xb78>)
 8002d38:	4293      	cmp	r3, r2
 8002d3a:	d106      	bne.n	8002d4a <extInt_Config+0xa36>
						SYSCFG->EXTICR[3] |= (SYSCFG_EXTICR4_EXTI13_PE);
 8002d3c:	4b51      	ldr	r3, [pc, #324]	; (8002e84 <extInt_Config+0xb70>)
 8002d3e:	695b      	ldr	r3, [r3, #20]
 8002d40:	4a50      	ldr	r2, [pc, #320]	; (8002e84 <extInt_Config+0xb70>)
 8002d42:	f043 0340 	orr.w	r3, r3, #64	; 0x40
 8002d46:	6153      	str	r3, [r2, #20]
 8002d48:	e00d      	b.n	8002d66 <extInt_Config+0xa52>

					} else if (extiConfig->pGPIOHandler->pGPIOx == GPIOH) {
 8002d4a:	687b      	ldr	r3, [r7, #4]
 8002d4c:	681b      	ldr	r3, [r3, #0]
 8002d4e:	681b      	ldr	r3, [r3, #0]
 8002d50:	4a4f      	ldr	r2, [pc, #316]	; (8002e90 <extInt_Config+0xb7c>)
 8002d52:	4293      	cmp	r3, r2
 8002d54:	d106      	bne.n	8002d64 <extInt_Config+0xa50>
						SYSCFG->EXTICR[3] |= (SYSCFG_EXTICR4_EXTI13_PH);
 8002d56:	4b4b      	ldr	r3, [pc, #300]	; (8002e84 <extInt_Config+0xb70>)
 8002d58:	695b      	ldr	r3, [r3, #20]
 8002d5a:	4a4a      	ldr	r2, [pc, #296]	; (8002e84 <extInt_Config+0xb70>)
 8002d5c:	f043 0370 	orr.w	r3, r3, #112	; 0x70
 8002d60:	6153      	str	r3, [r2, #20]
 8002d62:	e000      	b.n	8002d66 <extInt_Config+0xa52>

					} else {
						__NOP();
 8002d64:	bf00      	nop
					}
				}
				case 14:{
					SYSCFG->EXTICR[3] &= ~(0xF << SYSCFG_EXTICR4_EXTI14_Pos);
 8002d66:	4b47      	ldr	r3, [pc, #284]	; (8002e84 <extInt_Config+0xb70>)
 8002d68:	695b      	ldr	r3, [r3, #20]
 8002d6a:	4a46      	ldr	r2, [pc, #280]	; (8002e84 <extInt_Config+0xb70>)
 8002d6c:	f423 6370 	bic.w	r3, r3, #3840	; 0xf00
 8002d70:	6153      	str	r3, [r2, #20]
					if (extiConfig->pGPIOHandler->pGPIOx == GPIOA) {
 8002d72:	687b      	ldr	r3, [r7, #4]
 8002d74:	681b      	ldr	r3, [r3, #0]
 8002d76:	681b      	ldr	r3, [r3, #0]
 8002d78:	4a46      	ldr	r2, [pc, #280]	; (8002e94 <extInt_Config+0xb80>)
 8002d7a:	4293      	cmp	r3, r2
 8002d7c:	d104      	bne.n	8002d88 <extInt_Config+0xa74>
						SYSCFG->EXTICR[3] |= (SYSCFG_EXTICR4_EXTI14_PA);
 8002d7e:	4b41      	ldr	r3, [pc, #260]	; (8002e84 <extInt_Config+0xb70>)
 8002d80:	4a40      	ldr	r2, [pc, #256]	; (8002e84 <extInt_Config+0xb70>)
 8002d82:	695b      	ldr	r3, [r3, #20]
 8002d84:	6153      	str	r3, [r2, #20]

					} else {
						__NOP();
					}

					break;
 8002d86:	e0a7      	b.n	8002ed8 <extInt_Config+0xbc4>
					} else if (extiConfig->pGPIOHandler->pGPIOx == GPIOB) {
 8002d88:	687b      	ldr	r3, [r7, #4]
 8002d8a:	681b      	ldr	r3, [r3, #0]
 8002d8c:	681b      	ldr	r3, [r3, #0]
 8002d8e:	4a42      	ldr	r2, [pc, #264]	; (8002e98 <extInt_Config+0xb84>)
 8002d90:	4293      	cmp	r3, r2
 8002d92:	d106      	bne.n	8002da2 <extInt_Config+0xa8e>
						SYSCFG->EXTICR[3] |= (SYSCFG_EXTICR4_EXTI14_PB);
 8002d94:	4b3b      	ldr	r3, [pc, #236]	; (8002e84 <extInt_Config+0xb70>)
 8002d96:	695b      	ldr	r3, [r3, #20]
 8002d98:	4a3a      	ldr	r2, [pc, #232]	; (8002e84 <extInt_Config+0xb70>)
 8002d9a:	f443 7380 	orr.w	r3, r3, #256	; 0x100
 8002d9e:	6153      	str	r3, [r2, #20]
					break;
 8002da0:	e09a      	b.n	8002ed8 <extInt_Config+0xbc4>
					} else if (extiConfig->pGPIOHandler->pGPIOx == GPIOC) {
 8002da2:	687b      	ldr	r3, [r7, #4]
 8002da4:	681b      	ldr	r3, [r3, #0]
 8002da6:	681b      	ldr	r3, [r3, #0]
 8002da8:	4a35      	ldr	r2, [pc, #212]	; (8002e80 <extInt_Config+0xb6c>)
 8002daa:	4293      	cmp	r3, r2
 8002dac:	d106      	bne.n	8002dbc <extInt_Config+0xaa8>
						SYSCFG->EXTICR[3] |= (SYSCFG_EXTICR4_EXTI14_PC);
 8002dae:	4b35      	ldr	r3, [pc, #212]	; (8002e84 <extInt_Config+0xb70>)
 8002db0:	695b      	ldr	r3, [r3, #20]
 8002db2:	4a34      	ldr	r2, [pc, #208]	; (8002e84 <extInt_Config+0xb70>)
 8002db4:	f443 7300 	orr.w	r3, r3, #512	; 0x200
 8002db8:	6153      	str	r3, [r2, #20]
					break;
 8002dba:	e08d      	b.n	8002ed8 <extInt_Config+0xbc4>
					} else if (extiConfig->pGPIOHandler->pGPIOx == GPIOD) {
 8002dbc:	687b      	ldr	r3, [r7, #4]
 8002dbe:	681b      	ldr	r3, [r3, #0]
 8002dc0:	681b      	ldr	r3, [r3, #0]
 8002dc2:	4a31      	ldr	r2, [pc, #196]	; (8002e88 <extInt_Config+0xb74>)
 8002dc4:	4293      	cmp	r3, r2
 8002dc6:	d106      	bne.n	8002dd6 <extInt_Config+0xac2>
						SYSCFG->EXTICR[3] |= (SYSCFG_EXTICR4_EXTI14_PD);
 8002dc8:	4b2e      	ldr	r3, [pc, #184]	; (8002e84 <extInt_Config+0xb70>)
 8002dca:	695b      	ldr	r3, [r3, #20]
 8002dcc:	4a2d      	ldr	r2, [pc, #180]	; (8002e84 <extInt_Config+0xb70>)
 8002dce:	f443 7340 	orr.w	r3, r3, #768	; 0x300
 8002dd2:	6153      	str	r3, [r2, #20]
					break;
 8002dd4:	e080      	b.n	8002ed8 <extInt_Config+0xbc4>
					} else if (extiConfig->pGPIOHandler->pGPIOx == GPIOE) {
 8002dd6:	687b      	ldr	r3, [r7, #4]
 8002dd8:	681b      	ldr	r3, [r3, #0]
 8002dda:	681b      	ldr	r3, [r3, #0]
 8002ddc:	4a2b      	ldr	r2, [pc, #172]	; (8002e8c <extInt_Config+0xb78>)
 8002dde:	4293      	cmp	r3, r2
 8002de0:	d106      	bne.n	8002df0 <extInt_Config+0xadc>
						SYSCFG->EXTICR[3] |= (SYSCFG_EXTICR4_EXTI14_PE);
 8002de2:	4b28      	ldr	r3, [pc, #160]	; (8002e84 <extInt_Config+0xb70>)
 8002de4:	695b      	ldr	r3, [r3, #20]
 8002de6:	4a27      	ldr	r2, [pc, #156]	; (8002e84 <extInt_Config+0xb70>)
 8002de8:	f443 6380 	orr.w	r3, r3, #1024	; 0x400
 8002dec:	6153      	str	r3, [r2, #20]
					break;
 8002dee:	e073      	b.n	8002ed8 <extInt_Config+0xbc4>
					} else if (extiConfig->pGPIOHandler->pGPIOx == GPIOH) {
 8002df0:	687b      	ldr	r3, [r7, #4]
 8002df2:	681b      	ldr	r3, [r3, #0]
 8002df4:	681b      	ldr	r3, [r3, #0]
 8002df6:	4a26      	ldr	r2, [pc, #152]	; (8002e90 <extInt_Config+0xb7c>)
 8002df8:	4293      	cmp	r3, r2
 8002dfa:	d106      	bne.n	8002e0a <extInt_Config+0xaf6>
						SYSCFG->EXTICR[3] |= (SYSCFG_EXTICR4_EXTI14_PH);
 8002dfc:	4b21      	ldr	r3, [pc, #132]	; (8002e84 <extInt_Config+0xb70>)
 8002dfe:	695b      	ldr	r3, [r3, #20]
 8002e00:	4a20      	ldr	r2, [pc, #128]	; (8002e84 <extInt_Config+0xb70>)
 8002e02:	f443 63e0 	orr.w	r3, r3, #1792	; 0x700
 8002e06:	6153      	str	r3, [r2, #20]
					break;
 8002e08:	e066      	b.n	8002ed8 <extInt_Config+0xbc4>
						__NOP();
 8002e0a:	bf00      	nop
					break;
 8002e0c:	e064      	b.n	8002ed8 <extInt_Config+0xbc4>

				/* Configurando para el todos los pines GPIOX_15 */
				case 15: {
						/* SYSCFG_EXTICR4 */
						// Limpiamos primero la posicin que deseamos configurar
						SYSCFG->EXTICR[3] &= ~(0xF << SYSCFG_EXTICR4_EXTI15_Pos);
 8002e0e:	4b1d      	ldr	r3, [pc, #116]	; (8002e84 <extInt_Config+0xb70>)
 8002e10:	695b      	ldr	r3, [r3, #20]
 8002e12:	4a1c      	ldr	r2, [pc, #112]	; (8002e84 <extInt_Config+0xb70>)
 8002e14:	f423 4370 	bic.w	r3, r3, #61440	; 0xf000
 8002e18:	6153      	str	r3, [r2, #20]

						// Ahora seleccionamos el valor a cargar en la posicin, segun sea la seleccin
						// del puerto que vamos a utilizar: GPIOA_0,  GPIOB_0,  GPIOC_0, etc
						if (extiConfig->pGPIOHandler->pGPIOx == GPIOA) {
 8002e1a:	687b      	ldr	r3, [r7, #4]
 8002e1c:	681b      	ldr	r3, [r3, #0]
 8002e1e:	681b      	ldr	r3, [r3, #0]
 8002e20:	4a1c      	ldr	r2, [pc, #112]	; (8002e94 <extInt_Config+0xb80>)
 8002e22:	4293      	cmp	r3, r2
 8002e24:	d104      	bne.n	8002e30 <extInt_Config+0xb1c>
							SYSCFG->EXTICR[3] |= (SYSCFG_EXTICR4_EXTI15_PA);
 8002e26:	4b17      	ldr	r3, [pc, #92]	; (8002e84 <extInt_Config+0xb70>)
 8002e28:	4a16      	ldr	r2, [pc, #88]	; (8002e84 <extInt_Config+0xb70>)
 8002e2a:	695b      	ldr	r3, [r3, #20]
 8002e2c:	6153      	str	r3, [r2, #20]
							SYSCFG->EXTICR[3] |= (SYSCFG_EXTICR4_EXTI15_PH);

						} else {
							__NOP();
						}
						break;
 8002e2e:	e053      	b.n	8002ed8 <extInt_Config+0xbc4>
						} else if (extiConfig->pGPIOHandler->pGPIOx == GPIOB) {
 8002e30:	687b      	ldr	r3, [r7, #4]
 8002e32:	681b      	ldr	r3, [r3, #0]
 8002e34:	681b      	ldr	r3, [r3, #0]
 8002e36:	4a18      	ldr	r2, [pc, #96]	; (8002e98 <extInt_Config+0xb84>)
 8002e38:	4293      	cmp	r3, r2
 8002e3a:	d106      	bne.n	8002e4a <extInt_Config+0xb36>
							SYSCFG->EXTICR[3] |= (SYSCFG_EXTICR4_EXTI15_PB);
 8002e3c:	4b11      	ldr	r3, [pc, #68]	; (8002e84 <extInt_Config+0xb70>)
 8002e3e:	695b      	ldr	r3, [r3, #20]
 8002e40:	4a10      	ldr	r2, [pc, #64]	; (8002e84 <extInt_Config+0xb70>)
 8002e42:	f443 5380 	orr.w	r3, r3, #4096	; 0x1000
 8002e46:	6153      	str	r3, [r2, #20]
						break;
 8002e48:	e046      	b.n	8002ed8 <extInt_Config+0xbc4>
						} else if (extiConfig->pGPIOHandler->pGPIOx == GPIOC) {
 8002e4a:	687b      	ldr	r3, [r7, #4]
 8002e4c:	681b      	ldr	r3, [r3, #0]
 8002e4e:	681b      	ldr	r3, [r3, #0]
 8002e50:	4a0b      	ldr	r2, [pc, #44]	; (8002e80 <extInt_Config+0xb6c>)
 8002e52:	4293      	cmp	r3, r2
 8002e54:	d106      	bne.n	8002e64 <extInt_Config+0xb50>
							SYSCFG->EXTICR[3] |= (SYSCFG_EXTICR4_EXTI15_PC);
 8002e56:	4b0b      	ldr	r3, [pc, #44]	; (8002e84 <extInt_Config+0xb70>)
 8002e58:	695b      	ldr	r3, [r3, #20]
 8002e5a:	4a0a      	ldr	r2, [pc, #40]	; (8002e84 <extInt_Config+0xb70>)
 8002e5c:	f443 5300 	orr.w	r3, r3, #8192	; 0x2000
 8002e60:	6153      	str	r3, [r2, #20]
						break;
 8002e62:	e039      	b.n	8002ed8 <extInt_Config+0xbc4>
						} else if (extiConfig->pGPIOHandler->pGPIOx == GPIOD) {
 8002e64:	687b      	ldr	r3, [r7, #4]
 8002e66:	681b      	ldr	r3, [r3, #0]
 8002e68:	681b      	ldr	r3, [r3, #0]
 8002e6a:	4a07      	ldr	r2, [pc, #28]	; (8002e88 <extInt_Config+0xb74>)
 8002e6c:	4293      	cmp	r3, r2
 8002e6e:	d115      	bne.n	8002e9c <extInt_Config+0xb88>
							SYSCFG->EXTICR[3] |= (SYSCFG_EXTICR4_EXTI15_PD);
 8002e70:	4b04      	ldr	r3, [pc, #16]	; (8002e84 <extInt_Config+0xb70>)
 8002e72:	695b      	ldr	r3, [r3, #20]
 8002e74:	4a03      	ldr	r2, [pc, #12]	; (8002e84 <extInt_Config+0xb70>)
 8002e76:	f443 5340 	orr.w	r3, r3, #12288	; 0x3000
 8002e7a:	6153      	str	r3, [r2, #20]
						break;
 8002e7c:	e02c      	b.n	8002ed8 <extInt_Config+0xbc4>
 8002e7e:	bf00      	nop
 8002e80:	40020800 	.word	0x40020800
 8002e84:	40013800 	.word	0x40013800
 8002e88:	40020c00 	.word	0x40020c00
 8002e8c:	40021000 	.word	0x40021000
 8002e90:	40021c00 	.word	0x40021c00
 8002e94:	40020000 	.word	0x40020000
 8002e98:	40020400 	.word	0x40020400
						} else if (extiConfig->pGPIOHandler->pGPIOx == GPIOE) {
 8002e9c:	687b      	ldr	r3, [r7, #4]
 8002e9e:	681b      	ldr	r3, [r3, #0]
 8002ea0:	681b      	ldr	r3, [r3, #0]
 8002ea2:	4a6c      	ldr	r2, [pc, #432]	; (8003054 <extInt_Config+0xd40>)
 8002ea4:	4293      	cmp	r3, r2
 8002ea6:	d106      	bne.n	8002eb6 <extInt_Config+0xba2>
							SYSCFG->EXTICR[3] |= (SYSCFG_EXTICR4_EXTI15_PE);
 8002ea8:	4b6b      	ldr	r3, [pc, #428]	; (8003058 <extInt_Config+0xd44>)
 8002eaa:	695b      	ldr	r3, [r3, #20]
 8002eac:	4a6a      	ldr	r2, [pc, #424]	; (8003058 <extInt_Config+0xd44>)
 8002eae:	f443 4380 	orr.w	r3, r3, #16384	; 0x4000
 8002eb2:	6153      	str	r3, [r2, #20]
						break;
 8002eb4:	e010      	b.n	8002ed8 <extInt_Config+0xbc4>
						} else if (extiConfig->pGPIOHandler->pGPIOx == GPIOH) {
 8002eb6:	687b      	ldr	r3, [r7, #4]
 8002eb8:	681b      	ldr	r3, [r3, #0]
 8002eba:	681b      	ldr	r3, [r3, #0]
 8002ebc:	4a67      	ldr	r2, [pc, #412]	; (800305c <extInt_Config+0xd48>)
 8002ebe:	4293      	cmp	r3, r2
 8002ec0:	d106      	bne.n	8002ed0 <extInt_Config+0xbbc>
							SYSCFG->EXTICR[3] |= (SYSCFG_EXTICR4_EXTI15_PH);
 8002ec2:	4b65      	ldr	r3, [pc, #404]	; (8003058 <extInt_Config+0xd44>)
 8002ec4:	695b      	ldr	r3, [r3, #20]
 8002ec6:	4a64      	ldr	r2, [pc, #400]	; (8003058 <extInt_Config+0xd44>)
 8002ec8:	f443 43e0 	orr.w	r3, r3, #28672	; 0x7000
 8002ecc:	6153      	str	r3, [r2, #20]
						break;
 8002ece:	e003      	b.n	8002ed8 <extInt_Config+0xbc4>
							__NOP();
 8002ed0:	bf00      	nop
						break;
 8002ed2:	e001      	b.n	8002ed8 <extInt_Config+0xbc4>
					}

					default: {
						__NOP();
 8002ed4:	bf00      	nop
						break;
 8002ed6:	bf00      	nop

// Fin del switch-case

	/* 4.0 Seleccionamos el tipo de flanco */

	switch (extiConfig->edgeType) {
 8002ed8:	687b      	ldr	r3, [r7, #4]
 8002eda:	791b      	ldrb	r3, [r3, #4]
 8002edc:	2b02      	cmp	r3, #2
 8002ede:	d020      	beq.n	8002f22 <extInt_Config+0xc0e>
 8002ee0:	2b02      	cmp	r3, #2
 8002ee2:	dc37      	bgt.n	8002f54 <extInt_Config+0xc40>
 8002ee4:	2b00      	cmp	r3, #0
 8002ee6:	d002      	beq.n	8002eee <extInt_Config+0xbda>
 8002ee8:	2b01      	cmp	r3, #1
 8002eea:	d00d      	beq.n	8002f08 <extInt_Config+0xbf4>
 8002eec:	e032      	b.n	8002f54 <extInt_Config+0xc40>

	case EXTERNAL_INTERRUPT_FALLING_EDGE:{

		/* Falling Trigger selection register*/
		EXTI->FTSR |= (0x1 << extiConfig->pGPIOHandler->GPIO_PinConfig.GPIO_PinNumber);
 8002eee:	4b5c      	ldr	r3, [pc, #368]	; (8003060 <extInt_Config+0xd4c>)
 8002ef0:	68db      	ldr	r3, [r3, #12]
 8002ef2:	687a      	ldr	r2, [r7, #4]
 8002ef4:	6812      	ldr	r2, [r2, #0]
 8002ef6:	7912      	ldrb	r2, [r2, #4]
 8002ef8:	4611      	mov	r1, r2
 8002efa:	2201      	movs	r2, #1
 8002efc:	408a      	lsls	r2, r1
 8002efe:	4611      	mov	r1, r2
 8002f00:	4a57      	ldr	r2, [pc, #348]	; (8003060 <extInt_Config+0xd4c>)
 8002f02:	430b      	orrs	r3, r1
 8002f04:	60d3      	str	r3, [r2, #12]

		break;
 8002f06:	e027      	b.n	8002f58 <extInt_Config+0xc44>

	}case EXTERNAL_INTERRUPT_RISING_EDGE:{

		EXTI->RTSR |= (0x1 << extiConfig->pGPIOHandler->GPIO_PinConfig.GPIO_PinNumber);
 8002f08:	4b55      	ldr	r3, [pc, #340]	; (8003060 <extInt_Config+0xd4c>)
 8002f0a:	689b      	ldr	r3, [r3, #8]
 8002f0c:	687a      	ldr	r2, [r7, #4]
 8002f0e:	6812      	ldr	r2, [r2, #0]
 8002f10:	7912      	ldrb	r2, [r2, #4]
 8002f12:	4611      	mov	r1, r2
 8002f14:	2201      	movs	r2, #1
 8002f16:	408a      	lsls	r2, r1
 8002f18:	4611      	mov	r1, r2
 8002f1a:	4a51      	ldr	r2, [pc, #324]	; (8003060 <extInt_Config+0xd4c>)
 8002f1c:	430b      	orrs	r3, r1
 8002f1e:	6093      	str	r3, [r2, #8]

		break;
 8002f20:	e01a      	b.n	8002f58 <extInt_Config+0xc44>

	}case EXTERNAL_INTERRUPT_RASINGANDFALLING_EDGE:{

		EXTI->FTSR |= (0x1 << extiConfig->pGPIOHandler->GPIO_PinConfig.GPIO_PinNumber);
 8002f22:	4b4f      	ldr	r3, [pc, #316]	; (8003060 <extInt_Config+0xd4c>)
 8002f24:	68db      	ldr	r3, [r3, #12]
 8002f26:	687a      	ldr	r2, [r7, #4]
 8002f28:	6812      	ldr	r2, [r2, #0]
 8002f2a:	7912      	ldrb	r2, [r2, #4]
 8002f2c:	4611      	mov	r1, r2
 8002f2e:	2201      	movs	r2, #1
 8002f30:	408a      	lsls	r2, r1
 8002f32:	4611      	mov	r1, r2
 8002f34:	4a4a      	ldr	r2, [pc, #296]	; (8003060 <extInt_Config+0xd4c>)
 8002f36:	430b      	orrs	r3, r1
 8002f38:	60d3      	str	r3, [r2, #12]
		EXTI->RTSR |= (0x1 << extiConfig->pGPIOHandler->GPIO_PinConfig.GPIO_PinNumber);
 8002f3a:	4b49      	ldr	r3, [pc, #292]	; (8003060 <extInt_Config+0xd4c>)
 8002f3c:	689b      	ldr	r3, [r3, #8]
 8002f3e:	687a      	ldr	r2, [r7, #4]
 8002f40:	6812      	ldr	r2, [r2, #0]
 8002f42:	7912      	ldrb	r2, [r2, #4]
 8002f44:	4611      	mov	r1, r2
 8002f46:	2201      	movs	r2, #1
 8002f48:	408a      	lsls	r2, r1
 8002f4a:	4611      	mov	r1, r2
 8002f4c:	4a44      	ldr	r2, [pc, #272]	; (8003060 <extInt_Config+0xd4c>)
 8002f4e:	430b      	orrs	r3, r1
 8002f50:	6093      	str	r3, [r2, #8]

		break;
 8002f52:	e001      	b.n	8002f58 <extInt_Config+0xc44>

	}default :{

		__NOP();
 8002f54:	bf00      	nop
		break;
 8002f56:	bf00      	nop
  __ASM volatile ("cpsid i" : : : "memory");
 8002f58:	b672      	cpsid	i
}
 8002f5a:	bf00      	nop
	/* 5.0 Desactivo primero las interrupciones globales */
    __disable_irq();

	/* 6.0 Activamos la interrupcin del canal que estamos configurando */
	// Interrupt Mask register
    EXTI->IMR |= (0x1 << extiConfig->pGPIOHandler->GPIO_PinConfig.GPIO_PinNumber);
 8002f5c:	4b40      	ldr	r3, [pc, #256]	; (8003060 <extInt_Config+0xd4c>)
 8002f5e:	681b      	ldr	r3, [r3, #0]
 8002f60:	687a      	ldr	r2, [r7, #4]
 8002f62:	6812      	ldr	r2, [r2, #0]
 8002f64:	7912      	ldrb	r2, [r2, #4]
 8002f66:	4611      	mov	r1, r2
 8002f68:	2201      	movs	r2, #1
 8002f6a:	408a      	lsls	r2, r1
 8002f6c:	4611      	mov	r1, r2
 8002f6e:	4a3c      	ldr	r2, [pc, #240]	; (8003060 <extInt_Config+0xd4c>)
 8002f70:	430b      	orrs	r3, r1
 8002f72:	6013      	str	r3, [r2, #0]
	/* 6.1 Matriculamos la interrupcin en el NVIC para el canal correspondiente,
	 * donde el canal 0 corresponde al EXTI_0, canal 1 al EXTI_1, etc.
	 *
	 * NOTA: Observar que algunos canales EXTI comparten un mismo vector de interrupcin
	 * */
	switch (extiConfig->pGPIOHandler->GPIO_PinConfig.GPIO_PinNumber) {
 8002f74:	687b      	ldr	r3, [r7, #4]
 8002f76:	681b      	ldr	r3, [r3, #0]
 8002f78:	791b      	ldrb	r3, [r3, #4]
 8002f7a:	2b0f      	cmp	r3, #15
 8002f7c:	d862      	bhi.n	8003044 <extInt_Config+0xd30>
 8002f7e:	a201      	add	r2, pc, #4	; (adr r2, 8002f84 <extInt_Config+0xc70>)
 8002f80:	f852 f023 	ldr.w	pc, [r2, r3, lsl #2]
 8002f84:	08002fc5 	.word	0x08002fc5
 8002f88:	08002fcd 	.word	0x08002fcd
 8002f8c:	08002fd5 	.word	0x08002fd5
 8002f90:	08002fdd 	.word	0x08002fdd
 8002f94:	08002fe5 	.word	0x08002fe5
 8002f98:	08002fed 	.word	0x08002fed
 8002f9c:	08002ff5 	.word	0x08002ff5
 8002fa0:	08002ffd 	.word	0x08002ffd
 8002fa4:	08003005 	.word	0x08003005
 8002fa8:	0800300d 	.word	0x0800300d
 8002fac:	08003015 	.word	0x08003015
 8002fb0:	0800301d 	.word	0x0800301d
 8002fb4:	08003025 	.word	0x08003025
 8002fb8:	0800302d 	.word	0x0800302d
 8002fbc:	08003035 	.word	0x08003035
 8002fc0:	0800303d 	.word	0x0800303d
		case 0: {
			__NVIC_EnableIRQ(EXTI0_IRQn);
 8002fc4:	2006      	movs	r0, #6
 8002fc6:	f7ff f987 	bl	80022d8 <__NVIC_EnableIRQ>
			break;
 8002fca:	e03d      	b.n	8003048 <extInt_Config+0xd34>
		}

		case 1: {
			__NVIC_EnableIRQ(EXTI1_IRQn);
 8002fcc:	2007      	movs	r0, #7
 8002fce:	f7ff f983 	bl	80022d8 <__NVIC_EnableIRQ>
			break;
 8002fd2:	e039      	b.n	8003048 <extInt_Config+0xd34>
		}
		case 2: {
			__NVIC_EnableIRQ(EXTI2_IRQn);
 8002fd4:	2008      	movs	r0, #8
 8002fd6:	f7ff f97f 	bl	80022d8 <__NVIC_EnableIRQ>
			break;
 8002fda:	e035      	b.n	8003048 <extInt_Config+0xd34>
		}
		case 3: {
			__NVIC_EnableIRQ(EXTI3_IRQn);
 8002fdc:	2009      	movs	r0, #9
 8002fde:	f7ff f97b 	bl	80022d8 <__NVIC_EnableIRQ>
			break;
 8002fe2:	e031      	b.n	8003048 <extInt_Config+0xd34>
		}
		case 4: {
			__NVIC_EnableIRQ(EXTI4_IRQn);
 8002fe4:	200a      	movs	r0, #10
 8002fe6:	f7ff f977 	bl	80022d8 <__NVIC_EnableIRQ>
			break;
 8002fea:	e02d      	b.n	8003048 <extInt_Config+0xd34>
		}
		case 5: {
			__NVIC_EnableIRQ(EXTI9_5_IRQn);
 8002fec:	2017      	movs	r0, #23
 8002fee:	f7ff f973 	bl	80022d8 <__NVIC_EnableIRQ>
			break;
 8002ff2:	e029      	b.n	8003048 <extInt_Config+0xd34>
		}
		case 6: {
			__NVIC_EnableIRQ(EXTI9_5_IRQn);
 8002ff4:	2017      	movs	r0, #23
 8002ff6:	f7ff f96f 	bl	80022d8 <__NVIC_EnableIRQ>
			break;
 8002ffa:	e025      	b.n	8003048 <extInt_Config+0xd34>
		}
		case 7: {
			__NVIC_EnableIRQ(EXTI9_5_IRQn);
 8002ffc:	2017      	movs	r0, #23
 8002ffe:	f7ff f96b 	bl	80022d8 <__NVIC_EnableIRQ>
			break;
 8003002:	e021      	b.n	8003048 <extInt_Config+0xd34>
		}
		case 8: {
			__NVIC_EnableIRQ(EXTI9_5_IRQn);
 8003004:	2017      	movs	r0, #23
 8003006:	f7ff f967 	bl	80022d8 <__NVIC_EnableIRQ>
			break;
 800300a:	e01d      	b.n	8003048 <extInt_Config+0xd34>
		}
		case 9: {
			__NVIC_EnableIRQ(EXTI9_5_IRQn);
 800300c:	2017      	movs	r0, #23
 800300e:	f7ff f963 	bl	80022d8 <__NVIC_EnableIRQ>
			break;
 8003012:	e019      	b.n	8003048 <extInt_Config+0xd34>
		}
		case 10: {
			__NVIC_EnableIRQ(EXTI15_10_IRQn);
 8003014:	2028      	movs	r0, #40	; 0x28
 8003016:	f7ff f95f 	bl	80022d8 <__NVIC_EnableIRQ>
			break;
 800301a:	e015      	b.n	8003048 <extInt_Config+0xd34>
		}
		case 11: {
			__NVIC_EnableIRQ(EXTI15_10_IRQn);
 800301c:	2028      	movs	r0, #40	; 0x28
 800301e:	f7ff f95b 	bl	80022d8 <__NVIC_EnableIRQ>
			break;
 8003022:	e011      	b.n	8003048 <extInt_Config+0xd34>
		}
		case 12: {
			__NVIC_EnableIRQ(EXTI15_10_IRQn);
 8003024:	2028      	movs	r0, #40	; 0x28
 8003026:	f7ff f957 	bl	80022d8 <__NVIC_EnableIRQ>
			break;
 800302a:	e00d      	b.n	8003048 <extInt_Config+0xd34>
		}
		case 13: {
			__NVIC_EnableIRQ(EXTI15_10_IRQn);
 800302c:	2028      	movs	r0, #40	; 0x28
 800302e:	f7ff f953 	bl	80022d8 <__NVIC_EnableIRQ>
			break;
 8003032:	e009      	b.n	8003048 <extInt_Config+0xd34>
		}
		case 14: {
			__NVIC_EnableIRQ(EXTI15_10_IRQn);
 8003034:	2028      	movs	r0, #40	; 0x28
 8003036:	f7ff f94f 	bl	80022d8 <__NVIC_EnableIRQ>
			break;
 800303a:	e005      	b.n	8003048 <extInt_Config+0xd34>
		}
		case 15: {
			__NVIC_EnableIRQ(EXTI15_10_IRQn);
 800303c:	2028      	movs	r0, #40	; 0x28
 800303e:	f7ff f94b 	bl	80022d8 <__NVIC_EnableIRQ>
			break;
 8003042:	e001      	b.n	8003048 <extInt_Config+0xd34>
		}

		default: {
			__NOP();
 8003044:	bf00      	nop
			break;
 8003046:	bf00      	nop
  __ASM volatile ("cpsie i" : : : "memory");
 8003048:	b662      	cpsie	i
}
 800304a:	bf00      	nop


	/* 7.0 Volvemos a activar las interrupciones globales */
	__enable_irq();

}
 800304c:	bf00      	nop
 800304e:	3708      	adds	r7, #8
 8003050:	46bd      	mov	sp, r7
 8003052:	bd80      	pop	{r7, pc}
 8003054:	40021000 	.word	0x40021000
 8003058:	40013800 	.word	0x40013800
 800305c:	40021c00 	.word	0x40021c00
 8003060:	40013c00 	.word	0x40013c00

08003064 <callback_extInt0>:
	__enable_irq();

}

/**/
__attribute__ ((weak)) void callback_extInt0(void){
 8003064:	b480      	push	{r7}
 8003066:	af00      	add	r7, sp, #0
	__NOP();
 8003068:	bf00      	nop
}
 800306a:	bf00      	nop
 800306c:	46bd      	mov	sp, r7
 800306e:	f85d 7b04 	ldr.w	r7, [sp], #4
 8003072:	4770      	bx	lr

08003074 <callback_extInt2>:
__attribute__ ((weak)) void callback_extInt1(void){
	__NOP();
}
__attribute__ ((weak)) void callback_extInt2(void){
 8003074:	b480      	push	{r7}
 8003076:	af00      	add	r7, sp, #0
	__NOP();
 8003078:	bf00      	nop
}
 800307a:	bf00      	nop
 800307c:	46bd      	mov	sp, r7
 800307e:	f85d 7b04 	ldr.w	r7, [sp], #4
 8003082:	4770      	bx	lr

08003084 <callback_extInt4>:
__attribute__ ((weak)) void callback_extInt3(void){
	__NOP();
}
__attribute__ ((weak)) void callback_extInt4(void){
 8003084:	b480      	push	{r7}
 8003086:	af00      	add	r7, sp, #0
	__NOP();
 8003088:	bf00      	nop
}
 800308a:	bf00      	nop
 800308c:	46bd      	mov	sp, r7
 800308e:	f85d 7b04 	ldr.w	r7, [sp], #4
 8003092:	4770      	bx	lr

08003094 <callback_extInt5>:
__attribute__ ((weak)) void callback_extInt5(void){
 8003094:	b480      	push	{r7}
 8003096:	af00      	add	r7, sp, #0
	__NOP();
 8003098:	bf00      	nop
}
 800309a:	bf00      	nop
 800309c:	46bd      	mov	sp, r7
 800309e:	f85d 7b04 	ldr.w	r7, [sp], #4
 80030a2:	4770      	bx	lr

080030a4 <callback_extInt6>:
__attribute__ ((weak)) void callback_extInt6(void){
 80030a4:	b480      	push	{r7}
 80030a6:	af00      	add	r7, sp, #0
	__NOP();
 80030a8:	bf00      	nop
}
 80030aa:	bf00      	nop
 80030ac:	46bd      	mov	sp, r7
 80030ae:	f85d 7b04 	ldr.w	r7, [sp], #4
 80030b2:	4770      	bx	lr

080030b4 <callback_extInt7>:
__attribute__ ((weak)) void callback_extInt7(void){
 80030b4:	b480      	push	{r7}
 80030b6:	af00      	add	r7, sp, #0
	__NOP();
 80030b8:	bf00      	nop
}
 80030ba:	bf00      	nop
 80030bc:	46bd      	mov	sp, r7
 80030be:	f85d 7b04 	ldr.w	r7, [sp], #4
 80030c2:	4770      	bx	lr

080030c4 <callback_extInt8>:
__attribute__ ((weak)) void callback_extInt8(void){
 80030c4:	b480      	push	{r7}
 80030c6:	af00      	add	r7, sp, #0
	__NOP();
 80030c8:	bf00      	nop
}
 80030ca:	bf00      	nop
 80030cc:	46bd      	mov	sp, r7
 80030ce:	f85d 7b04 	ldr.w	r7, [sp], #4
 80030d2:	4770      	bx	lr

080030d4 <callback_extInt9>:
__attribute__ ((weak)) void callback_extInt9(void){
 80030d4:	b480      	push	{r7}
 80030d6:	af00      	add	r7, sp, #0
	__NOP();
 80030d8:	bf00      	nop
}
 80030da:	bf00      	nop
 80030dc:	46bd      	mov	sp, r7
 80030de:	f85d 7b04 	ldr.w	r7, [sp], #4
 80030e2:	4770      	bx	lr

080030e4 <callback_extInt10>:
__attribute__ ((weak)) void callback_extInt10(void){
 80030e4:	b480      	push	{r7}
 80030e6:	af00      	add	r7, sp, #0
	__NOP();
 80030e8:	bf00      	nop
}
 80030ea:	bf00      	nop
 80030ec:	46bd      	mov	sp, r7
 80030ee:	f85d 7b04 	ldr.w	r7, [sp], #4
 80030f2:	4770      	bx	lr

080030f4 <callback_extInt11>:
__attribute__ ((weak)) void callback_extInt11(void){
 80030f4:	b480      	push	{r7}
 80030f6:	af00      	add	r7, sp, #0
	__NOP();
 80030f8:	bf00      	nop
}
 80030fa:	bf00      	nop
 80030fc:	46bd      	mov	sp, r7
 80030fe:	f85d 7b04 	ldr.w	r7, [sp], #4
 8003102:	4770      	bx	lr

08003104 <callback_extInt12>:
__attribute__ ((weak)) void callback_extInt12(void){
 8003104:	b480      	push	{r7}
 8003106:	af00      	add	r7, sp, #0
	__NOP();
 8003108:	bf00      	nop
}
 800310a:	bf00      	nop
 800310c:	46bd      	mov	sp, r7
 800310e:	f85d 7b04 	ldr.w	r7, [sp], #4
 8003112:	4770      	bx	lr

08003114 <callback_extInt13>:
__attribute__ ((weak)) void callback_extInt13(void){
 8003114:	b480      	push	{r7}
 8003116:	af00      	add	r7, sp, #0
	__NOP();
 8003118:	bf00      	nop
}
 800311a:	bf00      	nop
 800311c:	46bd      	mov	sp, r7
 800311e:	f85d 7b04 	ldr.w	r7, [sp], #4
 8003122:	4770      	bx	lr

08003124 <callback_extInt14>:
__attribute__ ((weak)) void callback_extInt14(void){
 8003124:	b480      	push	{r7}
 8003126:	af00      	add	r7, sp, #0
	__NOP();
 8003128:	bf00      	nop
}
 800312a:	bf00      	nop
 800312c:	46bd      	mov	sp, r7
 800312e:	f85d 7b04 	ldr.w	r7, [sp], #4
 8003132:	4770      	bx	lr

08003134 <callback_extInt15>:
__attribute__ ((weak)) void callback_extInt15(void){
 8003134:	b480      	push	{r7}
 8003136:	af00      	add	r7, sp, #0
	__NOP();
 8003138:	bf00      	nop
}
 800313a:	bf00      	nop
 800313c:	46bd      	mov	sp, r7
 800313e:	f85d 7b04 	ldr.w	r7, [sp], #4
 8003142:	4770      	bx	lr

08003144 <EXTI0_IRQHandler>:
 */



/* ISR de la interrupcin canal 0*/
void EXTI0_IRQHandler(void){
 8003144:	b580      	push	{r7, lr}
 8003146:	af00      	add	r7, sp, #0
	// Evaluamos si la interrupcin que se lanzo corresponde al PIN_0 del GPIO_X
	if(EXTI->PR & EXTI_PR_PR0){
 8003148:	4b07      	ldr	r3, [pc, #28]	; (8003168 <EXTI0_IRQHandler+0x24>)
 800314a:	695b      	ldr	r3, [r3, #20]
 800314c:	f003 0301 	and.w	r3, r3, #1
 8003150:	2b00      	cmp	r3, #0
 8003152:	d007      	beq.n	8003164 <EXTI0_IRQHandler+0x20>
		// Bajamos la bandera correspondiente
		EXTI->PR |= EXTI_PR_PR0;
 8003154:	4b04      	ldr	r3, [pc, #16]	; (8003168 <EXTI0_IRQHandler+0x24>)
 8003156:	695b      	ldr	r3, [r3, #20]
 8003158:	4a03      	ldr	r2, [pc, #12]	; (8003168 <EXTI0_IRQHandler+0x24>)
 800315a:	f043 0301 	orr.w	r3, r3, #1
 800315e:	6153      	str	r3, [r2, #20]

		// llamamos al callback
		callback_extInt0();
 8003160:	f7ff ff80 	bl	8003064 <callback_extInt0>
	}
}
 8003164:	bf00      	nop
 8003166:	bd80      	pop	{r7, pc}
 8003168:	40013c00 	.word	0x40013c00

0800316c <EXTI1_IRQHandler>:
/* Agregue las demas IRQs de las interrupciones EXTI independientes ...
 * Por favor recuerde que debe agregar el bloque if para verificar que
 * en efecto esa es la interrupcion que se est atendiendo.
 */

void EXTI1_IRQHandler(void){
 800316c:	b580      	push	{r7, lr}
 800316e:	af00      	add	r7, sp, #0
	// Evaluamos si la interrupcin que se lanzo corresponde al PIN_0 del GPIO_X
	if(EXTI->PR & EXTI_PR_PR1){
 8003170:	4b07      	ldr	r3, [pc, #28]	; (8003190 <EXTI1_IRQHandler+0x24>)
 8003172:	695b      	ldr	r3, [r3, #20]
 8003174:	f003 0302 	and.w	r3, r3, #2
 8003178:	2b00      	cmp	r3, #0
 800317a:	d007      	beq.n	800318c <EXTI1_IRQHandler+0x20>
		// Bajamos la bandera correspondiente
		EXTI->PR |= EXTI_PR_PR1;
 800317c:	4b04      	ldr	r3, [pc, #16]	; (8003190 <EXTI1_IRQHandler+0x24>)
 800317e:	695b      	ldr	r3, [r3, #20]
 8003180:	4a03      	ldr	r2, [pc, #12]	; (8003190 <EXTI1_IRQHandler+0x24>)
 8003182:	f043 0302 	orr.w	r3, r3, #2
 8003186:	6153      	str	r3, [r2, #20]

		// llamamos al callback
		callback_extInt1();
 8003188:	f7fe f882 	bl	8001290 <callback_extInt1>
	}
}
 800318c:	bf00      	nop
 800318e:	bd80      	pop	{r7, pc}
 8003190:	40013c00 	.word	0x40013c00

08003194 <EXTI2_IRQHandler>:

void EXTI2_IRQHandler(void){
 8003194:	b580      	push	{r7, lr}
 8003196:	af00      	add	r7, sp, #0
	// Evaluamos si la interrupcin que se lanzo corresponde al PIN_0 del GPIO_X
	if(EXTI->PR & EXTI_PR_PR2){
 8003198:	4b07      	ldr	r3, [pc, #28]	; (80031b8 <EXTI2_IRQHandler+0x24>)
 800319a:	695b      	ldr	r3, [r3, #20]
 800319c:	f003 0304 	and.w	r3, r3, #4
 80031a0:	2b00      	cmp	r3, #0
 80031a2:	d007      	beq.n	80031b4 <EXTI2_IRQHandler+0x20>
		// Bajamos la bandera correspondiente
		EXTI->PR |= EXTI_PR_PR2;
 80031a4:	4b04      	ldr	r3, [pc, #16]	; (80031b8 <EXTI2_IRQHandler+0x24>)
 80031a6:	695b      	ldr	r3, [r3, #20]
 80031a8:	4a03      	ldr	r2, [pc, #12]	; (80031b8 <EXTI2_IRQHandler+0x24>)
 80031aa:	f043 0304 	orr.w	r3, r3, #4
 80031ae:	6153      	str	r3, [r2, #20]

		// llamamos al callback
		callback_extInt2();
 80031b0:	f7ff ff60 	bl	8003074 <callback_extInt2>
	}
}
 80031b4:	bf00      	nop
 80031b6:	bd80      	pop	{r7, pc}
 80031b8:	40013c00 	.word	0x40013c00

080031bc <EXTI3_IRQHandler>:

void EXTI3_IRQHandler(void){
 80031bc:	b580      	push	{r7, lr}
 80031be:	af00      	add	r7, sp, #0
	// Evaluamos si la interrupcin que se lanzo corresponde al PIN_0 del GPIO_X
	if(EXTI->PR & EXTI_PR_PR3){
 80031c0:	4b07      	ldr	r3, [pc, #28]	; (80031e0 <EXTI3_IRQHandler+0x24>)
 80031c2:	695b      	ldr	r3, [r3, #20]
 80031c4:	f003 0308 	and.w	r3, r3, #8
 80031c8:	2b00      	cmp	r3, #0
 80031ca:	d007      	beq.n	80031dc <EXTI3_IRQHandler+0x20>
		// Bajamos la bandera correspondiente
		EXTI->PR |= EXTI_PR_PR3;
 80031cc:	4b04      	ldr	r3, [pc, #16]	; (80031e0 <EXTI3_IRQHandler+0x24>)
 80031ce:	695b      	ldr	r3, [r3, #20]
 80031d0:	4a03      	ldr	r2, [pc, #12]	; (80031e0 <EXTI3_IRQHandler+0x24>)
 80031d2:	f043 0308 	orr.w	r3, r3, #8
 80031d6:	6153      	str	r3, [r2, #20]

		// llamamos al callback
		callback_extInt3();
 80031d8:	f7fe f861 	bl	800129e <callback_extInt3>
	}
}
 80031dc:	bf00      	nop
 80031de:	bd80      	pop	{r7, pc}
 80031e0:	40013c00 	.word	0x40013c00

080031e4 <EXTI4_IRQHandler>:
void EXTI4_IRQHandler(void){
 80031e4:	b580      	push	{r7, lr}
 80031e6:	af00      	add	r7, sp, #0
	// Evaluamos si la interrupcin que se lanzo corresponde al PIN_0 del GPIO_X
	if(EXTI->PR & EXTI_PR_PR4){
 80031e8:	4b07      	ldr	r3, [pc, #28]	; (8003208 <EXTI4_IRQHandler+0x24>)
 80031ea:	695b      	ldr	r3, [r3, #20]
 80031ec:	f003 0310 	and.w	r3, r3, #16
 80031f0:	2b00      	cmp	r3, #0
 80031f2:	d007      	beq.n	8003204 <EXTI4_IRQHandler+0x20>
		// Bajamos la bandera correspondiente
		EXTI->PR |= EXTI_PR_PR4;
 80031f4:	4b04      	ldr	r3, [pc, #16]	; (8003208 <EXTI4_IRQHandler+0x24>)
 80031f6:	695b      	ldr	r3, [r3, #20]
 80031f8:	4a03      	ldr	r2, [pc, #12]	; (8003208 <EXTI4_IRQHandler+0x24>)
 80031fa:	f043 0310 	orr.w	r3, r3, #16
 80031fe:	6153      	str	r3, [r2, #20]

		// llamamos al callback
		callback_extInt4();
 8003200:	f7ff ff40 	bl	8003084 <callback_extInt4>
	}
}
 8003204:	bf00      	nop
 8003206:	bd80      	pop	{r7, pc}
 8003208:	40013c00 	.word	0x40013c00

0800320c <EXTI9_5_IRQHandler>:
/* ISR de la interrupcin canales 9_5
 * Observe que debe agregar totos los posibles casos, los cuales
 * son identificados por un bloque if() y el analisis de la bandera
 * (pending register -> EXTI_PR)
 */
void EXTI9_5_IRQHandler(void){
 800320c:	b580      	push	{r7, lr}
 800320e:	af00      	add	r7, sp, #0
	if(EXTI->PR & EXTI_PR_PR5){
 8003210:	4b26      	ldr	r3, [pc, #152]	; (80032ac <EXTI9_5_IRQHandler+0xa0>)
 8003212:	695b      	ldr	r3, [r3, #20]
 8003214:	f003 0320 	and.w	r3, r3, #32
 8003218:	2b00      	cmp	r3, #0
 800321a:	d008      	beq.n	800322e <EXTI9_5_IRQHandler+0x22>
			// Bajamos la bandera correspondiente
			EXTI->PR |= EXTI_PR_PR5;
 800321c:	4b23      	ldr	r3, [pc, #140]	; (80032ac <EXTI9_5_IRQHandler+0xa0>)
 800321e:	695b      	ldr	r3, [r3, #20]
 8003220:	4a22      	ldr	r2, [pc, #136]	; (80032ac <EXTI9_5_IRQHandler+0xa0>)
 8003222:	f043 0320 	orr.w	r3, r3, #32
 8003226:	6153      	str	r3, [r2, #20]

			// llamamos al callback
			callback_extInt5();
 8003228:	f7ff ff34 	bl	8003094 <callback_extInt5>
		// llamamos al callback
		callback_extInt9();
	}else{
		__NOP();
	}
}
 800322c:	e03c      	b.n	80032a8 <EXTI9_5_IRQHandler+0x9c>
	}else if(EXTI->PR & EXTI_PR_PR6){
 800322e:	4b1f      	ldr	r3, [pc, #124]	; (80032ac <EXTI9_5_IRQHandler+0xa0>)
 8003230:	695b      	ldr	r3, [r3, #20]
 8003232:	f003 0340 	and.w	r3, r3, #64	; 0x40
 8003236:	2b00      	cmp	r3, #0
 8003238:	d008      	beq.n	800324c <EXTI9_5_IRQHandler+0x40>
		EXTI->PR |= EXTI_PR_PR6;
 800323a:	4b1c      	ldr	r3, [pc, #112]	; (80032ac <EXTI9_5_IRQHandler+0xa0>)
 800323c:	695b      	ldr	r3, [r3, #20]
 800323e:	4a1b      	ldr	r2, [pc, #108]	; (80032ac <EXTI9_5_IRQHandler+0xa0>)
 8003240:	f043 0340 	orr.w	r3, r3, #64	; 0x40
 8003244:	6153      	str	r3, [r2, #20]
		callback_extInt6();
 8003246:	f7ff ff2d 	bl	80030a4 <callback_extInt6>
}
 800324a:	e02d      	b.n	80032a8 <EXTI9_5_IRQHandler+0x9c>
	}else if(EXTI->PR & EXTI_PR_PR7){
 800324c:	4b17      	ldr	r3, [pc, #92]	; (80032ac <EXTI9_5_IRQHandler+0xa0>)
 800324e:	695b      	ldr	r3, [r3, #20]
 8003250:	f003 0380 	and.w	r3, r3, #128	; 0x80
 8003254:	2b00      	cmp	r3, #0
 8003256:	d008      	beq.n	800326a <EXTI9_5_IRQHandler+0x5e>
		EXTI->PR |= EXTI_PR_PR7;
 8003258:	4b14      	ldr	r3, [pc, #80]	; (80032ac <EXTI9_5_IRQHandler+0xa0>)
 800325a:	695b      	ldr	r3, [r3, #20]
 800325c:	4a13      	ldr	r2, [pc, #76]	; (80032ac <EXTI9_5_IRQHandler+0xa0>)
 800325e:	f043 0380 	orr.w	r3, r3, #128	; 0x80
 8003262:	6153      	str	r3, [r2, #20]
		callback_extInt7();
 8003264:	f7ff ff26 	bl	80030b4 <callback_extInt7>
}
 8003268:	e01e      	b.n	80032a8 <EXTI9_5_IRQHandler+0x9c>
	}else if(EXTI->PR & EXTI_PR_PR8){
 800326a:	4b10      	ldr	r3, [pc, #64]	; (80032ac <EXTI9_5_IRQHandler+0xa0>)
 800326c:	695b      	ldr	r3, [r3, #20]
 800326e:	f403 7380 	and.w	r3, r3, #256	; 0x100
 8003272:	2b00      	cmp	r3, #0
 8003274:	d008      	beq.n	8003288 <EXTI9_5_IRQHandler+0x7c>
		EXTI->PR |= EXTI_PR_PR8;
 8003276:	4b0d      	ldr	r3, [pc, #52]	; (80032ac <EXTI9_5_IRQHandler+0xa0>)
 8003278:	695b      	ldr	r3, [r3, #20]
 800327a:	4a0c      	ldr	r2, [pc, #48]	; (80032ac <EXTI9_5_IRQHandler+0xa0>)
 800327c:	f443 7380 	orr.w	r3, r3, #256	; 0x100
 8003280:	6153      	str	r3, [r2, #20]
		callback_extInt8();
 8003282:	f7ff ff1f 	bl	80030c4 <callback_extInt8>
}
 8003286:	e00f      	b.n	80032a8 <EXTI9_5_IRQHandler+0x9c>
	}else if(EXTI->PR & EXTI_PR_PR9){
 8003288:	4b08      	ldr	r3, [pc, #32]	; (80032ac <EXTI9_5_IRQHandler+0xa0>)
 800328a:	695b      	ldr	r3, [r3, #20]
 800328c:	f403 7300 	and.w	r3, r3, #512	; 0x200
 8003290:	2b00      	cmp	r3, #0
 8003292:	d008      	beq.n	80032a6 <EXTI9_5_IRQHandler+0x9a>
		EXTI->PR |= EXTI_PR_PR9;
 8003294:	4b05      	ldr	r3, [pc, #20]	; (80032ac <EXTI9_5_IRQHandler+0xa0>)
 8003296:	695b      	ldr	r3, [r3, #20]
 8003298:	4a04      	ldr	r2, [pc, #16]	; (80032ac <EXTI9_5_IRQHandler+0xa0>)
 800329a:	f443 7300 	orr.w	r3, r3, #512	; 0x200
 800329e:	6153      	str	r3, [r2, #20]
		callback_extInt9();
 80032a0:	f7ff ff18 	bl	80030d4 <callback_extInt9>
}
 80032a4:	e000      	b.n	80032a8 <EXTI9_5_IRQHandler+0x9c>
		__NOP();
 80032a6:	bf00      	nop
}
 80032a8:	bf00      	nop
 80032aa:	bd80      	pop	{r7, pc}
 80032ac:	40013c00 	.word	0x40013c00

080032b0 <EXTI15_10_IRQHandler>:
/* ISR de la interrupcin canales 15_10
 * Observe que debe agregar totos los posibles casos, los cuales
 * son identificados por un bloque if() y el analisis de la bandera
 * (pending register -> EXTI_PR)
 */
void EXTI15_10_IRQHandler(void){
 80032b0:	b580      	push	{r7, lr}
 80032b2:	af00      	add	r7, sp, #0
	// Evaluamos si la interrupcin que se lanzo corresponde al PIN_Y_15
	if(EXTI->PR & EXTI_PR_PR10){
 80032b4:	4b2d      	ldr	r3, [pc, #180]	; (800336c <EXTI15_10_IRQHandler+0xbc>)
 80032b6:	695b      	ldr	r3, [r3, #20]
 80032b8:	f403 6380 	and.w	r3, r3, #1024	; 0x400
 80032bc:	2b00      	cmp	r3, #0
 80032be:	d008      	beq.n	80032d2 <EXTI15_10_IRQHandler+0x22>
		// Bajamos la bandera correspondiente
		EXTI->PR |= EXTI_PR_PR10;
 80032c0:	4b2a      	ldr	r3, [pc, #168]	; (800336c <EXTI15_10_IRQHandler+0xbc>)
 80032c2:	695b      	ldr	r3, [r3, #20]
 80032c4:	4a29      	ldr	r2, [pc, #164]	; (800336c <EXTI15_10_IRQHandler+0xbc>)
 80032c6:	f443 6380 	orr.w	r3, r3, #1024	; 0x400
 80032ca:	6153      	str	r3, [r2, #20]

		// llamamos al callback
		callback_extInt10();
 80032cc:	f7ff ff0a 	bl	80030e4 <callback_extInt10>
		// llamamos al callback
		callback_extInt15();

	}

}
 80032d0:	e049      	b.n	8003366 <EXTI15_10_IRQHandler+0xb6>
	}else if(EXTI->PR & EXTI_PR_PR11){
 80032d2:	4b26      	ldr	r3, [pc, #152]	; (800336c <EXTI15_10_IRQHandler+0xbc>)
 80032d4:	695b      	ldr	r3, [r3, #20]
 80032d6:	f403 6300 	and.w	r3, r3, #2048	; 0x800
 80032da:	2b00      	cmp	r3, #0
 80032dc:	d008      	beq.n	80032f0 <EXTI15_10_IRQHandler+0x40>
		EXTI->PR |= EXTI_PR_PR11;
 80032de:	4b23      	ldr	r3, [pc, #140]	; (800336c <EXTI15_10_IRQHandler+0xbc>)
 80032e0:	695b      	ldr	r3, [r3, #20]
 80032e2:	4a22      	ldr	r2, [pc, #136]	; (800336c <EXTI15_10_IRQHandler+0xbc>)
 80032e4:	f443 6300 	orr.w	r3, r3, #2048	; 0x800
 80032e8:	6153      	str	r3, [r2, #20]
		callback_extInt11();
 80032ea:	f7ff ff03 	bl	80030f4 <callback_extInt11>
}
 80032ee:	e03a      	b.n	8003366 <EXTI15_10_IRQHandler+0xb6>
	}else if(EXTI->PR & EXTI_PR_PR12){
 80032f0:	4b1e      	ldr	r3, [pc, #120]	; (800336c <EXTI15_10_IRQHandler+0xbc>)
 80032f2:	695b      	ldr	r3, [r3, #20]
 80032f4:	f403 5380 	and.w	r3, r3, #4096	; 0x1000
 80032f8:	2b00      	cmp	r3, #0
 80032fa:	d008      	beq.n	800330e <EXTI15_10_IRQHandler+0x5e>
		EXTI->PR |= EXTI_PR_PR12;
 80032fc:	4b1b      	ldr	r3, [pc, #108]	; (800336c <EXTI15_10_IRQHandler+0xbc>)
 80032fe:	695b      	ldr	r3, [r3, #20]
 8003300:	4a1a      	ldr	r2, [pc, #104]	; (800336c <EXTI15_10_IRQHandler+0xbc>)
 8003302:	f443 5380 	orr.w	r3, r3, #4096	; 0x1000
 8003306:	6153      	str	r3, [r2, #20]
		callback_extInt12();
 8003308:	f7ff fefc 	bl	8003104 <callback_extInt12>
}
 800330c:	e02b      	b.n	8003366 <EXTI15_10_IRQHandler+0xb6>
	}else if(EXTI->PR & EXTI_PR_PR13){
 800330e:	4b17      	ldr	r3, [pc, #92]	; (800336c <EXTI15_10_IRQHandler+0xbc>)
 8003310:	695b      	ldr	r3, [r3, #20]
 8003312:	f403 5300 	and.w	r3, r3, #8192	; 0x2000
 8003316:	2b00      	cmp	r3, #0
 8003318:	d008      	beq.n	800332c <EXTI15_10_IRQHandler+0x7c>
		EXTI->PR |= EXTI_PR_PR13;
 800331a:	4b14      	ldr	r3, [pc, #80]	; (800336c <EXTI15_10_IRQHandler+0xbc>)
 800331c:	695b      	ldr	r3, [r3, #20]
 800331e:	4a13      	ldr	r2, [pc, #76]	; (800336c <EXTI15_10_IRQHandler+0xbc>)
 8003320:	f443 5300 	orr.w	r3, r3, #8192	; 0x2000
 8003324:	6153      	str	r3, [r2, #20]
		callback_extInt13();
 8003326:	f7ff fef5 	bl	8003114 <callback_extInt13>
}
 800332a:	e01c      	b.n	8003366 <EXTI15_10_IRQHandler+0xb6>
	}else if(EXTI->PR & EXTI_PR_PR14){
 800332c:	4b0f      	ldr	r3, [pc, #60]	; (800336c <EXTI15_10_IRQHandler+0xbc>)
 800332e:	695b      	ldr	r3, [r3, #20]
 8003330:	f403 4380 	and.w	r3, r3, #16384	; 0x4000
 8003334:	2b00      	cmp	r3, #0
 8003336:	d008      	beq.n	800334a <EXTI15_10_IRQHandler+0x9a>
		EXTI->PR |= EXTI_PR_PR14;
 8003338:	4b0c      	ldr	r3, [pc, #48]	; (800336c <EXTI15_10_IRQHandler+0xbc>)
 800333a:	695b      	ldr	r3, [r3, #20]
 800333c:	4a0b      	ldr	r2, [pc, #44]	; (800336c <EXTI15_10_IRQHandler+0xbc>)
 800333e:	f443 4380 	orr.w	r3, r3, #16384	; 0x4000
 8003342:	6153      	str	r3, [r2, #20]
		callback_extInt14();
 8003344:	f7ff feee 	bl	8003124 <callback_extInt14>
}
 8003348:	e00d      	b.n	8003366 <EXTI15_10_IRQHandler+0xb6>
	}else if(EXTI->PR & EXTI_PR_PR15){
 800334a:	4b08      	ldr	r3, [pc, #32]	; (800336c <EXTI15_10_IRQHandler+0xbc>)
 800334c:	695b      	ldr	r3, [r3, #20]
 800334e:	f403 4300 	and.w	r3, r3, #32768	; 0x8000
 8003352:	2b00      	cmp	r3, #0
 8003354:	d007      	beq.n	8003366 <EXTI15_10_IRQHandler+0xb6>
		EXTI->PR |= EXTI_PR_PR15;
 8003356:	4b05      	ldr	r3, [pc, #20]	; (800336c <EXTI15_10_IRQHandler+0xbc>)
 8003358:	695b      	ldr	r3, [r3, #20]
 800335a:	4a04      	ldr	r2, [pc, #16]	; (800336c <EXTI15_10_IRQHandler+0xbc>)
 800335c:	f443 4300 	orr.w	r3, r3, #32768	; 0x8000
 8003360:	6153      	str	r3, [r2, #20]
		callback_extInt15();
 8003362:	f7ff fee7 	bl	8003134 <callback_extInt15>
}
 8003366:	bf00      	nop
 8003368:	bd80      	pop	{r7, pc}
 800336a:	bf00      	nop
 800336c:	40013c00 	.word	0x40013c00

08003370 <GPIO_Config>:
 * Lo primero y mas importante es activar la seal del reloj principal hacia ese
 * elemento especifico (relacionado con el periferico RCC), a esto llamaremos
 * simplemente "activar el periferico o activar la seal de reloj del periferico.
 */

void GPIO_Config (GPIO_Handler_t *pGPIOHandler){
 8003370:	b480      	push	{r7}
 8003372:	b085      	sub	sp, #20
 8003374:	af00      	add	r7, sp, #0
 8003376:	6078      	str	r0, [r7, #4]

	//Variable para hacer todoo paso a paso
	uint32_t auxConfig = 0;
 8003378:	2300      	movs	r3, #0
 800337a:	60fb      	str	r3, [r7, #12]
	uint32_t auxPosition = 0;
 800337c:	2300      	movs	r3, #0
 800337e:	60bb      	str	r3, [r7, #8]

	// 1) Activar el periferico
	// Verificamos para GPIOA
	if (pGPIOHandler->pGPIOx == GPIOA){
 8003380:	687b      	ldr	r3, [r7, #4]
 8003382:	681b      	ldr	r3, [r3, #0]
 8003384:	4a88      	ldr	r2, [pc, #544]	; (80035a8 <GPIO_Config+0x238>)
 8003386:	4293      	cmp	r3, r2
 8003388:	d106      	bne.n	8003398 <GPIO_Config+0x28>
		//Escribimos 1 (SET) en la posicion correspondiente al GPIOA
		RCC-> AHB1ENR |= (SET << RCC_AHB1ENR_GPIOAEN_Pos);
 800338a:	4b88      	ldr	r3, [pc, #544]	; (80035ac <GPIO_Config+0x23c>)
 800338c:	6b1b      	ldr	r3, [r3, #48]	; 0x30
 800338e:	4a87      	ldr	r2, [pc, #540]	; (80035ac <GPIO_Config+0x23c>)
 8003390:	f043 0301 	orr.w	r3, r3, #1
 8003394:	6313      	str	r3, [r2, #48]	; 0x30
 8003396:	e03a      	b.n	800340e <GPIO_Config+0x9e>

	}
	//Verificamps para GPIOB
	else if (pGPIOHandler->pGPIOx == GPIOB){
 8003398:	687b      	ldr	r3, [r7, #4]
 800339a:	681b      	ldr	r3, [r3, #0]
 800339c:	4a84      	ldr	r2, [pc, #528]	; (80035b0 <GPIO_Config+0x240>)
 800339e:	4293      	cmp	r3, r2
 80033a0:	d106      	bne.n	80033b0 <GPIO_Config+0x40>
			//Escribimos 1 (SET) en la posicion correspondiente al GPIOB
			RCC-> AHB1ENR |= (SET << RCC_AHB1ENR_GPIOBEN_Pos);
 80033a2:	4b82      	ldr	r3, [pc, #520]	; (80035ac <GPIO_Config+0x23c>)
 80033a4:	6b1b      	ldr	r3, [r3, #48]	; 0x30
 80033a6:	4a81      	ldr	r2, [pc, #516]	; (80035ac <GPIO_Config+0x23c>)
 80033a8:	f043 0302 	orr.w	r3, r3, #2
 80033ac:	6313      	str	r3, [r2, #48]	; 0x30
 80033ae:	e02e      	b.n	800340e <GPIO_Config+0x9e>

		}
	//Verificamos para GPIOC
	else if (pGPIOHandler->pGPIOx == GPIOC){
 80033b0:	687b      	ldr	r3, [r7, #4]
 80033b2:	681b      	ldr	r3, [r3, #0]
 80033b4:	4a7f      	ldr	r2, [pc, #508]	; (80035b4 <GPIO_Config+0x244>)
 80033b6:	4293      	cmp	r3, r2
 80033b8:	d106      	bne.n	80033c8 <GPIO_Config+0x58>
				//Escribimos 1 (SET) en la posicion correspondiente al GPIOB
				RCC-> AHB1ENR |= (SET << RCC_AHB1ENR_GPIOCEN_Pos);
 80033ba:	4b7c      	ldr	r3, [pc, #496]	; (80035ac <GPIO_Config+0x23c>)
 80033bc:	6b1b      	ldr	r3, [r3, #48]	; 0x30
 80033be:	4a7b      	ldr	r2, [pc, #492]	; (80035ac <GPIO_Config+0x23c>)
 80033c0:	f043 0304 	orr.w	r3, r3, #4
 80033c4:	6313      	str	r3, [r2, #48]	; 0x30
 80033c6:	e022      	b.n	800340e <GPIO_Config+0x9e>

			}
	//Verificamos para GPIOD
		else if (pGPIOHandler->pGPIOx == GPIOD){
 80033c8:	687b      	ldr	r3, [r7, #4]
 80033ca:	681b      	ldr	r3, [r3, #0]
 80033cc:	4a7a      	ldr	r2, [pc, #488]	; (80035b8 <GPIO_Config+0x248>)
 80033ce:	4293      	cmp	r3, r2
 80033d0:	d106      	bne.n	80033e0 <GPIO_Config+0x70>
					//Escribimos 1 (SET) en la posicion correspondiente al GPIOB
					RCC-> AHB1ENR |= (SET << RCC_AHB1ENR_GPIODEN_Pos);
 80033d2:	4b76      	ldr	r3, [pc, #472]	; (80035ac <GPIO_Config+0x23c>)
 80033d4:	6b1b      	ldr	r3, [r3, #48]	; 0x30
 80033d6:	4a75      	ldr	r2, [pc, #468]	; (80035ac <GPIO_Config+0x23c>)
 80033d8:	f043 0308 	orr.w	r3, r3, #8
 80033dc:	6313      	str	r3, [r2, #48]	; 0x30
 80033de:	e016      	b.n	800340e <GPIO_Config+0x9e>

				}
	//Verificamos para GPIOE
		else if (pGPIOHandler->pGPIOx == GPIOE){
 80033e0:	687b      	ldr	r3, [r7, #4]
 80033e2:	681b      	ldr	r3, [r3, #0]
 80033e4:	4a75      	ldr	r2, [pc, #468]	; (80035bc <GPIO_Config+0x24c>)
 80033e6:	4293      	cmp	r3, r2
 80033e8:	d106      	bne.n	80033f8 <GPIO_Config+0x88>
					//Escribimos 1 (SET) en la posicion correspondiente al GPIOB
					RCC-> AHB1ENR |= (SET << RCC_AHB1ENR_GPIOEEN_Pos);
 80033ea:	4b70      	ldr	r3, [pc, #448]	; (80035ac <GPIO_Config+0x23c>)
 80033ec:	6b1b      	ldr	r3, [r3, #48]	; 0x30
 80033ee:	4a6f      	ldr	r2, [pc, #444]	; (80035ac <GPIO_Config+0x23c>)
 80033f0:	f043 0310 	orr.w	r3, r3, #16
 80033f4:	6313      	str	r3, [r2, #48]	; 0x30
 80033f6:	e00a      	b.n	800340e <GPIO_Config+0x9e>

				}
	//Verificamos para GPIOH
		else if (pGPIOHandler->pGPIOx == GPIOH){
 80033f8:	687b      	ldr	r3, [r7, #4]
 80033fa:	681b      	ldr	r3, [r3, #0]
 80033fc:	4a70      	ldr	r2, [pc, #448]	; (80035c0 <GPIO_Config+0x250>)
 80033fe:	4293      	cmp	r3, r2
 8003400:	d105      	bne.n	800340e <GPIO_Config+0x9e>
					//Escribimos 1 (SET) en la posicion correspondiente al GPIOB
					RCC-> AHB1ENR |= (SET << RCC_AHB1ENR_GPIOHEN_Pos);
 8003402:	4b6a      	ldr	r3, [pc, #424]	; (80035ac <GPIO_Config+0x23c>)
 8003404:	6b1b      	ldr	r3, [r3, #48]	; 0x30
 8003406:	4a69      	ldr	r2, [pc, #420]	; (80035ac <GPIO_Config+0x23c>)
 8003408:	f043 0380 	orr.w	r3, r3, #128	; 0x80
 800340c:	6313      	str	r3, [r2, #48]	; 0x30
	 * 2) Configurando el registro GPIOx_MODER
	 * Aca estamos leyendo la config, moviendo "PinNumber" veces hacia la izquierda de ese valor (shift left)
	 * y todoo eso lo cargamos en la variable auxConfig.
	 */

	auxConfig = (pGPIOHandler -> GPIO_PinConfig.GPIO_PinMode << 2 * pGPIOHandler -> GPIO_PinConfig.GPIO_PinNumber);
 800340e:	687b      	ldr	r3, [r7, #4]
 8003410:	795b      	ldrb	r3, [r3, #5]
 8003412:	461a      	mov	r2, r3
 8003414:	687b      	ldr	r3, [r7, #4]
 8003416:	791b      	ldrb	r3, [r3, #4]
 8003418:	005b      	lsls	r3, r3, #1
 800341a:	fa02 f303 	lsl.w	r3, r2, r3
 800341e:	60fb      	str	r3, [r7, #12]

	/*
	 * Antes de cargar el nuevo valor, limpiamos los bits especificos de ese registro (debemos escribir 0b00)
	 * para lo cual aplicamos una mascara y una operacion bitwise AND
	 */
	pGPIOHandler -> pGPIOx -> MODER &= ~(0b11 << 2 * pGPIOHandler -> GPIO_PinConfig.GPIO_PinNumber);
 8003420:	687b      	ldr	r3, [r7, #4]
 8003422:	681b      	ldr	r3, [r3, #0]
 8003424:	681a      	ldr	r2, [r3, #0]
 8003426:	687b      	ldr	r3, [r7, #4]
 8003428:	791b      	ldrb	r3, [r3, #4]
 800342a:	005b      	lsls	r3, r3, #1
 800342c:	2103      	movs	r1, #3
 800342e:	fa01 f303 	lsl.w	r3, r1, r3
 8003432:	43db      	mvns	r3, r3
 8003434:	4619      	mov	r1, r3
 8003436:	687b      	ldr	r3, [r7, #4]
 8003438:	681b      	ldr	r3, [r3, #0]
 800343a:	400a      	ands	r2, r1
 800343c:	601a      	str	r2, [r3, #0]

	/*
	 * Cargamos a auxConfig en el registro MODER
	 */
	pGPIOHandler-> pGPIOx -> MODER |= auxConfig;
 800343e:	687b      	ldr	r3, [r7, #4]
 8003440:	681b      	ldr	r3, [r3, #0]
 8003442:	6819      	ldr	r1, [r3, #0]
 8003444:	687b      	ldr	r3, [r7, #4]
 8003446:	681b      	ldr	r3, [r3, #0]
 8003448:	68fa      	ldr	r2, [r7, #12]
 800344a:	430a      	orrs	r2, r1
 800344c:	601a      	str	r2, [r3, #0]

	/*
	 * 3) Configurando el registro GPIOx_OTYPER
	 * De nuevo, leemos y movemos el valor un numero "PinNumber" de veces
	 */
	auxConfig = (pGPIOHandler-> GPIO_PinConfig.GPIO_PinOPType << pGPIOHandler->GPIO_PinConfig.GPIO_PinNumber);
 800344e:	687b      	ldr	r3, [r7, #4]
 8003450:	7a1b      	ldrb	r3, [r3, #8]
 8003452:	461a      	mov	r2, r3
 8003454:	687b      	ldr	r3, [r7, #4]
 8003456:	791b      	ldrb	r3, [r3, #4]
 8003458:	fa02 f303 	lsl.w	r3, r2, r3
 800345c:	60fb      	str	r3, [r7, #12]
	//Limpiamos antes de cargar

	pGPIOHandler->pGPIOx->OTYPER &= ~(SET << pGPIOHandler -> GPIO_PinConfig.GPIO_PinNumber);
 800345e:	687b      	ldr	r3, [r7, #4]
 8003460:	681b      	ldr	r3, [r3, #0]
 8003462:	685a      	ldr	r2, [r3, #4]
 8003464:	687b      	ldr	r3, [r7, #4]
 8003466:	791b      	ldrb	r3, [r3, #4]
 8003468:	4619      	mov	r1, r3
 800346a:	2301      	movs	r3, #1
 800346c:	408b      	lsls	r3, r1
 800346e:	43db      	mvns	r3, r3
 8003470:	4619      	mov	r1, r3
 8003472:	687b      	ldr	r3, [r7, #4]
 8003474:	681b      	ldr	r3, [r3, #0]
 8003476:	400a      	ands	r2, r1
 8003478:	605a      	str	r2, [r3, #4]

	//Cargamos el resultado sobre el registro adecuado
	pGPIOHandler->pGPIOx->OTYPER |= auxConfig;
 800347a:	687b      	ldr	r3, [r7, #4]
 800347c:	681b      	ldr	r3, [r3, #0]
 800347e:	6859      	ldr	r1, [r3, #4]
 8003480:	687b      	ldr	r3, [r7, #4]
 8003482:	681b      	ldr	r3, [r3, #0]
 8003484:	68fa      	ldr	r2, [r7, #12]
 8003486:	430a      	orrs	r2, r1
 8003488:	605a      	str	r2, [r3, #4]

	//4) Configurando ahora la velocidad
	auxConfig = (pGPIOHandler-> GPIO_PinConfig.GPIO_PinSpeed << 2*pGPIOHandler -> GPIO_PinConfig.GPIO_PinNumber);
 800348a:	687b      	ldr	r3, [r7, #4]
 800348c:	799b      	ldrb	r3, [r3, #6]
 800348e:	461a      	mov	r2, r3
 8003490:	687b      	ldr	r3, [r7, #4]
 8003492:	791b      	ldrb	r3, [r3, #4]
 8003494:	005b      	lsls	r3, r3, #1
 8003496:	fa02 f303 	lsl.w	r3, r2, r3
 800349a:	60fb      	str	r3, [r7, #12]

	//Limpiando la posicion antes de cargar la nueva configuracion
	pGPIOHandler->pGPIOx->OSPEEDR &= ~(0b11 << 2*pGPIOHandler-> GPIO_PinConfig.GPIO_PinNumber);
 800349c:	687b      	ldr	r3, [r7, #4]
 800349e:	681b      	ldr	r3, [r3, #0]
 80034a0:	689a      	ldr	r2, [r3, #8]
 80034a2:	687b      	ldr	r3, [r7, #4]
 80034a4:	791b      	ldrb	r3, [r3, #4]
 80034a6:	005b      	lsls	r3, r3, #1
 80034a8:	2103      	movs	r1, #3
 80034aa:	fa01 f303 	lsl.w	r3, r1, r3
 80034ae:	43db      	mvns	r3, r3
 80034b0:	4619      	mov	r1, r3
 80034b2:	687b      	ldr	r3, [r7, #4]
 80034b4:	681b      	ldr	r3, [r3, #0]
 80034b6:	400a      	ands	r2, r1
 80034b8:	609a      	str	r2, [r3, #8]

	// Cargamos el resultado sobre el registro adecuado
	pGPIOHandler ->pGPIOx->OSPEEDR |= auxConfig;
 80034ba:	687b      	ldr	r3, [r7, #4]
 80034bc:	681b      	ldr	r3, [r3, #0]
 80034be:	6899      	ldr	r1, [r3, #8]
 80034c0:	687b      	ldr	r3, [r7, #4]
 80034c2:	681b      	ldr	r3, [r3, #0]
 80034c4:	68fa      	ldr	r2, [r7, #12]
 80034c6:	430a      	orrs	r2, r1
 80034c8:	609a      	str	r2, [r3, #8]

	// 5) Configurando si se desea pull-up, pull-down o flotante
	auxConfig = (pGPIOHandler -> GPIO_PinConfig.GPIO_PinPuPdControl << 2*pGPIOHandler -> GPIO_PinConfig.GPIO_PinNumber);
 80034ca:	687b      	ldr	r3, [r7, #4]
 80034cc:	79db      	ldrb	r3, [r3, #7]
 80034ce:	461a      	mov	r2, r3
 80034d0:	687b      	ldr	r3, [r7, #4]
 80034d2:	791b      	ldrb	r3, [r3, #4]
 80034d4:	005b      	lsls	r3, r3, #1
 80034d6:	fa02 f303 	lsl.w	r3, r2, r3
 80034da:	60fb      	str	r3, [r7, #12]

	//Limpiando la posicion antes de cargar la nueva configuracion
	pGPIOHandler ->pGPIOx -> PUPDR &= ~(0b11 << 2*pGPIOHandler -> GPIO_PinConfig.GPIO_PinNumber);
 80034dc:	687b      	ldr	r3, [r7, #4]
 80034de:	681b      	ldr	r3, [r3, #0]
 80034e0:	68da      	ldr	r2, [r3, #12]
 80034e2:	687b      	ldr	r3, [r7, #4]
 80034e4:	791b      	ldrb	r3, [r3, #4]
 80034e6:	005b      	lsls	r3, r3, #1
 80034e8:	2103      	movs	r1, #3
 80034ea:	fa01 f303 	lsl.w	r3, r1, r3
 80034ee:	43db      	mvns	r3, r3
 80034f0:	4619      	mov	r1, r3
 80034f2:	687b      	ldr	r3, [r7, #4]
 80034f4:	681b      	ldr	r3, [r3, #0]
 80034f6:	400a      	ands	r2, r1
 80034f8:	60da      	str	r2, [r3, #12]

	//Cargamos el resultado sobre el registro adecuado
	pGPIOHandler-> pGPIOx->PUPDR |= auxConfig;
 80034fa:	687b      	ldr	r3, [r7, #4]
 80034fc:	681b      	ldr	r3, [r3, #0]
 80034fe:	68d9      	ldr	r1, [r3, #12]
 8003500:	687b      	ldr	r3, [r7, #4]
 8003502:	681b      	ldr	r3, [r3, #0]
 8003504:	68fa      	ldr	r2, [r7, #12]
 8003506:	430a      	orrs	r2, r1
 8003508:	60da      	str	r2, [r3, #12]

	//Esta es la parte para la configuracion de las funciones alternativas... se vera luego
	if (pGPIOHandler -> GPIO_PinConfig.GPIO_PinMode== GPIO_MODE_ALTFN){
 800350a:	687b      	ldr	r3, [r7, #4]
 800350c:	795b      	ldrb	r3, [r3, #5]
 800350e:	2b02      	cmp	r3, #2
 8003510:	d143      	bne.n	800359a <GPIO_Config+0x22a>
		// seleccionamos primero si se debe utilizar el registro bajo (AFRL) o el alto (AFRM)
		if (pGPIOHandler -> GPIO_PinConfig.GPIO_PinNumber < 8){
 8003512:	687b      	ldr	r3, [r7, #4]
 8003514:	791b      	ldrb	r3, [r3, #4]
 8003516:	2b07      	cmp	r3, #7
 8003518:	d81f      	bhi.n	800355a <GPIO_Config+0x1ea>
			//Estamos en el registro AFRL, que controla los pines del PIN_0 al PIN_7
			auxPosition = 4 * pGPIOHandler -> GPIO_PinConfig.GPIO_PinNumber;
 800351a:	687b      	ldr	r3, [r7, #4]
 800351c:	791b      	ldrb	r3, [r3, #4]
 800351e:	009b      	lsls	r3, r3, #2
 8003520:	60bb      	str	r3, [r7, #8]

			//Limpiamos primero la posicion del registro que deseamos escribir a continuacion
			pGPIOHandler -> pGPIOx->AFR[0] &= ~(0b1111 << auxPosition);
 8003522:	687b      	ldr	r3, [r7, #4]
 8003524:	681b      	ldr	r3, [r3, #0]
 8003526:	6a1a      	ldr	r2, [r3, #32]
 8003528:	210f      	movs	r1, #15
 800352a:	68bb      	ldr	r3, [r7, #8]
 800352c:	fa01 f303 	lsl.w	r3, r1, r3
 8003530:	43db      	mvns	r3, r3
 8003532:	4619      	mov	r1, r3
 8003534:	687b      	ldr	r3, [r7, #4]
 8003536:	681b      	ldr	r3, [r3, #0]
 8003538:	400a      	ands	r2, r1
 800353a:	621a      	str	r2, [r3, #32]

			//Y escribimos el valor configurado en la posicion seleccionada
			pGPIOHandler-> pGPIOx->AFR[0] |= (pGPIOHandler -> GPIO_PinConfig.GPIO_PinAltFunMode << auxPosition);
 800353c:	687b      	ldr	r3, [r7, #4]
 800353e:	681b      	ldr	r3, [r3, #0]
 8003540:	6a1a      	ldr	r2, [r3, #32]
 8003542:	687b      	ldr	r3, [r7, #4]
 8003544:	7a5b      	ldrb	r3, [r3, #9]
 8003546:	4619      	mov	r1, r3
 8003548:	68bb      	ldr	r3, [r7, #8]
 800354a:	fa01 f303 	lsl.w	r3, r1, r3
 800354e:	4619      	mov	r1, r3
 8003550:	687b      	ldr	r3, [r7, #4]
 8003552:	681b      	ldr	r3, [r3, #0]
 8003554:	430a      	orrs	r2, r1
 8003556:	621a      	str	r2, [r3, #32]
			//Y escribimos el valor configurado en la posicion seleccionada
			pGPIOHandler -> pGPIOx->AFR[1] |= (pGPIOHandler-> GPIO_PinConfig.GPIO_PinAltFunMode << auxPosition);

		}
	}
}//Fin del GPIO_Config
 8003558:	e01f      	b.n	800359a <GPIO_Config+0x22a>
			auxPosition = 4 * (pGPIOHandler-> GPIO_PinConfig.GPIO_PinNumber -8);
 800355a:	687b      	ldr	r3, [r7, #4]
 800355c:	791b      	ldrb	r3, [r3, #4]
 800355e:	3b08      	subs	r3, #8
 8003560:	009b      	lsls	r3, r3, #2
 8003562:	60bb      	str	r3, [r7, #8]
			pGPIOHandler -> pGPIOx->AFR[1] &= ~(0b1111<<auxPosition);
 8003564:	687b      	ldr	r3, [r7, #4]
 8003566:	681b      	ldr	r3, [r3, #0]
 8003568:	6a5a      	ldr	r2, [r3, #36]	; 0x24
 800356a:	210f      	movs	r1, #15
 800356c:	68bb      	ldr	r3, [r7, #8]
 800356e:	fa01 f303 	lsl.w	r3, r1, r3
 8003572:	43db      	mvns	r3, r3
 8003574:	4619      	mov	r1, r3
 8003576:	687b      	ldr	r3, [r7, #4]
 8003578:	681b      	ldr	r3, [r3, #0]
 800357a:	400a      	ands	r2, r1
 800357c:	625a      	str	r2, [r3, #36]	; 0x24
			pGPIOHandler -> pGPIOx->AFR[1] |= (pGPIOHandler-> GPIO_PinConfig.GPIO_PinAltFunMode << auxPosition);
 800357e:	687b      	ldr	r3, [r7, #4]
 8003580:	681b      	ldr	r3, [r3, #0]
 8003582:	6a5a      	ldr	r2, [r3, #36]	; 0x24
 8003584:	687b      	ldr	r3, [r7, #4]
 8003586:	7a5b      	ldrb	r3, [r3, #9]
 8003588:	4619      	mov	r1, r3
 800358a:	68bb      	ldr	r3, [r7, #8]
 800358c:	fa01 f303 	lsl.w	r3, r1, r3
 8003590:	4619      	mov	r1, r3
 8003592:	687b      	ldr	r3, [r7, #4]
 8003594:	681b      	ldr	r3, [r3, #0]
 8003596:	430a      	orrs	r2, r1
 8003598:	625a      	str	r2, [r3, #36]	; 0x24
}//Fin del GPIO_Config
 800359a:	bf00      	nop
 800359c:	3714      	adds	r7, #20
 800359e:	46bd      	mov	sp, r7
 80035a0:	f85d 7b04 	ldr.w	r7, [sp], #4
 80035a4:	4770      	bx	lr
 80035a6:	bf00      	nop
 80035a8:	40020000 	.word	0x40020000
 80035ac:	40023800 	.word	0x40023800
 80035b0:	40020400 	.word	0x40020400
 80035b4:	40020800 	.word	0x40020800
 80035b8:	40020c00 	.word	0x40020c00
 80035bc:	40021000 	.word	0x40021000
 80035c0:	40021c00 	.word	0x40021c00

080035c4 <GPIO_WritePin>:
/**
 * Funcion utilizada para cambiar de estado el pin entregado en el handler, asignando
 * el valor entregado en la variable newState
 */

void GPIO_WritePin (GPIO_Handler_t *pPinHandler, uint8_t newState){
 80035c4:	b480      	push	{r7}
 80035c6:	b083      	sub	sp, #12
 80035c8:	af00      	add	r7, sp, #0
 80035ca:	6078      	str	r0, [r7, #4]
 80035cc:	460b      	mov	r3, r1
 80035ce:	70fb      	strb	r3, [r7, #3]
	//Limpiamos la posicion que deseamos
	// pPinHandler->pGPIOx->ODR &= ~(SET<< pPinHandler->GPIO_PinConfig.GPIO_PinNumber);
	if (newState == SET){
 80035d0:	78fb      	ldrb	r3, [r7, #3]
 80035d2:	2b01      	cmp	r3, #1
 80035d4:	d10d      	bne.n	80035f2 <GPIO_WritePin+0x2e>
		//Trabajando con la parte baja del registro
		pPinHandler->pGPIOx->BSRR |= (SET << (pPinHandler ->GPIO_PinConfig.GPIO_PinNumber));
 80035d6:	687b      	ldr	r3, [r7, #4]
 80035d8:	681b      	ldr	r3, [r3, #0]
 80035da:	699a      	ldr	r2, [r3, #24]
 80035dc:	687b      	ldr	r3, [r7, #4]
 80035de:	791b      	ldrb	r3, [r3, #4]
 80035e0:	4619      	mov	r1, r3
 80035e2:	2301      	movs	r3, #1
 80035e4:	408b      	lsls	r3, r1
 80035e6:	4619      	mov	r1, r3
 80035e8:	687b      	ldr	r3, [r7, #4]
 80035ea:	681b      	ldr	r3, [r3, #0]
 80035ec:	430a      	orrs	r2, r1
 80035ee:	619a      	str	r2, [r3, #24]
	}
	else{
		//Trabajando con la parte alta del registro
				pPinHandler->pGPIOx->BSRR |= (SET << (pPinHandler ->GPIO_PinConfig.GPIO_PinNumber + 16));
	}
}
 80035f0:	e00d      	b.n	800360e <GPIO_WritePin+0x4a>
				pPinHandler->pGPIOx->BSRR |= (SET << (pPinHandler ->GPIO_PinConfig.GPIO_PinNumber + 16));
 80035f2:	687b      	ldr	r3, [r7, #4]
 80035f4:	681b      	ldr	r3, [r3, #0]
 80035f6:	699a      	ldr	r2, [r3, #24]
 80035f8:	687b      	ldr	r3, [r7, #4]
 80035fa:	791b      	ldrb	r3, [r3, #4]
 80035fc:	3310      	adds	r3, #16
 80035fe:	2101      	movs	r1, #1
 8003600:	fa01 f303 	lsl.w	r3, r1, r3
 8003604:	4619      	mov	r1, r3
 8003606:	687b      	ldr	r3, [r7, #4]
 8003608:	681b      	ldr	r3, [r3, #0]
 800360a:	430a      	orrs	r2, r1
 800360c:	619a      	str	r2, [r3, #24]
}
 800360e:	bf00      	nop
 8003610:	370c      	adds	r7, #12
 8003612:	46bd      	mov	sp, r7
 8003614:	f85d 7b04 	ldr.w	r7, [sp], #4
 8003618:	4770      	bx	lr

0800361a <GPIO_WritePin_Afopt>:


void GPIO_WritePin_Afopt (GPIO_Handler_t *pPinHandler, uint8_t newState){
 800361a:	b480      	push	{r7}
 800361c:	b083      	sub	sp, #12
 800361e:	af00      	add	r7, sp, #0
 8003620:	6078      	str	r0, [r7, #4]
 8003622:	460b      	mov	r3, r1
 8003624:	70fb      	strb	r3, [r7, #3]

	//Limpiamos la posicion que deseamos
	// pPinHandler->pGPIOx->ODR &= ~(SET<< pPinHandler->GPIO_PinConfig.GPIO_PinNumber);
	if (newState == RESET){
 8003626:	78fb      	ldrb	r3, [r7, #3]
 8003628:	2b00      	cmp	r3, #0
 800362a:	d10d      	bne.n	8003648 <GPIO_WritePin_Afopt+0x2e>
		//Trabajando con la parte baja del registro
		pPinHandler->pGPIOx->BSRR |= (SET << (pPinHandler ->GPIO_PinConfig.GPIO_PinNumber));
 800362c:	687b      	ldr	r3, [r7, #4]
 800362e:	681b      	ldr	r3, [r3, #0]
 8003630:	699a      	ldr	r2, [r3, #24]
 8003632:	687b      	ldr	r3, [r7, #4]
 8003634:	791b      	ldrb	r3, [r3, #4]
 8003636:	4619      	mov	r1, r3
 8003638:	2301      	movs	r3, #1
 800363a:	408b      	lsls	r3, r1
 800363c:	4619      	mov	r1, r3
 800363e:	687b      	ldr	r3, [r7, #4]
 8003640:	681b      	ldr	r3, [r3, #0]
 8003642:	430a      	orrs	r2, r1
 8003644:	619a      	str	r2, [r3, #24]
		//Trabajando con la parte alta del registro
				pPinHandler->pGPIOx->BSRR |= (SET << (pPinHandler ->GPIO_PinConfig.GPIO_PinNumber + 16));
	}


}
 8003646:	e00d      	b.n	8003664 <GPIO_WritePin_Afopt+0x4a>
				pPinHandler->pGPIOx->BSRR |= (SET << (pPinHandler ->GPIO_PinConfig.GPIO_PinNumber + 16));
 8003648:	687b      	ldr	r3, [r7, #4]
 800364a:	681b      	ldr	r3, [r3, #0]
 800364c:	699a      	ldr	r2, [r3, #24]
 800364e:	687b      	ldr	r3, [r7, #4]
 8003650:	791b      	ldrb	r3, [r3, #4]
 8003652:	3310      	adds	r3, #16
 8003654:	2101      	movs	r1, #1
 8003656:	fa01 f303 	lsl.w	r3, r1, r3
 800365a:	4619      	mov	r1, r3
 800365c:	687b      	ldr	r3, [r7, #4]
 800365e:	681b      	ldr	r3, [r3, #0]
 8003660:	430a      	orrs	r2, r1
 8003662:	619a      	str	r2, [r3, #24]
}
 8003664:	bf00      	nop
 8003666:	370c      	adds	r7, #12
 8003668:	46bd      	mov	sp, r7
 800366a:	f85d 7b04 	ldr.w	r7, [sp], #4
 800366e:	4770      	bx	lr

08003670 <GPIO_ReadPin>:

/**
 * Funcion para leer el estado de un pin especifico
 */

uint32_t GPIO_ReadPin (GPIO_Handler_t *pPinHandler){
 8003670:	b480      	push	{r7}
 8003672:	b085      	sub	sp, #20
 8003674:	af00      	add	r7, sp, #0
 8003676:	6078      	str	r0, [r7, #4]
	//Creamos una variable auxiliar la cual luego retornaremos
	uint32_t pinValue = 0;
 8003678:	2300      	movs	r3, #0
 800367a:	60fb      	str	r3, [r7, #12]

	// Cargamos el valor del registro IDR, Desplazado a derecha tantas veces como la ubicacion
	// del pin especifico
	uint16_t mask = (SET << pPinHandler -> GPIO_PinConfig.GPIO_PinNumber);
 800367c:	687b      	ldr	r3, [r7, #4]
 800367e:	791b      	ldrb	r3, [r3, #4]
 8003680:	461a      	mov	r2, r3
 8003682:	2301      	movs	r3, #1
 8003684:	4093      	lsls	r3, r2
 8003686:	817b      	strh	r3, [r7, #10]
	pinValue = (pPinHandler -> pGPIOx -> IDR);
 8003688:	687b      	ldr	r3, [r7, #4]
 800368a:	681b      	ldr	r3, [r3, #0]
 800368c:	691b      	ldr	r3, [r3, #16]
 800368e:	60fb      	str	r3, [r7, #12]
	pinValue &= mask;
 8003690:	897b      	ldrh	r3, [r7, #10]
 8003692:	68fa      	ldr	r2, [r7, #12]
 8003694:	4013      	ands	r3, r2
 8003696:	60fb      	str	r3, [r7, #12]
	pinValue >>= (pPinHandler->GPIO_PinConfig.GPIO_PinNumber);
 8003698:	687b      	ldr	r3, [r7, #4]
 800369a:	791b      	ldrb	r3, [r3, #4]
 800369c:	461a      	mov	r2, r3
 800369e:	68fb      	ldr	r3, [r7, #12]
 80036a0:	40d3      	lsrs	r3, r2
 80036a2:	60fb      	str	r3, [r7, #12]

	return pinValue;
 80036a4:	68fb      	ldr	r3, [r7, #12]
}
 80036a6:	4618      	mov	r0, r3
 80036a8:	3714      	adds	r7, #20
 80036aa:	46bd      	mov	sp, r7
 80036ac:	f85d 7b04 	ldr.w	r7, [sp], #4
 80036b0:	4770      	bx	lr

080036b2 <GPIOxTooglePin>:

void GPIOxTooglePin (GPIO_Handler_t *pPinState){
 80036b2:	b580      	push	{r7, lr}
 80036b4:	b084      	sub	sp, #16
 80036b6:	af00      	add	r7, sp, #0
 80036b8:	6078      	str	r0, [r7, #4]
		uint8_t state  = GPIO_ReadPin (pPinState);
 80036ba:	6878      	ldr	r0, [r7, #4]
 80036bc:	f7ff ffd8 	bl	8003670 <GPIO_ReadPin>
 80036c0:	4603      	mov	r3, r0
 80036c2:	73fb      	strb	r3, [r7, #15]
		GPIO_WritePin(pPinState, !state);
 80036c4:	7bfb      	ldrb	r3, [r7, #15]
 80036c6:	2b00      	cmp	r3, #0
 80036c8:	bf0c      	ite	eq
 80036ca:	2301      	moveq	r3, #1
 80036cc:	2300      	movne	r3, #0
 80036ce:	b2db      	uxtb	r3, r3
 80036d0:	4619      	mov	r1, r3
 80036d2:	6878      	ldr	r0, [r7, #4]
 80036d4:	f7ff ff76 	bl	80035c4 <GPIO_WritePin>
}
 80036d8:	bf00      	nop
 80036da:	3710      	adds	r7, #16
 80036dc:	46bd      	mov	sp, r7
 80036de:	bd80      	pop	{r7, pc}

080036e0 <configMPUAccel>:
#include "I2CDriver.h"
#include "GPIOxDriver.h"
#include "BasicTimer.h"


void configMPUAccel (MPUAccel_Config *ptrMPUAccel){
 80036e0:	b580      	push	{r7, lr}
 80036e2:	b084      	sub	sp, #16
 80036e4:	af00      	add	r7, sp, #0
 80036e6:	6078      	str	r0, [r7, #4]

	uint8_t rdy  = 0;
 80036e8:	2300      	movs	r3, #0
 80036ea:	73fb      	strb	r3, [r7, #15]
	uint8_t byte = 0;
 80036ec:	2300      	movs	r3, #0
 80036ee:	73bb      	strb	r3, [r7, #14]
	// Paso 1 se configuran los pines GPIO y el perisferico I2C respectivo para poder configurar a partir del
	//MCU el sensor, se tiene en cuenta tanto la lectura del pin SDA como el SCL
	GPIO_Config(ptrMPUAccel->ptrGPIOhandlerSDA);
 80036f0:	687b      	ldr	r3, [r7, #4]
 80036f2:	689b      	ldr	r3, [r3, #8]
 80036f4:	4618      	mov	r0, r3
 80036f6:	f7ff fe3b 	bl	8003370 <GPIO_Config>
	GPIO_Config(ptrMPUAccel->ptrGPIOhandlerSCL);
 80036fa:	687b      	ldr	r3, [r7, #4]
 80036fc:	685b      	ldr	r3, [r3, #4]
 80036fe:	4618      	mov	r0, r3
 8003700:	f7ff fe36 	bl	8003370 <GPIO_Config>
	i2c_config(ptrMPUAccel->ptrI2Chandler);
 8003704:	687b      	ldr	r3, [r7, #4]
 8003706:	68db      	ldr	r3, [r3, #12]
 8003708:	4618      	mov	r0, r3
 800370a:	f001 ff23 	bl	8005554 <i2c_config>


	// verificamos que el MPU se comunica con exito
	while(!rdy){
 800370e:	e004      	b.n	800371a <configMPUAccel+0x3a>

		rdy = WHOIAM(ptrMPUAccel);
 8003710:	6878      	ldr	r0, [r7, #4]
 8003712:	f000 f94f 	bl	80039b4 <WHOIAM>
 8003716:	4603      	mov	r3, r0
 8003718:	73fb      	strb	r3, [r7, #15]
	while(!rdy){
 800371a:	7bfb      	ldrb	r3, [r7, #15]
 800371c:	2b00      	cmp	r3, #0
 800371e:	d0f7      	beq.n	8003710 <configMPUAccel+0x30>
	}


	//Paso 2, Colocamos en 0 el bit 7 del PM1, (registro 0x6B) ya que sin esto no se puede modificar ningun registro.
	byte = readData(ptrMPUAccel, 0x6B);
 8003720:	216b      	movs	r1, #107	; 0x6b
 8003722:	6878      	ldr	r0, [r7, #4]
 8003724:	f000 f8f1 	bl	800390a <readData>
 8003728:	4603      	mov	r3, r0
 800372a:	73bb      	strb	r3, [r7, #14]

	byte &=  ~byte;
 800372c:	2300      	movs	r3, #0
 800372e:	73bb      	strb	r3, [r7, #14]
	writeData(ptrMPUAccel, 0x6B, byte );
 8003730:	7bbb      	ldrb	r3, [r7, #14]
 8003732:	461a      	mov	r2, r3
 8003734:	216b      	movs	r1, #107	; 0x6b
 8003736:	6878      	ldr	r0, [r7, #4]
 8003738:	f000 f89c 	bl	8003874 <writeData>

	byte = readData(ptrMPUAccel, 0x6B);
 800373c:	216b      	movs	r1, #107	; 0x6b
 800373e:	6878      	ldr	r0, [r7, #4]
 8003740:	f000 f8e3 	bl	800390a <readData>
 8003744:	4603      	mov	r3, r0
 8003746:	73bb      	strb	r3, [r7, #14]
	// respectivamente


		//Preguntamos por el range requerido por el usuario de aceleracion, puede ser +-2g,4g,8g,16g (# X la aceleracion
		//de la gravedad)
		byte = readData(ptrMPUAccel, 0x1C);
 8003748:	211c      	movs	r1, #28
 800374a:	6878      	ldr	r0, [r7, #4]
 800374c:	f000 f8dd 	bl	800390a <readData>
 8003750:	4603      	mov	r3, r0
 8003752:	73bb      	strb	r3, [r7, #14]

		byte &= ~(0b00011000) ;
 8003754:	7bbb      	ldrb	r3, [r7, #14]
 8003756:	f023 0318 	bic.w	r3, r3, #24
 800375a:	73bb      	strb	r3, [r7, #14]
		switch (ptrMPUAccel->fullScaleACCEL){
 800375c:	687b      	ldr	r3, [r7, #4]
 800375e:	781b      	ldrb	r3, [r3, #0]
 8003760:	2b03      	cmp	r3, #3
 8003762:	d833      	bhi.n	80037cc <configMPUAccel+0xec>
 8003764:	a201      	add	r2, pc, #4	; (adr r2, 800376c <configMPUAccel+0x8c>)
 8003766:	f852 f023 	ldr.w	pc, [r2, r3, lsl #2]
 800376a:	bf00      	nop
 800376c:	0800377d 	.word	0x0800377d
 8003770:	0800378b 	.word	0x0800378b
 8003774:	080037a1 	.word	0x080037a1
 8003778:	080037b7 	.word	0x080037b7
			case ACCEL_2G :{

				byte |= (ACCEL_2G << 3);
				writeData(ptrMPUAccel, 0x1C, byte);
 800377c:	7bbb      	ldrb	r3, [r7, #14]
 800377e:	461a      	mov	r2, r3
 8003780:	211c      	movs	r1, #28
 8003782:	6878      	ldr	r0, [r7, #4]
 8003784:	f000 f876 	bl	8003874 <writeData>


				break;
 8003788:	e021      	b.n	80037ce <configMPUAccel+0xee>
			}case ACCEL_4G :{

				byte |= (ACCEL_4G << 3);
 800378a:	7bbb      	ldrb	r3, [r7, #14]
 800378c:	f043 0308 	orr.w	r3, r3, #8
 8003790:	73bb      	strb	r3, [r7, #14]
				writeData(ptrMPUAccel, 0x1C, byte);
 8003792:	7bbb      	ldrb	r3, [r7, #14]
 8003794:	461a      	mov	r2, r3
 8003796:	211c      	movs	r1, #28
 8003798:	6878      	ldr	r0, [r7, #4]
 800379a:	f000 f86b 	bl	8003874 <writeData>


				break;
 800379e:	e016      	b.n	80037ce <configMPUAccel+0xee>
			}case ACCEL_8G :{

				byte |= (ACCEL_8G << 3);
 80037a0:	7bbb      	ldrb	r3, [r7, #14]
 80037a2:	f043 0310 	orr.w	r3, r3, #16
 80037a6:	73bb      	strb	r3, [r7, #14]
				writeData(ptrMPUAccel, 0x1C, byte);
 80037a8:	7bbb      	ldrb	r3, [r7, #14]
 80037aa:	461a      	mov	r2, r3
 80037ac:	211c      	movs	r1, #28
 80037ae:	6878      	ldr	r0, [r7, #4]
 80037b0:	f000 f860 	bl	8003874 <writeData>


				break;
 80037b4:	e00b      	b.n	80037ce <configMPUAccel+0xee>
			}case ACCEL_16G :{

				byte |= (ACCEL_16G << 3);
 80037b6:	7bbb      	ldrb	r3, [r7, #14]
 80037b8:	f043 0318 	orr.w	r3, r3, #24
 80037bc:	73bb      	strb	r3, [r7, #14]
				writeData(ptrMPUAccel, 0x1C, byte);
 80037be:	7bbb      	ldrb	r3, [r7, #14]
 80037c0:	461a      	mov	r2, r3
 80037c2:	211c      	movs	r1, #28
 80037c4:	6878      	ldr	r0, [r7, #4]
 80037c6:	f000 f855 	bl	8003874 <writeData>


				break;
 80037ca:	e000      	b.n	80037ce <configMPUAccel+0xee>
			}default:{
				break;
 80037cc:	bf00      	nop
			}

		}
		byte = readData(ptrMPUAccel, 0x1C);
 80037ce:	211c      	movs	r1, #28
 80037d0:	6878      	ldr	r0, [r7, #4]
 80037d2:	f000 f89a 	bl	800390a <readData>
 80037d6:	4603      	mov	r3, r0
 80037d8:	73bb      	strb	r3, [r7, #14]

		//Preguntamos por el Range del giroscopio pedido por el usuario, puede ser +-250, +-500, +-1000, +-2000 (/segundo)
		byte = readData(ptrMPUAccel, 0x1B);
 80037da:	211b      	movs	r1, #27
 80037dc:	6878      	ldr	r0, [r7, #4]
 80037de:	f000 f894 	bl	800390a <readData>
 80037e2:	4603      	mov	r3, r0
 80037e4:	73bb      	strb	r3, [r7, #14]
		byte &= ~(0b00011000) ;
 80037e6:	7bbb      	ldrb	r3, [r7, #14]
 80037e8:	f023 0318 	bic.w	r3, r3, #24
 80037ec:	73bb      	strb	r3, [r7, #14]
		switch (ptrMPUAccel->fullScaleGYRO){
 80037ee:	687b      	ldr	r3, [r7, #4]
 80037f0:	785b      	ldrb	r3, [r3, #1]
 80037f2:	2b03      	cmp	r3, #3
 80037f4:	d832      	bhi.n	800385c <configMPUAccel+0x17c>
 80037f6:	a201      	add	r2, pc, #4	; (adr r2, 80037fc <configMPUAccel+0x11c>)
 80037f8:	f852 f023 	ldr.w	pc, [r2, r3, lsl #2]
 80037fc:	0800380d 	.word	0x0800380d
 8003800:	0800381b 	.word	0x0800381b
 8003804:	08003831 	.word	0x08003831
 8003808:	08003847 	.word	0x08003847
			case GYRO_250 :{

				byte |= (GYRO_250 << 3);
				writeData(ptrMPUAccel, 0x1B, byte);
 800380c:	7bbb      	ldrb	r3, [r7, #14]
 800380e:	461a      	mov	r2, r3
 8003810:	211b      	movs	r1, #27
 8003812:	6878      	ldr	r0, [r7, #4]
 8003814:	f000 f82e 	bl	8003874 <writeData>


				break;
 8003818:	e021      	b.n	800385e <configMPUAccel+0x17e>
			}case GYRO_500 :{

				byte |= (GYRO_500 << 3);
 800381a:	7bbb      	ldrb	r3, [r7, #14]
 800381c:	f043 0308 	orr.w	r3, r3, #8
 8003820:	73bb      	strb	r3, [r7, #14]
				writeData(ptrMPUAccel, 0x1B, byte);
 8003822:	7bbb      	ldrb	r3, [r7, #14]
 8003824:	461a      	mov	r2, r3
 8003826:	211b      	movs	r1, #27
 8003828:	6878      	ldr	r0, [r7, #4]
 800382a:	f000 f823 	bl	8003874 <writeData>


				break;
 800382e:	e016      	b.n	800385e <configMPUAccel+0x17e>
			}case GYRO_1000 :{

				byte |= (GYRO_1000 << 3);
 8003830:	7bbb      	ldrb	r3, [r7, #14]
 8003832:	f043 0310 	orr.w	r3, r3, #16
 8003836:	73bb      	strb	r3, [r7, #14]
				writeData(ptrMPUAccel, 0x1B, byte);
 8003838:	7bbb      	ldrb	r3, [r7, #14]
 800383a:	461a      	mov	r2, r3
 800383c:	211b      	movs	r1, #27
 800383e:	6878      	ldr	r0, [r7, #4]
 8003840:	f000 f818 	bl	8003874 <writeData>


				break;
 8003844:	e00b      	b.n	800385e <configMPUAccel+0x17e>
			}case GYRO_2000 :{

				byte |= (GYRO_2000 << 3);
 8003846:	7bbb      	ldrb	r3, [r7, #14]
 8003848:	f043 0318 	orr.w	r3, r3, #24
 800384c:	73bb      	strb	r3, [r7, #14]
				writeData(ptrMPUAccel, 0x1B, byte);
 800384e:	7bbb      	ldrb	r3, [r7, #14]
 8003850:	461a      	mov	r2, r3
 8003852:	211b      	movs	r1, #27
 8003854:	6878      	ldr	r0, [r7, #4]
 8003856:	f000 f80d 	bl	8003874 <writeData>


				break;
 800385a:	e000      	b.n	800385e <configMPUAccel+0x17e>
			}default:{
				break;
 800385c:	bf00      	nop
			}

		}
		byte = readData(ptrMPUAccel, 0x1B);
 800385e:	211b      	movs	r1, #27
 8003860:	6878      	ldr	r0, [r7, #4]
 8003862:	f000 f852 	bl	800390a <readData>
 8003866:	4603      	mov	r3, r0
 8003868:	73bb      	strb	r3, [r7, #14]


}
 800386a:	bf00      	nop
 800386c:	3710      	adds	r7, #16
 800386e:	46bd      	mov	sp, r7
 8003870:	bd80      	pop	{r7, pc}
 8003872:	bf00      	nop

08003874 <writeData>:



// En esta funcion escribimos la secuencia para escritura propia del MCU
void writeData (MPUAccel_Config *ptrMPUAccel, uint8_t RA, uint8_t data){
 8003874:	b580      	push	{r7, lr}
 8003876:	b082      	sub	sp, #8
 8003878:	af00      	add	r7, sp, #0
 800387a:	6078      	str	r0, [r7, #4]
 800387c:	460b      	mov	r3, r1
 800387e:	70fb      	strb	r3, [r7, #3]
 8003880:	4613      	mov	r3, r2
 8003882:	70bb      	strb	r3, [r7, #2]
	//Limpiamos la bandera AF por si antes se levanto
	ptrMPUAccel->ptrI2Chandler->ptrI2Cx->SR1 &= ~(I2C_SR1_AF);
 8003884:	687b      	ldr	r3, [r7, #4]
 8003886:	68db      	ldr	r3, [r3, #12]
 8003888:	681b      	ldr	r3, [r3, #0]
 800388a:	695a      	ldr	r2, [r3, #20]
 800388c:	687b      	ldr	r3, [r7, #4]
 800388e:	68db      	ldr	r3, [r3, #12]
 8003890:	681b      	ldr	r3, [r3, #0]
 8003892:	f422 6280 	bic.w	r2, r2, #1024	; 0x400
 8003896:	615a      	str	r2, [r3, #20]

	//Comenzamos la transaccin
	i2c_startTransaction (ptrMPUAccel->ptrI2Chandler);
 8003898:	687b      	ldr	r3, [r7, #4]
 800389a:	68db      	ldr	r3, [r3, #12]
 800389c:	4618      	mov	r0, r3
 800389e:	f001 ffc3 	bl	8005828 <i2c_startTransaction>

	//Mandamos el Address correspondiente y el bit escribir
	i2c_sendSlaveAddressRW(ptrMPUAccel->ptrI2Chandler, ptrMPUAccel->ptrI2Chandler->I2C_Config.slaveAddress, I2C_WRITE_DATA);
 80038a2:	687b      	ldr	r3, [r7, #4]
 80038a4:	68d8      	ldr	r0, [r3, #12]
 80038a6:	687b      	ldr	r3, [r7, #4]
 80038a8:	68db      	ldr	r3, [r3, #12]
 80038aa:	791b      	ldrb	r3, [r3, #4]
 80038ac:	2200      	movs	r2, #0
 80038ae:	4619      	mov	r1, r3
 80038b0:	f002 f80d 	bl	80058ce <i2c_sendSlaveAddressRW>

	// Dentro de la funcion anterior ya esta la espera respectiva para el ACK que debe mandar el Slave
	i2c_sendMemoryAddress(ptrMPUAccel->ptrI2Chandler, RA);
 80038b4:	687b      	ldr	r3, [r7, #4]
 80038b6:	68db      	ldr	r3, [r3, #12]
 80038b8:	78fa      	ldrb	r2, [r7, #3]
 80038ba:	4611      	mov	r1, r2
 80038bc:	4618      	mov	r0, r3
 80038be:	f002 f82e 	bl	800591e <i2c_sendMemoryAddress>

	// Esperamos el ACK que debe de mandar el Slave
	while (ptrMPUAccel->ptrI2Chandler->ptrI2Cx->SR1 & I2C_SR1_AF){
 80038c2:	e000      	b.n	80038c6 <writeData+0x52>
		__NOP();
 80038c4:	bf00      	nop
	while (ptrMPUAccel->ptrI2Chandler->ptrI2Cx->SR1 & I2C_SR1_AF){
 80038c6:	687b      	ldr	r3, [r7, #4]
 80038c8:	68db      	ldr	r3, [r3, #12]
 80038ca:	681b      	ldr	r3, [r3, #0]
 80038cc:	695b      	ldr	r3, [r3, #20]
 80038ce:	f403 6380 	and.w	r3, r3, #1024	; 0x400
 80038d2:	2b00      	cmp	r3, #0
 80038d4:	d1f6      	bne.n	80038c4 <writeData+0x50>
	}

	i2c_sendDataByte(ptrMPUAccel->ptrI2Chandler, data);
 80038d6:	687b      	ldr	r3, [r7, #4]
 80038d8:	68db      	ldr	r3, [r3, #12]
 80038da:	78ba      	ldrb	r2, [r7, #2]
 80038dc:	4611      	mov	r1, r2
 80038de:	4618      	mov	r0, r3
 80038e0:	f002 f837 	bl	8005952 <i2c_sendDataByte>

	// Esperamos el ACK que debe de mandar el Slave
	while (ptrMPUAccel->ptrI2Chandler->ptrI2Cx->SR1 & I2C_SR1_AF){
 80038e4:	e000      	b.n	80038e8 <writeData+0x74>
		__NOP();
 80038e6:	bf00      	nop
	while (ptrMPUAccel->ptrI2Chandler->ptrI2Cx->SR1 & I2C_SR1_AF){
 80038e8:	687b      	ldr	r3, [r7, #4]
 80038ea:	68db      	ldr	r3, [r3, #12]
 80038ec:	681b      	ldr	r3, [r3, #0]
 80038ee:	695b      	ldr	r3, [r3, #20]
 80038f0:	f403 6380 	and.w	r3, r3, #1024	; 0x400
 80038f4:	2b00      	cmp	r3, #0
 80038f6:	d1f6      	bne.n	80038e6 <writeData+0x72>
	}

	i2c_stopTransaction(ptrMPUAccel->ptrI2Chandler);
 80038f8:	687b      	ldr	r3, [r7, #4]
 80038fa:	68db      	ldr	r3, [r3, #12]
 80038fc:	4618      	mov	r0, r3
 80038fe:	f001 ff81 	bl	8005804 <i2c_stopTransaction>



}
 8003902:	bf00      	nop
 8003904:	3708      	adds	r7, #8
 8003906:	46bd      	mov	sp, r7
 8003908:	bd80      	pop	{r7, pc}

0800390a <readData>:

// En esta funcion escribimos la secuencia para lectura propia del MCU
uint8_t readData (MPUAccel_Config *ptrMPUAccel, uint8_t RA){
 800390a:	b580      	push	{r7, lr}
 800390c:	b084      	sub	sp, #16
 800390e:	af00      	add	r7, sp, #0
 8003910:	6078      	str	r0, [r7, #4]
 8003912:	460b      	mov	r3, r1
 8003914:	70fb      	strb	r3, [r7, #3]

	/* 0. Creamos una variable auxiliar para recribir el dato que leemos*/
	uint8_t auxRead = 0;
 8003916:	2300      	movs	r3, #0
 8003918:	73fb      	strb	r3, [r7, #15]

	//Limpiamos la bandera AF por si antes se levanto
	ptrMPUAccel->ptrI2Chandler->ptrI2Cx->SR1 &= ~(I2C_SR1_AF);
 800391a:	687b      	ldr	r3, [r7, #4]
 800391c:	68db      	ldr	r3, [r3, #12]
 800391e:	681b      	ldr	r3, [r3, #0]
 8003920:	695a      	ldr	r2, [r3, #20]
 8003922:	687b      	ldr	r3, [r7, #4]
 8003924:	68db      	ldr	r3, [r3, #12]
 8003926:	681b      	ldr	r3, [r3, #0]
 8003928:	f422 6280 	bic.w	r2, r2, #1024	; 0x400
 800392c:	615a      	str	r2, [r3, #20]

	//Comenzamos la transaccin
	i2c_startTransaction (ptrMPUAccel->ptrI2Chandler);
 800392e:	687b      	ldr	r3, [r7, #4]
 8003930:	68db      	ldr	r3, [r3, #12]
 8003932:	4618      	mov	r0, r3
 8003934:	f001 ff78 	bl	8005828 <i2c_startTransaction>

	//Mandamos el Address correspondiente y el bit escribir
	i2c_sendSlaveAddressRW(ptrMPUAccel->ptrI2Chandler, ptrMPUAccel->ptrI2Chandler->I2C_Config.slaveAddress, I2C_WRITE_DATA);
 8003938:	687b      	ldr	r3, [r7, #4]
 800393a:	68d8      	ldr	r0, [r3, #12]
 800393c:	687b      	ldr	r3, [r7, #4]
 800393e:	68db      	ldr	r3, [r3, #12]
 8003940:	791b      	ldrb	r3, [r3, #4]
 8003942:	2200      	movs	r2, #0
 8003944:	4619      	mov	r1, r3
 8003946:	f001 ffc2 	bl	80058ce <i2c_sendSlaveAddressRW>
	// Dentro de la funcion anterior ya esta la espera respectiva para el ACK que debe mandar el Slave
	i2c_sendMemoryAddress(ptrMPUAccel->ptrI2Chandler, RA);
 800394a:	687b      	ldr	r3, [r7, #4]
 800394c:	68db      	ldr	r3, [r3, #12]
 800394e:	78fa      	ldrb	r2, [r7, #3]
 8003950:	4611      	mov	r1, r2
 8003952:	4618      	mov	r0, r3
 8003954:	f001 ffe3 	bl	800591e <i2c_sendMemoryAddress>

	// Esperamos el ACK que debe de mandar el Slave
	while (ptrMPUAccel->ptrI2Chandler->ptrI2Cx->SR1 & I2C_SR1_AF){
 8003958:	e000      	b.n	800395c <readData+0x52>
		__NOP();
 800395a:	bf00      	nop
	while (ptrMPUAccel->ptrI2Chandler->ptrI2Cx->SR1 & I2C_SR1_AF){
 800395c:	687b      	ldr	r3, [r7, #4]
 800395e:	68db      	ldr	r3, [r3, #12]
 8003960:	681b      	ldr	r3, [r3, #0]
 8003962:	695b      	ldr	r3, [r3, #20]
 8003964:	f403 6380 	and.w	r3, r3, #1024	; 0x400
 8003968:	2b00      	cmp	r3, #0
 800396a:	d1f6      	bne.n	800395a <readData+0x50>
	}

	// Comenzamos el reestar
	i2c_reStartTransaction(ptrMPUAccel->ptrI2Chandler);
 800396c:	687b      	ldr	r3, [r7, #4]
 800396e:	68db      	ldr	r3, [r3, #12]
 8003970:	4618      	mov	r0, r3
 8003972:	f001 ff7e 	bl	8005872 <i2c_reStartTransaction>
	// Ya dentro de la anterior funcion esta la espera a que comience el bit de start
	//Volvemos a mandar el Address con el bit de read (1)
	i2c_sendSlaveAddressRW(ptrMPUAccel->ptrI2Chandler, ptrMPUAccel->ptrI2Chandler->I2C_Config.slaveAddress, I2C_READ_DATA);
 8003976:	687b      	ldr	r3, [r7, #4]
 8003978:	68d8      	ldr	r0, [r3, #12]
 800397a:	687b      	ldr	r3, [r7, #4]
 800397c:	68db      	ldr	r3, [r3, #12]
 800397e:	791b      	ldrb	r3, [r3, #4]
 8003980:	2201      	movs	r2, #1
 8003982:	4619      	mov	r1, r3
 8003984:	f001 ffa3 	bl	80058ce <i2c_sendSlaveAddressRW>
	// Mandamos el noAcknowledge despues de recibir el dato respectivo
	i2c_sendNoAck(ptrMPUAccel->ptrI2Chandler);
 8003988:	687b      	ldr	r3, [r7, #4]
 800398a:	68db      	ldr	r3, [r3, #12]
 800398c:	4618      	mov	r0, r3
 800398e:	f001 ff8c 	bl	80058aa <i2c_sendNoAck>
	// Paramos la transaccin
	i2c_stopTransaction(ptrMPUAccel->ptrI2Chandler);
 8003992:	687b      	ldr	r3, [r7, #4]
 8003994:	68db      	ldr	r3, [r3, #12]
 8003996:	4618      	mov	r0, r3
 8003998:	f001 ff34 	bl	8005804 <i2c_stopTransaction>
	auxRead = i2c_readDataByte(ptrMPUAccel->ptrI2Chandler);
 800399c:	687b      	ldr	r3, [r7, #4]
 800399e:	68db      	ldr	r3, [r3, #12]
 80039a0:	4618      	mov	r0, r3
 80039a2:	f001 fff0 	bl	8005986 <i2c_readDataByte>
 80039a6:	4603      	mov	r3, r0
 80039a8:	73fb      	strb	r3, [r7, #15]
	return auxRead;
 80039aa:	7bfb      	ldrb	r3, [r7, #15]
}
 80039ac:	4618      	mov	r0, r3
 80039ae:	3710      	adds	r7, #16
 80039b0:	46bd      	mov	sp, r7
 80039b2:	bd80      	pop	{r7, pc}

080039b4 <WHOIAM>:


}

//Esta funcion permite verificar comunicacion correcta con el MPU
uint8_t WHOIAM (MPUAccel_Config *ptrMPUAccel){
 80039b4:	b580      	push	{r7, lr}
 80039b6:	b084      	sub	sp, #16
 80039b8:	af00      	add	r7, sp, #0
 80039ba:	6078      	str	r0, [r7, #4]

	uint8_t whoami = 0;
 80039bc:	2300      	movs	r3, #0
 80039be:	73fb      	strb	r3, [r7, #15]
	uint8_t rdy    = 0;
 80039c0:	2300      	movs	r3, #0
 80039c2:	73bb      	strb	r3, [r7, #14]

	//leemos el registro 0x75 correspondiente
	whoami = readData(ptrMPUAccel, 0x75);
 80039c4:	2175      	movs	r1, #117	; 0x75
 80039c6:	6878      	ldr	r0, [r7, #4]
 80039c8:	f7ff ff9f 	bl	800390a <readData>
 80039cc:	4603      	mov	r3, r0
 80039ce:	73fb      	strb	r3, [r7, #15]

	// verificamos la transaccin

	whoami &= ~(129);
 80039d0:	7bfb      	ldrb	r3, [r7, #15]
 80039d2:	f003 037e 	and.w	r3, r3, #126	; 0x7e
 80039d6:	73fb      	strb	r3, [r7, #15]

	rdy = (ADDRESS_DOWN >> 1) && (whoami >> 1);
 80039d8:	7bfb      	ldrb	r3, [r7, #15]
 80039da:	085b      	lsrs	r3, r3, #1
 80039dc:	b2db      	uxtb	r3, r3
 80039de:	2b00      	cmp	r3, #0
 80039e0:	bf14      	ite	ne
 80039e2:	2301      	movne	r3, #1
 80039e4:	2300      	moveq	r3, #0
 80039e6:	b2db      	uxtb	r3, r3
 80039e8:	73bb      	strb	r3, [r7, #14]

	return rdy;
 80039ea:	7bbb      	ldrb	r3, [r7, #14]

}
 80039ec:	4618      	mov	r0, r3
 80039ee:	3710      	adds	r7, #16
 80039f0:	46bd      	mov	sp, r7
 80039f2:	bd80      	pop	{r7, pc}
 80039f4:	0000      	movs	r0, r0
	...

080039f8 <readGyro_Z>:

	return GYROY_R;

}

float readGyro_Z  (MPUAccel_Config *ptrMPUAccel){
 80039f8:	b580      	push	{r7, lr}
 80039fa:	b086      	sub	sp, #24
 80039fc:	af00      	add	r7, sp, #0
 80039fe:	6078      	str	r0, [r7, #4]

	//Creamos las variables donde almacenamos todos los datos

	int16_t  GYROZ_H  = 0;
 8003a00:	2300      	movs	r3, #0
 8003a02:	81fb      	strh	r3, [r7, #14]
	int16_t  GYROZ_L  = 0;
 8003a04:	2300      	movs	r3, #0
 8003a06:	81bb      	strh	r3, [r7, #12]
	int16_t  GYROZ    = 0;
 8003a08:	2300      	movs	r3, #0
 8003a0a:	817b      	strh	r3, [r7, #10]
	double   GYROZ_R   = 0;
 8003a0c:	f04f 0200 	mov.w	r2, #0
 8003a10:	f04f 0300 	mov.w	r3, #0
 8003a14:	e9c7 2304 	strd	r2, r3, [r7, #16]

	// Llamamos los bytes alto y bajo de los registros 0x47 y 0x48 respectivamente para el eje Z
	GYROZ_H = readData(ptrMPUAccel, 0x47);
 8003a18:	2147      	movs	r1, #71	; 0x47
 8003a1a:	6878      	ldr	r0, [r7, #4]
 8003a1c:	f7ff ff75 	bl	800390a <readData>
 8003a20:	4603      	mov	r3, r0
 8003a22:	81fb      	strh	r3, [r7, #14]
	GYROZ_L = readData(ptrMPUAccel, 0x48);
 8003a24:	2148      	movs	r1, #72	; 0x48
 8003a26:	6878      	ldr	r0, [r7, #4]
 8003a28:	f7ff ff6f 	bl	800390a <readData>
 8003a2c:	4603      	mov	r3, r0
 8003a2e:	81bb      	strh	r3, [r7, #12]

	//Juntamos ambos bytes en un solo numero para tener la lectura completa del ADC;
	GYROZ = (GYROZ_H << 8) | (GYROZ_L);
 8003a30:	f9b7 300e 	ldrsh.w	r3, [r7, #14]
 8003a34:	021b      	lsls	r3, r3, #8
 8003a36:	b21a      	sxth	r2, r3
 8003a38:	89bb      	ldrh	r3, [r7, #12]
 8003a3a:	4313      	orrs	r3, r2
 8003a3c:	817b      	strh	r3, [r7, #10]

	// Como queremos es el dato de cuantos dps hay , entonces dividimos GYROZ por la sensibilidad respectiva
	// Preguntamos que caso de rango se tiene para este caso
	switch (ptrMPUAccel->fullScaleGYRO){
 8003a3e:	687b      	ldr	r3, [r7, #4]
 8003a40:	785b      	ldrb	r3, [r3, #1]
 8003a42:	2b03      	cmp	r3, #3
 8003a44:	d846      	bhi.n	8003ad4 <readGyro_Z+0xdc>
 8003a46:	a201      	add	r2, pc, #4	; (adr r2, 8003a4c <readGyro_Z+0x54>)
 8003a48:	f852 f023 	ldr.w	pc, [r2, r3, lsl #2]
 8003a4c:	08003a5d 	.word	0x08003a5d
 8003a50:	08003a7b 	.word	0x08003a7b
 8003a54:	08003a99 	.word	0x08003a99
 8003a58:	08003ab7 	.word	0x08003ab7
		case GYRO_250 :{

			GYROZ_R = GYROZ / (double) GYRO_250_SENS ;
 8003a5c:	f9b7 300a 	ldrsh.w	r3, [r7, #10]
 8003a60:	4618      	mov	r0, r3
 8003a62:	f7fc fd67 	bl	8000534 <__aeabi_i2d>
 8003a66:	a325      	add	r3, pc, #148	; (adr r3, 8003afc <readGyro_Z+0x104>)
 8003a68:	e9d3 2300 	ldrd	r2, r3, [r3]
 8003a6c:	f7fc fef6 	bl	800085c <__aeabi_ddiv>
 8003a70:	4602      	mov	r2, r0
 8003a72:	460b      	mov	r3, r1
 8003a74:	e9c7 2304 	strd	r2, r3, [r7, #16]

			break;
 8003a78:	e02d      	b.n	8003ad6 <readGyro_Z+0xde>
		}case GYRO_500 :{

			GYROZ_R = GYROZ /  (double) GYRO_500_SENS ;
 8003a7a:	f9b7 300a 	ldrsh.w	r3, [r7, #10]
 8003a7e:	4618      	mov	r0, r3
 8003a80:	f7fc fd58 	bl	8000534 <__aeabi_i2d>
 8003a84:	f04f 0200 	mov.w	r2, #0
 8003a88:	4b19      	ldr	r3, [pc, #100]	; (8003af0 <readGyro_Z+0xf8>)
 8003a8a:	f7fc fee7 	bl	800085c <__aeabi_ddiv>
 8003a8e:	4602      	mov	r2, r0
 8003a90:	460b      	mov	r3, r1
 8003a92:	e9c7 2304 	strd	r2, r3, [r7, #16]

			break;
 8003a96:	e01e      	b.n	8003ad6 <readGyro_Z+0xde>
		}case GYRO_1000 :{

			GYROZ_R = GYROZ / (double)  GYRO_1000_SENS;
 8003a98:	f9b7 300a 	ldrsh.w	r3, [r7, #10]
 8003a9c:	4618      	mov	r0, r3
 8003a9e:	f7fc fd49 	bl	8000534 <__aeabi_i2d>
 8003aa2:	f04f 0200 	mov.w	r2, #0
 8003aa6:	4b13      	ldr	r3, [pc, #76]	; (8003af4 <readGyro_Z+0xfc>)
 8003aa8:	f7fc fed8 	bl	800085c <__aeabi_ddiv>
 8003aac:	4602      	mov	r2, r0
 8003aae:	460b      	mov	r3, r1
 8003ab0:	e9c7 2304 	strd	r2, r3, [r7, #16]

			break;
 8003ab4:	e00f      	b.n	8003ad6 <readGyro_Z+0xde>
		}case GYRO_2000 :{

			GYROZ_R = GYROZ / (double) GYRO_2000_SENS;
 8003ab6:	f9b7 300a 	ldrsh.w	r3, [r7, #10]
 8003aba:	4618      	mov	r0, r3
 8003abc:	f7fc fd3a 	bl	8000534 <__aeabi_i2d>
 8003ac0:	f04f 0200 	mov.w	r2, #0
 8003ac4:	4b0c      	ldr	r3, [pc, #48]	; (8003af8 <readGyro_Z+0x100>)
 8003ac6:	f7fc fec9 	bl	800085c <__aeabi_ddiv>
 8003aca:	4602      	mov	r2, r0
 8003acc:	460b      	mov	r3, r1
 8003ace:	e9c7 2304 	strd	r2, r3, [r7, #16]

			break;
 8003ad2:	e000      	b.n	8003ad6 <readGyro_Z+0xde>
		}default:{
			break;
 8003ad4:	bf00      	nop
		}

	}

	return GYROZ_R;
 8003ad6:	e9d7 0104 	ldrd	r0, r1, [r7, #16]
 8003ada:	f7fd f88d 	bl	8000bf8 <__aeabi_d2f>
 8003ade:	4603      	mov	r3, r0
 8003ae0:	ee07 3a90 	vmov	s15, r3

}
 8003ae4:	eeb0 0a67 	vmov.f32	s0, s15
 8003ae8:	3718      	adds	r7, #24
 8003aea:	46bd      	mov	sp, r7
 8003aec:	bd80      	pop	{r7, pc}
 8003aee:	bf00      	nop
 8003af0:	40508000 	.word	0x40508000
 8003af4:	40408000 	.word	0x40408000
 8003af8:	40300000 	.word	0x40300000
 8003afc:	00000000 	.word	0x00000000
 8003b00:	40606000 	.word	0x40606000

08003b04 <pwm_Config>:

uint16_t periodo = 0;


/**/
void pwm_Config(PWM_Handler_t *ptrPwmHandler){
 8003b04:	b580      	push	{r7, lr}
 8003b06:	b082      	sub	sp, #8
 8003b08:	af00      	add	r7, sp, #0
 8003b0a:	6078      	str	r0, [r7, #4]

	/* 1. Activar la seal de reloj del perifrico requerido */
	if (ptrPwmHandler->ptrTIMx == TIM1){
 8003b0c:	687b      	ldr	r3, [r7, #4]
 8003b0e:	681b      	ldr	r3, [r3, #0]
 8003b10:	4a6c      	ldr	r2, [pc, #432]	; (8003cc4 <pwm_Config+0x1c0>)
 8003b12:	4293      	cmp	r3, r2
 8003b14:	d106      	bne.n	8003b24 <pwm_Config+0x20>
		RCC->APB2ENR |= RCC_APB2ENR_TIM1EN;
 8003b16:	4b6c      	ldr	r3, [pc, #432]	; (8003cc8 <pwm_Config+0x1c4>)
 8003b18:	6c5b      	ldr	r3, [r3, #68]	; 0x44
 8003b1a:	4a6b      	ldr	r2, [pc, #428]	; (8003cc8 <pwm_Config+0x1c4>)
 8003b1c:	f043 0301 	orr.w	r3, r3, #1
 8003b20:	6453      	str	r3, [r2, #68]	; 0x44
 8003b22:	e030      	b.n	8003b86 <pwm_Config+0x82>

	}else if(ptrPwmHandler->ptrTIMx == TIM2){
 8003b24:	687b      	ldr	r3, [r7, #4]
 8003b26:	681b      	ldr	r3, [r3, #0]
 8003b28:	f1b3 4f80 	cmp.w	r3, #1073741824	; 0x40000000
 8003b2c:	d106      	bne.n	8003b3c <pwm_Config+0x38>
		RCC->APB1ENR |= RCC_APB1ENR_TIM2EN;
 8003b2e:	4b66      	ldr	r3, [pc, #408]	; (8003cc8 <pwm_Config+0x1c4>)
 8003b30:	6c1b      	ldr	r3, [r3, #64]	; 0x40
 8003b32:	4a65      	ldr	r2, [pc, #404]	; (8003cc8 <pwm_Config+0x1c4>)
 8003b34:	f043 0301 	orr.w	r3, r3, #1
 8003b38:	6413      	str	r3, [r2, #64]	; 0x40
 8003b3a:	e024      	b.n	8003b86 <pwm_Config+0x82>
	}
	else if(ptrPwmHandler->ptrTIMx == TIM3){
 8003b3c:	687b      	ldr	r3, [r7, #4]
 8003b3e:	681b      	ldr	r3, [r3, #0]
 8003b40:	4a62      	ldr	r2, [pc, #392]	; (8003ccc <pwm_Config+0x1c8>)
 8003b42:	4293      	cmp	r3, r2
 8003b44:	d106      	bne.n	8003b54 <pwm_Config+0x50>
		RCC->APB1ENR |= RCC_APB1ENR_TIM3EN;
 8003b46:	4b60      	ldr	r3, [pc, #384]	; (8003cc8 <pwm_Config+0x1c4>)
 8003b48:	6c1b      	ldr	r3, [r3, #64]	; 0x40
 8003b4a:	4a5f      	ldr	r2, [pc, #380]	; (8003cc8 <pwm_Config+0x1c4>)
 8003b4c:	f043 0302 	orr.w	r3, r3, #2
 8003b50:	6413      	str	r3, [r2, #64]	; 0x40
 8003b52:	e018      	b.n	8003b86 <pwm_Config+0x82>
	}
	else if(ptrPwmHandler->ptrTIMx == TIM4){
 8003b54:	687b      	ldr	r3, [r7, #4]
 8003b56:	681b      	ldr	r3, [r3, #0]
 8003b58:	4a5d      	ldr	r2, [pc, #372]	; (8003cd0 <pwm_Config+0x1cc>)
 8003b5a:	4293      	cmp	r3, r2
 8003b5c:	d106      	bne.n	8003b6c <pwm_Config+0x68>
		RCC->APB1ENR |= RCC_APB1ENR_TIM4EN;
 8003b5e:	4b5a      	ldr	r3, [pc, #360]	; (8003cc8 <pwm_Config+0x1c4>)
 8003b60:	6c1b      	ldr	r3, [r3, #64]	; 0x40
 8003b62:	4a59      	ldr	r2, [pc, #356]	; (8003cc8 <pwm_Config+0x1c4>)
 8003b64:	f043 0304 	orr.w	r3, r3, #4
 8003b68:	6413      	str	r3, [r2, #64]	; 0x40
 8003b6a:	e00c      	b.n	8003b86 <pwm_Config+0x82>
	}
	else if(ptrPwmHandler->ptrTIMx == TIM5){
 8003b6c:	687b      	ldr	r3, [r7, #4]
 8003b6e:	681b      	ldr	r3, [r3, #0]
 8003b70:	4a58      	ldr	r2, [pc, #352]	; (8003cd4 <pwm_Config+0x1d0>)
 8003b72:	4293      	cmp	r3, r2
 8003b74:	d106      	bne.n	8003b84 <pwm_Config+0x80>
		RCC->APB1ENR |= RCC_APB1ENR_TIM5EN;
 8003b76:	4b54      	ldr	r3, [pc, #336]	; (8003cc8 <pwm_Config+0x1c4>)
 8003b78:	6c1b      	ldr	r3, [r3, #64]	; 0x40
 8003b7a:	4a53      	ldr	r2, [pc, #332]	; (8003cc8 <pwm_Config+0x1c4>)
 8003b7c:	f043 0308 	orr.w	r3, r3, #8
 8003b80:	6413      	str	r3, [r2, #64]	; 0x40
 8003b82:	e000      	b.n	8003b86 <pwm_Config+0x82>
	}
	else{
		__NOP();
 8003b84:	bf00      	nop
	}

	//Dejamos una relacion 1 a 1 para la velocidad de conteo del timer
	ptrPwmHandler->ptrTIMx->CR1 &= ~(TIM_CR1_CKD);
 8003b86:	687b      	ldr	r3, [r7, #4]
 8003b88:	681b      	ldr	r3, [r3, #0]
 8003b8a:	681a      	ldr	r2, [r3, #0]
 8003b8c:	687b      	ldr	r3, [r7, #4]
 8003b8e:	681b      	ldr	r3, [r3, #0]
 8003b90:	f422 7240 	bic.w	r2, r2, #768	; 0x300
 8003b94:	601a      	str	r2, [r3, #0]



	// preguntamos si se estan usando optoacopladores

	if(ptrPwmHandler->config.optocoupler == PWM_DISABLE_OPTOCOUPLER){
 8003b96:	687b      	ldr	r3, [r7, #4]
 8003b98:	7d5b      	ldrb	r3, [r3, #21]
 8003b9a:	2b00      	cmp	r3, #0
 8003b9c:	d106      	bne.n	8003bac <pwm_Config+0xa8>
		/* 1. Cargamos la frecuencia deseada */
		setFrequency(ptrPwmHandler);
 8003b9e:	6878      	ldr	r0, [r7, #4]
 8003ba0:	f000 f930 	bl	8003e04 <setFrequency>

		/* 2. Cargamos el valor del dutty-Cycle*/
		setDuttyCycle(ptrPwmHandler);
 8003ba4:	6878      	ldr	r0, [r7, #4]
 8003ba6:	f000 fa47 	bl	8004038 <setDuttyCycle>
 8003baa:	e005      	b.n	8003bb8 <pwm_Config+0xb4>
	}else{

		/* 1. Cargamos la frecuencia deseada */
		setFrequency(ptrPwmHandler);
 8003bac:	6878      	ldr	r0, [r7, #4]
 8003bae:	f000 f929 	bl	8003e04 <setFrequency>

		/* 2. Cargamos el valor del dutty-Cycle*/
		setDuttyCycleAfOpt(ptrPwmHandler);
 8003bb2:	6878      	ldr	r0, [r7, #4]
 8003bb4:	f000 fb18 	bl	80041e8 <setDuttyCycleAfOpt>
	}

	/* 2a. Estamos en UP_Mode, el limite se carga en ARR y se comienza en 0 */
	ptrPwmHandler->ptrTIMx->CR1 &= ~TIM_CR1_DIR;
 8003bb8:	687b      	ldr	r3, [r7, #4]
 8003bba:	681b      	ldr	r3, [r3, #0]
 8003bbc:	681a      	ldr	r2, [r3, #0]
 8003bbe:	687b      	ldr	r3, [r7, #4]
 8003bc0:	681b      	ldr	r3, [r3, #0]
 8003bc2:	f022 0210 	bic.w	r2, r2, #16
 8003bc6:	601a      	str	r2, [r3, #0]


	ptrPwmHandler->ptrTIMx->CNT = 0;
 8003bc8:	687b      	ldr	r3, [r7, #4]
 8003bca:	681b      	ldr	r3, [r3, #0]
 8003bcc:	2200      	movs	r2, #0
 8003bce:	625a      	str	r2, [r3, #36]	; 0x24
	 *
	 * 4. Adems, en el mismo "case" podemos configurar el modo del PWM, su polaridad...
	 *
	 * 5. Y adems activamos el preload bit, para que cada vez que exista un update-event
	 * el valor cargado en el CCRx ser recargado en el registro "shadow" del PWM */
	switch(ptrPwmHandler->config.channel){
 8003bd0:	687b      	ldr	r3, [r7, #4]
 8003bd2:	791b      	ldrb	r3, [r3, #4]
 8003bd4:	2b03      	cmp	r3, #3
 8003bd6:	d86f      	bhi.n	8003cb8 <pwm_Config+0x1b4>
 8003bd8:	a201      	add	r2, pc, #4	; (adr r2, 8003be0 <pwm_Config+0xdc>)
 8003bda:	f852 f023 	ldr.w	pc, [r2, r3, lsl #2]
 8003bde:	bf00      	nop
 8003be0:	08003bf1 	.word	0x08003bf1
 8003be4:	08003c23 	.word	0x08003c23
 8003be8:	08003c55 	.word	0x08003c55
 8003bec:	08003c87 	.word	0x08003c87
	case PWM_CHANNEL_1:{
		// Seleccionamos como salida el canal
		ptrPwmHandler->ptrTIMx->CCMR1 &= ~TIM_CCMR1_CC1S;
 8003bf0:	687b      	ldr	r3, [r7, #4]
 8003bf2:	681b      	ldr	r3, [r3, #0]
 8003bf4:	699a      	ldr	r2, [r3, #24]
 8003bf6:	687b      	ldr	r3, [r7, #4]
 8003bf8:	681b      	ldr	r3, [r3, #0]
 8003bfa:	f022 0203 	bic.w	r2, r2, #3
 8003bfe:	619a      	str	r2, [r3, #24]

		// Configuramos el canal como PWM
		ptrPwmHandler->ptrTIMx->CCMR1 |= TIM_CCMR1_OC1M_1 | TIM_CCMR1_OC1M_2;
 8003c00:	687b      	ldr	r3, [r7, #4]
 8003c02:	681b      	ldr	r3, [r3, #0]
 8003c04:	699a      	ldr	r2, [r3, #24]
 8003c06:	687b      	ldr	r3, [r7, #4]
 8003c08:	681b      	ldr	r3, [r3, #0]
 8003c0a:	f042 0260 	orr.w	r2, r2, #96	; 0x60
 8003c0e:	619a      	str	r2, [r3, #24]

		// Activamos la funcionalidad de pre-load
		ptrPwmHandler->ptrTIMx->CCMR1 |= TIM_CCMR1_OC1PE;
 8003c10:	687b      	ldr	r3, [r7, #4]
 8003c12:	681b      	ldr	r3, [r3, #0]
 8003c14:	699a      	ldr	r2, [r3, #24]
 8003c16:	687b      	ldr	r3, [r7, #4]
 8003c18:	681b      	ldr	r3, [r3, #0]
 8003c1a:	f042 0208 	orr.w	r2, r2, #8
 8003c1e:	619a      	str	r2, [r3, #24]


		break;
 8003c20:	e04b      	b.n	8003cba <pwm_Config+0x1b6>
	}

	case PWM_CHANNEL_2:{
		// Seleccionamos como salida el canal
		ptrPwmHandler->ptrTIMx->CCMR1 &= ~TIM_CCMR1_CC2S;
 8003c22:	687b      	ldr	r3, [r7, #4]
 8003c24:	681b      	ldr	r3, [r3, #0]
 8003c26:	699a      	ldr	r2, [r3, #24]
 8003c28:	687b      	ldr	r3, [r7, #4]
 8003c2a:	681b      	ldr	r3, [r3, #0]
 8003c2c:	f422 7240 	bic.w	r2, r2, #768	; 0x300
 8003c30:	619a      	str	r2, [r3, #24]

		// Configuramos el canal como PWM
		ptrPwmHandler->ptrTIMx->CCMR1 |= TIM_CCMR1_OC2M_1 | TIM_CCMR1_OC2M_2;
 8003c32:	687b      	ldr	r3, [r7, #4]
 8003c34:	681b      	ldr	r3, [r3, #0]
 8003c36:	699a      	ldr	r2, [r3, #24]
 8003c38:	687b      	ldr	r3, [r7, #4]
 8003c3a:	681b      	ldr	r3, [r3, #0]
 8003c3c:	f442 42c0 	orr.w	r2, r2, #24576	; 0x6000
 8003c40:	619a      	str	r2, [r3, #24]

		// Activamos la funcionalidad de pre-load
		ptrPwmHandler->ptrTIMx->CCMR1 |= TIM_CCMR1_OC2PE;
 8003c42:	687b      	ldr	r3, [r7, #4]
 8003c44:	681b      	ldr	r3, [r3, #0]
 8003c46:	699a      	ldr	r2, [r3, #24]
 8003c48:	687b      	ldr	r3, [r7, #4]
 8003c4a:	681b      	ldr	r3, [r3, #0]
 8003c4c:	f442 6200 	orr.w	r2, r2, #2048	; 0x800
 8003c50:	619a      	str	r2, [r3, #24]

		break;
 8003c52:	e032      	b.n	8003cba <pwm_Config+0x1b6>
	}

	case PWM_CHANNEL_3:{
			// Seleccionamos como salida el canal
		ptrPwmHandler->ptrTIMx->CCMR2 &= ~TIM_CCMR2_CC3S;
 8003c54:	687b      	ldr	r3, [r7, #4]
 8003c56:	681b      	ldr	r3, [r3, #0]
 8003c58:	69da      	ldr	r2, [r3, #28]
 8003c5a:	687b      	ldr	r3, [r7, #4]
 8003c5c:	681b      	ldr	r3, [r3, #0]
 8003c5e:	f022 0203 	bic.w	r2, r2, #3
 8003c62:	61da      	str	r2, [r3, #28]

		// Configuramos el canal como PWM
		ptrPwmHandler->ptrTIMx->CCMR2 |= TIM_CCMR2_OC3M_1 | TIM_CCMR2_OC3M_2;
 8003c64:	687b      	ldr	r3, [r7, #4]
 8003c66:	681b      	ldr	r3, [r3, #0]
 8003c68:	69da      	ldr	r2, [r3, #28]
 8003c6a:	687b      	ldr	r3, [r7, #4]
 8003c6c:	681b      	ldr	r3, [r3, #0]
 8003c6e:	f042 0260 	orr.w	r2, r2, #96	; 0x60
 8003c72:	61da      	str	r2, [r3, #28]

		// Activamos la funcionalidad de pre-load
		ptrPwmHandler->ptrTIMx->CCMR2 |= TIM_CCMR2_OC3PE;
 8003c74:	687b      	ldr	r3, [r7, #4]
 8003c76:	681b      	ldr	r3, [r3, #0]
 8003c78:	69da      	ldr	r2, [r3, #28]
 8003c7a:	687b      	ldr	r3, [r7, #4]
 8003c7c:	681b      	ldr	r3, [r3, #0]
 8003c7e:	f042 0208 	orr.w	r2, r2, #8
 8003c82:	61da      	str	r2, [r3, #28]

		break;
 8003c84:	e019      	b.n	8003cba <pwm_Config+0x1b6>
	}
	case PWM_CHANNEL_4:{
			// Seleccionamos como salida el canal
		ptrPwmHandler->ptrTIMx->CCMR2 &= ~TIM_CCMR2_CC4S;
 8003c86:	687b      	ldr	r3, [r7, #4]
 8003c88:	681b      	ldr	r3, [r3, #0]
 8003c8a:	69da      	ldr	r2, [r3, #28]
 8003c8c:	687b      	ldr	r3, [r7, #4]
 8003c8e:	681b      	ldr	r3, [r3, #0]
 8003c90:	f422 7240 	bic.w	r2, r2, #768	; 0x300
 8003c94:	61da      	str	r2, [r3, #28]

		// Configuramos el canal como PWM
		ptrPwmHandler->ptrTIMx->CCMR2 |= TIM_CCMR2_OC4M_1 | TIM_CCMR2_OC4M_2;
 8003c96:	687b      	ldr	r3, [r7, #4]
 8003c98:	681b      	ldr	r3, [r3, #0]
 8003c9a:	69da      	ldr	r2, [r3, #28]
 8003c9c:	687b      	ldr	r3, [r7, #4]
 8003c9e:	681b      	ldr	r3, [r3, #0]
 8003ca0:	f442 42c0 	orr.w	r2, r2, #24576	; 0x6000
 8003ca4:	61da      	str	r2, [r3, #28]

		// Activamos la funcionalidad de pre-load
		ptrPwmHandler->ptrTIMx->CCMR2 |= TIM_CCMR2_OC4PE;
 8003ca6:	687b      	ldr	r3, [r7, #4]
 8003ca8:	681b      	ldr	r3, [r3, #0]
 8003caa:	69da      	ldr	r2, [r3, #28]
 8003cac:	687b      	ldr	r3, [r7, #4]
 8003cae:	681b      	ldr	r3, [r3, #0]
 8003cb0:	f442 6200 	orr.w	r2, r2, #2048	; 0x800
 8003cb4:	61da      	str	r2, [r3, #28]

		break;
 8003cb6:	e000      	b.n	8003cba <pwm_Config+0x1b6>
	}

	default:{
		break;
 8003cb8:	bf00      	nop
	}// fin del switch-case




}
 8003cba:	bf00      	nop
 8003cbc:	3708      	adds	r7, #8
 8003cbe:	46bd      	mov	sp, r7
 8003cc0:	bd80      	pop	{r7, pc}
 8003cc2:	bf00      	nop
 8003cc4:	40010000 	.word	0x40010000
 8003cc8:	40023800 	.word	0x40023800
 8003ccc:	40000400 	.word	0x40000400
 8003cd0:	40000800 	.word	0x40000800
 8003cd4:	40000c00 	.word	0x40000c00

08003cd8 <startPwmSignal>:

/* Funcin para activar el Timer y activar todo el mdulo PWM */
void startPwmSignal(PWM_Handler_t *ptrPwmHandler) {
 8003cd8:	b480      	push	{r7}
 8003cda:	b083      	sub	sp, #12
 8003cdc:	af00      	add	r7, sp, #0
 8003cde:	6078      	str	r0, [r7, #4]
	ptrPwmHandler->ptrTIMx->CR1 |= TIM_CR1_CEN;
 8003ce0:	687b      	ldr	r3, [r7, #4]
 8003ce2:	681b      	ldr	r3, [r3, #0]
 8003ce4:	681a      	ldr	r2, [r3, #0]
 8003ce6:	687b      	ldr	r3, [r7, #4]
 8003ce8:	681b      	ldr	r3, [r3, #0]
 8003cea:	f042 0201 	orr.w	r2, r2, #1
 8003cee:	601a      	str	r2, [r3, #0]

}
 8003cf0:	bf00      	nop
 8003cf2:	370c      	adds	r7, #12
 8003cf4:	46bd      	mov	sp, r7
 8003cf6:	f85d 7b04 	ldr.w	r7, [sp], #4
 8003cfa:	4770      	bx	lr

08003cfc <enableOutput>:
void stopPwmSignal(PWM_Handler_t *ptrPwmHandler) {
	ptrPwmHandler->ptrTIMx->CR1 &= ~TIM_CR1_CEN;
}

/* Funcin encargada de activar cada uno de los canales con los que cuenta el TimerX */
uint8_t enableOutput(PWM_Handler_t *ptrPwmHandler) {
 8003cfc:	b480      	push	{r7}
 8003cfe:	b083      	sub	sp, #12
 8003d00:	af00      	add	r7, sp, #0
 8003d02:	6078      	str	r0, [r7, #4]

	if (ptrPwmHandler->ptrTIMx == TIM1){
 8003d04:	687b      	ldr	r3, [r7, #4]
 8003d06:	681b      	ldr	r3, [r3, #0]
 8003d08:	4a3d      	ldr	r2, [pc, #244]	; (8003e00 <enableOutput+0x104>)
 8003d0a:	4293      	cmp	r3, r2
 8003d0c:	d13a      	bne.n	8003d84 <enableOutput+0x88>
		// Para el caso de Timer 1, devemos primero activar la opcion MOE en el BDTR register

		ptrPwmHandler->ptrTIMx->BDTR |= TIM_BDTR_MOE;
 8003d0e:	687b      	ldr	r3, [r7, #4]
 8003d10:	681b      	ldr	r3, [r3, #0]
 8003d12:	6c5a      	ldr	r2, [r3, #68]	; 0x44
 8003d14:	687b      	ldr	r3, [r7, #4]
 8003d16:	681b      	ldr	r3, [r3, #0]
 8003d18:	f442 4200 	orr.w	r2, r2, #32768	; 0x8000
 8003d1c:	645a      	str	r2, [r3, #68]	; 0x44

		switch (ptrPwmHandler->config.channel) {
 8003d1e:	687b      	ldr	r3, [r7, #4]
 8003d20:	791b      	ldrb	r3, [r3, #4]
 8003d22:	2b03      	cmp	r3, #3
 8003d24:	d862      	bhi.n	8003dec <enableOutput+0xf0>
 8003d26:	a201      	add	r2, pc, #4	; (adr r2, 8003d2c <enableOutput+0x30>)
 8003d28:	f852 f023 	ldr.w	pc, [r2, r3, lsl #2]
 8003d2c:	08003d3d 	.word	0x08003d3d
 8003d30:	08003d4f 	.word	0x08003d4f
 8003d34:	08003d61 	.word	0x08003d61
 8003d38:	08003d73 	.word	0x08003d73
			case PWM_CHANNEL_1: {
				// Activamos la salida del canal 1
				ptrPwmHandler->ptrTIMx->CCER |= TIM_CCER_CC1E;
 8003d3c:	687b      	ldr	r3, [r7, #4]
 8003d3e:	681b      	ldr	r3, [r3, #0]
 8003d40:	6a1a      	ldr	r2, [r3, #32]
 8003d42:	687b      	ldr	r3, [r7, #4]
 8003d44:	681b      	ldr	r3, [r3, #0]
 8003d46:	f042 0201 	orr.w	r2, r2, #1
 8003d4a:	621a      	str	r2, [r3, #32]

				break;
 8003d4c:	e051      	b.n	8003df2 <enableOutput+0xf6>
			}

			case PWM_CHANNEL_2: {
				// Activamos la salida del canal 2
				ptrPwmHandler->ptrTIMx->CCER |= TIM_CCER_CC2E;
 8003d4e:	687b      	ldr	r3, [r7, #4]
 8003d50:	681b      	ldr	r3, [r3, #0]
 8003d52:	6a1a      	ldr	r2, [r3, #32]
 8003d54:	687b      	ldr	r3, [r7, #4]
 8003d56:	681b      	ldr	r3, [r3, #0]
 8003d58:	f042 0210 	orr.w	r2, r2, #16
 8003d5c:	621a      	str	r2, [r3, #32]

				break;
 8003d5e:	e048      	b.n	8003df2 <enableOutput+0xf6>
			}

			case PWM_CHANNEL_3: {
				// Activamos la salida del canal 3
				ptrPwmHandler->ptrTIMx->CCER |= TIM_CCER_CC3E;
 8003d60:	687b      	ldr	r3, [r7, #4]
 8003d62:	681b      	ldr	r3, [r3, #0]
 8003d64:	6a1a      	ldr	r2, [r3, #32]
 8003d66:	687b      	ldr	r3, [r7, #4]
 8003d68:	681b      	ldr	r3, [r3, #0]
 8003d6a:	f442 7280 	orr.w	r2, r2, #256	; 0x100
 8003d6e:	621a      	str	r2, [r3, #32]

				break;
 8003d70:	e03f      	b.n	8003df2 <enableOutput+0xf6>
			}

			case PWM_CHANNEL_4: {
				// Activamos la salida del canal 4
				ptrPwmHandler->ptrTIMx->CCER |= TIM_CCER_CC4E;
 8003d72:	687b      	ldr	r3, [r7, #4]
 8003d74:	681b      	ldr	r3, [r3, #0]
 8003d76:	6a1a      	ldr	r2, [r3, #32]
 8003d78:	687b      	ldr	r3, [r7, #4]
 8003d7a:	681b      	ldr	r3, [r3, #0]
 8003d7c:	f442 5280 	orr.w	r2, r2, #4096	; 0x1000
 8003d80:	621a      	str	r2, [r3, #32]

				break;
 8003d82:	e036      	b.n	8003df2 <enableOutput+0xf6>
			}

		}

	}else{
		switch (ptrPwmHandler->config.channel) {
 8003d84:	687b      	ldr	r3, [r7, #4]
 8003d86:	791b      	ldrb	r3, [r3, #4]
 8003d88:	2b03      	cmp	r3, #3
 8003d8a:	d831      	bhi.n	8003df0 <enableOutput+0xf4>
 8003d8c:	a201      	add	r2, pc, #4	; (adr r2, 8003d94 <enableOutput+0x98>)
 8003d8e:	f852 f023 	ldr.w	pc, [r2, r3, lsl #2]
 8003d92:	bf00      	nop
 8003d94:	08003da5 	.word	0x08003da5
 8003d98:	08003db7 	.word	0x08003db7
 8003d9c:	08003dc9 	.word	0x08003dc9
 8003da0:	08003ddb 	.word	0x08003ddb
			case PWM_CHANNEL_1: {
				// Activamos la salida del canal 1
				ptrPwmHandler->ptrTIMx->CCER |= TIM_CCER_CC1E;
 8003da4:	687b      	ldr	r3, [r7, #4]
 8003da6:	681b      	ldr	r3, [r3, #0]
 8003da8:	6a1a      	ldr	r2, [r3, #32]
 8003daa:	687b      	ldr	r3, [r7, #4]
 8003dac:	681b      	ldr	r3, [r3, #0]
 8003dae:	f042 0201 	orr.w	r2, r2, #1
 8003db2:	621a      	str	r2, [r3, #32]

				break;
 8003db4:	e01d      	b.n	8003df2 <enableOutput+0xf6>
			}

			case PWM_CHANNEL_2: {
				// Activamos la salida del canal 2
				ptrPwmHandler->ptrTIMx->CCER |= TIM_CCER_CC2E;
 8003db6:	687b      	ldr	r3, [r7, #4]
 8003db8:	681b      	ldr	r3, [r3, #0]
 8003dba:	6a1a      	ldr	r2, [r3, #32]
 8003dbc:	687b      	ldr	r3, [r7, #4]
 8003dbe:	681b      	ldr	r3, [r3, #0]
 8003dc0:	f042 0210 	orr.w	r2, r2, #16
 8003dc4:	621a      	str	r2, [r3, #32]

				break;
 8003dc6:	e014      	b.n	8003df2 <enableOutput+0xf6>
			}

			case PWM_CHANNEL_3: {
				// Activamos la salida del canal 3
				ptrPwmHandler->ptrTIMx->CCER |= TIM_CCER_CC3E;
 8003dc8:	687b      	ldr	r3, [r7, #4]
 8003dca:	681b      	ldr	r3, [r3, #0]
 8003dcc:	6a1a      	ldr	r2, [r3, #32]
 8003dce:	687b      	ldr	r3, [r7, #4]
 8003dd0:	681b      	ldr	r3, [r3, #0]
 8003dd2:	f442 7280 	orr.w	r2, r2, #256	; 0x100
 8003dd6:	621a      	str	r2, [r3, #32]

				break;
 8003dd8:	e00b      	b.n	8003df2 <enableOutput+0xf6>
			}

			case PWM_CHANNEL_4: {
				// Activamos la salida del canal 4
				ptrPwmHandler->ptrTIMx->CCER |= TIM_CCER_CC4E;
 8003dda:	687b      	ldr	r3, [r7, #4]
 8003ddc:	681b      	ldr	r3, [r3, #0]
 8003dde:	6a1a      	ldr	r2, [r3, #32]
 8003de0:	687b      	ldr	r3, [r7, #4]
 8003de2:	681b      	ldr	r3, [r3, #0]
 8003de4:	f442 5280 	orr.w	r2, r2, #4096	; 0x1000
 8003de8:	621a      	str	r2, [r3, #32]

				break;
 8003dea:	e002      	b.n	8003df2 <enableOutput+0xf6>
				break;
 8003dec:	bf00      	nop
 8003dee:	e000      	b.n	8003df2 <enableOutput+0xf6>
			}

			default: {
				break;
 8003df0:	bf00      	nop
			}

		}
	}
	return SET;
 8003df2:	2301      	movs	r3, #1
}
 8003df4:	4618      	mov	r0, r3
 8003df6:	370c      	adds	r7, #12
 8003df8:	46bd      	mov	sp, r7
 8003dfa:	f85d 7b04 	ldr.w	r7, [sp], #4
 8003dfe:	4770      	bx	lr
 8003e00:	40010000 	.word	0x40010000

08003e04 <setFrequency>:
/* 
 * La frecuencia es definida por el conjunto formado por el preescaler (PSC)
 * y el valor lmite al que llega el Timer (ARR), con estos dos se establece
 * la frecuencia.
 * */
void setFrequency(PWM_Handler_t *ptrPwmHandler){
 8003e04:	b480      	push	{r7}
 8003e06:	b085      	sub	sp, #20
 8003e08:	af00      	add	r7, sp, #0
 8003e0a:	6078      	str	r0, [r7, #4]

	uint32_t speed   = 0;
 8003e0c:	2300      	movs	r3, #0
 8003e0e:	60fb      	str	r3, [r7, #12]

	// Cargamos el valor del prescaler, nos define la velocidad (en ns) a la cual
	// se incrementa el Timer
	ptrPwmHandler->ptrTIMx->PSC = ptrPwmHandler->config.prescaler;
 8003e10:	687b      	ldr	r3, [r7, #4]
 8003e12:	681b      	ldr	r3, [r3, #0]
 8003e14:	687a      	ldr	r2, [r7, #4]
 8003e16:	6892      	ldr	r2, [r2, #8]
 8003e18:	629a      	str	r2, [r3, #40]	; 0x28

	speed = ptrPwmHandler->config.prescaler;
 8003e1a:	687b      	ldr	r3, [r7, #4]
 8003e1c:	689b      	ldr	r3, [r3, #8]
 8003e1e:	60fb      	str	r3, [r7, #12]

	// Cargamos el valor del ARR, el cual es el lmite de incrementos del Timer
	// antes de hacer un update y reload.


	if((speed == PWM_SPEED_16MHz_10us )
 8003e20:	68fb      	ldr	r3, [r7, #12]
 8003e22:	2ba0      	cmp	r3, #160	; 0xa0
 8003e24:	d022      	beq.n	8003e6c <setFrequency+0x68>
     ||(speed == PWM_SPEED_20MHz_10us)
 8003e26:	68fb      	ldr	r3, [r7, #12]
 8003e28:	2bc8      	cmp	r3, #200	; 0xc8
 8003e2a:	d01f      	beq.n	8003e6c <setFrequency+0x68>
     ||(speed == PWM_SPEED_30MHz_10us)
 8003e2c:	68fb      	ldr	r3, [r7, #12]
 8003e2e:	f5b3 7f96 	cmp.w	r3, #300	; 0x12c
 8003e32:	d01b      	beq.n	8003e6c <setFrequency+0x68>
     ||(speed == PWM_SPEED_40MHz_10us)
 8003e34:	68fb      	ldr	r3, [r7, #12]
 8003e36:	f5b3 7fc8 	cmp.w	r3, #400	; 0x190
 8003e3a:	d017      	beq.n	8003e6c <setFrequency+0x68>
     ||(speed == PWM_SPEED_50MHz_10us)
 8003e3c:	68fb      	ldr	r3, [r7, #12]
 8003e3e:	f5b3 7ffa 	cmp.w	r3, #500	; 0x1f4
 8003e42:	d013      	beq.n	8003e6c <setFrequency+0x68>
     ||(speed == PWM_SPEED_60MHz_10us)
 8003e44:	68fb      	ldr	r3, [r7, #12]
 8003e46:	f5b3 7f16 	cmp.w	r3, #600	; 0x258
 8003e4a:	d00f      	beq.n	8003e6c <setFrequency+0x68>
     ||(speed == PWM_SPEED_70MHz_10us)
 8003e4c:	68fb      	ldr	r3, [r7, #12]
 8003e4e:	f5b3 7f2f 	cmp.w	r3, #700	; 0x2bc
 8003e52:	d00b      	beq.n	8003e6c <setFrequency+0x68>
     ||(speed == PWM_SPEED_80MHz_10us)
 8003e54:	68fb      	ldr	r3, [r7, #12]
 8003e56:	f5b3 7f48 	cmp.w	r3, #800	; 0x320
 8003e5a:	d007      	beq.n	8003e6c <setFrequency+0x68>
     ||(speed == PWM_SPEED_90MHz_10us)
 8003e5c:	68fb      	ldr	r3, [r7, #12]
 8003e5e:	f5b3 7f61 	cmp.w	r3, #900	; 0x384
 8003e62:	d003      	beq.n	8003e6c <setFrequency+0x68>
     ||(speed == PWM_SPEED_100MHz_10us)){
 8003e64:	68fb      	ldr	r3, [r7, #12]
 8003e66:	f5b3 7f7a 	cmp.w	r3, #1000	; 0x3e8
 8003e6a:	d111      	bne.n	8003e90 <setFrequency+0x8c>

		periodo = ptrPwmHandler->config.periodo * 1000 ;
 8003e6c:	687b      	ldr	r3, [r7, #4]
 8003e6e:	899b      	ldrh	r3, [r3, #12]
 8003e70:	461a      	mov	r2, r3
 8003e72:	0152      	lsls	r2, r2, #5
 8003e74:	1ad2      	subs	r2, r2, r3
 8003e76:	0092      	lsls	r2, r2, #2
 8003e78:	4413      	add	r3, r2
 8003e7a:	00db      	lsls	r3, r3, #3
 8003e7c:	b29a      	uxth	r2, r3
 8003e7e:	4b68      	ldr	r3, [pc, #416]	; (8004020 <setFrequency+0x21c>)
 8003e80:	801a      	strh	r2, [r3, #0]

		ptrPwmHandler->ptrTIMx->ARR = periodo - 1;
 8003e82:	4b67      	ldr	r3, [pc, #412]	; (8004020 <setFrequency+0x21c>)
 8003e84:	881b      	ldrh	r3, [r3, #0]
 8003e86:	1e5a      	subs	r2, r3, #1
 8003e88:	687b      	ldr	r3, [r7, #4]
 8003e8a:	681b      	ldr	r3, [r3, #0]
 8003e8c:	62da      	str	r2, [r3, #44]	; 0x2c
 8003e8e:	e0c0      	b.n	8004012 <setFrequency+0x20e>


	}else if ((speed == PWM_SPEED_16MHz_10us )
 8003e90:	68fb      	ldr	r3, [r7, #12]
 8003e92:	2ba0      	cmp	r3, #160	; 0xa0
 8003e94:	d022      	beq.n	8003edc <setFrequency+0xd8>
	  ||(speed == PWM_SPEED_20MHz_10us)
 8003e96:	68fb      	ldr	r3, [r7, #12]
 8003e98:	2bc8      	cmp	r3, #200	; 0xc8
 8003e9a:	d01f      	beq.n	8003edc <setFrequency+0xd8>
	  ||(speed == PWM_SPEED_30MHz_10us)
 8003e9c:	68fb      	ldr	r3, [r7, #12]
 8003e9e:	f5b3 7f96 	cmp.w	r3, #300	; 0x12c
 8003ea2:	d01b      	beq.n	8003edc <setFrequency+0xd8>
	  ||(speed == PWM_SPEED_40MHz_10us)
 8003ea4:	68fb      	ldr	r3, [r7, #12]
 8003ea6:	f5b3 7fc8 	cmp.w	r3, #400	; 0x190
 8003eaa:	d017      	beq.n	8003edc <setFrequency+0xd8>
	  ||(speed == PWM_SPEED_50MHz_10us)
 8003eac:	68fb      	ldr	r3, [r7, #12]
 8003eae:	f5b3 7ffa 	cmp.w	r3, #500	; 0x1f4
 8003eb2:	d013      	beq.n	8003edc <setFrequency+0xd8>
	  ||(speed == PWM_SPEED_60MHz_10us)
 8003eb4:	68fb      	ldr	r3, [r7, #12]
 8003eb6:	f5b3 7f16 	cmp.w	r3, #600	; 0x258
 8003eba:	d00f      	beq.n	8003edc <setFrequency+0xd8>
	  ||(speed == PWM_SPEED_70MHz_10us)
 8003ebc:	68fb      	ldr	r3, [r7, #12]
 8003ebe:	f5b3 7f2f 	cmp.w	r3, #700	; 0x2bc
 8003ec2:	d00b      	beq.n	8003edc <setFrequency+0xd8>
	  ||(speed == PWM_SPEED_80MHz_10us)
 8003ec4:	68fb      	ldr	r3, [r7, #12]
 8003ec6:	f5b3 7f48 	cmp.w	r3, #800	; 0x320
 8003eca:	d007      	beq.n	8003edc <setFrequency+0xd8>
	  ||(speed == PWM_SPEED_90MHz_10us)
 8003ecc:	68fb      	ldr	r3, [r7, #12]
 8003ece:	f5b3 7f61 	cmp.w	r3, #900	; 0x384
 8003ed2:	d003      	beq.n	8003edc <setFrequency+0xd8>
	  ||(speed == PWM_SPEED_100MHz_10us)){
 8003ed4:	68fb      	ldr	r3, [r7, #12]
 8003ed6:	f5b3 7f7a 	cmp.w	r3, #1000	; 0x3e8
 8003eda:	d114      	bne.n	8003f06 <setFrequency+0x102>

		periodo = ptrPwmHandler->config.periodo * 100 ;
 8003edc:	687b      	ldr	r3, [r7, #4]
 8003ede:	899b      	ldrh	r3, [r3, #12]
 8003ee0:	461a      	mov	r2, r3
 8003ee2:	0092      	lsls	r2, r2, #2
 8003ee4:	4413      	add	r3, r2
 8003ee6:	461a      	mov	r2, r3
 8003ee8:	0091      	lsls	r1, r2, #2
 8003eea:	461a      	mov	r2, r3
 8003eec:	460b      	mov	r3, r1
 8003eee:	4413      	add	r3, r2
 8003ef0:	009b      	lsls	r3, r3, #2
 8003ef2:	b29a      	uxth	r2, r3
 8003ef4:	4b4a      	ldr	r3, [pc, #296]	; (8004020 <setFrequency+0x21c>)
 8003ef6:	801a      	strh	r2, [r3, #0]

		ptrPwmHandler->ptrTIMx->ARR = periodo - 1;
 8003ef8:	4b49      	ldr	r3, [pc, #292]	; (8004020 <setFrequency+0x21c>)
 8003efa:	881b      	ldrh	r3, [r3, #0]
 8003efc:	1e5a      	subs	r2, r3, #1
 8003efe:	687b      	ldr	r3, [r7, #4]
 8003f00:	681b      	ldr	r3, [r3, #0]
 8003f02:	62da      	str	r2, [r3, #44]	; 0x2c
 8003f04:	e085      	b.n	8004012 <setFrequency+0x20e>

	}else if ((speed == PWM_SPEED_16MHz_100us )
 8003f06:	68fb      	ldr	r3, [r7, #12]
 8003f08:	f5b3 6fc8 	cmp.w	r3, #1600	; 0x640
 8003f0c:	d029      	beq.n	8003f62 <setFrequency+0x15e>
		   || (speed == PWM_SPEED_20MHz_100us)
 8003f0e:	68fb      	ldr	r3, [r7, #12]
 8003f10:	f5b3 6ffa 	cmp.w	r3, #2000	; 0x7d0
 8003f14:	d025      	beq.n	8003f62 <setFrequency+0x15e>
		   || (speed == PWM_SPEED_30MHz_100us)
 8003f16:	68fb      	ldr	r3, [r7, #12]
 8003f18:	f640 32b8 	movw	r2, #3000	; 0xbb8
 8003f1c:	4293      	cmp	r3, r2
 8003f1e:	d020      	beq.n	8003f62 <setFrequency+0x15e>
		   || (speed == PWM_SPEED_40MHz_100us)
 8003f20:	68fb      	ldr	r3, [r7, #12]
 8003f22:	f5b3 6f7a 	cmp.w	r3, #4000	; 0xfa0
 8003f26:	d01c      	beq.n	8003f62 <setFrequency+0x15e>
		   || (speed == PWM_SPEED_50MHz_100us)
 8003f28:	68fb      	ldr	r3, [r7, #12]
 8003f2a:	f241 3288 	movw	r2, #5000	; 0x1388
 8003f2e:	4293      	cmp	r3, r2
 8003f30:	d017      	beq.n	8003f62 <setFrequency+0x15e>
		   || (speed == PWM_SPEED_60MHz_100us)
 8003f32:	68fb      	ldr	r3, [r7, #12]
 8003f34:	f241 7270 	movw	r2, #6000	; 0x1770
 8003f38:	4293      	cmp	r3, r2
 8003f3a:	d012      	beq.n	8003f62 <setFrequency+0x15e>
		   || (speed == PWM_SPEED_70MHz_100us)
 8003f3c:	68fb      	ldr	r3, [r7, #12]
 8003f3e:	f641 3258 	movw	r2, #7000	; 0x1b58
 8003f42:	4293      	cmp	r3, r2
 8003f44:	d00d      	beq.n	8003f62 <setFrequency+0x15e>
		   || (speed == PWM_SPEED_80MHz_100us)
 8003f46:	68fb      	ldr	r3, [r7, #12]
 8003f48:	f5b3 5ffa 	cmp.w	r3, #8000	; 0x1f40
 8003f4c:	d009      	beq.n	8003f62 <setFrequency+0x15e>
		   || (speed == PWM_SPEED_90MHz_100us)
 8003f4e:	68fb      	ldr	r3, [r7, #12]
 8003f50:	f242 3228 	movw	r2, #9000	; 0x2328
 8003f54:	4293      	cmp	r3, r2
 8003f56:	d004      	beq.n	8003f62 <setFrequency+0x15e>
		   || (speed == PWM_SPEED_100MHz_100us)){
 8003f58:	68fb      	ldr	r3, [r7, #12]
 8003f5a:	f242 7210 	movw	r2, #10000	; 0x2710
 8003f5e:	4293      	cmp	r3, r2
 8003f60:	d10f      	bne.n	8003f82 <setFrequency+0x17e>

		periodo = ptrPwmHandler->config.periodo * 10   ;
 8003f62:	687b      	ldr	r3, [r7, #4]
 8003f64:	899b      	ldrh	r3, [r3, #12]
 8003f66:	461a      	mov	r2, r3
 8003f68:	0092      	lsls	r2, r2, #2
 8003f6a:	4413      	add	r3, r2
 8003f6c:	005b      	lsls	r3, r3, #1
 8003f6e:	b29a      	uxth	r2, r3
 8003f70:	4b2b      	ldr	r3, [pc, #172]	; (8004020 <setFrequency+0x21c>)
 8003f72:	801a      	strh	r2, [r3, #0]

		ptrPwmHandler->ptrTIMx->ARR = periodo - 1;
 8003f74:	4b2a      	ldr	r3, [pc, #168]	; (8004020 <setFrequency+0x21c>)
 8003f76:	881b      	ldrh	r3, [r3, #0]
 8003f78:	1e5a      	subs	r2, r3, #1
 8003f7a:	687b      	ldr	r3, [r7, #4]
 8003f7c:	681b      	ldr	r3, [r3, #0]
 8003f7e:	62da      	str	r2, [r3, #44]	; 0x2c
 8003f80:	e047      	b.n	8004012 <setFrequency+0x20e>



	}else if ((speed == PWM_SPEED_16MHz_1ms)
 8003f82:	68fb      	ldr	r3, [r7, #12]
 8003f84:	f5b3 5f7a 	cmp.w	r3, #16000	; 0x3e80
 8003f88:	d028      	beq.n	8003fdc <setFrequency+0x1d8>
		   || (speed == PWM_SPEED_20MHz_1ms)
 8003f8a:	68fb      	ldr	r3, [r7, #12]
 8003f8c:	f644 6220 	movw	r2, #20000	; 0x4e20
 8003f90:	4293      	cmp	r3, r2
 8003f92:	d023      	beq.n	8003fdc <setFrequency+0x1d8>
		   || (speed == PWM_SPEED_30MHz_1ms)
 8003f94:	68fb      	ldr	r3, [r7, #12]
 8003f96:	f247 5230 	movw	r2, #30000	; 0x7530
 8003f9a:	4293      	cmp	r3, r2
 8003f9c:	d01e      	beq.n	8003fdc <setFrequency+0x1d8>
		   || (speed == PWM_SPEED_40MHz_1ms)
 8003f9e:	68fb      	ldr	r3, [r7, #12]
 8003fa0:	f649 4240 	movw	r2, #40000	; 0x9c40
 8003fa4:	4293      	cmp	r3, r2
 8003fa6:	d019      	beq.n	8003fdc <setFrequency+0x1d8>
		   || (speed == PWM_SPEED_50MHz_1ms)
 8003fa8:	68fb      	ldr	r3, [r7, #12]
 8003faa:	f24c 3250 	movw	r2, #50000	; 0xc350
 8003fae:	4293      	cmp	r3, r2
 8003fb0:	d014      	beq.n	8003fdc <setFrequency+0x1d8>
		   || (speed == PWM_SPEED_60MHz_1ms)
 8003fb2:	68fb      	ldr	r3, [r7, #12]
 8003fb4:	f64e 2260 	movw	r2, #60000	; 0xea60
 8003fb8:	4293      	cmp	r3, r2
 8003fba:	d00f      	beq.n	8003fdc <setFrequency+0x1d8>
		   || (speed == PWM_SPEED_70MHz_1ms)
 8003fbc:	68fb      	ldr	r3, [r7, #12]
 8003fbe:	4a19      	ldr	r2, [pc, #100]	; (8004024 <setFrequency+0x220>)
 8003fc0:	4293      	cmp	r3, r2
 8003fc2:	d00b      	beq.n	8003fdc <setFrequency+0x1d8>
		   || (speed == PWM_SPEED_80MHz_1ms)
 8003fc4:	68fb      	ldr	r3, [r7, #12]
 8003fc6:	4a18      	ldr	r2, [pc, #96]	; (8004028 <setFrequency+0x224>)
 8003fc8:	4293      	cmp	r3, r2
 8003fca:	d007      	beq.n	8003fdc <setFrequency+0x1d8>
		   || (speed == PWM_SPEED_90MHz_1ms)
 8003fcc:	68fb      	ldr	r3, [r7, #12]
 8003fce:	4a17      	ldr	r2, [pc, #92]	; (800402c <setFrequency+0x228>)
 8003fd0:	4293      	cmp	r3, r2
 8003fd2:	d003      	beq.n	8003fdc <setFrequency+0x1d8>
		   || (speed == PWM_SPEED_100MHz_1ms)){
 8003fd4:	68fb      	ldr	r3, [r7, #12]
 8003fd6:	4a16      	ldr	r2, [pc, #88]	; (8004030 <setFrequency+0x22c>)
 8003fd8:	4293      	cmp	r3, r2
 8003fda:	d10a      	bne.n	8003ff2 <setFrequency+0x1ee>

		periodo = ptrPwmHandler->config.periodo;
 8003fdc:	687b      	ldr	r3, [r7, #4]
 8003fde:	899a      	ldrh	r2, [r3, #12]
 8003fe0:	4b0f      	ldr	r3, [pc, #60]	; (8004020 <setFrequency+0x21c>)
 8003fe2:	801a      	strh	r2, [r3, #0]

		ptrPwmHandler->ptrTIMx->ARR = periodo - 1;
 8003fe4:	4b0e      	ldr	r3, [pc, #56]	; (8004020 <setFrequency+0x21c>)
 8003fe6:	881b      	ldrh	r3, [r3, #0]
 8003fe8:	1e5a      	subs	r2, r3, #1
 8003fea:	687b      	ldr	r3, [r7, #4]
 8003fec:	681b      	ldr	r3, [r3, #0]
 8003fee:	62da      	str	r2, [r3, #44]	; 0x2c
 8003ff0:	e00f      	b.n	8004012 <setFrequency+0x20e>

	}else{
		periodo = ptrPwmHandler->config.periodo / 20;  //Se tiene el caso mas minimo posible, donde el contador cuenta cada 10 nanosegundos
 8003ff2:	687b      	ldr	r3, [r7, #4]
 8003ff4:	899b      	ldrh	r3, [r3, #12]
 8003ff6:	4a0f      	ldr	r2, [pc, #60]	; (8004034 <setFrequency+0x230>)
 8003ff8:	fba2 2303 	umull	r2, r3, r2, r3
 8003ffc:	091b      	lsrs	r3, r3, #4
 8003ffe:	b29a      	uxth	r2, r3
 8004000:	4b07      	ldr	r3, [pc, #28]	; (8004020 <setFrequency+0x21c>)
 8004002:	801a      	strh	r2, [r3, #0]

		ptrPwmHandler->ptrTIMx->ARR = periodo - 1;
 8004004:	4b06      	ldr	r3, [pc, #24]	; (8004020 <setFrequency+0x21c>)
 8004006:	881b      	ldrh	r3, [r3, #0]
 8004008:	1e5a      	subs	r2, r3, #1
 800400a:	687b      	ldr	r3, [r7, #4]
 800400c:	681b      	ldr	r3, [r3, #0]
 800400e:	62da      	str	r2, [r3, #44]	; 0x2c
	}

}
 8004010:	bf00      	nop
 8004012:	bf00      	nop
 8004014:	3714      	adds	r7, #20
 8004016:	46bd      	mov	sp, r7
 8004018:	f85d 7b04 	ldr.w	r7, [sp], #4
 800401c:	4770      	bx	lr
 800401e:	bf00      	nop
 8004020:	2000048c 	.word	0x2000048c
 8004024:	00011170 	.word	0x00011170
 8004028:	00013880 	.word	0x00013880
 800402c:	00015f90 	.word	0x00015f90
 8004030:	000186a0 	.word	0x000186a0
 8004034:	cccccccd 	.word	0xcccccccd

08004038 <setDuttyCycle>:
	// Llamamos a la fucnin que cambia la frecuencia
	setFrequency(ptrPwmHandler);
}

/* El valor del dutty debe estar dado en valores de %, entre 0% y 100%*/
void setDuttyCycle(PWM_Handler_t *ptrPwmHandler){
 8004038:	b590      	push	{r4, r7, lr}
 800403a:	b08b      	sub	sp, #44	; 0x2c
 800403c:	af00      	add	r7, sp, #0
 800403e:	6078      	str	r0, [r7, #4]

	// Seleccionamos el canal para configurar su dutty
	switch(ptrPwmHandler->config.channel){
 8004040:	687b      	ldr	r3, [r7, #4]
 8004042:	791b      	ldrb	r3, [r3, #4]
 8004044:	2b03      	cmp	r3, #3
 8004046:	f200 80c3 	bhi.w	80041d0 <setDuttyCycle+0x198>
 800404a:	a201      	add	r2, pc, #4	; (adr r2, 8004050 <setDuttyCycle+0x18>)
 800404c:	f852 f023 	ldr.w	pc, [r2, r3, lsl #2]
 8004050:	08004061 	.word	0x08004061
 8004054:	080040bd 	.word	0x080040bd
 8004058:	08004119 	.word	0x08004119
 800405c:	08004175 	.word	0x08004175
	case PWM_CHANNEL_1:{
		double op = (ptrPwmHandler->config.duttyCicle) * periodo;
 8004060:	687b      	ldr	r3, [r7, #4]
 8004062:	ed93 7a04 	vldr	s14, [r3, #16]
 8004066:	4b5d      	ldr	r3, [pc, #372]	; (80041dc <setDuttyCycle+0x1a4>)
 8004068:	881b      	ldrh	r3, [r3, #0]
 800406a:	ee07 3a90 	vmov	s15, r3
 800406e:	eef8 7ae7 	vcvt.f32.s32	s15, s15
 8004072:	ee67 7a27 	vmul.f32	s15, s14, s15
 8004076:	ee17 0a90 	vmov	r0, s15
 800407a:	f7fc fa6d 	bl	8000558 <__aeabi_f2d>
 800407e:	4602      	mov	r2, r0
 8004080:	460b      	mov	r3, r1
 8004082:	e9c7 2302 	strd	r2, r3, [r7, #8]
		ptrPwmHandler->ptrTIMx->CCR1 = (op)/100 -1;
 8004086:	f04f 0200 	mov.w	r2, #0
 800408a:	4b55      	ldr	r3, [pc, #340]	; (80041e0 <setDuttyCycle+0x1a8>)
 800408c:	e9d7 0102 	ldrd	r0, r1, [r7, #8]
 8004090:	f7fc fbe4 	bl	800085c <__aeabi_ddiv>
 8004094:	4602      	mov	r2, r0
 8004096:	460b      	mov	r3, r1
 8004098:	4610      	mov	r0, r2
 800409a:	4619      	mov	r1, r3
 800409c:	f04f 0200 	mov.w	r2, #0
 80040a0:	4b50      	ldr	r3, [pc, #320]	; (80041e4 <setDuttyCycle+0x1ac>)
 80040a2:	f7fc f8f9 	bl	8000298 <__aeabi_dsub>
 80040a6:	4602      	mov	r2, r0
 80040a8:	460b      	mov	r3, r1
 80040aa:	4610      	mov	r0, r2
 80040ac:	4619      	mov	r1, r3
 80040ae:	687b      	ldr	r3, [r7, #4]
 80040b0:	681c      	ldr	r4, [r3, #0]
 80040b2:	f7fc fd81 	bl	8000bb8 <__aeabi_d2uiz>
 80040b6:	4603      	mov	r3, r0
 80040b8:	6363      	str	r3, [r4, #52]	; 0x34
		break;
 80040ba:	e08a      	b.n	80041d2 <setDuttyCycle+0x19a>
	}

	case PWM_CHANNEL_2:{
		double op = (ptrPwmHandler->config.duttyCicle) * periodo;
 80040bc:	687b      	ldr	r3, [r7, #4]
 80040be:	ed93 7a04 	vldr	s14, [r3, #16]
 80040c2:	4b46      	ldr	r3, [pc, #280]	; (80041dc <setDuttyCycle+0x1a4>)
 80040c4:	881b      	ldrh	r3, [r3, #0]
 80040c6:	ee07 3a90 	vmov	s15, r3
 80040ca:	eef8 7ae7 	vcvt.f32.s32	s15, s15
 80040ce:	ee67 7a27 	vmul.f32	s15, s14, s15
 80040d2:	ee17 0a90 	vmov	r0, s15
 80040d6:	f7fc fa3f 	bl	8000558 <__aeabi_f2d>
 80040da:	4602      	mov	r2, r0
 80040dc:	460b      	mov	r3, r1
 80040de:	e9c7 2304 	strd	r2, r3, [r7, #16]
		ptrPwmHandler->ptrTIMx->CCR2 = (op)/100 -1;
 80040e2:	f04f 0200 	mov.w	r2, #0
 80040e6:	4b3e      	ldr	r3, [pc, #248]	; (80041e0 <setDuttyCycle+0x1a8>)
 80040e8:	e9d7 0104 	ldrd	r0, r1, [r7, #16]
 80040ec:	f7fc fbb6 	bl	800085c <__aeabi_ddiv>
 80040f0:	4602      	mov	r2, r0
 80040f2:	460b      	mov	r3, r1
 80040f4:	4610      	mov	r0, r2
 80040f6:	4619      	mov	r1, r3
 80040f8:	f04f 0200 	mov.w	r2, #0
 80040fc:	4b39      	ldr	r3, [pc, #228]	; (80041e4 <setDuttyCycle+0x1ac>)
 80040fe:	f7fc f8cb 	bl	8000298 <__aeabi_dsub>
 8004102:	4602      	mov	r2, r0
 8004104:	460b      	mov	r3, r1
 8004106:	4610      	mov	r0, r2
 8004108:	4619      	mov	r1, r3
 800410a:	687b      	ldr	r3, [r7, #4]
 800410c:	681c      	ldr	r4, [r3, #0]
 800410e:	f7fc fd53 	bl	8000bb8 <__aeabi_d2uiz>
 8004112:	4603      	mov	r3, r0
 8004114:	63a3      	str	r3, [r4, #56]	; 0x38
		break;
 8004116:	e05c      	b.n	80041d2 <setDuttyCycle+0x19a>
	}

	case PWM_CHANNEL_3:{
		double op = (ptrPwmHandler->config.duttyCicle) * periodo;
 8004118:	687b      	ldr	r3, [r7, #4]
 800411a:	ed93 7a04 	vldr	s14, [r3, #16]
 800411e:	4b2f      	ldr	r3, [pc, #188]	; (80041dc <setDuttyCycle+0x1a4>)
 8004120:	881b      	ldrh	r3, [r3, #0]
 8004122:	ee07 3a90 	vmov	s15, r3
 8004126:	eef8 7ae7 	vcvt.f32.s32	s15, s15
 800412a:	ee67 7a27 	vmul.f32	s15, s14, s15
 800412e:	ee17 0a90 	vmov	r0, s15
 8004132:	f7fc fa11 	bl	8000558 <__aeabi_f2d>
 8004136:	4602      	mov	r2, r0
 8004138:	460b      	mov	r3, r1
 800413a:	e9c7 2306 	strd	r2, r3, [r7, #24]
		ptrPwmHandler->ptrTIMx->CCR3 = (op)/100 -1;
 800413e:	f04f 0200 	mov.w	r2, #0
 8004142:	4b27      	ldr	r3, [pc, #156]	; (80041e0 <setDuttyCycle+0x1a8>)
 8004144:	e9d7 0106 	ldrd	r0, r1, [r7, #24]
 8004148:	f7fc fb88 	bl	800085c <__aeabi_ddiv>
 800414c:	4602      	mov	r2, r0
 800414e:	460b      	mov	r3, r1
 8004150:	4610      	mov	r0, r2
 8004152:	4619      	mov	r1, r3
 8004154:	f04f 0200 	mov.w	r2, #0
 8004158:	4b22      	ldr	r3, [pc, #136]	; (80041e4 <setDuttyCycle+0x1ac>)
 800415a:	f7fc f89d 	bl	8000298 <__aeabi_dsub>
 800415e:	4602      	mov	r2, r0
 8004160:	460b      	mov	r3, r1
 8004162:	4610      	mov	r0, r2
 8004164:	4619      	mov	r1, r3
 8004166:	687b      	ldr	r3, [r7, #4]
 8004168:	681c      	ldr	r4, [r3, #0]
 800416a:	f7fc fd25 	bl	8000bb8 <__aeabi_d2uiz>
 800416e:	4603      	mov	r3, r0
 8004170:	63e3      	str	r3, [r4, #60]	; 0x3c
		break;
 8004172:	e02e      	b.n	80041d2 <setDuttyCycle+0x19a>
	}

	case PWM_CHANNEL_4:{
		double op = (ptrPwmHandler->config.duttyCicle) * periodo;
 8004174:	687b      	ldr	r3, [r7, #4]
 8004176:	ed93 7a04 	vldr	s14, [r3, #16]
 800417a:	4b18      	ldr	r3, [pc, #96]	; (80041dc <setDuttyCycle+0x1a4>)
 800417c:	881b      	ldrh	r3, [r3, #0]
 800417e:	ee07 3a90 	vmov	s15, r3
 8004182:	eef8 7ae7 	vcvt.f32.s32	s15, s15
 8004186:	ee67 7a27 	vmul.f32	s15, s14, s15
 800418a:	ee17 0a90 	vmov	r0, s15
 800418e:	f7fc f9e3 	bl	8000558 <__aeabi_f2d>
 8004192:	4602      	mov	r2, r0
 8004194:	460b      	mov	r3, r1
 8004196:	e9c7 2308 	strd	r2, r3, [r7, #32]
		ptrPwmHandler->ptrTIMx->CCR4 = (op)/100 -1;
 800419a:	f04f 0200 	mov.w	r2, #0
 800419e:	4b10      	ldr	r3, [pc, #64]	; (80041e0 <setDuttyCycle+0x1a8>)
 80041a0:	e9d7 0108 	ldrd	r0, r1, [r7, #32]
 80041a4:	f7fc fb5a 	bl	800085c <__aeabi_ddiv>
 80041a8:	4602      	mov	r2, r0
 80041aa:	460b      	mov	r3, r1
 80041ac:	4610      	mov	r0, r2
 80041ae:	4619      	mov	r1, r3
 80041b0:	f04f 0200 	mov.w	r2, #0
 80041b4:	4b0b      	ldr	r3, [pc, #44]	; (80041e4 <setDuttyCycle+0x1ac>)
 80041b6:	f7fc f86f 	bl	8000298 <__aeabi_dsub>
 80041ba:	4602      	mov	r2, r0
 80041bc:	460b      	mov	r3, r1
 80041be:	4610      	mov	r0, r2
 80041c0:	4619      	mov	r1, r3
 80041c2:	687b      	ldr	r3, [r7, #4]
 80041c4:	681c      	ldr	r4, [r3, #0]
 80041c6:	f7fc fcf7 	bl	8000bb8 <__aeabi_d2uiz>
 80041ca:	4603      	mov	r3, r0
 80041cc:	6423      	str	r3, [r4, #64]	; 0x40
		break;
 80041ce:	e000      	b.n	80041d2 <setDuttyCycle+0x19a>
	}

	default:{
		break;
 80041d0:	bf00      	nop
	}

	}// fin del switch-case

}
 80041d2:	bf00      	nop
 80041d4:	372c      	adds	r7, #44	; 0x2c
 80041d6:	46bd      	mov	sp, r7
 80041d8:	bd90      	pop	{r4, r7, pc}
 80041da:	bf00      	nop
 80041dc:	2000048c 	.word	0x2000048c
 80041e0:	40590000 	.word	0x40590000
 80041e4:	3ff00000 	.word	0x3ff00000

080041e8 <setDuttyCycleAfOpt>:


void setDuttyCycleAfOpt(PWM_Handler_t *ptrPwmHandler){
 80041e8:	b590      	push	{r4, r7, lr}
 80041ea:	b08b      	sub	sp, #44	; 0x2c
 80041ec:	af00      	add	r7, sp, #0
 80041ee:	6078      	str	r0, [r7, #4]

	// Seleccionamos el canal para configurar su dutty
	switch(ptrPwmHandler->config.channel){
 80041f0:	687b      	ldr	r3, [r7, #4]
 80041f2:	791b      	ldrb	r3, [r3, #4]
 80041f4:	2b03      	cmp	r3, #3
 80041f6:	f200 80d3 	bhi.w	80043a0 <setDuttyCycleAfOpt+0x1b8>
 80041fa:	a201      	add	r2, pc, #4	; (adr r2, 8004200 <setDuttyCycleAfOpt+0x18>)
 80041fc:	f852 f023 	ldr.w	pc, [r2, r3, lsl #2]
 8004200:	08004211 	.word	0x08004211
 8004204:	08004275 	.word	0x08004275
 8004208:	080042d9 	.word	0x080042d9
 800420c:	0800433d 	.word	0x0800433d
	case PWM_CHANNEL_1:{
		double op = (100-ptrPwmHandler->config.duttyCicle) * periodo;
 8004210:	687b      	ldr	r3, [r7, #4]
 8004212:	edd3 7a04 	vldr	s15, [r3, #16]
 8004216:	ed9f 7a65 	vldr	s14, [pc, #404]	; 80043ac <setDuttyCycleAfOpt+0x1c4>
 800421a:	ee37 7a67 	vsub.f32	s14, s14, s15
 800421e:	4b64      	ldr	r3, [pc, #400]	; (80043b0 <setDuttyCycleAfOpt+0x1c8>)
 8004220:	881b      	ldrh	r3, [r3, #0]
 8004222:	ee07 3a90 	vmov	s15, r3
 8004226:	eef8 7ae7 	vcvt.f32.s32	s15, s15
 800422a:	ee67 7a27 	vmul.f32	s15, s14, s15
 800422e:	ee17 0a90 	vmov	r0, s15
 8004232:	f7fc f991 	bl	8000558 <__aeabi_f2d>
 8004236:	4602      	mov	r2, r0
 8004238:	460b      	mov	r3, r1
 800423a:	e9c7 2302 	strd	r2, r3, [r7, #8]
		ptrPwmHandler->ptrTIMx->CCR1 = (op)/100 - 1 ;
 800423e:	f04f 0200 	mov.w	r2, #0
 8004242:	4b5c      	ldr	r3, [pc, #368]	; (80043b4 <setDuttyCycleAfOpt+0x1cc>)
 8004244:	e9d7 0102 	ldrd	r0, r1, [r7, #8]
 8004248:	f7fc fb08 	bl	800085c <__aeabi_ddiv>
 800424c:	4602      	mov	r2, r0
 800424e:	460b      	mov	r3, r1
 8004250:	4610      	mov	r0, r2
 8004252:	4619      	mov	r1, r3
 8004254:	f04f 0200 	mov.w	r2, #0
 8004258:	4b57      	ldr	r3, [pc, #348]	; (80043b8 <setDuttyCycleAfOpt+0x1d0>)
 800425a:	f7fc f81d 	bl	8000298 <__aeabi_dsub>
 800425e:	4602      	mov	r2, r0
 8004260:	460b      	mov	r3, r1
 8004262:	4610      	mov	r0, r2
 8004264:	4619      	mov	r1, r3
 8004266:	687b      	ldr	r3, [r7, #4]
 8004268:	681c      	ldr	r4, [r3, #0]
 800426a:	f7fc fca5 	bl	8000bb8 <__aeabi_d2uiz>
 800426e:	4603      	mov	r3, r0
 8004270:	6363      	str	r3, [r4, #52]	; 0x34
		break;
 8004272:	e096      	b.n	80043a2 <setDuttyCycleAfOpt+0x1ba>
	}

	case PWM_CHANNEL_2:{
		double op = (100-ptrPwmHandler->config.duttyCicle) * periodo;
 8004274:	687b      	ldr	r3, [r7, #4]
 8004276:	edd3 7a04 	vldr	s15, [r3, #16]
 800427a:	ed9f 7a4c 	vldr	s14, [pc, #304]	; 80043ac <setDuttyCycleAfOpt+0x1c4>
 800427e:	ee37 7a67 	vsub.f32	s14, s14, s15
 8004282:	4b4b      	ldr	r3, [pc, #300]	; (80043b0 <setDuttyCycleAfOpt+0x1c8>)
 8004284:	881b      	ldrh	r3, [r3, #0]
 8004286:	ee07 3a90 	vmov	s15, r3
 800428a:	eef8 7ae7 	vcvt.f32.s32	s15, s15
 800428e:	ee67 7a27 	vmul.f32	s15, s14, s15
 8004292:	ee17 0a90 	vmov	r0, s15
 8004296:	f7fc f95f 	bl	8000558 <__aeabi_f2d>
 800429a:	4602      	mov	r2, r0
 800429c:	460b      	mov	r3, r1
 800429e:	e9c7 2304 	strd	r2, r3, [r7, #16]
		ptrPwmHandler->ptrTIMx->CCR2 = (op)/100 - 1;
 80042a2:	f04f 0200 	mov.w	r2, #0
 80042a6:	4b43      	ldr	r3, [pc, #268]	; (80043b4 <setDuttyCycleAfOpt+0x1cc>)
 80042a8:	e9d7 0104 	ldrd	r0, r1, [r7, #16]
 80042ac:	f7fc fad6 	bl	800085c <__aeabi_ddiv>
 80042b0:	4602      	mov	r2, r0
 80042b2:	460b      	mov	r3, r1
 80042b4:	4610      	mov	r0, r2
 80042b6:	4619      	mov	r1, r3
 80042b8:	f04f 0200 	mov.w	r2, #0
 80042bc:	4b3e      	ldr	r3, [pc, #248]	; (80043b8 <setDuttyCycleAfOpt+0x1d0>)
 80042be:	f7fb ffeb 	bl	8000298 <__aeabi_dsub>
 80042c2:	4602      	mov	r2, r0
 80042c4:	460b      	mov	r3, r1
 80042c6:	4610      	mov	r0, r2
 80042c8:	4619      	mov	r1, r3
 80042ca:	687b      	ldr	r3, [r7, #4]
 80042cc:	681c      	ldr	r4, [r3, #0]
 80042ce:	f7fc fc73 	bl	8000bb8 <__aeabi_d2uiz>
 80042d2:	4603      	mov	r3, r0
 80042d4:	63a3      	str	r3, [r4, #56]	; 0x38
		break;
 80042d6:	e064      	b.n	80043a2 <setDuttyCycleAfOpt+0x1ba>
	}

	case PWM_CHANNEL_3:{
		double op = (100-ptrPwmHandler->config.duttyCicle) * periodo;
 80042d8:	687b      	ldr	r3, [r7, #4]
 80042da:	edd3 7a04 	vldr	s15, [r3, #16]
 80042de:	ed9f 7a33 	vldr	s14, [pc, #204]	; 80043ac <setDuttyCycleAfOpt+0x1c4>
 80042e2:	ee37 7a67 	vsub.f32	s14, s14, s15
 80042e6:	4b32      	ldr	r3, [pc, #200]	; (80043b0 <setDuttyCycleAfOpt+0x1c8>)
 80042e8:	881b      	ldrh	r3, [r3, #0]
 80042ea:	ee07 3a90 	vmov	s15, r3
 80042ee:	eef8 7ae7 	vcvt.f32.s32	s15, s15
 80042f2:	ee67 7a27 	vmul.f32	s15, s14, s15
 80042f6:	ee17 0a90 	vmov	r0, s15
 80042fa:	f7fc f92d 	bl	8000558 <__aeabi_f2d>
 80042fe:	4602      	mov	r2, r0
 8004300:	460b      	mov	r3, r1
 8004302:	e9c7 2306 	strd	r2, r3, [r7, #24]
		ptrPwmHandler->ptrTIMx->CCR3 = (op)/100 - 1;
 8004306:	f04f 0200 	mov.w	r2, #0
 800430a:	4b2a      	ldr	r3, [pc, #168]	; (80043b4 <setDuttyCycleAfOpt+0x1cc>)
 800430c:	e9d7 0106 	ldrd	r0, r1, [r7, #24]
 8004310:	f7fc faa4 	bl	800085c <__aeabi_ddiv>
 8004314:	4602      	mov	r2, r0
 8004316:	460b      	mov	r3, r1
 8004318:	4610      	mov	r0, r2
 800431a:	4619      	mov	r1, r3
 800431c:	f04f 0200 	mov.w	r2, #0
 8004320:	4b25      	ldr	r3, [pc, #148]	; (80043b8 <setDuttyCycleAfOpt+0x1d0>)
 8004322:	f7fb ffb9 	bl	8000298 <__aeabi_dsub>
 8004326:	4602      	mov	r2, r0
 8004328:	460b      	mov	r3, r1
 800432a:	4610      	mov	r0, r2
 800432c:	4619      	mov	r1, r3
 800432e:	687b      	ldr	r3, [r7, #4]
 8004330:	681c      	ldr	r4, [r3, #0]
 8004332:	f7fc fc41 	bl	8000bb8 <__aeabi_d2uiz>
 8004336:	4603      	mov	r3, r0
 8004338:	63e3      	str	r3, [r4, #60]	; 0x3c
		break;
 800433a:	e032      	b.n	80043a2 <setDuttyCycleAfOpt+0x1ba>
	}

	case PWM_CHANNEL_4:{
		double op = (100-ptrPwmHandler->config.duttyCicle) * periodo;
 800433c:	687b      	ldr	r3, [r7, #4]
 800433e:	edd3 7a04 	vldr	s15, [r3, #16]
 8004342:	ed9f 7a1a 	vldr	s14, [pc, #104]	; 80043ac <setDuttyCycleAfOpt+0x1c4>
 8004346:	ee37 7a67 	vsub.f32	s14, s14, s15
 800434a:	4b19      	ldr	r3, [pc, #100]	; (80043b0 <setDuttyCycleAfOpt+0x1c8>)
 800434c:	881b      	ldrh	r3, [r3, #0]
 800434e:	ee07 3a90 	vmov	s15, r3
 8004352:	eef8 7ae7 	vcvt.f32.s32	s15, s15
 8004356:	ee67 7a27 	vmul.f32	s15, s14, s15
 800435a:	ee17 0a90 	vmov	r0, s15
 800435e:	f7fc f8fb 	bl	8000558 <__aeabi_f2d>
 8004362:	4602      	mov	r2, r0
 8004364:	460b      	mov	r3, r1
 8004366:	e9c7 2308 	strd	r2, r3, [r7, #32]
		ptrPwmHandler->ptrTIMx->CCR4 = (op)/100 - 1;
 800436a:	f04f 0200 	mov.w	r2, #0
 800436e:	4b11      	ldr	r3, [pc, #68]	; (80043b4 <setDuttyCycleAfOpt+0x1cc>)
 8004370:	e9d7 0108 	ldrd	r0, r1, [r7, #32]
 8004374:	f7fc fa72 	bl	800085c <__aeabi_ddiv>
 8004378:	4602      	mov	r2, r0
 800437a:	460b      	mov	r3, r1
 800437c:	4610      	mov	r0, r2
 800437e:	4619      	mov	r1, r3
 8004380:	f04f 0200 	mov.w	r2, #0
 8004384:	4b0c      	ldr	r3, [pc, #48]	; (80043b8 <setDuttyCycleAfOpt+0x1d0>)
 8004386:	f7fb ff87 	bl	8000298 <__aeabi_dsub>
 800438a:	4602      	mov	r2, r0
 800438c:	460b      	mov	r3, r1
 800438e:	4610      	mov	r0, r2
 8004390:	4619      	mov	r1, r3
 8004392:	687b      	ldr	r3, [r7, #4]
 8004394:	681c      	ldr	r4, [r3, #0]
 8004396:	f7fc fc0f 	bl	8000bb8 <__aeabi_d2uiz>
 800439a:	4603      	mov	r3, r0
 800439c:	6423      	str	r3, [r4, #64]	; 0x40
		break;
 800439e:	e000      	b.n	80043a2 <setDuttyCycleAfOpt+0x1ba>
	}

	default:{
		break;
 80043a0:	bf00      	nop
	}

	}// fin del switch-case


}
 80043a2:	bf00      	nop
 80043a4:	372c      	adds	r7, #44	; 0x2c
 80043a6:	46bd      	mov	sp, r7
 80043a8:	bd90      	pop	{r4, r7, pc}
 80043aa:	bf00      	nop
 80043ac:	42c80000 	.word	0x42c80000
 80043b0:	2000048c 	.word	0x2000048c
 80043b4:	40590000 	.word	0x40590000
 80043b8:	3ff00000 	.word	0x3ff00000

080043bc <PWMx_Toggle>:
		}

	return RESET;
}

void PWMx_Toggle(PWM_Handler_t *ptrPwmHandler){
 80043bc:	b480      	push	{r7}
 80043be:	b083      	sub	sp, #12
 80043c0:	af00      	add	r7, sp, #0
 80043c2:	6078      	str	r0, [r7, #4]

	switch (ptrPwmHandler->config.channel) {
 80043c4:	687b      	ldr	r3, [r7, #4]
 80043c6:	791b      	ldrb	r3, [r3, #4]
 80043c8:	2b03      	cmp	r3, #3
 80043ca:	d82f      	bhi.n	800442c <PWMx_Toggle+0x70>
 80043cc:	a201      	add	r2, pc, #4	; (adr r2, 80043d4 <PWMx_Toggle+0x18>)
 80043ce:	f852 f023 	ldr.w	pc, [r2, r3, lsl #2]
 80043d2:	bf00      	nop
 80043d4:	080043e5 	.word	0x080043e5
 80043d8:	080043f7 	.word	0x080043f7
 80043dc:	08004409 	.word	0x08004409
 80043e0:	0800441b 	.word	0x0800441b
			case PWM_CHANNEL_1: {
				// Activamos el polarity en este canal
				ptrPwmHandler->ptrTIMx->CCER ^= TIM_CCER_CC1P;
 80043e4:	687b      	ldr	r3, [r7, #4]
 80043e6:	681b      	ldr	r3, [r3, #0]
 80043e8:	6a1a      	ldr	r2, [r3, #32]
 80043ea:	687b      	ldr	r3, [r7, #4]
 80043ec:	681b      	ldr	r3, [r3, #0]
 80043ee:	f082 0202 	eor.w	r2, r2, #2
 80043f2:	621a      	str	r2, [r3, #32]

				break;
 80043f4:	e01b      	b.n	800442e <PWMx_Toggle+0x72>
			}

			case PWM_CHANNEL_2: {
				// Activamos el polarity en este canal
				ptrPwmHandler->ptrTIMx->CCER ^= TIM_CCER_CC2P;
 80043f6:	687b      	ldr	r3, [r7, #4]
 80043f8:	681b      	ldr	r3, [r3, #0]
 80043fa:	6a1a      	ldr	r2, [r3, #32]
 80043fc:	687b      	ldr	r3, [r7, #4]
 80043fe:	681b      	ldr	r3, [r3, #0]
 8004400:	f082 0220 	eor.w	r2, r2, #32
 8004404:	621a      	str	r2, [r3, #32]

				break;
 8004406:	e012      	b.n	800442e <PWMx_Toggle+0x72>
			}

			case PWM_CHANNEL_3: {
				// Activamos el polarity en este canal
				ptrPwmHandler->ptrTIMx->CCER ^= TIM_CCER_CC3P;
 8004408:	687b      	ldr	r3, [r7, #4]
 800440a:	681b      	ldr	r3, [r3, #0]
 800440c:	6a1a      	ldr	r2, [r3, #32]
 800440e:	687b      	ldr	r3, [r7, #4]
 8004410:	681b      	ldr	r3, [r3, #0]
 8004412:	f482 7200 	eor.w	r2, r2, #512	; 0x200
 8004416:	621a      	str	r2, [r3, #32]

				break;
 8004418:	e009      	b.n	800442e <PWMx_Toggle+0x72>
			}

			case PWM_CHANNEL_4: {
				// Activamos el polarity en este canal
				ptrPwmHandler->ptrTIMx->CCER ^= TIM_CCER_CC4P;
 800441a:	687b      	ldr	r3, [r7, #4]
 800441c:	681b      	ldr	r3, [r3, #0]
 800441e:	6a1a      	ldr	r2, [r3, #32]
 8004420:	687b      	ldr	r3, [r7, #4]
 8004422:	681b      	ldr	r3, [r3, #0]
 8004424:	f482 5200 	eor.w	r2, r2, #8192	; 0x2000
 8004428:	621a      	str	r2, [r3, #32]

				break;
 800442a:	e000      	b.n	800442e <PWMx_Toggle+0x72>
			}

			default: {
				break;
 800442c:	bf00      	nop
			}
			}


}
 800442e:	bf00      	nop
 8004430:	370c      	adds	r7, #12
 8004432:	46bd      	mov	sp, r7
 8004434:	f85d 7b04 	ldr.w	r7, [sp], #4
 8004438:	4770      	bx	lr
 800443a:	bf00      	nop

0800443c <RCC_enableMaxFrequencies>:
#include "RCCHunMHz.h"
#include "GPIOxDriver.h"



void RCC_enableMaxFrequencies(uint8_t frequency){
 800443c:	b580      	push	{r7, lr}
 800443e:	b082      	sub	sp, #8
 8004440:	af00      	add	r7, sp, #0
 8004442:	4603      	mov	r3, r0
 8004444:	71fb      	strb	r3, [r7, #7]

	//Nos aseguramos que el PLL esta apagado
	RCC->CR &= ~(RCC_CR_PLLON);
 8004446:	4b92      	ldr	r3, [pc, #584]	; (8004690 <RCC_enableMaxFrequencies+0x254>)
 8004448:	681b      	ldr	r3, [r3, #0]
 800444a:	4a91      	ldr	r2, [pc, #580]	; (8004690 <RCC_enableMaxFrequencies+0x254>)
 800444c:	f023 7380 	bic.w	r3, r3, #16777216	; 0x1000000
 8004450:	6013      	str	r3, [r2, #0]
	//Activamos el PWR parapoder activar el uso de 100MHz de velocidad
	RCC->APB1ENR = RCC_APB1ENR_PWREN;
 8004452:	4b8f      	ldr	r3, [pc, #572]	; (8004690 <RCC_enableMaxFrequencies+0x254>)
 8004454:	f04f 5280 	mov.w	r2, #268435456	; 0x10000000
 8004458:	641a      	str	r2, [r3, #64]	; 0x40
	//Le damos la opcion al PWR de permitir al MCU para correr una frecuencia de maximo 100MHz
	PWR->CR |= (0b11 << 14);
 800445a:	4b8e      	ldr	r3, [pc, #568]	; (8004694 <RCC_enableMaxFrequencies+0x258>)
 800445c:	681b      	ldr	r3, [r3, #0]
 800445e:	4a8d      	ldr	r2, [pc, #564]	; (8004694 <RCC_enableMaxFrequencies+0x258>)
 8004460:	f443 4340 	orr.w	r3, r3, #49152	; 0xc000
 8004464:	6013      	str	r3, [r2, #0]


	//Antes de configurar el PLL referenciamos cual sera la fuente para el PLL, en nuestro caso sera el HSI sobre el mismo
	//registro
	RCC->PLLCFGR &= ~(0b1 << 22);
 8004466:	4b8a      	ldr	r3, [pc, #552]	; (8004690 <RCC_enableMaxFrequencies+0x254>)
 8004468:	685b      	ldr	r3, [r3, #4]
 800446a:	4a89      	ldr	r2, [pc, #548]	; (8004690 <RCC_enableMaxFrequencies+0x254>)
 800446c:	f423 0380 	bic.w	r3, r3, #4194304	; 0x400000
 8004470:	6053      	str	r3, [r2, #4]

	// Aqui si dependiendo de la velocidad que queramos usaremos unos multiplicadores y divisores especificos.
	// La formula es freqSys = freq input * (pllN/(pllM*pllP))

	switch (frequency) {
 8004472:	79fb      	ldrb	r3, [r7, #7]
 8004474:	2b08      	cmp	r3, #8
 8004476:	f200 82fc 	bhi.w	8004a72 <RCC_enableMaxFrequencies+0x636>
 800447a:	a201      	add	r2, pc, #4	; (adr r2, 8004480 <RCC_enableMaxFrequencies+0x44>)
 800447c:	f852 f023 	ldr.w	pc, [r2, r3, lsl #2]
 8004480:	080044a5 	.word	0x080044a5
 8004484:	08004547 	.word	0x08004547
 8004488:	080045e9 	.word	0x080045e9
 800448c:	0800469d 	.word	0x0800469d
 8004490:	0800473f 	.word	0x0800473f
 8004494:	080047e1 	.word	0x080047e1
 8004498:	0800488d 	.word	0x0800488d
 800449c:	0800492f 	.word	0x0800492f
 80044a0:	080049d1 	.word	0x080049d1
		case RCC_20MHz:{
			//freqsys = 16MHz * (120/(16*6)) =  20MHz
			RCC->PLLCFGR &= ~(0xFF << RCC_PLLCFGR_PLLM_Pos);
 80044a4:	4b7a      	ldr	r3, [pc, #488]	; (8004690 <RCC_enableMaxFrequencies+0x254>)
 80044a6:	685b      	ldr	r3, [r3, #4]
 80044a8:	4a79      	ldr	r2, [pc, #484]	; (8004690 <RCC_enableMaxFrequencies+0x254>)
 80044aa:	f023 03ff 	bic.w	r3, r3, #255	; 0xff
 80044ae:	6053      	str	r3, [r2, #4]
			RCC->PLLCFGR |= (16 << RCC_PLLCFGR_PLLM_Pos);
 80044b0:	4b77      	ldr	r3, [pc, #476]	; (8004690 <RCC_enableMaxFrequencies+0x254>)
 80044b2:	685b      	ldr	r3, [r3, #4]
 80044b4:	4a76      	ldr	r2, [pc, #472]	; (8004690 <RCC_enableMaxFrequencies+0x254>)
 80044b6:	f043 0310 	orr.w	r3, r3, #16
 80044ba:	6053      	str	r3, [r2, #4]
			RCC->PLLCFGR &= ~(0x1FF << RCC_PLLCFGR_PLLN_Pos);
 80044bc:	4b74      	ldr	r3, [pc, #464]	; (8004690 <RCC_enableMaxFrequencies+0x254>)
 80044be:	685b      	ldr	r3, [r3, #4]
 80044c0:	4a73      	ldr	r2, [pc, #460]	; (8004690 <RCC_enableMaxFrequencies+0x254>)
 80044c2:	f423 43ff 	bic.w	r3, r3, #32640	; 0x7f80
 80044c6:	f023 0340 	bic.w	r3, r3, #64	; 0x40
 80044ca:	6053      	str	r3, [r2, #4]
			RCC->PLLCFGR |= (120 << RCC_PLLCFGR_PLLN_Pos);
 80044cc:	4b70      	ldr	r3, [pc, #448]	; (8004690 <RCC_enableMaxFrequencies+0x254>)
 80044ce:	685b      	ldr	r3, [r3, #4]
 80044d0:	4a6f      	ldr	r2, [pc, #444]	; (8004690 <RCC_enableMaxFrequencies+0x254>)
 80044d2:	f443 53f0 	orr.w	r3, r3, #7680	; 0x1e00
 80044d6:	6053      	str	r3, [r2, #4]
			RCC->PLLCFGR &= ~(0b11 << RCC_PLLCFGR_PLLP_Pos);
 80044d8:	4b6d      	ldr	r3, [pc, #436]	; (8004690 <RCC_enableMaxFrequencies+0x254>)
 80044da:	685b      	ldr	r3, [r3, #4]
 80044dc:	4a6c      	ldr	r2, [pc, #432]	; (8004690 <RCC_enableMaxFrequencies+0x254>)
 80044de:	f423 3340 	bic.w	r3, r3, #196608	; 0x30000
 80044e2:	6053      	str	r3, [r2, #4]
			RCC->PLLCFGR |= (0b10 << RCC_PLLCFGR_PLLP_Pos); // Division por 6 en el pllP
 80044e4:	4b6a      	ldr	r3, [pc, #424]	; (8004690 <RCC_enableMaxFrequencies+0x254>)
 80044e6:	685b      	ldr	r3, [r3, #4]
 80044e8:	4a69      	ldr	r2, [pc, #420]	; (8004690 <RCC_enableMaxFrequencies+0x254>)
 80044ea:	f443 3300 	orr.w	r3, r3, #131072	; 0x20000
 80044ee:	6053      	str	r3, [r2, #4]


			//Seleccionamos los preescalers adecuados para los AHB y APBx en el registro RCC_CFGR No se divide nada en este caso
			RCC->CFGR &= ~(0b1000 << 4); // Division del AHB por 1
 80044f0:	4b67      	ldr	r3, [pc, #412]	; (8004690 <RCC_enableMaxFrequencies+0x254>)
 80044f2:	689b      	ldr	r3, [r3, #8]
 80044f4:	4a66      	ldr	r2, [pc, #408]	; (8004690 <RCC_enableMaxFrequencies+0x254>)
 80044f6:	f023 0380 	bic.w	r3, r3, #128	; 0x80
 80044fa:	6093      	str	r3, [r2, #8]
			RCC->CFGR &= ~(0b100 << 13); // division del APB2 por 1
 80044fc:	4b64      	ldr	r3, [pc, #400]	; (8004690 <RCC_enableMaxFrequencies+0x254>)
 80044fe:	689b      	ldr	r3, [r3, #8]
 8004500:	4a63      	ldr	r2, [pc, #396]	; (8004690 <RCC_enableMaxFrequencies+0x254>)
 8004502:	f423 4300 	bic.w	r3, r3, #32768	; 0x8000
 8004506:	6093      	str	r3, [r2, #8]
			RCC->CFGR &= ~(0b100 << 10); // Division del APB1 por 1
 8004508:	4b61      	ldr	r3, [pc, #388]	; (8004690 <RCC_enableMaxFrequencies+0x254>)
 800450a:	689b      	ldr	r3, [r3, #8]
 800450c:	4a60      	ldr	r2, [pc, #384]	; (8004690 <RCC_enableMaxFrequencies+0x254>)
 800450e:	f423 5380 	bic.w	r3, r3, #4096	; 0x1000
 8004512:	6093      	str	r3, [r2, #8]

			//Configurado el PLL para salida de 100MHz entonces ya podemos activar el PLL
			RCC->CR |= RCC_CR_PLLON;
 8004514:	4b5e      	ldr	r3, [pc, #376]	; (8004690 <RCC_enableMaxFrequencies+0x254>)
 8004516:	681b      	ldr	r3, [r3, #0]
 8004518:	4a5d      	ldr	r2, [pc, #372]	; (8004690 <RCC_enableMaxFrequencies+0x254>)
 800451a:	f043 7380 	orr.w	r3, r3, #16777216	; 0x1000000
 800451e:	6013      	str	r3, [r2, #0]
			while (!(RCC->CR & RCC_CR_PLLRDY)){
 8004520:	e000      	b.n	8004524 <RCC_enableMaxFrequencies+0xe8>
				__NOP();
 8004522:	bf00      	nop
			while (!(RCC->CR & RCC_CR_PLLRDY)){
 8004524:	4b5a      	ldr	r3, [pc, #360]	; (8004690 <RCC_enableMaxFrequencies+0x254>)
 8004526:	681b      	ldr	r3, [r3, #0]
 8004528:	f003 7300 	and.w	r3, r3, #33554432	; 0x2000000
 800452c:	2b00      	cmp	r3, #0
 800452e:	d0f8      	beq.n	8004522 <RCC_enableMaxFrequencies+0xe6>
			}

			//Antes de configurar el PLL del RCC, debemos cambiar la velocidad de lectura de la memoria flash
			FLASH->ACR &= ~(0xF << FLASH_ACR_LATENCY_Pos);
 8004530:	4b59      	ldr	r3, [pc, #356]	; (8004698 <RCC_enableMaxFrequencies+0x25c>)
 8004532:	681b      	ldr	r3, [r3, #0]
 8004534:	4a58      	ldr	r2, [pc, #352]	; (8004698 <RCC_enableMaxFrequencies+0x25c>)
 8004536:	f023 030f 	bic.w	r3, r3, #15
 800453a:	6013      	str	r3, [r2, #0]
			FLASH->ACR |= (0b000 << FLASH_ACR_LATENCY_Pos);
 800453c:	4b56      	ldr	r3, [pc, #344]	; (8004698 <RCC_enableMaxFrequencies+0x25c>)
 800453e:	4a56      	ldr	r2, [pc, #344]	; (8004698 <RCC_enableMaxFrequencies+0x25c>)
 8004540:	681b      	ldr	r3, [r3, #0]
 8004542:	6013      	str	r3, [r2, #0]

			break;
 8004544:	e296      	b.n	8004a74 <RCC_enableMaxFrequencies+0x638>
		}case RCC_30MHz:{
			//freqsys = 16MHz * (120/(16*4)) =  30MHz
			RCC->PLLCFGR &= ~(0xFF << RCC_PLLCFGR_PLLM_Pos);
 8004546:	4b52      	ldr	r3, [pc, #328]	; (8004690 <RCC_enableMaxFrequencies+0x254>)
 8004548:	685b      	ldr	r3, [r3, #4]
 800454a:	4a51      	ldr	r2, [pc, #324]	; (8004690 <RCC_enableMaxFrequencies+0x254>)
 800454c:	f023 03ff 	bic.w	r3, r3, #255	; 0xff
 8004550:	6053      	str	r3, [r2, #4]
			RCC->PLLCFGR |= (16 << RCC_PLLCFGR_PLLM_Pos);
 8004552:	4b4f      	ldr	r3, [pc, #316]	; (8004690 <RCC_enableMaxFrequencies+0x254>)
 8004554:	685b      	ldr	r3, [r3, #4]
 8004556:	4a4e      	ldr	r2, [pc, #312]	; (8004690 <RCC_enableMaxFrequencies+0x254>)
 8004558:	f043 0310 	orr.w	r3, r3, #16
 800455c:	6053      	str	r3, [r2, #4]
			RCC->PLLCFGR &= ~(0x1FF << RCC_PLLCFGR_PLLN_Pos);
 800455e:	4b4c      	ldr	r3, [pc, #304]	; (8004690 <RCC_enableMaxFrequencies+0x254>)
 8004560:	685b      	ldr	r3, [r3, #4]
 8004562:	4a4b      	ldr	r2, [pc, #300]	; (8004690 <RCC_enableMaxFrequencies+0x254>)
 8004564:	f423 43ff 	bic.w	r3, r3, #32640	; 0x7f80
 8004568:	f023 0340 	bic.w	r3, r3, #64	; 0x40
 800456c:	6053      	str	r3, [r2, #4]
			RCC->PLLCFGR |= (120 << RCC_PLLCFGR_PLLN_Pos);
 800456e:	4b48      	ldr	r3, [pc, #288]	; (8004690 <RCC_enableMaxFrequencies+0x254>)
 8004570:	685b      	ldr	r3, [r3, #4]
 8004572:	4a47      	ldr	r2, [pc, #284]	; (8004690 <RCC_enableMaxFrequencies+0x254>)
 8004574:	f443 53f0 	orr.w	r3, r3, #7680	; 0x1e00
 8004578:	6053      	str	r3, [r2, #4]
			RCC->PLLCFGR &= ~(0b11 << RCC_PLLCFGR_PLLP_Pos);
 800457a:	4b45      	ldr	r3, [pc, #276]	; (8004690 <RCC_enableMaxFrequencies+0x254>)
 800457c:	685b      	ldr	r3, [r3, #4]
 800457e:	4a44      	ldr	r2, [pc, #272]	; (8004690 <RCC_enableMaxFrequencies+0x254>)
 8004580:	f423 3340 	bic.w	r3, r3, #196608	; 0x30000
 8004584:	6053      	str	r3, [r2, #4]
			RCC->PLLCFGR |= (0b01 << RCC_PLLCFGR_PLLP_Pos); // Division por 4 en el pllP
 8004586:	4b42      	ldr	r3, [pc, #264]	; (8004690 <RCC_enableMaxFrequencies+0x254>)
 8004588:	685b      	ldr	r3, [r3, #4]
 800458a:	4a41      	ldr	r2, [pc, #260]	; (8004690 <RCC_enableMaxFrequencies+0x254>)
 800458c:	f443 3380 	orr.w	r3, r3, #65536	; 0x10000
 8004590:	6053      	str	r3, [r2, #4]

			//Seleccionamos los preescalers adecuados para los AHB y APBx en el registro RCC_CFGR No se divide nada en este caso
			RCC->CFGR &= ~(0b1000 << 4); // Division del AHB por 1
 8004592:	4b3f      	ldr	r3, [pc, #252]	; (8004690 <RCC_enableMaxFrequencies+0x254>)
 8004594:	689b      	ldr	r3, [r3, #8]
 8004596:	4a3e      	ldr	r2, [pc, #248]	; (8004690 <RCC_enableMaxFrequencies+0x254>)
 8004598:	f023 0380 	bic.w	r3, r3, #128	; 0x80
 800459c:	6093      	str	r3, [r2, #8]
			RCC->CFGR &= ~(0b100 << 13); // division del APB2 por 1
 800459e:	4b3c      	ldr	r3, [pc, #240]	; (8004690 <RCC_enableMaxFrequencies+0x254>)
 80045a0:	689b      	ldr	r3, [r3, #8]
 80045a2:	4a3b      	ldr	r2, [pc, #236]	; (8004690 <RCC_enableMaxFrequencies+0x254>)
 80045a4:	f423 4300 	bic.w	r3, r3, #32768	; 0x8000
 80045a8:	6093      	str	r3, [r2, #8]
			RCC->CFGR &= ~(0b100 << 10); // Division del APB1 por 1
 80045aa:	4b39      	ldr	r3, [pc, #228]	; (8004690 <RCC_enableMaxFrequencies+0x254>)
 80045ac:	689b      	ldr	r3, [r3, #8]
 80045ae:	4a38      	ldr	r2, [pc, #224]	; (8004690 <RCC_enableMaxFrequencies+0x254>)
 80045b0:	f423 5380 	bic.w	r3, r3, #4096	; 0x1000
 80045b4:	6093      	str	r3, [r2, #8]

			//Configurado el PLL para salida de 100MHz entonces ya podemos activar el PLL
			RCC->CR |= RCC_CR_PLLON;
 80045b6:	4b36      	ldr	r3, [pc, #216]	; (8004690 <RCC_enableMaxFrequencies+0x254>)
 80045b8:	681b      	ldr	r3, [r3, #0]
 80045ba:	4a35      	ldr	r2, [pc, #212]	; (8004690 <RCC_enableMaxFrequencies+0x254>)
 80045bc:	f043 7380 	orr.w	r3, r3, #16777216	; 0x1000000
 80045c0:	6013      	str	r3, [r2, #0]
			while (!(RCC->CR & RCC_CR_PLLRDY)){
 80045c2:	e000      	b.n	80045c6 <RCC_enableMaxFrequencies+0x18a>
				__NOP();
 80045c4:	bf00      	nop
			while (!(RCC->CR & RCC_CR_PLLRDY)){
 80045c6:	4b32      	ldr	r3, [pc, #200]	; (8004690 <RCC_enableMaxFrequencies+0x254>)
 80045c8:	681b      	ldr	r3, [r3, #0]
 80045ca:	f003 7300 	and.w	r3, r3, #33554432	; 0x2000000
 80045ce:	2b00      	cmp	r3, #0
 80045d0:	d0f8      	beq.n	80045c4 <RCC_enableMaxFrequencies+0x188>
			}

			//Antes de configurar el PLL del RCC, debemos cambiar la velocidad de lectura de la memoria flash
			FLASH->ACR &= ~(0xF << FLASH_ACR_LATENCY_Pos);
 80045d2:	4b31      	ldr	r3, [pc, #196]	; (8004698 <RCC_enableMaxFrequencies+0x25c>)
 80045d4:	681b      	ldr	r3, [r3, #0]
 80045d6:	4a30      	ldr	r2, [pc, #192]	; (8004698 <RCC_enableMaxFrequencies+0x25c>)
 80045d8:	f023 030f 	bic.w	r3, r3, #15
 80045dc:	6013      	str	r3, [r2, #0]
			FLASH->ACR |= (0b000 << FLASH_ACR_LATENCY_Pos);
 80045de:	4b2e      	ldr	r3, [pc, #184]	; (8004698 <RCC_enableMaxFrequencies+0x25c>)
 80045e0:	4a2d      	ldr	r2, [pc, #180]	; (8004698 <RCC_enableMaxFrequencies+0x25c>)
 80045e2:	681b      	ldr	r3, [r3, #0]
 80045e4:	6013      	str	r3, [r2, #0]

			break;
 80045e6:	e245      	b.n	8004a74 <RCC_enableMaxFrequencies+0x638>
		}case RCC_40MHz:{
			//freqsys = 16MHz * (240/(16*6)) =  40MHz
			RCC->PLLCFGR &= ~(0xFF << RCC_PLLCFGR_PLLM_Pos);
 80045e8:	4b29      	ldr	r3, [pc, #164]	; (8004690 <RCC_enableMaxFrequencies+0x254>)
 80045ea:	685b      	ldr	r3, [r3, #4]
 80045ec:	4a28      	ldr	r2, [pc, #160]	; (8004690 <RCC_enableMaxFrequencies+0x254>)
 80045ee:	f023 03ff 	bic.w	r3, r3, #255	; 0xff
 80045f2:	6053      	str	r3, [r2, #4]
			RCC->PLLCFGR |= (16 << RCC_PLLCFGR_PLLM_Pos);
 80045f4:	4b26      	ldr	r3, [pc, #152]	; (8004690 <RCC_enableMaxFrequencies+0x254>)
 80045f6:	685b      	ldr	r3, [r3, #4]
 80045f8:	4a25      	ldr	r2, [pc, #148]	; (8004690 <RCC_enableMaxFrequencies+0x254>)
 80045fa:	f043 0310 	orr.w	r3, r3, #16
 80045fe:	6053      	str	r3, [r2, #4]
			RCC->PLLCFGR &= ~(0x1FF << RCC_PLLCFGR_PLLN_Pos);
 8004600:	4b23      	ldr	r3, [pc, #140]	; (8004690 <RCC_enableMaxFrequencies+0x254>)
 8004602:	685b      	ldr	r3, [r3, #4]
 8004604:	4a22      	ldr	r2, [pc, #136]	; (8004690 <RCC_enableMaxFrequencies+0x254>)
 8004606:	f423 43ff 	bic.w	r3, r3, #32640	; 0x7f80
 800460a:	f023 0340 	bic.w	r3, r3, #64	; 0x40
 800460e:	6053      	str	r3, [r2, #4]
			RCC->PLLCFGR |= (240 << RCC_PLLCFGR_PLLN_Pos);
 8004610:	4b1f      	ldr	r3, [pc, #124]	; (8004690 <RCC_enableMaxFrequencies+0x254>)
 8004612:	685b      	ldr	r3, [r3, #4]
 8004614:	4a1e      	ldr	r2, [pc, #120]	; (8004690 <RCC_enableMaxFrequencies+0x254>)
 8004616:	f443 5370 	orr.w	r3, r3, #15360	; 0x3c00
 800461a:	6053      	str	r3, [r2, #4]
			RCC->PLLCFGR &= ~(0b11 << RCC_PLLCFGR_PLLP_Pos);
 800461c:	4b1c      	ldr	r3, [pc, #112]	; (8004690 <RCC_enableMaxFrequencies+0x254>)
 800461e:	685b      	ldr	r3, [r3, #4]
 8004620:	4a1b      	ldr	r2, [pc, #108]	; (8004690 <RCC_enableMaxFrequencies+0x254>)
 8004622:	f423 3340 	bic.w	r3, r3, #196608	; 0x30000
 8004626:	6053      	str	r3, [r2, #4]
			RCC->PLLCFGR |= (0b10 << RCC_PLLCFGR_PLLP_Pos); // Division por 6 en el pllP
 8004628:	4b19      	ldr	r3, [pc, #100]	; (8004690 <RCC_enableMaxFrequencies+0x254>)
 800462a:	685b      	ldr	r3, [r3, #4]
 800462c:	4a18      	ldr	r2, [pc, #96]	; (8004690 <RCC_enableMaxFrequencies+0x254>)
 800462e:	f443 3300 	orr.w	r3, r3, #131072	; 0x20000
 8004632:	6053      	str	r3, [r2, #4]

			//Seleccionamos los preescalers adecuados para los AHB y APBx en el registro RCC_CFGR No se divide nada en este caso
			RCC->CFGR &= ~(0b1000 << 4); // Division del AHB por 1
 8004634:	4b16      	ldr	r3, [pc, #88]	; (8004690 <RCC_enableMaxFrequencies+0x254>)
 8004636:	689b      	ldr	r3, [r3, #8]
 8004638:	4a15      	ldr	r2, [pc, #84]	; (8004690 <RCC_enableMaxFrequencies+0x254>)
 800463a:	f023 0380 	bic.w	r3, r3, #128	; 0x80
 800463e:	6093      	str	r3, [r2, #8]
			RCC->CFGR &= ~(0b100 << 13); // division del APB2 por 1
 8004640:	4b13      	ldr	r3, [pc, #76]	; (8004690 <RCC_enableMaxFrequencies+0x254>)
 8004642:	689b      	ldr	r3, [r3, #8]
 8004644:	4a12      	ldr	r2, [pc, #72]	; (8004690 <RCC_enableMaxFrequencies+0x254>)
 8004646:	f423 4300 	bic.w	r3, r3, #32768	; 0x8000
 800464a:	6093      	str	r3, [r2, #8]
			RCC->CFGR &= ~(0b100 << 10); // Division del APB1 por 1
 800464c:	4b10      	ldr	r3, [pc, #64]	; (8004690 <RCC_enableMaxFrequencies+0x254>)
 800464e:	689b      	ldr	r3, [r3, #8]
 8004650:	4a0f      	ldr	r2, [pc, #60]	; (8004690 <RCC_enableMaxFrequencies+0x254>)
 8004652:	f423 5380 	bic.w	r3, r3, #4096	; 0x1000
 8004656:	6093      	str	r3, [r2, #8]

			//Configurado el PLL para salida de 100MHz entonces ya podemos activar el PLL
			RCC->CR |= RCC_CR_PLLON;
 8004658:	4b0d      	ldr	r3, [pc, #52]	; (8004690 <RCC_enableMaxFrequencies+0x254>)
 800465a:	681b      	ldr	r3, [r3, #0]
 800465c:	4a0c      	ldr	r2, [pc, #48]	; (8004690 <RCC_enableMaxFrequencies+0x254>)
 800465e:	f043 7380 	orr.w	r3, r3, #16777216	; 0x1000000
 8004662:	6013      	str	r3, [r2, #0]
			while (!(RCC->CR & RCC_CR_PLLRDY)){
 8004664:	e000      	b.n	8004668 <RCC_enableMaxFrequencies+0x22c>
				__NOP();
 8004666:	bf00      	nop
			while (!(RCC->CR & RCC_CR_PLLRDY)){
 8004668:	4b09      	ldr	r3, [pc, #36]	; (8004690 <RCC_enableMaxFrequencies+0x254>)
 800466a:	681b      	ldr	r3, [r3, #0]
 800466c:	f003 7300 	and.w	r3, r3, #33554432	; 0x2000000
 8004670:	2b00      	cmp	r3, #0
 8004672:	d0f8      	beq.n	8004666 <RCC_enableMaxFrequencies+0x22a>
			}

			//Antes de configurar el PLL del RCC, debemos cambiar la velocidad de lectura de la memoria flash
			FLASH->ACR &= ~(0xF << FLASH_ACR_LATENCY_Pos);
 8004674:	4b08      	ldr	r3, [pc, #32]	; (8004698 <RCC_enableMaxFrequencies+0x25c>)
 8004676:	681b      	ldr	r3, [r3, #0]
 8004678:	4a07      	ldr	r2, [pc, #28]	; (8004698 <RCC_enableMaxFrequencies+0x25c>)
 800467a:	f023 030f 	bic.w	r3, r3, #15
 800467e:	6013      	str	r3, [r2, #0]
			FLASH->ACR |= (0b001 << FLASH_ACR_LATENCY_Pos);
 8004680:	4b05      	ldr	r3, [pc, #20]	; (8004698 <RCC_enableMaxFrequencies+0x25c>)
 8004682:	681b      	ldr	r3, [r3, #0]
 8004684:	4a04      	ldr	r2, [pc, #16]	; (8004698 <RCC_enableMaxFrequencies+0x25c>)
 8004686:	f043 0301 	orr.w	r3, r3, #1
 800468a:	6013      	str	r3, [r2, #0]


			break;
 800468c:	e1f2      	b.n	8004a74 <RCC_enableMaxFrequencies+0x638>
 800468e:	bf00      	nop
 8004690:	40023800 	.word	0x40023800
 8004694:	40007000 	.word	0x40007000
 8004698:	40023c00 	.word	0x40023c00
		}case RCC_50MHz:{
			//freqsys = 16MHz * (100/(16*2)) =  50MHz
			RCC->PLLCFGR &= ~(0xFF << RCC_PLLCFGR_PLLM_Pos);
 800469c:	4b79      	ldr	r3, [pc, #484]	; (8004884 <RCC_enableMaxFrequencies+0x448>)
 800469e:	685b      	ldr	r3, [r3, #4]
 80046a0:	4a78      	ldr	r2, [pc, #480]	; (8004884 <RCC_enableMaxFrequencies+0x448>)
 80046a2:	f023 03ff 	bic.w	r3, r3, #255	; 0xff
 80046a6:	6053      	str	r3, [r2, #4]
			RCC->PLLCFGR |= (16 << RCC_PLLCFGR_PLLM_Pos);
 80046a8:	4b76      	ldr	r3, [pc, #472]	; (8004884 <RCC_enableMaxFrequencies+0x448>)
 80046aa:	685b      	ldr	r3, [r3, #4]
 80046ac:	4a75      	ldr	r2, [pc, #468]	; (8004884 <RCC_enableMaxFrequencies+0x448>)
 80046ae:	f043 0310 	orr.w	r3, r3, #16
 80046b2:	6053      	str	r3, [r2, #4]
			RCC->PLLCFGR &= ~(0x1FF << RCC_PLLCFGR_PLLN_Pos);
 80046b4:	4b73      	ldr	r3, [pc, #460]	; (8004884 <RCC_enableMaxFrequencies+0x448>)
 80046b6:	685b      	ldr	r3, [r3, #4]
 80046b8:	4a72      	ldr	r2, [pc, #456]	; (8004884 <RCC_enableMaxFrequencies+0x448>)
 80046ba:	f423 43ff 	bic.w	r3, r3, #32640	; 0x7f80
 80046be:	f023 0340 	bic.w	r3, r3, #64	; 0x40
 80046c2:	6053      	str	r3, [r2, #4]
			RCC->PLLCFGR |= (100 << RCC_PLLCFGR_PLLN_Pos);
 80046c4:	4b6f      	ldr	r3, [pc, #444]	; (8004884 <RCC_enableMaxFrequencies+0x448>)
 80046c6:	685b      	ldr	r3, [r3, #4]
 80046c8:	4a6e      	ldr	r2, [pc, #440]	; (8004884 <RCC_enableMaxFrequencies+0x448>)
 80046ca:	f443 53c8 	orr.w	r3, r3, #6400	; 0x1900
 80046ce:	6053      	str	r3, [r2, #4]
			RCC->PLLCFGR &= ~(0b11 << RCC_PLLCFGR_PLLP_Pos);
 80046d0:	4b6c      	ldr	r3, [pc, #432]	; (8004884 <RCC_enableMaxFrequencies+0x448>)
 80046d2:	685b      	ldr	r3, [r3, #4]
 80046d4:	4a6b      	ldr	r2, [pc, #428]	; (8004884 <RCC_enableMaxFrequencies+0x448>)
 80046d6:	f423 3340 	bic.w	r3, r3, #196608	; 0x30000
 80046da:	6053      	str	r3, [r2, #4]
			RCC->PLLCFGR |= (0b00 << RCC_PLLCFGR_PLLP_Pos); // Division por 2 en el pllP
 80046dc:	4b69      	ldr	r3, [pc, #420]	; (8004884 <RCC_enableMaxFrequencies+0x448>)
 80046de:	4a69      	ldr	r2, [pc, #420]	; (8004884 <RCC_enableMaxFrequencies+0x448>)
 80046e0:	685b      	ldr	r3, [r3, #4]
 80046e2:	6053      	str	r3, [r2, #4]

			//Seleccionamos los preescalers adecuados para los AHB y APBx en el registro RCC_CFGR No se divide nada en este caso
			RCC->CFGR &= ~(0b1000 << 4); // Division del AHB por 1
 80046e4:	4b67      	ldr	r3, [pc, #412]	; (8004884 <RCC_enableMaxFrequencies+0x448>)
 80046e6:	689b      	ldr	r3, [r3, #8]
 80046e8:	4a66      	ldr	r2, [pc, #408]	; (8004884 <RCC_enableMaxFrequencies+0x448>)
 80046ea:	f023 0380 	bic.w	r3, r3, #128	; 0x80
 80046ee:	6093      	str	r3, [r2, #8]
			RCC->CFGR &= ~(0b100 << 13); // division del APB2 por 1
 80046f0:	4b64      	ldr	r3, [pc, #400]	; (8004884 <RCC_enableMaxFrequencies+0x448>)
 80046f2:	689b      	ldr	r3, [r3, #8]
 80046f4:	4a63      	ldr	r2, [pc, #396]	; (8004884 <RCC_enableMaxFrequencies+0x448>)
 80046f6:	f423 4300 	bic.w	r3, r3, #32768	; 0x8000
 80046fa:	6093      	str	r3, [r2, #8]
			RCC->CFGR &= ~(0b100 << 10); // Division del APB1 por 1
 80046fc:	4b61      	ldr	r3, [pc, #388]	; (8004884 <RCC_enableMaxFrequencies+0x448>)
 80046fe:	689b      	ldr	r3, [r3, #8]
 8004700:	4a60      	ldr	r2, [pc, #384]	; (8004884 <RCC_enableMaxFrequencies+0x448>)
 8004702:	f423 5380 	bic.w	r3, r3, #4096	; 0x1000
 8004706:	6093      	str	r3, [r2, #8]

			//Configurado el PLL para salida de 100MHz entonces ya podemos activar el PLL
			RCC->CR |= RCC_CR_PLLON;
 8004708:	4b5e      	ldr	r3, [pc, #376]	; (8004884 <RCC_enableMaxFrequencies+0x448>)
 800470a:	681b      	ldr	r3, [r3, #0]
 800470c:	4a5d      	ldr	r2, [pc, #372]	; (8004884 <RCC_enableMaxFrequencies+0x448>)
 800470e:	f043 7380 	orr.w	r3, r3, #16777216	; 0x1000000
 8004712:	6013      	str	r3, [r2, #0]
			while (!(RCC->CR & RCC_CR_PLLRDY)){
 8004714:	e000      	b.n	8004718 <RCC_enableMaxFrequencies+0x2dc>
				__NOP();
 8004716:	bf00      	nop
			while (!(RCC->CR & RCC_CR_PLLRDY)){
 8004718:	4b5a      	ldr	r3, [pc, #360]	; (8004884 <RCC_enableMaxFrequencies+0x448>)
 800471a:	681b      	ldr	r3, [r3, #0]
 800471c:	f003 7300 	and.w	r3, r3, #33554432	; 0x2000000
 8004720:	2b00      	cmp	r3, #0
 8004722:	d0f8      	beq.n	8004716 <RCC_enableMaxFrequencies+0x2da>
			}

			//Antes de configurar el PLL del RCC, debemos cambiar la velocidad de lectura de la memoria flash
			FLASH->ACR &= ~(0xF << FLASH_ACR_LATENCY_Pos);
 8004724:	4b58      	ldr	r3, [pc, #352]	; (8004888 <RCC_enableMaxFrequencies+0x44c>)
 8004726:	681b      	ldr	r3, [r3, #0]
 8004728:	4a57      	ldr	r2, [pc, #348]	; (8004888 <RCC_enableMaxFrequencies+0x44c>)
 800472a:	f023 030f 	bic.w	r3, r3, #15
 800472e:	6013      	str	r3, [r2, #0]
			FLASH->ACR |= (0b001 << FLASH_ACR_LATENCY_Pos);
 8004730:	4b55      	ldr	r3, [pc, #340]	; (8004888 <RCC_enableMaxFrequencies+0x44c>)
 8004732:	681b      	ldr	r3, [r3, #0]
 8004734:	4a54      	ldr	r2, [pc, #336]	; (8004888 <RCC_enableMaxFrequencies+0x44c>)
 8004736:	f043 0301 	orr.w	r3, r3, #1
 800473a:	6013      	str	r3, [r2, #0]

			break;
 800473c:	e19a      	b.n	8004a74 <RCC_enableMaxFrequencies+0x638>
		}case RCC_60MHz:{
			//freqsys = 16MHz * (120/(16*2)) =  60MHz
			RCC->PLLCFGR &= ~(0xFF << RCC_PLLCFGR_PLLM_Pos);
 800473e:	4b51      	ldr	r3, [pc, #324]	; (8004884 <RCC_enableMaxFrequencies+0x448>)
 8004740:	685b      	ldr	r3, [r3, #4]
 8004742:	4a50      	ldr	r2, [pc, #320]	; (8004884 <RCC_enableMaxFrequencies+0x448>)
 8004744:	f023 03ff 	bic.w	r3, r3, #255	; 0xff
 8004748:	6053      	str	r3, [r2, #4]
			RCC->PLLCFGR |= (16 << RCC_PLLCFGR_PLLM_Pos);
 800474a:	4b4e      	ldr	r3, [pc, #312]	; (8004884 <RCC_enableMaxFrequencies+0x448>)
 800474c:	685b      	ldr	r3, [r3, #4]
 800474e:	4a4d      	ldr	r2, [pc, #308]	; (8004884 <RCC_enableMaxFrequencies+0x448>)
 8004750:	f043 0310 	orr.w	r3, r3, #16
 8004754:	6053      	str	r3, [r2, #4]
			RCC->PLLCFGR &= ~(0x1FF << RCC_PLLCFGR_PLLN_Pos);
 8004756:	4b4b      	ldr	r3, [pc, #300]	; (8004884 <RCC_enableMaxFrequencies+0x448>)
 8004758:	685b      	ldr	r3, [r3, #4]
 800475a:	4a4a      	ldr	r2, [pc, #296]	; (8004884 <RCC_enableMaxFrequencies+0x448>)
 800475c:	f423 43ff 	bic.w	r3, r3, #32640	; 0x7f80
 8004760:	f023 0340 	bic.w	r3, r3, #64	; 0x40
 8004764:	6053      	str	r3, [r2, #4]
			RCC->PLLCFGR |= (120 << RCC_PLLCFGR_PLLN_Pos);
 8004766:	4b47      	ldr	r3, [pc, #284]	; (8004884 <RCC_enableMaxFrequencies+0x448>)
 8004768:	685b      	ldr	r3, [r3, #4]
 800476a:	4a46      	ldr	r2, [pc, #280]	; (8004884 <RCC_enableMaxFrequencies+0x448>)
 800476c:	f443 53f0 	orr.w	r3, r3, #7680	; 0x1e00
 8004770:	6053      	str	r3, [r2, #4]
			RCC->PLLCFGR &= ~(0b11 << RCC_PLLCFGR_PLLP_Pos);
 8004772:	4b44      	ldr	r3, [pc, #272]	; (8004884 <RCC_enableMaxFrequencies+0x448>)
 8004774:	685b      	ldr	r3, [r3, #4]
 8004776:	4a43      	ldr	r2, [pc, #268]	; (8004884 <RCC_enableMaxFrequencies+0x448>)
 8004778:	f423 3340 	bic.w	r3, r3, #196608	; 0x30000
 800477c:	6053      	str	r3, [r2, #4]
			RCC->PLLCFGR |= (0b00 << RCC_PLLCFGR_PLLP_Pos); // Division por 2 en el pllP
 800477e:	4b41      	ldr	r3, [pc, #260]	; (8004884 <RCC_enableMaxFrequencies+0x448>)
 8004780:	4a40      	ldr	r2, [pc, #256]	; (8004884 <RCC_enableMaxFrequencies+0x448>)
 8004782:	685b      	ldr	r3, [r3, #4]
 8004784:	6053      	str	r3, [r2, #4]

			//Seleccionamos los preescalers adecuados para los AHB y APBx en el registro RCC_CFGR
			RCC->CFGR &= ~(0b1000 << 4); // Division del AHB por 1
 8004786:	4b3f      	ldr	r3, [pc, #252]	; (8004884 <RCC_enableMaxFrequencies+0x448>)
 8004788:	689b      	ldr	r3, [r3, #8]
 800478a:	4a3e      	ldr	r2, [pc, #248]	; (8004884 <RCC_enableMaxFrequencies+0x448>)
 800478c:	f023 0380 	bic.w	r3, r3, #128	; 0x80
 8004790:	6093      	str	r3, [r2, #8]
			RCC->CFGR &= ~(0b100 << 13); // division del APB2 por 1
 8004792:	4b3c      	ldr	r3, [pc, #240]	; (8004884 <RCC_enableMaxFrequencies+0x448>)
 8004794:	689b      	ldr	r3, [r3, #8]
 8004796:	4a3b      	ldr	r2, [pc, #236]	; (8004884 <RCC_enableMaxFrequencies+0x448>)
 8004798:	f423 4300 	bic.w	r3, r3, #32768	; 0x8000
 800479c:	6093      	str	r3, [r2, #8]
			RCC->CFGR |= (0b100 << 10); // Division del APB1 por 2
 800479e:	4b39      	ldr	r3, [pc, #228]	; (8004884 <RCC_enableMaxFrequencies+0x448>)
 80047a0:	689b      	ldr	r3, [r3, #8]
 80047a2:	4a38      	ldr	r2, [pc, #224]	; (8004884 <RCC_enableMaxFrequencies+0x448>)
 80047a4:	f443 5380 	orr.w	r3, r3, #4096	; 0x1000
 80047a8:	6093      	str	r3, [r2, #8]

			//Configurado el PLL para salida de 100MHz entonces ya podemos activar el PLL
			RCC->CR |= RCC_CR_PLLON;
 80047aa:	4b36      	ldr	r3, [pc, #216]	; (8004884 <RCC_enableMaxFrequencies+0x448>)
 80047ac:	681b      	ldr	r3, [r3, #0]
 80047ae:	4a35      	ldr	r2, [pc, #212]	; (8004884 <RCC_enableMaxFrequencies+0x448>)
 80047b0:	f043 7380 	orr.w	r3, r3, #16777216	; 0x1000000
 80047b4:	6013      	str	r3, [r2, #0]
			while (!(RCC->CR & RCC_CR_PLLRDY)){
 80047b6:	e000      	b.n	80047ba <RCC_enableMaxFrequencies+0x37e>
				__NOP();
 80047b8:	bf00      	nop
			while (!(RCC->CR & RCC_CR_PLLRDY)){
 80047ba:	4b32      	ldr	r3, [pc, #200]	; (8004884 <RCC_enableMaxFrequencies+0x448>)
 80047bc:	681b      	ldr	r3, [r3, #0]
 80047be:	f003 7300 	and.w	r3, r3, #33554432	; 0x2000000
 80047c2:	2b00      	cmp	r3, #0
 80047c4:	d0f8      	beq.n	80047b8 <RCC_enableMaxFrequencies+0x37c>
			}

			//Antes de configurar el PLL del RCC, debemos cambiar la velocidad de lectura de la memoria flash
			FLASH->ACR &= ~(0xF << FLASH_ACR_LATENCY_Pos);
 80047c6:	4b30      	ldr	r3, [pc, #192]	; (8004888 <RCC_enableMaxFrequencies+0x44c>)
 80047c8:	681b      	ldr	r3, [r3, #0]
 80047ca:	4a2f      	ldr	r2, [pc, #188]	; (8004888 <RCC_enableMaxFrequencies+0x44c>)
 80047cc:	f023 030f 	bic.w	r3, r3, #15
 80047d0:	6013      	str	r3, [r2, #0]
			FLASH->ACR |= (0b001 << FLASH_ACR_LATENCY_Pos);
 80047d2:	4b2d      	ldr	r3, [pc, #180]	; (8004888 <RCC_enableMaxFrequencies+0x44c>)
 80047d4:	681b      	ldr	r3, [r3, #0]
 80047d6:	4a2c      	ldr	r2, [pc, #176]	; (8004888 <RCC_enableMaxFrequencies+0x44c>)
 80047d8:	f043 0301 	orr.w	r3, r3, #1
 80047dc:	6013      	str	r3, [r2, #0]

			break;
 80047de:	e149      	b.n	8004a74 <RCC_enableMaxFrequencies+0x638>
		}case RCC_70MHz:{
			//freqsys = 16MHz * (140/(16*2)) =  70MHz
			RCC->PLLCFGR &= ~(0xFF << RCC_PLLCFGR_PLLM_Pos);
 80047e0:	4b28      	ldr	r3, [pc, #160]	; (8004884 <RCC_enableMaxFrequencies+0x448>)
 80047e2:	685b      	ldr	r3, [r3, #4]
 80047e4:	4a27      	ldr	r2, [pc, #156]	; (8004884 <RCC_enableMaxFrequencies+0x448>)
 80047e6:	f023 03ff 	bic.w	r3, r3, #255	; 0xff
 80047ea:	6053      	str	r3, [r2, #4]
			RCC->PLLCFGR |= (16 << RCC_PLLCFGR_PLLM_Pos);
 80047ec:	4b25      	ldr	r3, [pc, #148]	; (8004884 <RCC_enableMaxFrequencies+0x448>)
 80047ee:	685b      	ldr	r3, [r3, #4]
 80047f0:	4a24      	ldr	r2, [pc, #144]	; (8004884 <RCC_enableMaxFrequencies+0x448>)
 80047f2:	f043 0310 	orr.w	r3, r3, #16
 80047f6:	6053      	str	r3, [r2, #4]
			RCC->PLLCFGR &= ~(0x1FF << RCC_PLLCFGR_PLLN_Pos);
 80047f8:	4b22      	ldr	r3, [pc, #136]	; (8004884 <RCC_enableMaxFrequencies+0x448>)
 80047fa:	685b      	ldr	r3, [r3, #4]
 80047fc:	4a21      	ldr	r2, [pc, #132]	; (8004884 <RCC_enableMaxFrequencies+0x448>)
 80047fe:	f423 43ff 	bic.w	r3, r3, #32640	; 0x7f80
 8004802:	f023 0340 	bic.w	r3, r3, #64	; 0x40
 8004806:	6053      	str	r3, [r2, #4]
			RCC->PLLCFGR |= (140 << RCC_PLLCFGR_PLLN_Pos);
 8004808:	4b1e      	ldr	r3, [pc, #120]	; (8004884 <RCC_enableMaxFrequencies+0x448>)
 800480a:	685b      	ldr	r3, [r3, #4]
 800480c:	4a1d      	ldr	r2, [pc, #116]	; (8004884 <RCC_enableMaxFrequencies+0x448>)
 800480e:	f443 530c 	orr.w	r3, r3, #8960	; 0x2300
 8004812:	6053      	str	r3, [r2, #4]
			RCC->PLLCFGR &= ~(0b11 << RCC_PLLCFGR_PLLP_Pos);
 8004814:	4b1b      	ldr	r3, [pc, #108]	; (8004884 <RCC_enableMaxFrequencies+0x448>)
 8004816:	685b      	ldr	r3, [r3, #4]
 8004818:	4a1a      	ldr	r2, [pc, #104]	; (8004884 <RCC_enableMaxFrequencies+0x448>)
 800481a:	f423 3340 	bic.w	r3, r3, #196608	; 0x30000
 800481e:	6053      	str	r3, [r2, #4]
			RCC->PLLCFGR |= (0b00 << RCC_PLLCFGR_PLLP_Pos); // Division por 2 en el pllP
 8004820:	4b18      	ldr	r3, [pc, #96]	; (8004884 <RCC_enableMaxFrequencies+0x448>)
 8004822:	4a18      	ldr	r2, [pc, #96]	; (8004884 <RCC_enableMaxFrequencies+0x448>)
 8004824:	685b      	ldr	r3, [r3, #4]
 8004826:	6053      	str	r3, [r2, #4]

			//Seleccionamos los preescalers adecuados para los AHB y APBx en el registro RCC_CFGR
			RCC->CFGR &= ~(0b1000 << 4); // Division del AHB por 1
 8004828:	4b16      	ldr	r3, [pc, #88]	; (8004884 <RCC_enableMaxFrequencies+0x448>)
 800482a:	689b      	ldr	r3, [r3, #8]
 800482c:	4a15      	ldr	r2, [pc, #84]	; (8004884 <RCC_enableMaxFrequencies+0x448>)
 800482e:	f023 0380 	bic.w	r3, r3, #128	; 0x80
 8004832:	6093      	str	r3, [r2, #8]
			RCC->CFGR &= ~(0b100 << 13); // division del APB2 por 1
 8004834:	4b13      	ldr	r3, [pc, #76]	; (8004884 <RCC_enableMaxFrequencies+0x448>)
 8004836:	689b      	ldr	r3, [r3, #8]
 8004838:	4a12      	ldr	r2, [pc, #72]	; (8004884 <RCC_enableMaxFrequencies+0x448>)
 800483a:	f423 4300 	bic.w	r3, r3, #32768	; 0x8000
 800483e:	6093      	str	r3, [r2, #8]
			RCC->CFGR |= (0b100 << 10); // Division del APB1 por 2
 8004840:	4b10      	ldr	r3, [pc, #64]	; (8004884 <RCC_enableMaxFrequencies+0x448>)
 8004842:	689b      	ldr	r3, [r3, #8]
 8004844:	4a0f      	ldr	r2, [pc, #60]	; (8004884 <RCC_enableMaxFrequencies+0x448>)
 8004846:	f443 5380 	orr.w	r3, r3, #4096	; 0x1000
 800484a:	6093      	str	r3, [r2, #8]

			//Configurado el PLL para salida de 100MHz entonces ya podemos activar el PLL
			RCC->CR |= RCC_CR_PLLON;
 800484c:	4b0d      	ldr	r3, [pc, #52]	; (8004884 <RCC_enableMaxFrequencies+0x448>)
 800484e:	681b      	ldr	r3, [r3, #0]
 8004850:	4a0c      	ldr	r2, [pc, #48]	; (8004884 <RCC_enableMaxFrequencies+0x448>)
 8004852:	f043 7380 	orr.w	r3, r3, #16777216	; 0x1000000
 8004856:	6013      	str	r3, [r2, #0]
			while (!(RCC->CR & RCC_CR_PLLRDY)){
 8004858:	e000      	b.n	800485c <RCC_enableMaxFrequencies+0x420>
				__NOP();
 800485a:	bf00      	nop
			while (!(RCC->CR & RCC_CR_PLLRDY)){
 800485c:	4b09      	ldr	r3, [pc, #36]	; (8004884 <RCC_enableMaxFrequencies+0x448>)
 800485e:	681b      	ldr	r3, [r3, #0]
 8004860:	f003 7300 	and.w	r3, r3, #33554432	; 0x2000000
 8004864:	2b00      	cmp	r3, #0
 8004866:	d0f8      	beq.n	800485a <RCC_enableMaxFrequencies+0x41e>
			}

			//Antes de configurar el PLL del RCC, debemos cambiar la velocidad de lectura de la memoria flash
			FLASH->ACR &= ~(0xF << FLASH_ACR_LATENCY_Pos);
 8004868:	4b07      	ldr	r3, [pc, #28]	; (8004888 <RCC_enableMaxFrequencies+0x44c>)
 800486a:	681b      	ldr	r3, [r3, #0]
 800486c:	4a06      	ldr	r2, [pc, #24]	; (8004888 <RCC_enableMaxFrequencies+0x44c>)
 800486e:	f023 030f 	bic.w	r3, r3, #15
 8004872:	6013      	str	r3, [r2, #0]
			FLASH->ACR |= (0b010 << FLASH_ACR_LATENCY_Pos);
 8004874:	4b04      	ldr	r3, [pc, #16]	; (8004888 <RCC_enableMaxFrequencies+0x44c>)
 8004876:	681b      	ldr	r3, [r3, #0]
 8004878:	4a03      	ldr	r2, [pc, #12]	; (8004888 <RCC_enableMaxFrequencies+0x44c>)
 800487a:	f043 0302 	orr.w	r3, r3, #2
 800487e:	6013      	str	r3, [r2, #0]

			break;
 8004880:	e0f8      	b.n	8004a74 <RCC_enableMaxFrequencies+0x638>
 8004882:	bf00      	nop
 8004884:	40023800 	.word	0x40023800
 8004888:	40023c00 	.word	0x40023c00
		}case RCC_80MHz:{
			//freqsys = 16MHz * (160/(16*2)) =  80MHz
			RCC->PLLCFGR &= ~(0xFF << RCC_PLLCFGR_PLLM_Pos);
 800488c:	4b83      	ldr	r3, [pc, #524]	; (8004a9c <RCC_enableMaxFrequencies+0x660>)
 800488e:	685b      	ldr	r3, [r3, #4]
 8004890:	4a82      	ldr	r2, [pc, #520]	; (8004a9c <RCC_enableMaxFrequencies+0x660>)
 8004892:	f023 03ff 	bic.w	r3, r3, #255	; 0xff
 8004896:	6053      	str	r3, [r2, #4]
			RCC->PLLCFGR |= (16 << RCC_PLLCFGR_PLLM_Pos);
 8004898:	4b80      	ldr	r3, [pc, #512]	; (8004a9c <RCC_enableMaxFrequencies+0x660>)
 800489a:	685b      	ldr	r3, [r3, #4]
 800489c:	4a7f      	ldr	r2, [pc, #508]	; (8004a9c <RCC_enableMaxFrequencies+0x660>)
 800489e:	f043 0310 	orr.w	r3, r3, #16
 80048a2:	6053      	str	r3, [r2, #4]
			RCC->PLLCFGR &= ~(0x1FF << RCC_PLLCFGR_PLLN_Pos);
 80048a4:	4b7d      	ldr	r3, [pc, #500]	; (8004a9c <RCC_enableMaxFrequencies+0x660>)
 80048a6:	685b      	ldr	r3, [r3, #4]
 80048a8:	4a7c      	ldr	r2, [pc, #496]	; (8004a9c <RCC_enableMaxFrequencies+0x660>)
 80048aa:	f423 43ff 	bic.w	r3, r3, #32640	; 0x7f80
 80048ae:	f023 0340 	bic.w	r3, r3, #64	; 0x40
 80048b2:	6053      	str	r3, [r2, #4]
			RCC->PLLCFGR |= (160 << RCC_PLLCFGR_PLLN_Pos);
 80048b4:	4b79      	ldr	r3, [pc, #484]	; (8004a9c <RCC_enableMaxFrequencies+0x660>)
 80048b6:	685b      	ldr	r3, [r3, #4]
 80048b8:	4a78      	ldr	r2, [pc, #480]	; (8004a9c <RCC_enableMaxFrequencies+0x660>)
 80048ba:	f443 5320 	orr.w	r3, r3, #10240	; 0x2800
 80048be:	6053      	str	r3, [r2, #4]
			RCC->PLLCFGR &= ~(0b11 << RCC_PLLCFGR_PLLP_Pos);
 80048c0:	4b76      	ldr	r3, [pc, #472]	; (8004a9c <RCC_enableMaxFrequencies+0x660>)
 80048c2:	685b      	ldr	r3, [r3, #4]
 80048c4:	4a75      	ldr	r2, [pc, #468]	; (8004a9c <RCC_enableMaxFrequencies+0x660>)
 80048c6:	f423 3340 	bic.w	r3, r3, #196608	; 0x30000
 80048ca:	6053      	str	r3, [r2, #4]
			RCC->PLLCFGR |= (0b00 << RCC_PLLCFGR_PLLP_Pos); // Division por 2 en el pllP
 80048cc:	4b73      	ldr	r3, [pc, #460]	; (8004a9c <RCC_enableMaxFrequencies+0x660>)
 80048ce:	4a73      	ldr	r2, [pc, #460]	; (8004a9c <RCC_enableMaxFrequencies+0x660>)
 80048d0:	685b      	ldr	r3, [r3, #4]
 80048d2:	6053      	str	r3, [r2, #4]

			//Seleccionamos los preescalers adecuados para los AHB y APBx en el registro RCC_CFGR
			RCC->CFGR &= ~(0b1000 << 4); // Division del AHB por 1
 80048d4:	4b71      	ldr	r3, [pc, #452]	; (8004a9c <RCC_enableMaxFrequencies+0x660>)
 80048d6:	689b      	ldr	r3, [r3, #8]
 80048d8:	4a70      	ldr	r2, [pc, #448]	; (8004a9c <RCC_enableMaxFrequencies+0x660>)
 80048da:	f023 0380 	bic.w	r3, r3, #128	; 0x80
 80048de:	6093      	str	r3, [r2, #8]
			RCC->CFGR &= ~(0b100 << 13); // division del APB2 por 1
 80048e0:	4b6e      	ldr	r3, [pc, #440]	; (8004a9c <RCC_enableMaxFrequencies+0x660>)
 80048e2:	689b      	ldr	r3, [r3, #8]
 80048e4:	4a6d      	ldr	r2, [pc, #436]	; (8004a9c <RCC_enableMaxFrequencies+0x660>)
 80048e6:	f423 4300 	bic.w	r3, r3, #32768	; 0x8000
 80048ea:	6093      	str	r3, [r2, #8]
			RCC->CFGR |= (0b100 << 10); // Division del APB1 por 2
 80048ec:	4b6b      	ldr	r3, [pc, #428]	; (8004a9c <RCC_enableMaxFrequencies+0x660>)
 80048ee:	689b      	ldr	r3, [r3, #8]
 80048f0:	4a6a      	ldr	r2, [pc, #424]	; (8004a9c <RCC_enableMaxFrequencies+0x660>)
 80048f2:	f443 5380 	orr.w	r3, r3, #4096	; 0x1000
 80048f6:	6093      	str	r3, [r2, #8]

			//Configurado el PLL para salida de 100MHz entonces ya podemos activar el PLL
			RCC->CR |= RCC_CR_PLLON;
 80048f8:	4b68      	ldr	r3, [pc, #416]	; (8004a9c <RCC_enableMaxFrequencies+0x660>)
 80048fa:	681b      	ldr	r3, [r3, #0]
 80048fc:	4a67      	ldr	r2, [pc, #412]	; (8004a9c <RCC_enableMaxFrequencies+0x660>)
 80048fe:	f043 7380 	orr.w	r3, r3, #16777216	; 0x1000000
 8004902:	6013      	str	r3, [r2, #0]
			while (!(RCC->CR & RCC_CR_PLLRDY)){
 8004904:	e000      	b.n	8004908 <RCC_enableMaxFrequencies+0x4cc>
				__NOP();
 8004906:	bf00      	nop
			while (!(RCC->CR & RCC_CR_PLLRDY)){
 8004908:	4b64      	ldr	r3, [pc, #400]	; (8004a9c <RCC_enableMaxFrequencies+0x660>)
 800490a:	681b      	ldr	r3, [r3, #0]
 800490c:	f003 7300 	and.w	r3, r3, #33554432	; 0x2000000
 8004910:	2b00      	cmp	r3, #0
 8004912:	d0f8      	beq.n	8004906 <RCC_enableMaxFrequencies+0x4ca>
			}

			//Antes de configurar el PLL del RCC, debemos cambiar la velocidad de lectura de la memoria flash
			FLASH->ACR &= ~(0xF << FLASH_ACR_LATENCY_Pos);
 8004914:	4b62      	ldr	r3, [pc, #392]	; (8004aa0 <RCC_enableMaxFrequencies+0x664>)
 8004916:	681b      	ldr	r3, [r3, #0]
 8004918:	4a61      	ldr	r2, [pc, #388]	; (8004aa0 <RCC_enableMaxFrequencies+0x664>)
 800491a:	f023 030f 	bic.w	r3, r3, #15
 800491e:	6013      	str	r3, [r2, #0]
			FLASH->ACR |= (0b010 << FLASH_ACR_LATENCY_Pos);
 8004920:	4b5f      	ldr	r3, [pc, #380]	; (8004aa0 <RCC_enableMaxFrequencies+0x664>)
 8004922:	681b      	ldr	r3, [r3, #0]
 8004924:	4a5e      	ldr	r2, [pc, #376]	; (8004aa0 <RCC_enableMaxFrequencies+0x664>)
 8004926:	f043 0302 	orr.w	r3, r3, #2
 800492a:	6013      	str	r3, [r2, #0]

			break;
 800492c:	e0a2      	b.n	8004a74 <RCC_enableMaxFrequencies+0x638>
		}case RCC_90MHz:{
			//freqsys = 16MHz * (180/(16*2)) =  90MHz
			RCC->PLLCFGR &= ~(0xFF << RCC_PLLCFGR_PLLM_Pos);
 800492e:	4b5b      	ldr	r3, [pc, #364]	; (8004a9c <RCC_enableMaxFrequencies+0x660>)
 8004930:	685b      	ldr	r3, [r3, #4]
 8004932:	4a5a      	ldr	r2, [pc, #360]	; (8004a9c <RCC_enableMaxFrequencies+0x660>)
 8004934:	f023 03ff 	bic.w	r3, r3, #255	; 0xff
 8004938:	6053      	str	r3, [r2, #4]
			RCC->PLLCFGR |= (16 << RCC_PLLCFGR_PLLM_Pos);
 800493a:	4b58      	ldr	r3, [pc, #352]	; (8004a9c <RCC_enableMaxFrequencies+0x660>)
 800493c:	685b      	ldr	r3, [r3, #4]
 800493e:	4a57      	ldr	r2, [pc, #348]	; (8004a9c <RCC_enableMaxFrequencies+0x660>)
 8004940:	f043 0310 	orr.w	r3, r3, #16
 8004944:	6053      	str	r3, [r2, #4]
			RCC->PLLCFGR &= ~(0x1FF << RCC_PLLCFGR_PLLN_Pos);
 8004946:	4b55      	ldr	r3, [pc, #340]	; (8004a9c <RCC_enableMaxFrequencies+0x660>)
 8004948:	685b      	ldr	r3, [r3, #4]
 800494a:	4a54      	ldr	r2, [pc, #336]	; (8004a9c <RCC_enableMaxFrequencies+0x660>)
 800494c:	f423 43ff 	bic.w	r3, r3, #32640	; 0x7f80
 8004950:	f023 0340 	bic.w	r3, r3, #64	; 0x40
 8004954:	6053      	str	r3, [r2, #4]
			RCC->PLLCFGR |= (180 << RCC_PLLCFGR_PLLN_Pos);
 8004956:	4b51      	ldr	r3, [pc, #324]	; (8004a9c <RCC_enableMaxFrequencies+0x660>)
 8004958:	685b      	ldr	r3, [r3, #4]
 800495a:	4a50      	ldr	r2, [pc, #320]	; (8004a9c <RCC_enableMaxFrequencies+0x660>)
 800495c:	f443 5334 	orr.w	r3, r3, #11520	; 0x2d00
 8004960:	6053      	str	r3, [r2, #4]
			RCC->PLLCFGR &= ~(0b11 << RCC_PLLCFGR_PLLP_Pos);
 8004962:	4b4e      	ldr	r3, [pc, #312]	; (8004a9c <RCC_enableMaxFrequencies+0x660>)
 8004964:	685b      	ldr	r3, [r3, #4]
 8004966:	4a4d      	ldr	r2, [pc, #308]	; (8004a9c <RCC_enableMaxFrequencies+0x660>)
 8004968:	f423 3340 	bic.w	r3, r3, #196608	; 0x30000
 800496c:	6053      	str	r3, [r2, #4]
			RCC->PLLCFGR |= (0b00 << RCC_PLLCFGR_PLLP_Pos); // Division por 2 en el pllP
 800496e:	4b4b      	ldr	r3, [pc, #300]	; (8004a9c <RCC_enableMaxFrequencies+0x660>)
 8004970:	4a4a      	ldr	r2, [pc, #296]	; (8004a9c <RCC_enableMaxFrequencies+0x660>)
 8004972:	685b      	ldr	r3, [r3, #4]
 8004974:	6053      	str	r3, [r2, #4]

			//Seleccionamos los preescalers adecuados para los AHB y APBx en el registro RCC_CFGR
			RCC->CFGR &= ~(0b1000 << 4); // Division del AHB por 1
 8004976:	4b49      	ldr	r3, [pc, #292]	; (8004a9c <RCC_enableMaxFrequencies+0x660>)
 8004978:	689b      	ldr	r3, [r3, #8]
 800497a:	4a48      	ldr	r2, [pc, #288]	; (8004a9c <RCC_enableMaxFrequencies+0x660>)
 800497c:	f023 0380 	bic.w	r3, r3, #128	; 0x80
 8004980:	6093      	str	r3, [r2, #8]
			RCC->CFGR &= ~(0b100 << 13); // division del APB2 por 1
 8004982:	4b46      	ldr	r3, [pc, #280]	; (8004a9c <RCC_enableMaxFrequencies+0x660>)
 8004984:	689b      	ldr	r3, [r3, #8]
 8004986:	4a45      	ldr	r2, [pc, #276]	; (8004a9c <RCC_enableMaxFrequencies+0x660>)
 8004988:	f423 4300 	bic.w	r3, r3, #32768	; 0x8000
 800498c:	6093      	str	r3, [r2, #8]
			RCC->CFGR |= (0b100 << 10); // Division del APB1 por 2
 800498e:	4b43      	ldr	r3, [pc, #268]	; (8004a9c <RCC_enableMaxFrequencies+0x660>)
 8004990:	689b      	ldr	r3, [r3, #8]
 8004992:	4a42      	ldr	r2, [pc, #264]	; (8004a9c <RCC_enableMaxFrequencies+0x660>)
 8004994:	f443 5380 	orr.w	r3, r3, #4096	; 0x1000
 8004998:	6093      	str	r3, [r2, #8]

			//Configurado el PLL para salida de 100MHz entonces ya podemos activar el PLL
			RCC->CR |= RCC_CR_PLLON;
 800499a:	4b40      	ldr	r3, [pc, #256]	; (8004a9c <RCC_enableMaxFrequencies+0x660>)
 800499c:	681b      	ldr	r3, [r3, #0]
 800499e:	4a3f      	ldr	r2, [pc, #252]	; (8004a9c <RCC_enableMaxFrequencies+0x660>)
 80049a0:	f043 7380 	orr.w	r3, r3, #16777216	; 0x1000000
 80049a4:	6013      	str	r3, [r2, #0]
			while (!(RCC->CR & RCC_CR_PLLRDY)){
 80049a6:	e000      	b.n	80049aa <RCC_enableMaxFrequencies+0x56e>
				__NOP();
 80049a8:	bf00      	nop
			while (!(RCC->CR & RCC_CR_PLLRDY)){
 80049aa:	4b3c      	ldr	r3, [pc, #240]	; (8004a9c <RCC_enableMaxFrequencies+0x660>)
 80049ac:	681b      	ldr	r3, [r3, #0]
 80049ae:	f003 7300 	and.w	r3, r3, #33554432	; 0x2000000
 80049b2:	2b00      	cmp	r3, #0
 80049b4:	d0f8      	beq.n	80049a8 <RCC_enableMaxFrequencies+0x56c>
			}

			//Antes de configurar el PLL del RCC, debemos cambiar la velocidad de lectura de la memoria flash
			FLASH->ACR &= ~(0xF << FLASH_ACR_LATENCY_Pos);
 80049b6:	4b3a      	ldr	r3, [pc, #232]	; (8004aa0 <RCC_enableMaxFrequencies+0x664>)
 80049b8:	681b      	ldr	r3, [r3, #0]
 80049ba:	4a39      	ldr	r2, [pc, #228]	; (8004aa0 <RCC_enableMaxFrequencies+0x664>)
 80049bc:	f023 030f 	bic.w	r3, r3, #15
 80049c0:	6013      	str	r3, [r2, #0]
			FLASH->ACR |= (0b010 << FLASH_ACR_LATENCY_Pos);
 80049c2:	4b37      	ldr	r3, [pc, #220]	; (8004aa0 <RCC_enableMaxFrequencies+0x664>)
 80049c4:	681b      	ldr	r3, [r3, #0]
 80049c6:	4a36      	ldr	r2, [pc, #216]	; (8004aa0 <RCC_enableMaxFrequencies+0x664>)
 80049c8:	f043 0302 	orr.w	r3, r3, #2
 80049cc:	6013      	str	r3, [r2, #0]

			break;
 80049ce:	e051      	b.n	8004a74 <RCC_enableMaxFrequencies+0x638>
		}case RCC_100MHz:{
			//freqsys = 16MHz * (100/(8*2)) =  100MHz
			RCC->PLLCFGR &= ~(0xFF << RCC_PLLCFGR_PLLM_Pos);
 80049d0:	4b32      	ldr	r3, [pc, #200]	; (8004a9c <RCC_enableMaxFrequencies+0x660>)
 80049d2:	685b      	ldr	r3, [r3, #4]
 80049d4:	4a31      	ldr	r2, [pc, #196]	; (8004a9c <RCC_enableMaxFrequencies+0x660>)
 80049d6:	f023 03ff 	bic.w	r3, r3, #255	; 0xff
 80049da:	6053      	str	r3, [r2, #4]
			RCC->PLLCFGR |= (8 << RCC_PLLCFGR_PLLM_Pos);
 80049dc:	4b2f      	ldr	r3, [pc, #188]	; (8004a9c <RCC_enableMaxFrequencies+0x660>)
 80049de:	685b      	ldr	r3, [r3, #4]
 80049e0:	4a2e      	ldr	r2, [pc, #184]	; (8004a9c <RCC_enableMaxFrequencies+0x660>)
 80049e2:	f043 0308 	orr.w	r3, r3, #8
 80049e6:	6053      	str	r3, [r2, #4]
			RCC->PLLCFGR &= ~(0x1FF << RCC_PLLCFGR_PLLN_Pos);
 80049e8:	4b2c      	ldr	r3, [pc, #176]	; (8004a9c <RCC_enableMaxFrequencies+0x660>)
 80049ea:	685b      	ldr	r3, [r3, #4]
 80049ec:	4a2b      	ldr	r2, [pc, #172]	; (8004a9c <RCC_enableMaxFrequencies+0x660>)
 80049ee:	f423 43ff 	bic.w	r3, r3, #32640	; 0x7f80
 80049f2:	f023 0340 	bic.w	r3, r3, #64	; 0x40
 80049f6:	6053      	str	r3, [r2, #4]
			RCC->PLLCFGR |= (100 << RCC_PLLCFGR_PLLN_Pos);
 80049f8:	4b28      	ldr	r3, [pc, #160]	; (8004a9c <RCC_enableMaxFrequencies+0x660>)
 80049fa:	685b      	ldr	r3, [r3, #4]
 80049fc:	4a27      	ldr	r2, [pc, #156]	; (8004a9c <RCC_enableMaxFrequencies+0x660>)
 80049fe:	f443 53c8 	orr.w	r3, r3, #6400	; 0x1900
 8004a02:	6053      	str	r3, [r2, #4]
			RCC->PLLCFGR &= ~(0b11 << RCC_PLLCFGR_PLLP_Pos);
 8004a04:	4b25      	ldr	r3, [pc, #148]	; (8004a9c <RCC_enableMaxFrequencies+0x660>)
 8004a06:	685b      	ldr	r3, [r3, #4]
 8004a08:	4a24      	ldr	r2, [pc, #144]	; (8004a9c <RCC_enableMaxFrequencies+0x660>)
 8004a0a:	f423 3340 	bic.w	r3, r3, #196608	; 0x30000
 8004a0e:	6053      	str	r3, [r2, #4]
			RCC->PLLCFGR |= (0b00 << RCC_PLLCFGR_PLLP_Pos); // Division por 2 en el pllP
 8004a10:	4b22      	ldr	r3, [pc, #136]	; (8004a9c <RCC_enableMaxFrequencies+0x660>)
 8004a12:	4a22      	ldr	r2, [pc, #136]	; (8004a9c <RCC_enableMaxFrequencies+0x660>)
 8004a14:	685b      	ldr	r3, [r3, #4]
 8004a16:	6053      	str	r3, [r2, #4]

			//Seleccionamos los preescalers adecuados para los AHB y APBx en el registro RCC_CFGR
			RCC->CFGR &= ~(0b1000 << 4); // Division del AHB por 1
 8004a18:	4b20      	ldr	r3, [pc, #128]	; (8004a9c <RCC_enableMaxFrequencies+0x660>)
 8004a1a:	689b      	ldr	r3, [r3, #8]
 8004a1c:	4a1f      	ldr	r2, [pc, #124]	; (8004a9c <RCC_enableMaxFrequencies+0x660>)
 8004a1e:	f023 0380 	bic.w	r3, r3, #128	; 0x80
 8004a22:	6093      	str	r3, [r2, #8]
			RCC->CFGR &= ~(0b100 << 13); // division del APB2 por 1
 8004a24:	4b1d      	ldr	r3, [pc, #116]	; (8004a9c <RCC_enableMaxFrequencies+0x660>)
 8004a26:	689b      	ldr	r3, [r3, #8]
 8004a28:	4a1c      	ldr	r2, [pc, #112]	; (8004a9c <RCC_enableMaxFrequencies+0x660>)
 8004a2a:	f423 4300 	bic.w	r3, r3, #32768	; 0x8000
 8004a2e:	6093      	str	r3, [r2, #8]
			RCC->CFGR |= (0b100 << 10); // Division del APB1 por 2
 8004a30:	4b1a      	ldr	r3, [pc, #104]	; (8004a9c <RCC_enableMaxFrequencies+0x660>)
 8004a32:	689b      	ldr	r3, [r3, #8]
 8004a34:	4a19      	ldr	r2, [pc, #100]	; (8004a9c <RCC_enableMaxFrequencies+0x660>)
 8004a36:	f443 5380 	orr.w	r3, r3, #4096	; 0x1000
 8004a3a:	6093      	str	r3, [r2, #8]

			//Configurado el PLL para salida de 100MHz entonces ya podemos activar el PLL
			RCC->CR |= RCC_CR_PLLON;
 8004a3c:	4b17      	ldr	r3, [pc, #92]	; (8004a9c <RCC_enableMaxFrequencies+0x660>)
 8004a3e:	681b      	ldr	r3, [r3, #0]
 8004a40:	4a16      	ldr	r2, [pc, #88]	; (8004a9c <RCC_enableMaxFrequencies+0x660>)
 8004a42:	f043 7380 	orr.w	r3, r3, #16777216	; 0x1000000
 8004a46:	6013      	str	r3, [r2, #0]
			while (!(RCC->CR & RCC_CR_PLLRDY)){
 8004a48:	e000      	b.n	8004a4c <RCC_enableMaxFrequencies+0x610>
				__NOP();
 8004a4a:	bf00      	nop
			while (!(RCC->CR & RCC_CR_PLLRDY)){
 8004a4c:	4b13      	ldr	r3, [pc, #76]	; (8004a9c <RCC_enableMaxFrequencies+0x660>)
 8004a4e:	681b      	ldr	r3, [r3, #0]
 8004a50:	f003 7300 	and.w	r3, r3, #33554432	; 0x2000000
 8004a54:	2b00      	cmp	r3, #0
 8004a56:	d0f8      	beq.n	8004a4a <RCC_enableMaxFrequencies+0x60e>
			}

			//Antes de configurar el PLL del RCC, debemos cambiar la velocidad de lectura de la memoria flash
			FLASH->ACR &= ~(0xF << FLASH_ACR_LATENCY_Pos);
 8004a58:	4b11      	ldr	r3, [pc, #68]	; (8004aa0 <RCC_enableMaxFrequencies+0x664>)
 8004a5a:	681b      	ldr	r3, [r3, #0]
 8004a5c:	4a10      	ldr	r2, [pc, #64]	; (8004aa0 <RCC_enableMaxFrequencies+0x664>)
 8004a5e:	f023 030f 	bic.w	r3, r3, #15
 8004a62:	6013      	str	r3, [r2, #0]
			FLASH->ACR |= (0b011 << FLASH_ACR_LATENCY_Pos);
 8004a64:	4b0e      	ldr	r3, [pc, #56]	; (8004aa0 <RCC_enableMaxFrequencies+0x664>)
 8004a66:	681b      	ldr	r3, [r3, #0]
 8004a68:	4a0d      	ldr	r2, [pc, #52]	; (8004aa0 <RCC_enableMaxFrequencies+0x664>)
 8004a6a:	f043 0303 	orr.w	r3, r3, #3
 8004a6e:	6013      	str	r3, [r2, #0]

			break;
 8004a70:	e000      	b.n	8004a74 <RCC_enableMaxFrequencies+0x638>
		}
		default:{
			break;
 8004a72:	bf00      	nop
		}
	}


	// Se configura como system clock al PLL
	RCC->CFGR |= RCC_CFGR_SW_PLL;
 8004a74:	4b09      	ldr	r3, [pc, #36]	; (8004a9c <RCC_enableMaxFrequencies+0x660>)
 8004a76:	689b      	ldr	r3, [r3, #8]
 8004a78:	4a08      	ldr	r2, [pc, #32]	; (8004a9c <RCC_enableMaxFrequencies+0x660>)
 8004a7a:	f043 0302 	orr.w	r3, r3, #2
 8004a7e:	6093      	str	r3, [r2, #8]

	while(!(RCC->CFGR & RCC_CFGR_SWS_PLL)){
 8004a80:	e000      	b.n	8004a84 <RCC_enableMaxFrequencies+0x648>
		__NOP();
 8004a82:	bf00      	nop
	while(!(RCC->CFGR & RCC_CFGR_SWS_PLL)){
 8004a84:	4b05      	ldr	r3, [pc, #20]	; (8004a9c <RCC_enableMaxFrequencies+0x660>)
 8004a86:	689b      	ldr	r3, [r3, #8]
 8004a88:	f003 0308 	and.w	r3, r3, #8
 8004a8c:	2b00      	cmp	r3, #0
 8004a8e:	d0f8      	beq.n	8004a82 <RCC_enableMaxFrequencies+0x646>
	}

	SystemCoreClockUpdate();
 8004a90:	f000 fce0 	bl	8005454 <SystemCoreClockUpdate>

}
 8004a94:	bf00      	nop
 8004a96:	3708      	adds	r7, #8
 8004a98:	46bd      	mov	sp, r7
 8004a9a:	bd80      	pop	{r7, pc}
 8004a9c:	40023800 	.word	0x40023800
 8004aa0:	40023c00 	.word	0x40023c00

08004aa4 <__NVIC_EnableIRQ>:
{
 8004aa4:	b480      	push	{r7}
 8004aa6:	b083      	sub	sp, #12
 8004aa8:	af00      	add	r7, sp, #0
 8004aaa:	4603      	mov	r3, r0
 8004aac:	71fb      	strb	r3, [r7, #7]
  if ((int32_t)(IRQn) >= 0)
 8004aae:	f997 3007 	ldrsb.w	r3, [r7, #7]
 8004ab2:	2b00      	cmp	r3, #0
 8004ab4:	db0b      	blt.n	8004ace <__NVIC_EnableIRQ+0x2a>
    NVIC->ISER[(((uint32_t)IRQn) >> 5UL)] = (uint32_t)(1UL << (((uint32_t)IRQn) & 0x1FUL));
 8004ab6:	79fb      	ldrb	r3, [r7, #7]
 8004ab8:	f003 021f 	and.w	r2, r3, #31
 8004abc:	4907      	ldr	r1, [pc, #28]	; (8004adc <__NVIC_EnableIRQ+0x38>)
 8004abe:	f997 3007 	ldrsb.w	r3, [r7, #7]
 8004ac2:	095b      	lsrs	r3, r3, #5
 8004ac4:	2001      	movs	r0, #1
 8004ac6:	fa00 f202 	lsl.w	r2, r0, r2
 8004aca:	f841 2023 	str.w	r2, [r1, r3, lsl #2]
}
 8004ace:	bf00      	nop
 8004ad0:	370c      	adds	r7, #12
 8004ad2:	46bd      	mov	sp, r7
 8004ad4:	f85d 7b04 	ldr.w	r7, [sp], #4
 8004ad8:	4770      	bx	lr
 8004ada:	bf00      	nop
 8004adc:	e000e100 	.word	0xe000e100

08004ae0 <USART_Config>:
/**
 * Configurando el puerto Serial...
 * Recordar que siempre se debe comenzar con activar la seal de reloj
 * del periferico que se est utilizando.
 */
void USART_Config(USART_Handler_t *ptrUsartHandler){
 8004ae0:	b590      	push	{r4, r7, lr}
 8004ae2:	b083      	sub	sp, #12
 8004ae4:	af00      	add	r7, sp, #0
 8004ae6:	6078      	str	r0, [r7, #4]
  __ASM volatile ("cpsid i" : : : "memory");
 8004ae8:	b672      	cpsid	i
}
 8004aea:	bf00      	nop
	__disable_irq();

	/* 1. Activamos la seal de reloj que viene desde el BUS al que pertenece el periferico */
	/* Lo debemos hacer para cada uno de las posibles opciones que tengamos (USART1, USART2, USART6) */
    /* 1.1 Configuramos el USART1 */
	if(ptrUsartHandler->ptrUSARTx == USART1){
 8004aec:	687b      	ldr	r3, [r7, #4]
 8004aee:	681b      	ldr	r3, [r3, #0]
 8004af0:	4a8f      	ldr	r2, [pc, #572]	; (8004d30 <USART_Config+0x250>)
 8004af2:	4293      	cmp	r3, r2
 8004af4:	d106      	bne.n	8004b04 <USART_Config+0x24>
		RCC->APB2ENR |= RCC_APB2ENR_USART1EN;
 8004af6:	4b8f      	ldr	r3, [pc, #572]	; (8004d34 <USART_Config+0x254>)
 8004af8:	6c5b      	ldr	r3, [r3, #68]	; 0x44
 8004afa:	4a8e      	ldr	r2, [pc, #568]	; (8004d34 <USART_Config+0x254>)
 8004afc:	f043 0310 	orr.w	r3, r3, #16
 8004b00:	6453      	str	r3, [r2, #68]	; 0x44
 8004b02:	e018      	b.n	8004b36 <USART_Config+0x56>
	}
	else if(ptrUsartHandler->ptrUSARTx == USART2){
 8004b04:	687b      	ldr	r3, [r7, #4]
 8004b06:	681b      	ldr	r3, [r3, #0]
 8004b08:	4a8b      	ldr	r2, [pc, #556]	; (8004d38 <USART_Config+0x258>)
 8004b0a:	4293      	cmp	r3, r2
 8004b0c:	d106      	bne.n	8004b1c <USART_Config+0x3c>
		RCC->APB1ENR |= RCC_APB1ENR_USART2EN;
 8004b0e:	4b89      	ldr	r3, [pc, #548]	; (8004d34 <USART_Config+0x254>)
 8004b10:	6c1b      	ldr	r3, [r3, #64]	; 0x40
 8004b12:	4a88      	ldr	r2, [pc, #544]	; (8004d34 <USART_Config+0x254>)
 8004b14:	f443 3300 	orr.w	r3, r3, #131072	; 0x20000
 8004b18:	6413      	str	r3, [r2, #64]	; 0x40
 8004b1a:	e00c      	b.n	8004b36 <USART_Config+0x56>
	}
	
    /* 1.2 Configuramos el USART6 */
	else if(ptrUsartHandler->ptrUSARTx == USART6){
 8004b1c:	687b      	ldr	r3, [r7, #4]
 8004b1e:	681b      	ldr	r3, [r3, #0]
 8004b20:	4a86      	ldr	r2, [pc, #536]	; (8004d3c <USART_Config+0x25c>)
 8004b22:	4293      	cmp	r3, r2
 8004b24:	d106      	bne.n	8004b34 <USART_Config+0x54>
		RCC->APB2ENR |= RCC_APB2ENR_USART6EN;
 8004b26:	4b83      	ldr	r3, [pc, #524]	; (8004d34 <USART_Config+0x254>)
 8004b28:	6c5b      	ldr	r3, [r3, #68]	; 0x44
 8004b2a:	4a82      	ldr	r2, [pc, #520]	; (8004d34 <USART_Config+0x254>)
 8004b2c:	f043 0320 	orr.w	r3, r3, #32
 8004b30:	6453      	str	r3, [r2, #68]	; 0x44
 8004b32:	e000      	b.n	8004b36 <USART_Config+0x56>
	}
	else{
		__NOP();
 8004b34:	bf00      	nop
	/* Configuracion del Baudrate (registro BRR) */
	/* Configuramos el modo: only TX, only RX, o RXTX */
	/* Por ultimo activamos el modulo USART cuando todo esta correctamente configurado */

	// 2.1 Comienzo por limpiar los registros, para cargar la configuracin desde cero
	ptrUsartHandler->ptrUSARTx->CR1 = 0;
 8004b36:	687b      	ldr	r3, [r7, #4]
 8004b38:	681b      	ldr	r3, [r3, #0]
 8004b3a:	2200      	movs	r2, #0
 8004b3c:	60da      	str	r2, [r3, #12]
	ptrUsartHandler->ptrUSARTx->CR2 = 0;
 8004b3e:	687b      	ldr	r3, [r7, #4]
 8004b40:	681b      	ldr	r3, [r3, #0]
 8004b42:	2200      	movs	r2, #0
 8004b44:	611a      	str	r2, [r3, #16]

	// 2.2 Configuracion del Parity:
	// Verificamos si el parity esta activado o no
    // Tenga cuidado, el parity hace parte del tamao de los datos...
	if(ptrUsartHandler->USART_Config.USART_parity != USART_PARITY_NONE){
 8004b46:	687b      	ldr	r3, [r7, #4]
 8004b48:	7a5b      	ldrb	r3, [r3, #9]
 8004b4a:	2b00      	cmp	r3, #0
 8004b4c:	d025      	beq.n	8004b9a <USART_Config+0xba>

		// Verificamos si se ha seleccionado ODD or EVEN
		if(ptrUsartHandler->USART_Config.USART_parity == USART_PARITY_EVEN){
 8004b4e:	687b      	ldr	r3, [r7, #4]
 8004b50:	7a5b      	ldrb	r3, [r3, #9]
 8004b52:	2b02      	cmp	r3, #2
 8004b54:	d110      	bne.n	8004b78 <USART_Config+0x98>
			// Es even, entonces cargamos la configuracion adecuada
			ptrUsartHandler->ptrUSARTx->CR1 &= ~USART_CR1_PS;
 8004b56:	687b      	ldr	r3, [r7, #4]
 8004b58:	681b      	ldr	r3, [r3, #0]
 8004b5a:	68da      	ldr	r2, [r3, #12]
 8004b5c:	687b      	ldr	r3, [r7, #4]
 8004b5e:	681b      	ldr	r3, [r3, #0]
 8004b60:	f422 7200 	bic.w	r2, r2, #512	; 0x200
 8004b64:	60da      	str	r2, [r3, #12]
			ptrUsartHandler->ptrUSARTx->CR1 |= USART_CR1_PEIE;
 8004b66:	687b      	ldr	r3, [r7, #4]
 8004b68:	681b      	ldr	r3, [r3, #0]
 8004b6a:	68da      	ldr	r2, [r3, #12]
 8004b6c:	687b      	ldr	r3, [r7, #4]
 8004b6e:	681b      	ldr	r3, [r3, #0]
 8004b70:	f442 7280 	orr.w	r2, r2, #256	; 0x100
 8004b74:	60da      	str	r2, [r3, #12]
 8004b76:	e018      	b.n	8004baa <USART_Config+0xca>
			
		}else{
			// Si es "else" significa que la paridad seleccionada es ODD, y cargamos esta configuracion
			ptrUsartHandler->ptrUSARTx->CR1 |= USART_CR1_PS;
 8004b78:	687b      	ldr	r3, [r7, #4]
 8004b7a:	681b      	ldr	r3, [r3, #0]
 8004b7c:	68da      	ldr	r2, [r3, #12]
 8004b7e:	687b      	ldr	r3, [r7, #4]
 8004b80:	681b      	ldr	r3, [r3, #0]
 8004b82:	f442 7200 	orr.w	r2, r2, #512	; 0x200
 8004b86:	60da      	str	r2, [r3, #12]
			ptrUsartHandler->ptrUSARTx->CR1 |= USART_CR1_PEIE;
 8004b88:	687b      	ldr	r3, [r7, #4]
 8004b8a:	681b      	ldr	r3, [r3, #0]
 8004b8c:	68da      	ldr	r2, [r3, #12]
 8004b8e:	687b      	ldr	r3, [r7, #4]
 8004b90:	681b      	ldr	r3, [r3, #0]
 8004b92:	f442 7280 	orr.w	r2, r2, #256	; 0x100
 8004b96:	60da      	str	r2, [r3, #12]
 8004b98:	e007      	b.n	8004baa <USART_Config+0xca>
		}
	}else{
		// Si llegamos aca, es porque no deseamos tener el parity-check
		ptrUsartHandler->ptrUSARTx->CR1 &= ~USART_CR1_PCE ;
 8004b9a:	687b      	ldr	r3, [r7, #4]
 8004b9c:	681b      	ldr	r3, [r3, #0]
 8004b9e:	68da      	ldr	r2, [r3, #12]
 8004ba0:	687b      	ldr	r3, [r7, #4]
 8004ba2:	681b      	ldr	r3, [r3, #0]
 8004ba4:	f422 6280 	bic.w	r2, r2, #1024	; 0x400
 8004ba8:	60da      	str	r2, [r3, #12]
	}

	// 2.3 Configuramos el tamao del dato
	if(ptrUsartHandler->USART_Config.USART_datasize == USART_DATASIZE_8BIT){
 8004baa:	687b      	ldr	r3, [r7, #4]
 8004bac:	7a1b      	ldrb	r3, [r3, #8]
 8004bae:	2b00      	cmp	r3, #0
 8004bb0:	d108      	bne.n	8004bc4 <USART_Config+0xe4>
			// Son 8 bits, entonces cargamos la configuracion adecuada
			ptrUsartHandler->ptrUSARTx->CR1 &= ~USART_CR1_M;
 8004bb2:	687b      	ldr	r3, [r7, #4]
 8004bb4:	681b      	ldr	r3, [r3, #0]
 8004bb6:	68da      	ldr	r2, [r3, #12]
 8004bb8:	687b      	ldr	r3, [r7, #4]
 8004bba:	681b      	ldr	r3, [r3, #0]
 8004bbc:	f422 5280 	bic.w	r2, r2, #4096	; 0x1000
 8004bc0:	60da      	str	r2, [r3, #12]
 8004bc2:	e007      	b.n	8004bd4 <USART_Config+0xf4>

	}else{
			// Si es "else" significa que se trata de un tamao de dato de 9 bits, y cargamos esta configuracion
			ptrUsartHandler->ptrUSARTx->CR1 |= USART_CR1_M;
 8004bc4:	687b      	ldr	r3, [r7, #4]
 8004bc6:	681b      	ldr	r3, [r3, #0]
 8004bc8:	68da      	ldr	r2, [r3, #12]
 8004bca:	687b      	ldr	r3, [r7, #4]
 8004bcc:	681b      	ldr	r3, [r3, #0]
 8004bce:	f442 5280 	orr.w	r2, r2, #4096	; 0x1000
 8004bd2:	60da      	str	r2, [r3, #12]
	}

	// 2.4 Configuramos los stop bits (SFR USART_CR2)
	switch(ptrUsartHandler->USART_Config.USART_stopbits){
 8004bd4:	687b      	ldr	r3, [r7, #4]
 8004bd6:	7a9b      	ldrb	r3, [r3, #10]
 8004bd8:	2b03      	cmp	r3, #3
 8004bda:	d82f      	bhi.n	8004c3c <USART_Config+0x15c>
 8004bdc:	a201      	add	r2, pc, #4	; (adr r2, 8004be4 <USART_Config+0x104>)
 8004bde:	f852 f023 	ldr.w	pc, [r2, r3, lsl #2]
 8004be2:	bf00      	nop
 8004be4:	08004bf5 	.word	0x08004bf5
 8004be8:	08004c07 	.word	0x08004c07
 8004bec:	08004c19 	.word	0x08004c19
 8004bf0:	08004c2b 	.word	0x08004c2b
		case USART_STOPBIT_1: {
			// Debemos cargar el valor 0b00 en los dos bits de STOP
			ptrUsartHandler->ptrUSARTx->CR2 &= ~USART_CR2_STOP;
 8004bf4:	687b      	ldr	r3, [r7, #4]
 8004bf6:	681b      	ldr	r3, [r3, #0]
 8004bf8:	691a      	ldr	r2, [r3, #16]
 8004bfa:	687b      	ldr	r3, [r7, #4]
 8004bfc:	681b      	ldr	r3, [r3, #0]
 8004bfe:	f422 5240 	bic.w	r2, r2, #12288	; 0x3000
 8004c02:	611a      	str	r2, [r3, #16]
			break;
 8004c04:	e023      	b.n	8004c4e <USART_Config+0x16e>
		}
		case USART_STOPBIT_0_5: {
			// Debemos cargar el valor 0b01 en los dos bits de STOP
			ptrUsartHandler->ptrUSARTx->CR2 |= USART_CR2_STOP & (~USART_CR2_STOP_1);
 8004c06:	687b      	ldr	r3, [r7, #4]
 8004c08:	681b      	ldr	r3, [r3, #0]
 8004c0a:	691a      	ldr	r2, [r3, #16]
 8004c0c:	687b      	ldr	r3, [r7, #4]
 8004c0e:	681b      	ldr	r3, [r3, #0]
 8004c10:	f442 5280 	orr.w	r2, r2, #4096	; 0x1000
 8004c14:	611a      	str	r2, [r3, #16]
			break;
 8004c16:	e01a      	b.n	8004c4e <USART_Config+0x16e>
		}
		case USART_STOPBIT_2: {
			// Debemoscargar el valor 0b10 en los dos bits de STOP
			ptrUsartHandler->ptrUSARTx->CR2 |= USART_CR2_STOP & (~USART_CR2_STOP_0);
 8004c18:	687b      	ldr	r3, [r7, #4]
 8004c1a:	681b      	ldr	r3, [r3, #0]
 8004c1c:	691a      	ldr	r2, [r3, #16]
 8004c1e:	687b      	ldr	r3, [r7, #4]
 8004c20:	681b      	ldr	r3, [r3, #0]
 8004c22:	f442 5200 	orr.w	r2, r2, #8192	; 0x2000
 8004c26:	611a      	str	r2, [r3, #16]
			break;
 8004c28:	e011      	b.n	8004c4e <USART_Config+0x16e>
		}
		case USART_STOPBIT_1_5: {
			// Debemoscargar el valor 0b11 en los dos bits de STOP
			ptrUsartHandler->ptrUSARTx->CR2 |= USART_CR2_STOP;
 8004c2a:	687b      	ldr	r3, [r7, #4]
 8004c2c:	681b      	ldr	r3, [r3, #0]
 8004c2e:	691a      	ldr	r2, [r3, #16]
 8004c30:	687b      	ldr	r3, [r7, #4]
 8004c32:	681b      	ldr	r3, [r3, #0]
 8004c34:	f442 5240 	orr.w	r2, r2, #12288	; 0x3000
 8004c38:	611a      	str	r2, [r3, #16]
			break;
 8004c3a:	e008      	b.n	8004c4e <USART_Config+0x16e>
		}
		default: {
			// En el caso por defecto seleccionamos 1 bit de parada
			ptrUsartHandler->ptrUSARTx->CR2 &= ~USART_CR2_STOP;
 8004c3c:	687b      	ldr	r3, [r7, #4]
 8004c3e:	681b      	ldr	r3, [r3, #0]
 8004c40:	691a      	ldr	r2, [r3, #16]
 8004c42:	687b      	ldr	r3, [r7, #4]
 8004c44:	681b      	ldr	r3, [r3, #0]
 8004c46:	f422 5240 	bic.w	r2, r2, #12288	; 0x3000
 8004c4a:	611a      	str	r2, [r3, #16]
			break;
 8004c4c:	bf00      	nop
		}
	}

		// 2.5 Configuracion del Baudrate (SFR USART_BRR)
		ptrUsartHandler->ptrUSARTx->BRR = brrCalculus (ptrUsartHandler, ptrUsartHandler->USART_Config.USART_MCUvelocity);
 8004c4e:	687b      	ldr	r3, [r7, #4]
 8004c50:	68da      	ldr	r2, [r3, #12]
 8004c52:	687b      	ldr	r3, [r7, #4]
 8004c54:	681c      	ldr	r4, [r3, #0]
 8004c56:	4611      	mov	r1, r2
 8004c58:	6878      	ldr	r0, [r7, #4]
 8004c5a:	f000 f8cd 	bl	8004df8 <brrCalculus>
 8004c5e:	4603      	mov	r3, r0
 8004c60:	60a3      	str	r3, [r4, #8]
//
//
//	}

	// 2.6 Configuramos el modo: TX only, RX only, RXTX, disable
	switch(ptrUsartHandler->USART_Config.USART_mode){
 8004c62:	687b      	ldr	r3, [r7, #4]
 8004c64:	799b      	ldrb	r3, [r3, #6]
 8004c66:	2b03      	cmp	r3, #3
 8004c68:	d82e      	bhi.n	8004cc8 <USART_Config+0x1e8>
 8004c6a:	a201      	add	r2, pc, #4	; (adr r2, 8004c70 <USART_Config+0x190>)
 8004c6c:	f852 f023 	ldr.w	pc, [r2, r3, lsl #2]
 8004c70:	08004c81 	.word	0x08004c81
 8004c74:	08004c93 	.word	0x08004c93
 8004c78:	08004ca5 	.word	0x08004ca5
 8004c7c:	08004cb7 	.word	0x08004cb7
		case USART_MODE_TX:
		{
			// Activamos la parte del sistema encargada de enviar
			ptrUsartHandler->ptrUSARTx->CR1 |= USART_CR1_TE;
 8004c80:	687b      	ldr	r3, [r7, #4]
 8004c82:	681b      	ldr	r3, [r3, #0]
 8004c84:	68da      	ldr	r2, [r3, #12]
 8004c86:	687b      	ldr	r3, [r7, #4]
 8004c88:	681b      	ldr	r3, [r3, #0]
 8004c8a:	f042 0208 	orr.w	r2, r2, #8
 8004c8e:	60da      	str	r2, [r3, #12]
			break;
 8004c90:	e023      	b.n	8004cda <USART_Config+0x1fa>
		}
		case USART_MODE_RX:
		{
			// Activamos la parte del sistema encargada de recibir
			ptrUsartHandler->ptrUSARTx->CR1 |= USART_CR1_RE;
 8004c92:	687b      	ldr	r3, [r7, #4]
 8004c94:	681b      	ldr	r3, [r3, #0]
 8004c96:	68da      	ldr	r2, [r3, #12]
 8004c98:	687b      	ldr	r3, [r7, #4]
 8004c9a:	681b      	ldr	r3, [r3, #0]
 8004c9c:	f042 0204 	orr.w	r2, r2, #4
 8004ca0:	60da      	str	r2, [r3, #12]
			break;
 8004ca2:	e01a      	b.n	8004cda <USART_Config+0x1fa>
		}
		case USART_MODE_RXTX:
		{
			// Activamos ambas partes, tanto transmision como recepcion
			ptrUsartHandler->ptrUSARTx->CR1 |= (USART_CR1_TE | USART_CR1_RE);
 8004ca4:	687b      	ldr	r3, [r7, #4]
 8004ca6:	681b      	ldr	r3, [r3, #0]
 8004ca8:	68da      	ldr	r2, [r3, #12]
 8004caa:	687b      	ldr	r3, [r7, #4]
 8004cac:	681b      	ldr	r3, [r3, #0]
 8004cae:	f042 020c 	orr.w	r2, r2, #12
 8004cb2:	60da      	str	r2, [r3, #12]
			break;
 8004cb4:	e011      	b.n	8004cda <USART_Config+0x1fa>
		}
		case USART_MODE_DISABLE:
		{
			// Desactivamos ambos canales
			ptrUsartHandler->ptrUSARTx->CR1 &= ~(USART_CR1_TE | USART_CR1_RE);
 8004cb6:	687b      	ldr	r3, [r7, #4]
 8004cb8:	681b      	ldr	r3, [r3, #0]
 8004cba:	68da      	ldr	r2, [r3, #12]
 8004cbc:	687b      	ldr	r3, [r7, #4]
 8004cbe:	681b      	ldr	r3, [r3, #0]
 8004cc0:	f022 020c 	bic.w	r2, r2, #12
 8004cc4:	60da      	str	r2, [r3, #12]
			break;
 8004cc6:	e008      	b.n	8004cda <USART_Config+0x1fa>
		}

		default:
		{
			// Actuando por defecto, desactivamos ambos canales
			ptrUsartHandler->ptrUSARTx->CR1 &= ~(USART_CR1_TE | USART_CR1_RE);
 8004cc8:	687b      	ldr	r3, [r7, #4]
 8004cca:	681b      	ldr	r3, [r3, #0]
 8004ccc:	68da      	ldr	r2, [r3, #12]
 8004cce:	687b      	ldr	r3, [r7, #4]
 8004cd0:	681b      	ldr	r3, [r3, #0]
 8004cd2:	f022 020c 	bic.w	r2, r2, #12
 8004cd6:	60da      	str	r2, [r3, #12]
			break;
 8004cd8:	bf00      	nop
		}
	}

	// 2.7 Activamos el modulo serial.
	if(ptrUsartHandler->USART_Config.USART_mode != USART_MODE_DISABLE){
 8004cda:	687b      	ldr	r3, [r7, #4]
 8004cdc:	799b      	ldrb	r3, [r3, #6]
 8004cde:	2b03      	cmp	r3, #3
 8004ce0:	d008      	beq.n	8004cf4 <USART_Config+0x214>
		ptrUsartHandler->ptrUSARTx->CR1 |= USART_CR1_UE;
 8004ce2:	687b      	ldr	r3, [r7, #4]
 8004ce4:	681b      	ldr	r3, [r3, #0]
 8004ce6:	68da      	ldr	r2, [r3, #12]
 8004ce8:	687b      	ldr	r3, [r7, #4]
 8004cea:	681b      	ldr	r3, [r3, #0]
 8004cec:	f442 5200 	orr.w	r2, r2, #8192	; 0x2000
 8004cf0:	60da      	str	r2, [r3, #12]
 8004cf2:	e007      	b.n	8004d04 <USART_Config+0x224>
	}else{
		ptrUsartHandler->ptrUSARTx->CR1 &= ~USART_CR1_UE;
 8004cf4:	687b      	ldr	r3, [r7, #4]
 8004cf6:	681b      	ldr	r3, [r3, #0]
 8004cf8:	68da      	ldr	r2, [r3, #12]
 8004cfa:	687b      	ldr	r3, [r7, #4]
 8004cfc:	681b      	ldr	r3, [r3, #0]
 8004cfe:	f422 5200 	bic.w	r2, r2, #8192	; 0x2000
 8004d02:	60da      	str	r2, [r3, #12]
	}

	//Habilitamos las interrupciones de recepcion RXNEIE
	if (ptrUsartHandler->USART_Config.USART_enableInRx == USART_INTERRUPT_RX_ENABLE){
 8004d04:	687b      	ldr	r3, [r7, #4]
 8004d06:	795b      	ldrb	r3, [r3, #5]
 8004d08:	2b01      	cmp	r3, #1
 8004d0a:	d12d      	bne.n	8004d68 <USART_Config+0x288>
		ptrUsartHandler->ptrUSARTx->CR1 |= USART_CR1_RXNEIE;
 8004d0c:	687b      	ldr	r3, [r7, #4]
 8004d0e:	681b      	ldr	r3, [r3, #0]
 8004d10:	68da      	ldr	r2, [r3, #12]
 8004d12:	687b      	ldr	r3, [r7, #4]
 8004d14:	681b      	ldr	r3, [r3, #0]
 8004d16:	f042 0220 	orr.w	r2, r2, #32
 8004d1a:	60da      	str	r2, [r3, #12]

		if(ptrUsartHandler->ptrUSARTx == USART1){
 8004d1c:	687b      	ldr	r3, [r7, #4]
 8004d1e:	681b      	ldr	r3, [r3, #0]
 8004d20:	4a03      	ldr	r2, [pc, #12]	; (8004d30 <USART_Config+0x250>)
 8004d22:	4293      	cmp	r3, r2
 8004d24:	d10c      	bne.n	8004d40 <USART_Config+0x260>
					// Activando en NVIC para la interrupcin del USART1
					__NVIC_EnableIRQ(USART1_IRQn);
 8004d26:	2025      	movs	r0, #37	; 0x25
 8004d28:	f7ff febc 	bl	8004aa4 <__NVIC_EnableIRQ>
 8004d2c:	e024      	b.n	8004d78 <USART_Config+0x298>
 8004d2e:	bf00      	nop
 8004d30:	40011000 	.word	0x40011000
 8004d34:	40023800 	.word	0x40023800
 8004d38:	40004400 	.word	0x40004400
 8004d3c:	40011400 	.word	0x40011400
		}
		else if(ptrUsartHandler->ptrUSARTx == USART2){
 8004d40:	687b      	ldr	r3, [r7, #4]
 8004d42:	681b      	ldr	r3, [r3, #0]
 8004d44:	4a28      	ldr	r2, [pc, #160]	; (8004de8 <USART_Config+0x308>)
 8004d46:	4293      	cmp	r3, r2
 8004d48:	d103      	bne.n	8004d52 <USART_Config+0x272>
					// Activando en NVIC para la interrupcin del USART2
					__NVIC_EnableIRQ(USART2_IRQn);
 8004d4a:	2026      	movs	r0, #38	; 0x26
 8004d4c:	f7ff feaa 	bl	8004aa4 <__NVIC_EnableIRQ>
 8004d50:	e012      	b.n	8004d78 <USART_Config+0x298>
		}
		else if(ptrUsartHandler->ptrUSARTx == USART6){
 8004d52:	687b      	ldr	r3, [r7, #4]
 8004d54:	681b      	ldr	r3, [r3, #0]
 8004d56:	4a25      	ldr	r2, [pc, #148]	; (8004dec <USART_Config+0x30c>)
 8004d58:	4293      	cmp	r3, r2
 8004d5a:	d103      	bne.n	8004d64 <USART_Config+0x284>
				// Activando en NVIC para la interrupcin del USART6
					__NVIC_EnableIRQ(USART6_IRQn);
 8004d5c:	2047      	movs	r0, #71	; 0x47
 8004d5e:	f7ff fea1 	bl	8004aa4 <__NVIC_EnableIRQ>
 8004d62:	e009      	b.n	8004d78 <USART_Config+0x298>
		}
		else{
				__NOP();
 8004d64:	bf00      	nop
 8004d66:	e007      	b.n	8004d78 <USART_Config+0x298>
		}
	}else{
		ptrUsartHandler->ptrUSARTx->CR1 &= ~USART_CR1_RXNEIE;
 8004d68:	687b      	ldr	r3, [r7, #4]
 8004d6a:	681b      	ldr	r3, [r3, #0]
 8004d6c:	68da      	ldr	r2, [r3, #12]
 8004d6e:	687b      	ldr	r3, [r7, #4]
 8004d70:	681b      	ldr	r3, [r3, #0]
 8004d72:	f022 0220 	bic.w	r2, r2, #32
 8004d76:	60da      	str	r2, [r3, #12]
	}

	//Habilitamos las interrupciones de  Transmisin
	if (ptrUsartHandler->USART_Config.USART_enableInTx == USART_INTERRUPT_TX_ENABLE){
 8004d78:	687b      	ldr	r3, [r7, #4]
 8004d7a:	791b      	ldrb	r3, [r3, #4]
 8004d7c:	2b01      	cmp	r3, #1
 8004d7e:	d124      	bne.n	8004dca <USART_Config+0x2ea>
		ptrUsartHandler->ptrUSARTx->CR1 |= USART_CR1_TXEIE;;
 8004d80:	687b      	ldr	r3, [r7, #4]
 8004d82:	681b      	ldr	r3, [r3, #0]
 8004d84:	68da      	ldr	r2, [r3, #12]
 8004d86:	687b      	ldr	r3, [r7, #4]
 8004d88:	681b      	ldr	r3, [r3, #0]
 8004d8a:	f042 0280 	orr.w	r2, r2, #128	; 0x80
 8004d8e:	60da      	str	r2, [r3, #12]

		if(ptrUsartHandler->ptrUSARTx == USART1){
 8004d90:	687b      	ldr	r3, [r7, #4]
 8004d92:	681b      	ldr	r3, [r3, #0]
 8004d94:	4a16      	ldr	r2, [pc, #88]	; (8004df0 <USART_Config+0x310>)
 8004d96:	4293      	cmp	r3, r2
 8004d98:	d103      	bne.n	8004da2 <USART_Config+0x2c2>
					// Activando en NVIC para la interrupcin del USART1
					__NVIC_EnableIRQ(USART1_IRQn);
 8004d9a:	2025      	movs	r0, #37	; 0x25
 8004d9c:	f7ff fe82 	bl	8004aa4 <__NVIC_EnableIRQ>
 8004da0:	e01b      	b.n	8004dda <USART_Config+0x2fa>
		}
		else if(ptrUsartHandler->ptrUSARTx == USART2){
 8004da2:	687b      	ldr	r3, [r7, #4]
 8004da4:	681b      	ldr	r3, [r3, #0]
 8004da6:	4a10      	ldr	r2, [pc, #64]	; (8004de8 <USART_Config+0x308>)
 8004da8:	4293      	cmp	r3, r2
 8004daa:	d103      	bne.n	8004db4 <USART_Config+0x2d4>
					// Activando en NVIC para la interrupcin del USART2
					__NVIC_EnableIRQ(USART2_IRQn);
 8004dac:	2026      	movs	r0, #38	; 0x26
 8004dae:	f7ff fe79 	bl	8004aa4 <__NVIC_EnableIRQ>
 8004db2:	e012      	b.n	8004dda <USART_Config+0x2fa>
		}
		else if(ptrUsartHandler->ptrUSARTx == USART6){
 8004db4:	687b      	ldr	r3, [r7, #4]
 8004db6:	681b      	ldr	r3, [r3, #0]
 8004db8:	4a0c      	ldr	r2, [pc, #48]	; (8004dec <USART_Config+0x30c>)
 8004dba:	4293      	cmp	r3, r2
 8004dbc:	d103      	bne.n	8004dc6 <USART_Config+0x2e6>
				// Activando en NVIC para la interrupcin del USART6
					__NVIC_EnableIRQ(USART6_IRQn);
 8004dbe:	2047      	movs	r0, #71	; 0x47
 8004dc0:	f7ff fe70 	bl	8004aa4 <__NVIC_EnableIRQ>
 8004dc4:	e009      	b.n	8004dda <USART_Config+0x2fa>
		}
		else{
				__NOP();
 8004dc6:	bf00      	nop
 8004dc8:	e007      	b.n	8004dda <USART_Config+0x2fa>
		}
	}else{
		ptrUsartHandler->ptrUSARTx->CR1 &= ~USART_CR1_TXEIE;
 8004dca:	687b      	ldr	r3, [r7, #4]
 8004dcc:	681b      	ldr	r3, [r3, #0]
 8004dce:	68da      	ldr	r2, [r3, #12]
 8004dd0:	687b      	ldr	r3, [r7, #4]
 8004dd2:	681b      	ldr	r3, [r3, #0]
 8004dd4:	f022 0280 	bic.w	r2, r2, #128	; 0x80
 8004dd8:	60da      	str	r2, [r3, #12]
  __ASM volatile ("cpsie i" : : : "memory");
 8004dda:	b662      	cpsie	i
}
 8004ddc:	bf00      	nop
	}

	__enable_irq();
}
 8004dde:	bf00      	nop
 8004de0:	370c      	adds	r7, #12
 8004de2:	46bd      	mov	sp, r7
 8004de4:	bd90      	pop	{r4, r7, pc}
 8004de6:	bf00      	nop
 8004de8:	40004400 	.word	0x40004400
 8004dec:	40011400 	.word	0x40011400
 8004df0:	40011000 	.word	0x40011000
 8004df4:	00000000 	.word	0x00000000

08004df8 <brrCalculus>:



uint32_t brrCalculus (USART_Handler_t *ptrUsartHandler, uint32_t MCUvelocity){
 8004df8:	b5b0      	push	{r4, r5, r7, lr}
 8004dfa:	b082      	sub	sp, #8
 8004dfc:	af00      	add	r7, sp, #0
 8004dfe:	6078      	str	r0, [r7, #4]
 8004e00:	6039      	str	r1, [r7, #0]


	switch(ptrUsartHandler->USART_Config.USART_baudrate){
 8004e02:	687b      	ldr	r3, [r7, #4]
 8004e04:	79db      	ldrb	r3, [r3, #7]
 8004e06:	2b03      	cmp	r3, #3
 8004e08:	f200 8217 	bhi.w	800523a <brrCalculus+0x442>
 8004e0c:	a201      	add	r2, pc, #4	; (adr r2, 8004e14 <brrCalculus+0x1c>)
 8004e0e:	f852 f023 	ldr.w	pc, [r2, r3, lsl #2]
 8004e12:	bf00      	nop
 8004e14:	08004e25 	.word	0x08004e25
 8004e18:	08004f1f 	.word	0x08004f1f
 8004e1c:	08005039 	.word	0x08005039
 8004e20:	08005141 	.word	0x08005141

	case USART_BAUDRATE_9600:{

		 value = 1/(16.0 * 9600);
 8004e24:	4980      	ldr	r1, [pc, #512]	; (8005028 <brrCalculus+0x230>)
 8004e26:	a37c      	add	r3, pc, #496	; (adr r3, 8005018 <brrCalculus+0x220>)
 8004e28:	e9d3 2300 	ldrd	r2, r3, [r3]
 8004e2c:	e9c1 2300 	strd	r2, r3, [r1]

		 value = ((float) MCUvelocity ) *value;
 8004e30:	683b      	ldr	r3, [r7, #0]
 8004e32:	ee07 3a90 	vmov	s15, r3
 8004e36:	eef8 7a67 	vcvt.f32.u32	s15, s15
 8004e3a:	ee17 0a90 	vmov	r0, s15
 8004e3e:	f7fb fb8b 	bl	8000558 <__aeabi_f2d>
 8004e42:	4b79      	ldr	r3, [pc, #484]	; (8005028 <brrCalculus+0x230>)
 8004e44:	e9d3 2300 	ldrd	r2, r3, [r3]
 8004e48:	f7fb fbde 	bl	8000608 <__aeabi_dmul>
 8004e4c:	4602      	mov	r2, r0
 8004e4e:	460b      	mov	r3, r1
 8004e50:	4975      	ldr	r1, [pc, #468]	; (8005028 <brrCalculus+0x230>)
 8004e52:	e9c1 2300 	strd	r2, r3, [r1]

		 mant = (int) value;
 8004e56:	4b74      	ldr	r3, [pc, #464]	; (8005028 <brrCalculus+0x230>)
 8004e58:	e9d3 2300 	ldrd	r2, r3, [r3]
 8004e5c:	4610      	mov	r0, r2
 8004e5e:	4619      	mov	r1, r3
 8004e60:	f7fb fe82 	bl	8000b68 <__aeabi_d2iz>
 8004e64:	4603      	mov	r3, r0
 8004e66:	b29a      	uxth	r2, r3
 8004e68:	4b70      	ldr	r3, [pc, #448]	; (800502c <brrCalculus+0x234>)
 8004e6a:	801a      	strh	r2, [r3, #0]

		 DIVfrac = value -(int) value;
 8004e6c:	4b6e      	ldr	r3, [pc, #440]	; (8005028 <brrCalculus+0x230>)
 8004e6e:	e9d3 4500 	ldrd	r4, r5, [r3]
 8004e72:	4b6d      	ldr	r3, [pc, #436]	; (8005028 <brrCalculus+0x230>)
 8004e74:	e9d3 2300 	ldrd	r2, r3, [r3]
 8004e78:	4610      	mov	r0, r2
 8004e7a:	4619      	mov	r1, r3
 8004e7c:	f7fb fe74 	bl	8000b68 <__aeabi_d2iz>
 8004e80:	4603      	mov	r3, r0
 8004e82:	4618      	mov	r0, r3
 8004e84:	f7fb fb56 	bl	8000534 <__aeabi_i2d>
 8004e88:	4602      	mov	r2, r0
 8004e8a:	460b      	mov	r3, r1
 8004e8c:	4620      	mov	r0, r4
 8004e8e:	4629      	mov	r1, r5
 8004e90:	f7fb fa02 	bl	8000298 <__aeabi_dsub>
 8004e94:	4602      	mov	r2, r0
 8004e96:	460b      	mov	r3, r1
 8004e98:	4610      	mov	r0, r2
 8004e9a:	4619      	mov	r1, r3
 8004e9c:	f7fb feac 	bl	8000bf8 <__aeabi_d2f>
 8004ea0:	4603      	mov	r3, r0
 8004ea2:	4a63      	ldr	r2, [pc, #396]	; (8005030 <brrCalculus+0x238>)
 8004ea4:	6013      	str	r3, [r2, #0]

		 DIVfrac = roundToNDecimals(DIVfrac, 4 );
 8004ea6:	4b62      	ldr	r3, [pc, #392]	; (8005030 <brrCalculus+0x238>)
 8004ea8:	edd3 7a00 	vldr	s15, [r3]
 8004eac:	2004      	movs	r0, #4
 8004eae:	eeb0 0a67 	vmov.f32	s0, s15
 8004eb2:	f000 fa6d 	bl	8005390 <roundToNDecimals>
 8004eb6:	eef0 7a40 	vmov.f32	s15, s0
 8004eba:	4b5d      	ldr	r3, [pc, #372]	; (8005030 <brrCalculus+0x238>)
 8004ebc:	edc3 7a00 	vstr	s15, [r3]

		 DIVfrac = 16*DIVfrac;
 8004ec0:	4b5b      	ldr	r3, [pc, #364]	; (8005030 <brrCalculus+0x238>)
 8004ec2:	edd3 7a00 	vldr	s15, [r3]
 8004ec6:	eeb3 7a00 	vmov.f32	s14, #48	; 0x41800000  16.0
 8004eca:	ee67 7a87 	vmul.f32	s15, s15, s14
 8004ece:	4b58      	ldr	r3, [pc, #352]	; (8005030 <brrCalculus+0x238>)
 8004ed0:	edc3 7a00 	vstr	s15, [r3]

		 DIVfrac = round(DIVfrac);
 8004ed4:	4b56      	ldr	r3, [pc, #344]	; (8005030 <brrCalculus+0x238>)
 8004ed6:	681b      	ldr	r3, [r3, #0]
 8004ed8:	4618      	mov	r0, r3
 8004eda:	f7fb fb3d 	bl	8000558 <__aeabi_f2d>
 8004ede:	4602      	mov	r2, r0
 8004ee0:	460b      	mov	r3, r1
 8004ee2:	ec43 2b10 	vmov	d0, r2, r3
 8004ee6:	f003 fb03 	bl	80084f0 <round>
 8004eea:	ec53 2b10 	vmov	r2, r3, d0
 8004eee:	4610      	mov	r0, r2
 8004ef0:	4619      	mov	r1, r3
 8004ef2:	f7fb fe81 	bl	8000bf8 <__aeabi_d2f>
 8004ef6:	4603      	mov	r3, r0
 8004ef8:	4a4d      	ldr	r2, [pc, #308]	; (8005030 <brrCalculus+0x238>)
 8004efa:	6013      	str	r3, [r2, #0]

		 mant_DIVfrac = (mant << 4) | ((unsigned int) DIVfrac);
 8004efc:	4b4b      	ldr	r3, [pc, #300]	; (800502c <brrCalculus+0x234>)
 8004efe:	881b      	ldrh	r3, [r3, #0]
 8004f00:	011b      	lsls	r3, r3, #4
 8004f02:	b29a      	uxth	r2, r3
 8004f04:	4b4a      	ldr	r3, [pc, #296]	; (8005030 <brrCalculus+0x238>)
 8004f06:	edd3 7a00 	vldr	s15, [r3]
 8004f0a:	eefc 7ae7 	vcvt.u32.f32	s15, s15
 8004f0e:	ee17 3a90 	vmov	r3, s15
 8004f12:	b29b      	uxth	r3, r3
 8004f14:	4313      	orrs	r3, r2
 8004f16:	b29a      	uxth	r2, r3
 8004f18:	4b46      	ldr	r3, [pc, #280]	; (8005034 <brrCalculus+0x23c>)
 8004f1a:	801a      	strh	r2, [r3, #0]


		break;
 8004f1c:	e18f      	b.n	800523e <brrCalculus+0x446>
	}
	case USART_BAUDRATE_19200:{

		 value = 1/(16.0 * 19200);
 8004f1e:	4942      	ldr	r1, [pc, #264]	; (8005028 <brrCalculus+0x230>)
 8004f20:	a33f      	add	r3, pc, #252	; (adr r3, 8005020 <brrCalculus+0x228>)
 8004f22:	e9d3 2300 	ldrd	r2, r3, [r3]
 8004f26:	e9c1 2300 	strd	r2, r3, [r1]

		 value = ((float) MCUvelocity ) *value;
 8004f2a:	683b      	ldr	r3, [r7, #0]
 8004f2c:	ee07 3a90 	vmov	s15, r3
 8004f30:	eef8 7a67 	vcvt.f32.u32	s15, s15
 8004f34:	ee17 0a90 	vmov	r0, s15
 8004f38:	f7fb fb0e 	bl	8000558 <__aeabi_f2d>
 8004f3c:	4b3a      	ldr	r3, [pc, #232]	; (8005028 <brrCalculus+0x230>)
 8004f3e:	e9d3 2300 	ldrd	r2, r3, [r3]
 8004f42:	f7fb fb61 	bl	8000608 <__aeabi_dmul>
 8004f46:	4602      	mov	r2, r0
 8004f48:	460b      	mov	r3, r1
 8004f4a:	4937      	ldr	r1, [pc, #220]	; (8005028 <brrCalculus+0x230>)
 8004f4c:	e9c1 2300 	strd	r2, r3, [r1]

		 mant = (int) value;
 8004f50:	4b35      	ldr	r3, [pc, #212]	; (8005028 <brrCalculus+0x230>)
 8004f52:	e9d3 2300 	ldrd	r2, r3, [r3]
 8004f56:	4610      	mov	r0, r2
 8004f58:	4619      	mov	r1, r3
 8004f5a:	f7fb fe05 	bl	8000b68 <__aeabi_d2iz>
 8004f5e:	4603      	mov	r3, r0
 8004f60:	b29a      	uxth	r2, r3
 8004f62:	4b32      	ldr	r3, [pc, #200]	; (800502c <brrCalculus+0x234>)
 8004f64:	801a      	strh	r2, [r3, #0]

		 DIVfrac = value -(int) value;
 8004f66:	4b30      	ldr	r3, [pc, #192]	; (8005028 <brrCalculus+0x230>)
 8004f68:	e9d3 4500 	ldrd	r4, r5, [r3]
 8004f6c:	4b2e      	ldr	r3, [pc, #184]	; (8005028 <brrCalculus+0x230>)
 8004f6e:	e9d3 2300 	ldrd	r2, r3, [r3]
 8004f72:	4610      	mov	r0, r2
 8004f74:	4619      	mov	r1, r3
 8004f76:	f7fb fdf7 	bl	8000b68 <__aeabi_d2iz>
 8004f7a:	4603      	mov	r3, r0
 8004f7c:	4618      	mov	r0, r3
 8004f7e:	f7fb fad9 	bl	8000534 <__aeabi_i2d>
 8004f82:	4602      	mov	r2, r0
 8004f84:	460b      	mov	r3, r1
 8004f86:	4620      	mov	r0, r4
 8004f88:	4629      	mov	r1, r5
 8004f8a:	f7fb f985 	bl	8000298 <__aeabi_dsub>
 8004f8e:	4602      	mov	r2, r0
 8004f90:	460b      	mov	r3, r1
 8004f92:	4610      	mov	r0, r2
 8004f94:	4619      	mov	r1, r3
 8004f96:	f7fb fe2f 	bl	8000bf8 <__aeabi_d2f>
 8004f9a:	4603      	mov	r3, r0
 8004f9c:	4a24      	ldr	r2, [pc, #144]	; (8005030 <brrCalculus+0x238>)
 8004f9e:	6013      	str	r3, [r2, #0]

		 DIVfrac = roundToNDecimals(DIVfrac, 4 );
 8004fa0:	4b23      	ldr	r3, [pc, #140]	; (8005030 <brrCalculus+0x238>)
 8004fa2:	edd3 7a00 	vldr	s15, [r3]
 8004fa6:	2004      	movs	r0, #4
 8004fa8:	eeb0 0a67 	vmov.f32	s0, s15
 8004fac:	f000 f9f0 	bl	8005390 <roundToNDecimals>
 8004fb0:	eef0 7a40 	vmov.f32	s15, s0
 8004fb4:	4b1e      	ldr	r3, [pc, #120]	; (8005030 <brrCalculus+0x238>)
 8004fb6:	edc3 7a00 	vstr	s15, [r3]

		 DIVfrac = 16*DIVfrac;
 8004fba:	4b1d      	ldr	r3, [pc, #116]	; (8005030 <brrCalculus+0x238>)
 8004fbc:	edd3 7a00 	vldr	s15, [r3]
 8004fc0:	eeb3 7a00 	vmov.f32	s14, #48	; 0x41800000  16.0
 8004fc4:	ee67 7a87 	vmul.f32	s15, s15, s14
 8004fc8:	4b19      	ldr	r3, [pc, #100]	; (8005030 <brrCalculus+0x238>)
 8004fca:	edc3 7a00 	vstr	s15, [r3]

		 DIVfrac = round(DIVfrac);
 8004fce:	4b18      	ldr	r3, [pc, #96]	; (8005030 <brrCalculus+0x238>)
 8004fd0:	681b      	ldr	r3, [r3, #0]
 8004fd2:	4618      	mov	r0, r3
 8004fd4:	f7fb fac0 	bl	8000558 <__aeabi_f2d>
 8004fd8:	4602      	mov	r2, r0
 8004fda:	460b      	mov	r3, r1
 8004fdc:	ec43 2b10 	vmov	d0, r2, r3
 8004fe0:	f003 fa86 	bl	80084f0 <round>
 8004fe4:	ec53 2b10 	vmov	r2, r3, d0
 8004fe8:	4610      	mov	r0, r2
 8004fea:	4619      	mov	r1, r3
 8004fec:	f7fb fe04 	bl	8000bf8 <__aeabi_d2f>
 8004ff0:	4603      	mov	r3, r0
 8004ff2:	4a0f      	ldr	r2, [pc, #60]	; (8005030 <brrCalculus+0x238>)
 8004ff4:	6013      	str	r3, [r2, #0]

		 mant_DIVfrac = (mant << 4) | ((unsigned int) DIVfrac);
 8004ff6:	4b0d      	ldr	r3, [pc, #52]	; (800502c <brrCalculus+0x234>)
 8004ff8:	881b      	ldrh	r3, [r3, #0]
 8004ffa:	011b      	lsls	r3, r3, #4
 8004ffc:	b29a      	uxth	r2, r3
 8004ffe:	4b0c      	ldr	r3, [pc, #48]	; (8005030 <brrCalculus+0x238>)
 8005000:	edd3 7a00 	vldr	s15, [r3]
 8005004:	eefc 7ae7 	vcvt.u32.f32	s15, s15
 8005008:	ee17 3a90 	vmov	r3, s15
 800500c:	b29b      	uxth	r3, r3
 800500e:	4313      	orrs	r3, r2
 8005010:	b29a      	uxth	r2, r3
 8005012:	4b08      	ldr	r3, [pc, #32]	; (8005034 <brrCalculus+0x23c>)
 8005014:	801a      	strh	r2, [r3, #0]


		break;
 8005016:	e112      	b.n	800523e <brrCalculus+0x446>
 8005018:	b4e81b4f 	.word	0xb4e81b4f
 800501c:	3edb4e81 	.word	0x3edb4e81
 8005020:	b4e81b4f 	.word	0xb4e81b4f
 8005024:	3ecb4e81 	.word	0x3ecb4e81
 8005028:	20000498 	.word	0x20000498
 800502c:	20000490 	.word	0x20000490
 8005030:	20000494 	.word	0x20000494
 8005034:	2000048e 	.word	0x2000048e
	}
	case USART_BAUDRATE_28800:{

		 value = 1/(16.0 * 28800);
 8005038:	4989      	ldr	r1, [pc, #548]	; (8005260 <brrCalculus+0x468>)
 800503a:	a385      	add	r3, pc, #532	; (adr r3, 8005250 <brrCalculus+0x458>)
 800503c:	e9d3 2300 	ldrd	r2, r3, [r3]
 8005040:	e9c1 2300 	strd	r2, r3, [r1]

		 value = ((float) MCUvelocity ) *value;
 8005044:	683b      	ldr	r3, [r7, #0]
 8005046:	ee07 3a90 	vmov	s15, r3
 800504a:	eef8 7a67 	vcvt.f32.u32	s15, s15
 800504e:	ee17 0a90 	vmov	r0, s15
 8005052:	f7fb fa81 	bl	8000558 <__aeabi_f2d>
 8005056:	4b82      	ldr	r3, [pc, #520]	; (8005260 <brrCalculus+0x468>)
 8005058:	e9d3 2300 	ldrd	r2, r3, [r3]
 800505c:	f7fb fad4 	bl	8000608 <__aeabi_dmul>
 8005060:	4602      	mov	r2, r0
 8005062:	460b      	mov	r3, r1
 8005064:	497e      	ldr	r1, [pc, #504]	; (8005260 <brrCalculus+0x468>)
 8005066:	e9c1 2300 	strd	r2, r3, [r1]

		 mant = (int) value;
 800506a:	4b7d      	ldr	r3, [pc, #500]	; (8005260 <brrCalculus+0x468>)
 800506c:	e9d3 2300 	ldrd	r2, r3, [r3]
 8005070:	4610      	mov	r0, r2
 8005072:	4619      	mov	r1, r3
 8005074:	f7fb fd78 	bl	8000b68 <__aeabi_d2iz>
 8005078:	4603      	mov	r3, r0
 800507a:	b29a      	uxth	r2, r3
 800507c:	4b79      	ldr	r3, [pc, #484]	; (8005264 <brrCalculus+0x46c>)
 800507e:	801a      	strh	r2, [r3, #0]

		 DIVfrac = value -(int) value;
 8005080:	4b77      	ldr	r3, [pc, #476]	; (8005260 <brrCalculus+0x468>)
 8005082:	e9d3 4500 	ldrd	r4, r5, [r3]
 8005086:	4b76      	ldr	r3, [pc, #472]	; (8005260 <brrCalculus+0x468>)
 8005088:	e9d3 2300 	ldrd	r2, r3, [r3]
 800508c:	4610      	mov	r0, r2
 800508e:	4619      	mov	r1, r3
 8005090:	f7fb fd6a 	bl	8000b68 <__aeabi_d2iz>
 8005094:	4603      	mov	r3, r0
 8005096:	4618      	mov	r0, r3
 8005098:	f7fb fa4c 	bl	8000534 <__aeabi_i2d>
 800509c:	4602      	mov	r2, r0
 800509e:	460b      	mov	r3, r1
 80050a0:	4620      	mov	r0, r4
 80050a2:	4629      	mov	r1, r5
 80050a4:	f7fb f8f8 	bl	8000298 <__aeabi_dsub>
 80050a8:	4602      	mov	r2, r0
 80050aa:	460b      	mov	r3, r1
 80050ac:	4610      	mov	r0, r2
 80050ae:	4619      	mov	r1, r3
 80050b0:	f7fb fda2 	bl	8000bf8 <__aeabi_d2f>
 80050b4:	4603      	mov	r3, r0
 80050b6:	4a6c      	ldr	r2, [pc, #432]	; (8005268 <brrCalculus+0x470>)
 80050b8:	6013      	str	r3, [r2, #0]

		 DIVfrac = roundToNDecimals(DIVfrac, 4 );
 80050ba:	4b6b      	ldr	r3, [pc, #428]	; (8005268 <brrCalculus+0x470>)
 80050bc:	edd3 7a00 	vldr	s15, [r3]
 80050c0:	2004      	movs	r0, #4
 80050c2:	eeb0 0a67 	vmov.f32	s0, s15
 80050c6:	f000 f963 	bl	8005390 <roundToNDecimals>
 80050ca:	eef0 7a40 	vmov.f32	s15, s0
 80050ce:	4b66      	ldr	r3, [pc, #408]	; (8005268 <brrCalculus+0x470>)
 80050d0:	edc3 7a00 	vstr	s15, [r3]

		 DIVfrac = 16*DIVfrac;
 80050d4:	4b64      	ldr	r3, [pc, #400]	; (8005268 <brrCalculus+0x470>)
 80050d6:	edd3 7a00 	vldr	s15, [r3]
 80050da:	eeb3 7a00 	vmov.f32	s14, #48	; 0x41800000  16.0
 80050de:	ee67 7a87 	vmul.f32	s15, s15, s14
 80050e2:	4b61      	ldr	r3, [pc, #388]	; (8005268 <brrCalculus+0x470>)
 80050e4:	edc3 7a00 	vstr	s15, [r3]

		 DIVfrac = round(DIVfrac) + 1;
 80050e8:	4b5f      	ldr	r3, [pc, #380]	; (8005268 <brrCalculus+0x470>)
 80050ea:	681b      	ldr	r3, [r3, #0]
 80050ec:	4618      	mov	r0, r3
 80050ee:	f7fb fa33 	bl	8000558 <__aeabi_f2d>
 80050f2:	4602      	mov	r2, r0
 80050f4:	460b      	mov	r3, r1
 80050f6:	ec43 2b10 	vmov	d0, r2, r3
 80050fa:	f003 f9f9 	bl	80084f0 <round>
 80050fe:	ec51 0b10 	vmov	r0, r1, d0
 8005102:	f04f 0200 	mov.w	r2, #0
 8005106:	4b59      	ldr	r3, [pc, #356]	; (800526c <brrCalculus+0x474>)
 8005108:	f7fb f8c8 	bl	800029c <__adddf3>
 800510c:	4602      	mov	r2, r0
 800510e:	460b      	mov	r3, r1
 8005110:	4610      	mov	r0, r2
 8005112:	4619      	mov	r1, r3
 8005114:	f7fb fd70 	bl	8000bf8 <__aeabi_d2f>
 8005118:	4603      	mov	r3, r0
 800511a:	4a53      	ldr	r2, [pc, #332]	; (8005268 <brrCalculus+0x470>)
 800511c:	6013      	str	r3, [r2, #0]

		 mant_DIVfrac = (mant << 4) | ((unsigned int) DIVfrac);
 800511e:	4b51      	ldr	r3, [pc, #324]	; (8005264 <brrCalculus+0x46c>)
 8005120:	881b      	ldrh	r3, [r3, #0]
 8005122:	011b      	lsls	r3, r3, #4
 8005124:	b29a      	uxth	r2, r3
 8005126:	4b50      	ldr	r3, [pc, #320]	; (8005268 <brrCalculus+0x470>)
 8005128:	edd3 7a00 	vldr	s15, [r3]
 800512c:	eefc 7ae7 	vcvt.u32.f32	s15, s15
 8005130:	ee17 3a90 	vmov	r3, s15
 8005134:	b29b      	uxth	r3, r3
 8005136:	4313      	orrs	r3, r2
 8005138:	b29a      	uxth	r2, r3
 800513a:	4b4d      	ldr	r3, [pc, #308]	; (8005270 <brrCalculus+0x478>)
 800513c:	801a      	strh	r2, [r3, #0]


		break;
 800513e:	e07e      	b.n	800523e <brrCalculus+0x446>
	}
	case USART_BAUDRATE_115200:{

		 value = 1/(16.0 * 115200);
 8005140:	4947      	ldr	r1, [pc, #284]	; (8005260 <brrCalculus+0x468>)
 8005142:	a345      	add	r3, pc, #276	; (adr r3, 8005258 <brrCalculus+0x460>)
 8005144:	e9d3 2300 	ldrd	r2, r3, [r3]
 8005148:	e9c1 2300 	strd	r2, r3, [r1]

		 value = ((float) MCUvelocity ) *value;
 800514c:	683b      	ldr	r3, [r7, #0]
 800514e:	ee07 3a90 	vmov	s15, r3
 8005152:	eef8 7a67 	vcvt.f32.u32	s15, s15
 8005156:	ee17 0a90 	vmov	r0, s15
 800515a:	f7fb f9fd 	bl	8000558 <__aeabi_f2d>
 800515e:	4b40      	ldr	r3, [pc, #256]	; (8005260 <brrCalculus+0x468>)
 8005160:	e9d3 2300 	ldrd	r2, r3, [r3]
 8005164:	f7fb fa50 	bl	8000608 <__aeabi_dmul>
 8005168:	4602      	mov	r2, r0
 800516a:	460b      	mov	r3, r1
 800516c:	493c      	ldr	r1, [pc, #240]	; (8005260 <brrCalculus+0x468>)
 800516e:	e9c1 2300 	strd	r2, r3, [r1]

		 mant = (int) value;
 8005172:	4b3b      	ldr	r3, [pc, #236]	; (8005260 <brrCalculus+0x468>)
 8005174:	e9d3 2300 	ldrd	r2, r3, [r3]
 8005178:	4610      	mov	r0, r2
 800517a:	4619      	mov	r1, r3
 800517c:	f7fb fcf4 	bl	8000b68 <__aeabi_d2iz>
 8005180:	4603      	mov	r3, r0
 8005182:	b29a      	uxth	r2, r3
 8005184:	4b37      	ldr	r3, [pc, #220]	; (8005264 <brrCalculus+0x46c>)
 8005186:	801a      	strh	r2, [r3, #0]

		 DIVfrac = value -(int) value;
 8005188:	4b35      	ldr	r3, [pc, #212]	; (8005260 <brrCalculus+0x468>)
 800518a:	e9d3 4500 	ldrd	r4, r5, [r3]
 800518e:	4b34      	ldr	r3, [pc, #208]	; (8005260 <brrCalculus+0x468>)
 8005190:	e9d3 2300 	ldrd	r2, r3, [r3]
 8005194:	4610      	mov	r0, r2
 8005196:	4619      	mov	r1, r3
 8005198:	f7fb fce6 	bl	8000b68 <__aeabi_d2iz>
 800519c:	4603      	mov	r3, r0
 800519e:	4618      	mov	r0, r3
 80051a0:	f7fb f9c8 	bl	8000534 <__aeabi_i2d>
 80051a4:	4602      	mov	r2, r0
 80051a6:	460b      	mov	r3, r1
 80051a8:	4620      	mov	r0, r4
 80051aa:	4629      	mov	r1, r5
 80051ac:	f7fb f874 	bl	8000298 <__aeabi_dsub>
 80051b0:	4602      	mov	r2, r0
 80051b2:	460b      	mov	r3, r1
 80051b4:	4610      	mov	r0, r2
 80051b6:	4619      	mov	r1, r3
 80051b8:	f7fb fd1e 	bl	8000bf8 <__aeabi_d2f>
 80051bc:	4603      	mov	r3, r0
 80051be:	4a2a      	ldr	r2, [pc, #168]	; (8005268 <brrCalculus+0x470>)
 80051c0:	6013      	str	r3, [r2, #0]

		 DIVfrac = roundToNDecimals(DIVfrac, 4 );
 80051c2:	4b29      	ldr	r3, [pc, #164]	; (8005268 <brrCalculus+0x470>)
 80051c4:	edd3 7a00 	vldr	s15, [r3]
 80051c8:	2004      	movs	r0, #4
 80051ca:	eeb0 0a67 	vmov.f32	s0, s15
 80051ce:	f000 f8df 	bl	8005390 <roundToNDecimals>
 80051d2:	eef0 7a40 	vmov.f32	s15, s0
 80051d6:	4b24      	ldr	r3, [pc, #144]	; (8005268 <brrCalculus+0x470>)
 80051d8:	edc3 7a00 	vstr	s15, [r3]

		 DIVfrac = 16*DIVfrac;
 80051dc:	4b22      	ldr	r3, [pc, #136]	; (8005268 <brrCalculus+0x470>)
 80051de:	edd3 7a00 	vldr	s15, [r3]
 80051e2:	eeb3 7a00 	vmov.f32	s14, #48	; 0x41800000  16.0
 80051e6:	ee67 7a87 	vmul.f32	s15, s15, s14
 80051ea:	4b1f      	ldr	r3, [pc, #124]	; (8005268 <brrCalculus+0x470>)
 80051ec:	edc3 7a00 	vstr	s15, [r3]

		 DIVfrac = round(DIVfrac);
 80051f0:	4b1d      	ldr	r3, [pc, #116]	; (8005268 <brrCalculus+0x470>)
 80051f2:	681b      	ldr	r3, [r3, #0]
 80051f4:	4618      	mov	r0, r3
 80051f6:	f7fb f9af 	bl	8000558 <__aeabi_f2d>
 80051fa:	4602      	mov	r2, r0
 80051fc:	460b      	mov	r3, r1
 80051fe:	ec43 2b10 	vmov	d0, r2, r3
 8005202:	f003 f975 	bl	80084f0 <round>
 8005206:	ec53 2b10 	vmov	r2, r3, d0
 800520a:	4610      	mov	r0, r2
 800520c:	4619      	mov	r1, r3
 800520e:	f7fb fcf3 	bl	8000bf8 <__aeabi_d2f>
 8005212:	4603      	mov	r3, r0
 8005214:	4a14      	ldr	r2, [pc, #80]	; (8005268 <brrCalculus+0x470>)
 8005216:	6013      	str	r3, [r2, #0]

		 mant_DIVfrac = (mant << 4) | ((unsigned int) DIVfrac);
 8005218:	4b12      	ldr	r3, [pc, #72]	; (8005264 <brrCalculus+0x46c>)
 800521a:	881b      	ldrh	r3, [r3, #0]
 800521c:	011b      	lsls	r3, r3, #4
 800521e:	b29a      	uxth	r2, r3
 8005220:	4b11      	ldr	r3, [pc, #68]	; (8005268 <brrCalculus+0x470>)
 8005222:	edd3 7a00 	vldr	s15, [r3]
 8005226:	eefc 7ae7 	vcvt.u32.f32	s15, s15
 800522a:	ee17 3a90 	vmov	r3, s15
 800522e:	b29b      	uxth	r3, r3
 8005230:	4313      	orrs	r3, r2
 8005232:	b29a      	uxth	r2, r3
 8005234:	4b0e      	ldr	r3, [pc, #56]	; (8005270 <brrCalculus+0x478>)
 8005236:	801a      	strh	r2, [r3, #0]


		break;
 8005238:	e001      	b.n	800523e <brrCalculus+0x446>
	}
	default:{

		__NOP();
 800523a:	bf00      	nop
		break;
 800523c:	bf00      	nop
	}

	}


	return mant_DIVfrac;
 800523e:	4b0c      	ldr	r3, [pc, #48]	; (8005270 <brrCalculus+0x478>)
 8005240:	881b      	ldrh	r3, [r3, #0]
}
 8005242:	4618      	mov	r0, r3
 8005244:	3708      	adds	r7, #8
 8005246:	46bd      	mov	sp, r7
 8005248:	bdb0      	pop	{r4, r5, r7, pc}
 800524a:	bf00      	nop
 800524c:	f3af 8000 	nop.w
 8005250:	789abcdf 	.word	0x789abcdf
 8005254:	3ec23456 	.word	0x3ec23456
 8005258:	789abcdf 	.word	0x789abcdf
 800525c:	3ea23456 	.word	0x3ea23456
 8005260:	20000498 	.word	0x20000498
 8005264:	20000490 	.word	0x20000490
 8005268:	20000494 	.word	0x20000494
 800526c:	3ff00000 	.word	0x3ff00000
 8005270:	2000048e 	.word	0x2000048e

08005274 <writeChar>:


/* funcion para escribir un solo char */
void writeChar(USART_Handler_t *ptrUsartHandler, int dataToSend ){
 8005274:	b480      	push	{r7}
 8005276:	b083      	sub	sp, #12
 8005278:	af00      	add	r7, sp, #0
 800527a:	6078      	str	r0, [r7, #4]
 800527c:	6039      	str	r1, [r7, #0]
	while( !(ptrUsartHandler->ptrUSARTx->SR & USART_SR_TXE)){
 800527e:	e000      	b.n	8005282 <writeChar+0xe>
		__NOP();
 8005280:	bf00      	nop
	while( !(ptrUsartHandler->ptrUSARTx->SR & USART_SR_TXE)){
 8005282:	687b      	ldr	r3, [r7, #4]
 8005284:	681b      	ldr	r3, [r3, #0]
 8005286:	681b      	ldr	r3, [r3, #0]
 8005288:	f003 0380 	and.w	r3, r3, #128	; 0x80
 800528c:	2b00      	cmp	r3, #0
 800528e:	d0f7      	beq.n	8005280 <writeChar+0xc>
	}

	ptrUsartHandler->ptrUSARTx->DR = dataToSend;
 8005290:	687b      	ldr	r3, [r7, #4]
 8005292:	681b      	ldr	r3, [r3, #0]
 8005294:	683a      	ldr	r2, [r7, #0]
 8005296:	605a      	str	r2, [r3, #4]

}
 8005298:	bf00      	nop
 800529a:	370c      	adds	r7, #12
 800529c:	46bd      	mov	sp, r7
 800529e:	f85d 7b04 	ldr.w	r7, [sp], #4
 80052a2:	4770      	bx	lr

080052a4 <writeMsg>:


void writeMsg(USART_Handler_t *ptrUsartHandler, const char* msgToSend){
 80052a4:	b580      	push	{r7, lr}
 80052a6:	b082      	sub	sp, #8
 80052a8:	af00      	add	r7, sp, #0
 80052aa:	6078      	str	r0, [r7, #4]
 80052ac:	6039      	str	r1, [r7, #0]

	while(*msgToSend != '\0'){
 80052ae:	e008      	b.n	80052c2 <writeMsg+0x1e>
		writeChar(ptrUsartHandler, *msgToSend);
 80052b0:	683b      	ldr	r3, [r7, #0]
 80052b2:	781b      	ldrb	r3, [r3, #0]
 80052b4:	4619      	mov	r1, r3
 80052b6:	6878      	ldr	r0, [r7, #4]
 80052b8:	f7ff ffdc 	bl	8005274 <writeChar>
		msgToSend ++ ;
 80052bc:	683b      	ldr	r3, [r7, #0]
 80052be:	3301      	adds	r3, #1
 80052c0:	603b      	str	r3, [r7, #0]
	while(*msgToSend != '\0'){
 80052c2:	683b      	ldr	r3, [r7, #0]
 80052c4:	781b      	ldrb	r3, [r3, #0]
 80052c6:	2b00      	cmp	r3, #0
 80052c8:	d1f2      	bne.n	80052b0 <writeMsg+0xc>
	}
}
 80052ca:	bf00      	nop
 80052cc:	bf00      	nop
 80052ce:	3708      	adds	r7, #8
 80052d0:	46bd      	mov	sp, r7
 80052d2:	bd80      	pop	{r7, pc}

080052d4 <usart1Rx_Callback>:

__attribute__((weak))	void usart2Rx_Callback(void){
	__NOP();
}
__attribute__((weak))	void usart1Rx_Callback(void){
 80052d4:	b480      	push	{r7}
 80052d6:	af00      	add	r7, sp, #0
	__NOP();
 80052d8:	bf00      	nop
}
 80052da:	bf00      	nop
 80052dc:	46bd      	mov	sp, r7
 80052de:	f85d 7b04 	ldr.w	r7, [sp], #4
 80052e2:	4770      	bx	lr

080052e4 <usart6Rx_Callback>:
__attribute__((weak))	void usart6Rx_Callback(void){
 80052e4:	b480      	push	{r7}
 80052e6:	af00      	add	r7, sp, #0
	__NOP();
 80052e8:	bf00      	nop
}
 80052ea:	bf00      	nop
 80052ec:	46bd      	mov	sp, r7
 80052ee:	f85d 7b04 	ldr.w	r7, [sp], #4
 80052f2:	4770      	bx	lr

080052f4 <getRxData>:

uint8_t auxRxData = 0;

uint8_t getRxData(void){
 80052f4:	b480      	push	{r7}
 80052f6:	af00      	add	r7, sp, #0
	return auxRxData;
 80052f8:	4b03      	ldr	r3, [pc, #12]	; (8005308 <getRxData+0x14>)
 80052fa:	781b      	ldrb	r3, [r3, #0]
}
 80052fc:	4618      	mov	r0, r3
 80052fe:	46bd      	mov	sp, r7
 8005300:	f85d 7b04 	ldr.w	r7, [sp], #4
 8005304:	4770      	bx	lr
 8005306:	bf00      	nop
 8005308:	200004a0 	.word	0x200004a0

0800530c <USART2_IRQHandler>:

void USART2_IRQHandler(void){
 800530c:	b580      	push	{r7, lr}
 800530e:	af00      	add	r7, sp, #0

	if(USART2->SR & USART_SR_RXNE){
 8005310:	4b07      	ldr	r3, [pc, #28]	; (8005330 <USART2_IRQHandler+0x24>)
 8005312:	681b      	ldr	r3, [r3, #0]
 8005314:	f003 0320 	and.w	r3, r3, #32
 8005318:	2b00      	cmp	r3, #0
 800531a:	d006      	beq.n	800532a <USART2_IRQHandler+0x1e>
		auxRxData = (uint8_t) USART2->DR;
 800531c:	4b04      	ldr	r3, [pc, #16]	; (8005330 <USART2_IRQHandler+0x24>)
 800531e:	685b      	ldr	r3, [r3, #4]
 8005320:	b2da      	uxtb	r2, r3
 8005322:	4b04      	ldr	r3, [pc, #16]	; (8005334 <USART2_IRQHandler+0x28>)
 8005324:	701a      	strb	r2, [r3, #0]
		usart2Rx_Callback();
 8005326:	f7fb ff8b 	bl	8001240 <usart2Rx_Callback>
	}

}
 800532a:	bf00      	nop
 800532c:	bd80      	pop	{r7, pc}
 800532e:	bf00      	nop
 8005330:	40004400 	.word	0x40004400
 8005334:	200004a0 	.word	0x200004a0

08005338 <USART1_IRQHandler>:
//	}
//	if(USART2->SR & USART_SR_TXE){
//		usart2Rx_Callback();
//	}

void USART1_IRQHandler(void){
 8005338:	b580      	push	{r7, lr}
 800533a:	af00      	add	r7, sp, #0


	if(USART1->SR & USART_SR_RXNE){
 800533c:	4b07      	ldr	r3, [pc, #28]	; (800535c <USART1_IRQHandler+0x24>)
 800533e:	681b      	ldr	r3, [r3, #0]
 8005340:	f003 0320 	and.w	r3, r3, #32
 8005344:	2b00      	cmp	r3, #0
 8005346:	d006      	beq.n	8005356 <USART1_IRQHandler+0x1e>
		auxRxData = (uint8_t) USART1->DR;
 8005348:	4b04      	ldr	r3, [pc, #16]	; (800535c <USART1_IRQHandler+0x24>)
 800534a:	685b      	ldr	r3, [r3, #4]
 800534c:	b2da      	uxtb	r2, r3
 800534e:	4b04      	ldr	r3, [pc, #16]	; (8005360 <USART1_IRQHandler+0x28>)
 8005350:	701a      	strb	r2, [r3, #0]
		usart1Rx_Callback();
 8005352:	f7ff ffbf 	bl	80052d4 <usart1Rx_Callback>
	}
}
 8005356:	bf00      	nop
 8005358:	bd80      	pop	{r7, pc}
 800535a:	bf00      	nop
 800535c:	40011000 	.word	0x40011000
 8005360:	200004a0 	.word	0x200004a0

08005364 <USART6_IRQHandler>:
//		usart1Rx_Callback();
//	}



void USART6_IRQHandler(void){
 8005364:	b580      	push	{r7, lr}
 8005366:	af00      	add	r7, sp, #0

	if(USART6->SR & USART_SR_RXNE){
 8005368:	4b07      	ldr	r3, [pc, #28]	; (8005388 <USART6_IRQHandler+0x24>)
 800536a:	681b      	ldr	r3, [r3, #0]
 800536c:	f003 0320 	and.w	r3, r3, #32
 8005370:	2b00      	cmp	r3, #0
 8005372:	d006      	beq.n	8005382 <USART6_IRQHandler+0x1e>
		auxRxData = (uint8_t) USART6->DR;
 8005374:	4b04      	ldr	r3, [pc, #16]	; (8005388 <USART6_IRQHandler+0x24>)
 8005376:	685b      	ldr	r3, [r3, #4]
 8005378:	b2da      	uxtb	r2, r3
 800537a:	4b04      	ldr	r3, [pc, #16]	; (800538c <USART6_IRQHandler+0x28>)
 800537c:	701a      	strb	r2, [r3, #0]
		usart6Rx_Callback();
 800537e:	f7ff ffb1 	bl	80052e4 <usart6Rx_Callback>
	}

}
 8005382:	bf00      	nop
 8005384:	bd80      	pop	{r7, pc}
 8005386:	bf00      	nop
 8005388:	40011400 	.word	0x40011400
 800538c:	200004a0 	.word	0x200004a0

08005390 <roundToNDecimals>:


float roundToNDecimals(float number, int n) {
 8005390:	b580      	push	{r7, lr}
 8005392:	b084      	sub	sp, #16
 8005394:	af00      	add	r7, sp, #0
 8005396:	ed87 0a01 	vstr	s0, [r7, #4]
 800539a:	6038      	str	r0, [r7, #0]

    double factor = pow(10, n);
 800539c:	6838      	ldr	r0, [r7, #0]
 800539e:	f7fb f8c9 	bl	8000534 <__aeabi_i2d>
 80053a2:	4602      	mov	r2, r0
 80053a4:	460b      	mov	r3, r1
 80053a6:	ec43 2b11 	vmov	d1, r2, r3
 80053aa:	ed9f 0b1f 	vldr	d0, [pc, #124]	; 8005428 <roundToNDecimals+0x98>
 80053ae:	f003 f941 	bl	8008634 <pow>
 80053b2:	ed87 0b02 	vstr	d0, [r7, #8]

    number *= factor;
 80053b6:	6878      	ldr	r0, [r7, #4]
 80053b8:	f7fb f8ce 	bl	8000558 <__aeabi_f2d>
 80053bc:	e9d7 2302 	ldrd	r2, r3, [r7, #8]
 80053c0:	f7fb f922 	bl	8000608 <__aeabi_dmul>
 80053c4:	4602      	mov	r2, r0
 80053c6:	460b      	mov	r3, r1
 80053c8:	4610      	mov	r0, r2
 80053ca:	4619      	mov	r1, r3
 80053cc:	f7fb fc14 	bl	8000bf8 <__aeabi_d2f>
 80053d0:	4603      	mov	r3, r0
 80053d2:	607b      	str	r3, [r7, #4]

    number = round(number);
 80053d4:	6878      	ldr	r0, [r7, #4]
 80053d6:	f7fb f8bf 	bl	8000558 <__aeabi_f2d>
 80053da:	4602      	mov	r2, r0
 80053dc:	460b      	mov	r3, r1
 80053de:	ec43 2b10 	vmov	d0, r2, r3
 80053e2:	f003 f885 	bl	80084f0 <round>
 80053e6:	ec53 2b10 	vmov	r2, r3, d0
 80053ea:	4610      	mov	r0, r2
 80053ec:	4619      	mov	r1, r3
 80053ee:	f7fb fc03 	bl	8000bf8 <__aeabi_d2f>
 80053f2:	4603      	mov	r3, r0
 80053f4:	607b      	str	r3, [r7, #4]

    number /= factor;
 80053f6:	6878      	ldr	r0, [r7, #4]
 80053f8:	f7fb f8ae 	bl	8000558 <__aeabi_f2d>
 80053fc:	e9d7 2302 	ldrd	r2, r3, [r7, #8]
 8005400:	f7fb fa2c 	bl	800085c <__aeabi_ddiv>
 8005404:	4602      	mov	r2, r0
 8005406:	460b      	mov	r3, r1
 8005408:	4610      	mov	r0, r2
 800540a:	4619      	mov	r1, r3
 800540c:	f7fb fbf4 	bl	8000bf8 <__aeabi_d2f>
 8005410:	4603      	mov	r3, r0
 8005412:	607b      	str	r3, [r7, #4]

    return number;
 8005414:	687b      	ldr	r3, [r7, #4]
 8005416:	ee07 3a90 	vmov	s15, r3
}
 800541a:	eeb0 0a67 	vmov.f32	s0, s15
 800541e:	3710      	adds	r7, #16
 8005420:	46bd      	mov	sp, r7
 8005422:	bd80      	pop	{r7, pc}
 8005424:	f3af 8000 	nop.w
 8005428:	00000000 	.word	0x00000000
 800542c:	40240000 	.word	0x40240000

08005430 <SystemInit>:
  *         configuration.
  * @param  None
  * @retval None
  */
void SystemInit(void)
{
 8005430:	b480      	push	{r7}
 8005432:	af00      	add	r7, sp, #0
  /* FPU settings ------------------------------------------------------------*/
  #if (__FPU_PRESENT == 1) && (__FPU_USED == 1)
    SCB->CPACR |= ((3UL << 10*2)|(3UL << 11*2));  /* set CP10 and CP11 Full Access */
 8005434:	4b06      	ldr	r3, [pc, #24]	; (8005450 <SystemInit+0x20>)
 8005436:	f8d3 3088 	ldr.w	r3, [r3, #136]	; 0x88
 800543a:	4a05      	ldr	r2, [pc, #20]	; (8005450 <SystemInit+0x20>)
 800543c:	f443 0370 	orr.w	r3, r3, #15728640	; 0xf00000
 8005440:	f8c2 3088 	str.w	r3, [r2, #136]	; 0x88

  /* Configure the Vector Table location -------------------------------------*/
#if defined(USER_VECT_TAB_ADDRESS)
  SCB->VTOR = VECT_TAB_BASE_ADDRESS | VECT_TAB_OFFSET; /* Vector Table Relocation in Internal SRAM */
#endif /* USER_VECT_TAB_ADDRESS */
}
 8005444:	bf00      	nop
 8005446:	46bd      	mov	sp, r7
 8005448:	f85d 7b04 	ldr.w	r7, [sp], #4
 800544c:	4770      	bx	lr
 800544e:	bf00      	nop
 8005450:	e000ed00 	.word	0xe000ed00

08005454 <SystemCoreClockUpdate>:
  *     
  * @param  None
  * @retval None
  */
void SystemCoreClockUpdate(void)
{
 8005454:	b480      	push	{r7}
 8005456:	b087      	sub	sp, #28
 8005458:	af00      	add	r7, sp, #0
  uint32_t tmp = 0, pllvco = 0, pllp = 2, pllsource = 0, pllm = 2;
 800545a:	2300      	movs	r3, #0
 800545c:	613b      	str	r3, [r7, #16]
 800545e:	2300      	movs	r3, #0
 8005460:	617b      	str	r3, [r7, #20]
 8005462:	2302      	movs	r3, #2
 8005464:	60fb      	str	r3, [r7, #12]
 8005466:	2300      	movs	r3, #0
 8005468:	60bb      	str	r3, [r7, #8]
 800546a:	2302      	movs	r3, #2
 800546c:	607b      	str	r3, [r7, #4]
  
  /* Get SYSCLK source -------------------------------------------------------*/
  tmp = RCC->CFGR & RCC_CFGR_SWS;
 800546e:	4b34      	ldr	r3, [pc, #208]	; (8005540 <SystemCoreClockUpdate+0xec>)
 8005470:	689b      	ldr	r3, [r3, #8]
 8005472:	f003 030c 	and.w	r3, r3, #12
 8005476:	613b      	str	r3, [r7, #16]

  switch (tmp)
 8005478:	693b      	ldr	r3, [r7, #16]
 800547a:	2b08      	cmp	r3, #8
 800547c:	d011      	beq.n	80054a2 <SystemCoreClockUpdate+0x4e>
 800547e:	693b      	ldr	r3, [r7, #16]
 8005480:	2b08      	cmp	r3, #8
 8005482:	d844      	bhi.n	800550e <SystemCoreClockUpdate+0xba>
 8005484:	693b      	ldr	r3, [r7, #16]
 8005486:	2b00      	cmp	r3, #0
 8005488:	d003      	beq.n	8005492 <SystemCoreClockUpdate+0x3e>
 800548a:	693b      	ldr	r3, [r7, #16]
 800548c:	2b04      	cmp	r3, #4
 800548e:	d004      	beq.n	800549a <SystemCoreClockUpdate+0x46>
 8005490:	e03d      	b.n	800550e <SystemCoreClockUpdate+0xba>
  {
    case 0x00:  /* HSI used as system clock source */
      SystemCoreClock = HSI_VALUE;
 8005492:	4b2c      	ldr	r3, [pc, #176]	; (8005544 <SystemCoreClockUpdate+0xf0>)
 8005494:	4a2c      	ldr	r2, [pc, #176]	; (8005548 <SystemCoreClockUpdate+0xf4>)
 8005496:	601a      	str	r2, [r3, #0]
      break;
 8005498:	e03d      	b.n	8005516 <SystemCoreClockUpdate+0xc2>
    case 0x04:  /* HSE used as system clock source */
      SystemCoreClock = HSE_VALUE;
 800549a:	4b2a      	ldr	r3, [pc, #168]	; (8005544 <SystemCoreClockUpdate+0xf0>)
 800549c:	4a2b      	ldr	r2, [pc, #172]	; (800554c <SystemCoreClockUpdate+0xf8>)
 800549e:	601a      	str	r2, [r3, #0]
      break;
 80054a0:	e039      	b.n	8005516 <SystemCoreClockUpdate+0xc2>
    case 0x08:  /* PLL used as system clock source */

      /* PLL_VCO = (HSE_VALUE or HSI_VALUE / PLL_M) * PLL_N
         SYSCLK = PLL_VCO / PLL_P
         */    
      pllsource = (RCC->PLLCFGR & RCC_PLLCFGR_PLLSRC) >> 22;
 80054a2:	4b27      	ldr	r3, [pc, #156]	; (8005540 <SystemCoreClockUpdate+0xec>)
 80054a4:	685b      	ldr	r3, [r3, #4]
 80054a6:	0d9b      	lsrs	r3, r3, #22
 80054a8:	f003 0301 	and.w	r3, r3, #1
 80054ac:	60bb      	str	r3, [r7, #8]
      pllm = RCC->PLLCFGR & RCC_PLLCFGR_PLLM;
 80054ae:	4b24      	ldr	r3, [pc, #144]	; (8005540 <SystemCoreClockUpdate+0xec>)
 80054b0:	685b      	ldr	r3, [r3, #4]
 80054b2:	f003 033f 	and.w	r3, r3, #63	; 0x3f
 80054b6:	607b      	str	r3, [r7, #4]
      
      if (pllsource != 0)
 80054b8:	68bb      	ldr	r3, [r7, #8]
 80054ba:	2b00      	cmp	r3, #0
 80054bc:	d00c      	beq.n	80054d8 <SystemCoreClockUpdate+0x84>
      {
        /* HSE used as PLL clock source */
        pllvco = (HSE_VALUE / pllm) * ((RCC->PLLCFGR & RCC_PLLCFGR_PLLN) >> 6);
 80054be:	4a23      	ldr	r2, [pc, #140]	; (800554c <SystemCoreClockUpdate+0xf8>)
 80054c0:	687b      	ldr	r3, [r7, #4]
 80054c2:	fbb2 f3f3 	udiv	r3, r2, r3
 80054c6:	4a1e      	ldr	r2, [pc, #120]	; (8005540 <SystemCoreClockUpdate+0xec>)
 80054c8:	6852      	ldr	r2, [r2, #4]
 80054ca:	0992      	lsrs	r2, r2, #6
 80054cc:	f3c2 0208 	ubfx	r2, r2, #0, #9
 80054d0:	fb02 f303 	mul.w	r3, r2, r3
 80054d4:	617b      	str	r3, [r7, #20]
 80054d6:	e00b      	b.n	80054f0 <SystemCoreClockUpdate+0x9c>
      }
      else
      {
        /* HSI used as PLL clock source */
        pllvco = (HSI_VALUE / pllm) * ((RCC->PLLCFGR & RCC_PLLCFGR_PLLN) >> 6);
 80054d8:	4a1b      	ldr	r2, [pc, #108]	; (8005548 <SystemCoreClockUpdate+0xf4>)
 80054da:	687b      	ldr	r3, [r7, #4]
 80054dc:	fbb2 f3f3 	udiv	r3, r2, r3
 80054e0:	4a17      	ldr	r2, [pc, #92]	; (8005540 <SystemCoreClockUpdate+0xec>)
 80054e2:	6852      	ldr	r2, [r2, #4]
 80054e4:	0992      	lsrs	r2, r2, #6
 80054e6:	f3c2 0208 	ubfx	r2, r2, #0, #9
 80054ea:	fb02 f303 	mul.w	r3, r2, r3
 80054ee:	617b      	str	r3, [r7, #20]
      }

      pllp = (((RCC->PLLCFGR & RCC_PLLCFGR_PLLP) >>16) + 1 ) *2;
 80054f0:	4b13      	ldr	r3, [pc, #76]	; (8005540 <SystemCoreClockUpdate+0xec>)
 80054f2:	685b      	ldr	r3, [r3, #4]
 80054f4:	0c1b      	lsrs	r3, r3, #16
 80054f6:	f003 0303 	and.w	r3, r3, #3
 80054fa:	3301      	adds	r3, #1
 80054fc:	005b      	lsls	r3, r3, #1
 80054fe:	60fb      	str	r3, [r7, #12]
      SystemCoreClock = pllvco/pllp;
 8005500:	697a      	ldr	r2, [r7, #20]
 8005502:	68fb      	ldr	r3, [r7, #12]
 8005504:	fbb2 f3f3 	udiv	r3, r2, r3
 8005508:	4a0e      	ldr	r2, [pc, #56]	; (8005544 <SystemCoreClockUpdate+0xf0>)
 800550a:	6013      	str	r3, [r2, #0]
      break;
 800550c:	e003      	b.n	8005516 <SystemCoreClockUpdate+0xc2>
    default:
      SystemCoreClock = HSI_VALUE;
 800550e:	4b0d      	ldr	r3, [pc, #52]	; (8005544 <SystemCoreClockUpdate+0xf0>)
 8005510:	4a0d      	ldr	r2, [pc, #52]	; (8005548 <SystemCoreClockUpdate+0xf4>)
 8005512:	601a      	str	r2, [r3, #0]
      break;
 8005514:	bf00      	nop
  }
  /* Compute HCLK frequency --------------------------------------------------*/
  /* Get HCLK prescaler */
  tmp = AHBPrescTable[((RCC->CFGR & RCC_CFGR_HPRE) >> 4)];
 8005516:	4b0a      	ldr	r3, [pc, #40]	; (8005540 <SystemCoreClockUpdate+0xec>)
 8005518:	689b      	ldr	r3, [r3, #8]
 800551a:	091b      	lsrs	r3, r3, #4
 800551c:	f003 030f 	and.w	r3, r3, #15
 8005520:	4a0b      	ldr	r2, [pc, #44]	; (8005550 <SystemCoreClockUpdate+0xfc>)
 8005522:	5cd3      	ldrb	r3, [r2, r3]
 8005524:	613b      	str	r3, [r7, #16]
  /* HCLK frequency */
  SystemCoreClock >>= tmp;
 8005526:	4b07      	ldr	r3, [pc, #28]	; (8005544 <SystemCoreClockUpdate+0xf0>)
 8005528:	681a      	ldr	r2, [r3, #0]
 800552a:	693b      	ldr	r3, [r7, #16]
 800552c:	fa22 f303 	lsr.w	r3, r2, r3
 8005530:	4a04      	ldr	r2, [pc, #16]	; (8005544 <SystemCoreClockUpdate+0xf0>)
 8005532:	6013      	str	r3, [r2, #0]
}
 8005534:	bf00      	nop
 8005536:	371c      	adds	r7, #28
 8005538:	46bd      	mov	sp, r7
 800553a:	f85d 7b04 	ldr.w	r7, [sp], #4
 800553e:	4770      	bx	lr
 8005540:	40023800 	.word	0x40023800
 8005544:	2000000c 	.word	0x2000000c
 8005548:	00f42400 	.word	0x00f42400
 800554c:	017d7840 	.word	0x017d7840
 8005550:	0800a904 	.word	0x0800a904

08005554 <i2c_config>:
 * para lo cual se necesita el modulo GPIO y los pines configurados
 * en el modo ALternate Function.
 * Ademas, estos pines deben ser configurados como salidas open-drain
 * y con la resistencias en modo pull-up.
 */
void i2c_config(I2C_Handler_t *ptrHandlerI2C){
 8005554:	b480      	push	{r7}
 8005556:	b083      	sub	sp, #12
 8005558:	af00      	add	r7, sp, #0
 800555a:	6078      	str	r0, [r7, #4]

	/* 1 Activamos la seal de reloj para el modulo I2C seleccionado*/
	if(ptrHandlerI2C->ptrI2Cx == I2C1){
 800555c:	687b      	ldr	r3, [r7, #4]
 800555e:	681b      	ldr	r3, [r3, #0]
 8005560:	4a86      	ldr	r2, [pc, #536]	; (800577c <i2c_config+0x228>)
 8005562:	4293      	cmp	r3, r2
 8005564:	d106      	bne.n	8005574 <i2c_config+0x20>
		RCC -> APB1ENR |= RCC_APB1ENR_I2C1EN;
 8005566:	4b86      	ldr	r3, [pc, #536]	; (8005780 <i2c_config+0x22c>)
 8005568:	6c1b      	ldr	r3, [r3, #64]	; 0x40
 800556a:	4a85      	ldr	r2, [pc, #532]	; (8005780 <i2c_config+0x22c>)
 800556c:	f443 1300 	orr.w	r3, r3, #2097152	; 0x200000
 8005570:	6413      	str	r3, [r2, #64]	; 0x40
 8005572:	e016      	b.n	80055a2 <i2c_config+0x4e>
	}

	else if(ptrHandlerI2C->ptrI2Cx == I2C2){
 8005574:	687b      	ldr	r3, [r7, #4]
 8005576:	681b      	ldr	r3, [r3, #0]
 8005578:	4a82      	ldr	r2, [pc, #520]	; (8005784 <i2c_config+0x230>)
 800557a:	4293      	cmp	r3, r2
 800557c:	d106      	bne.n	800558c <i2c_config+0x38>
		RCC -> APB1ENR  |= RCC_APB1ENR_I2C2EN;
 800557e:	4b80      	ldr	r3, [pc, #512]	; (8005780 <i2c_config+0x22c>)
 8005580:	6c1b      	ldr	r3, [r3, #64]	; 0x40
 8005582:	4a7f      	ldr	r2, [pc, #508]	; (8005780 <i2c_config+0x22c>)
 8005584:	f443 0380 	orr.w	r3, r3, #4194304	; 0x400000
 8005588:	6413      	str	r3, [r2, #64]	; 0x40
 800558a:	e00a      	b.n	80055a2 <i2c_config+0x4e>
	}

	else if(ptrHandlerI2C->ptrI2Cx == I2C3){
 800558c:	687b      	ldr	r3, [r7, #4]
 800558e:	681b      	ldr	r3, [r3, #0]
 8005590:	4a7d      	ldr	r2, [pc, #500]	; (8005788 <i2c_config+0x234>)
 8005592:	4293      	cmp	r3, r2
 8005594:	d105      	bne.n	80055a2 <i2c_config+0x4e>
		RCC -> APB1ENR |= RCC_APB1ENR_I2C3EN;
 8005596:	4b7a      	ldr	r3, [pc, #488]	; (8005780 <i2c_config+0x22c>)
 8005598:	6c1b      	ldr	r3, [r3, #64]	; 0x40
 800559a:	4a79      	ldr	r2, [pc, #484]	; (8005780 <i2c_config+0x22c>)
 800559c:	f443 0300 	orr.w	r3, r3, #8388608	; 0x800000
 80055a0:	6413      	str	r3, [r2, #64]	; 0x40
	}

	/* 0. desactivamos el modulo I2C */
	ptrHandlerI2C->ptrI2Cx->CR1 &= ~I2C_CR1_PE;
 80055a2:	687b      	ldr	r3, [r7, #4]
 80055a4:	681b      	ldr	r3, [r3, #0]
 80055a6:	681a      	ldr	r2, [r3, #0]
 80055a8:	687b      	ldr	r3, [r7, #4]
 80055aa:	681b      	ldr	r3, [r3, #0]
 80055ac:	f022 0201 	bic.w	r2, r2, #1
 80055b0:	601a      	str	r2, [r3, #0]


	while(ptrHandlerI2C->ptrI2Cx->SR2 & I2C_SR2_BUSY){
 80055b2:	e000      	b.n	80055b6 <i2c_config+0x62>
		__NOP();
 80055b4:	bf00      	nop
	while(ptrHandlerI2C->ptrI2Cx->SR2 & I2C_SR2_BUSY){
 80055b6:	687b      	ldr	r3, [r7, #4]
 80055b8:	681b      	ldr	r3, [r3, #0]
 80055ba:	699b      	ldr	r3, [r3, #24]
 80055bc:	f003 0302 	and.w	r3, r3, #2
 80055c0:	2b00      	cmp	r3, #0
 80055c2:	d1f7      	bne.n	80055b4 <i2c_config+0x60>
	}

	/* 2. Reiniciamos el periferico, de forma que inicia en un estado conocido */
	ptrHandlerI2C->ptrI2Cx->CR1 |= I2C_CR1_SWRST;
 80055c4:	687b      	ldr	r3, [r7, #4]
 80055c6:	681b      	ldr	r3, [r3, #0]
 80055c8:	681a      	ldr	r2, [r3, #0]
 80055ca:	687b      	ldr	r3, [r7, #4]
 80055cc:	681b      	ldr	r3, [r3, #0]
 80055ce:	f442 4200 	orr.w	r2, r2, #32768	; 0x8000
 80055d2:	601a      	str	r2, [r3, #0]

	__NOP();
 80055d4:	bf00      	nop

	ptrHandlerI2C->ptrI2Cx->CR1 &= ~ I2C_CR1_SWRST;
 80055d6:	687b      	ldr	r3, [r7, #4]
 80055d8:	681b      	ldr	r3, [r3, #0]
 80055da:	681a      	ldr	r2, [r3, #0]
 80055dc:	687b      	ldr	r3, [r7, #4]
 80055de:	681b      	ldr	r3, [r3, #0]
 80055e0:	f422 4200 	bic.w	r2, r2, #32768	; 0x8000
 80055e4:	601a      	str	r2, [r3, #0]

	/*3. Indicamos cual es la velocidad del reloj principal, que es la seal utilizada
	 * por el periferico para generar la seal de reloj para el bus I2C */


	ptrHandlerI2C->ptrI2Cx->CR2 &= ~(0b111111 << I2C_CR2_FREQ_Pos);	// Borramos la configuracion previa.
 80055e6:	687b      	ldr	r3, [r7, #4]
 80055e8:	681b      	ldr	r3, [r3, #0]
 80055ea:	685a      	ldr	r2, [r3, #4]
 80055ec:	687b      	ldr	r3, [r7, #4]
 80055ee:	681b      	ldr	r3, [r3, #0]
 80055f0:	f022 023f 	bic.w	r2, r2, #63	; 0x3f
 80055f4:	605a      	str	r2, [r3, #4]

	//Preguntamos que velocidad de reloj de tiene actualmente
	if (ptrHandlerI2C->I2C_Config.clkSpeed ==  MAIN_CLOCK_16_MHz_FOR_I2C ){
 80055f6:	687b      	ldr	r3, [r7, #4]
 80055f8:	79db      	ldrb	r3, [r3, #7]
 80055fa:	2b10      	cmp	r3, #16
 80055fc:	d108      	bne.n	8005610 <i2c_config+0xbc>

		ptrHandlerI2C->ptrI2Cx->CR2 |= (MAIN_CLOCK_16_MHz_FOR_I2C << I2C_CR2_FREQ_Pos);
 80055fe:	687b      	ldr	r3, [r7, #4]
 8005600:	681b      	ldr	r3, [r3, #0]
 8005602:	685a      	ldr	r2, [r3, #4]
 8005604:	687b      	ldr	r3, [r7, #4]
 8005606:	681b      	ldr	r3, [r3, #0]
 8005608:	f042 0210 	orr.w	r2, r2, #16
 800560c:	605a      	str	r2, [r3, #4]
 800560e:	e00b      	b.n	8005628 <i2c_config+0xd4>

	}else if (ptrHandlerI2C->I2C_Config.clkSpeed == MAIN_CLOCK_50_MHz_FOR_I2C){
 8005610:	687b      	ldr	r3, [r7, #4]
 8005612:	79db      	ldrb	r3, [r3, #7]
 8005614:	2b32      	cmp	r3, #50	; 0x32
 8005616:	d107      	bne.n	8005628 <i2c_config+0xd4>

		ptrHandlerI2C->ptrI2Cx->CR2 |= (MAIN_CLOCK_50_MHz_FOR_I2C << I2C_CR2_FREQ_Pos);
 8005618:	687b      	ldr	r3, [r7, #4]
 800561a:	681b      	ldr	r3, [r3, #0]
 800561c:	685a      	ldr	r2, [r3, #4]
 800561e:	687b      	ldr	r3, [r7, #4]
 8005620:	681b      	ldr	r3, [r3, #0]
 8005622:	f042 0232 	orr.w	r2, r2, #50	; 0x32
 8005626:	605a      	str	r2, [r3, #4]
	 * En esta configuracion se incluye tambien la velocidad del reloj
	 * y el tiempo mximo para el cambio de la seal (T-Rise).
	 * Todo comienza con los dos registros en 0
	 */
	//Nos aseguramos de que el periferico est desactivado
	ptrHandlerI2C->ptrI2Cx->CR1 &= ~(0b1);
 8005628:	687b      	ldr	r3, [r7, #4]
 800562a:	681b      	ldr	r3, [r3, #0]
 800562c:	681a      	ldr	r2, [r3, #0]
 800562e:	687b      	ldr	r3, [r7, #4]
 8005630:	681b      	ldr	r3, [r3, #0]
 8005632:	f022 0201 	bic.w	r2, r2, #1
 8005636:	601a      	str	r2, [r3, #0]

	ptrHandlerI2C->ptrI2Cx->CCR = 0;
 8005638:	687b      	ldr	r3, [r7, #4]
 800563a:	681b      	ldr	r3, [r3, #0]
 800563c:	2200      	movs	r2, #0
 800563e:	61da      	str	r2, [r3, #28]
	ptrHandlerI2C->ptrI2Cx->TRISE = 0;
 8005640:	687b      	ldr	r3, [r7, #4]
 8005642:	681b      	ldr	r3, [r3, #0]
 8005644:	2200      	movs	r2, #0
 8005646:	621a      	str	r2, [r3, #32]

	if(ptrHandlerI2C->I2C_Config.modeI2C == I2C_MODE_SM){
 8005648:	687b      	ldr	r3, [r7, #4]
 800564a:	795b      	ldrb	r3, [r3, #5]
 800564c:	2b00      	cmp	r3, #0
 800564e:	d15c      	bne.n	800570a <i2c_config+0x1b6>

		//Estamos en modo "standar" (SM Mode)
		// Seleccionamos el modo estandar
		ptrHandlerI2C->ptrI2Cx->CCR &= ~ (I2C_CCR_FS);
 8005650:	687b      	ldr	r3, [r7, #4]
 8005652:	681b      	ldr	r3, [r3, #0]
 8005654:	69da      	ldr	r2, [r3, #28]
 8005656:	687b      	ldr	r3, [r7, #4]
 8005658:	681b      	ldr	r3, [r3, #0]
 800565a:	f422 4200 	bic.w	r2, r2, #32768	; 0x8000
 800565e:	61da      	str	r2, [r3, #28]

		//configuramos el registro que se encarga de generar la seal del reloj
		switch(ptrHandlerI2C->I2C_Config.clkSpeed){
 8005660:	687b      	ldr	r3, [r7, #4]
 8005662:	79db      	ldrb	r3, [r3, #7]
 8005664:	2b32      	cmp	r3, #50	; 0x32
 8005666:	d03f      	beq.n	80056e8 <i2c_config+0x194>
 8005668:	2b32      	cmp	r3, #50	; 0x32
 800566a:	f300 80b1 	bgt.w	80057d0 <i2c_config+0x27c>
 800566e:	2b14      	cmp	r3, #20
 8005670:	d029      	beq.n	80056c6 <i2c_config+0x172>
 8005672:	2b14      	cmp	r3, #20
 8005674:	f300 80ac 	bgt.w	80057d0 <i2c_config+0x27c>
 8005678:	2b04      	cmp	r3, #4
 800567a:	d002      	beq.n	8005682 <i2c_config+0x12e>
 800567c:	2b10      	cmp	r3, #16
 800567e:	d011      	beq.n	80056a4 <i2c_config+0x150>


				break;
			}default:{

				break;
 8005680:	e0a6      	b.n	80057d0 <i2c_config+0x27c>
				ptrHandlerI2C->ptrI2Cx->CCR |=(I2C_MODE_SM_SPEED_100KHz_4MHz << I2C_CCR_CCR_Pos);
 8005682:	687b      	ldr	r3, [r7, #4]
 8005684:	681b      	ldr	r3, [r3, #0]
 8005686:	69da      	ldr	r2, [r3, #28]
 8005688:	687b      	ldr	r3, [r7, #4]
 800568a:	681b      	ldr	r3, [r3, #0]
 800568c:	f042 0214 	orr.w	r2, r2, #20
 8005690:	61da      	str	r2, [r3, #28]
				ptrHandlerI2C->ptrI2Cx->TRISE |= I2C_MAX_RISE_TIME_SM_4MHz;
 8005692:	687b      	ldr	r3, [r7, #4]
 8005694:	681b      	ldr	r3, [r3, #0]
 8005696:	6a1a      	ldr	r2, [r3, #32]
 8005698:	687b      	ldr	r3, [r7, #4]
 800569a:	681b      	ldr	r3, [r3, #0]
 800569c:	f042 0205 	orr.w	r2, r2, #5
 80056a0:	621a      	str	r2, [r3, #32]
				break;
 80056a2:	e098      	b.n	80057d6 <i2c_config+0x282>
				ptrHandlerI2C->ptrI2Cx->CCR |=(I2C_MODE_SM_SPEED_100KHz_16MHz << I2C_CCR_CCR_Pos);
 80056a4:	687b      	ldr	r3, [r7, #4]
 80056a6:	681b      	ldr	r3, [r3, #0]
 80056a8:	69da      	ldr	r2, [r3, #28]
 80056aa:	687b      	ldr	r3, [r7, #4]
 80056ac:	681b      	ldr	r3, [r3, #0]
 80056ae:	f042 0250 	orr.w	r2, r2, #80	; 0x50
 80056b2:	61da      	str	r2, [r3, #28]
				ptrHandlerI2C->ptrI2Cx->TRISE |= I2C_MAX_RISE_TIME_SM_16MHz;
 80056b4:	687b      	ldr	r3, [r7, #4]
 80056b6:	681b      	ldr	r3, [r3, #0]
 80056b8:	6a1a      	ldr	r2, [r3, #32]
 80056ba:	687b      	ldr	r3, [r7, #4]
 80056bc:	681b      	ldr	r3, [r3, #0]
 80056be:	f042 0211 	orr.w	r2, r2, #17
 80056c2:	621a      	str	r2, [r3, #32]
				break;
 80056c4:	e087      	b.n	80057d6 <i2c_config+0x282>
				ptrHandlerI2C->ptrI2Cx->CCR |=(I2C_MODE_SM_SPEED_100KHz_20MHz << I2C_CCR_CCR_Pos);
 80056c6:	687b      	ldr	r3, [r7, #4]
 80056c8:	681b      	ldr	r3, [r3, #0]
 80056ca:	69da      	ldr	r2, [r3, #28]
 80056cc:	687b      	ldr	r3, [r7, #4]
 80056ce:	681b      	ldr	r3, [r3, #0]
 80056d0:	f042 0264 	orr.w	r2, r2, #100	; 0x64
 80056d4:	61da      	str	r2, [r3, #28]
				ptrHandlerI2C->ptrI2Cx->TRISE |= I2C_MAX_RISE_TIME_SM_20MHz;
 80056d6:	687b      	ldr	r3, [r7, #4]
 80056d8:	681b      	ldr	r3, [r3, #0]
 80056da:	6a1a      	ldr	r2, [r3, #32]
 80056dc:	687b      	ldr	r3, [r7, #4]
 80056de:	681b      	ldr	r3, [r3, #0]
 80056e0:	f042 0215 	orr.w	r2, r2, #21
 80056e4:	621a      	str	r2, [r3, #32]
				break;
 80056e6:	e076      	b.n	80057d6 <i2c_config+0x282>
				ptrHandlerI2C->ptrI2Cx->CCR |=(I2C_MODE_SM_SPEED_100KHz_50MHz << I2C_CCR_CCR_Pos);
 80056e8:	687b      	ldr	r3, [r7, #4]
 80056ea:	681b      	ldr	r3, [r3, #0]
 80056ec:	69da      	ldr	r2, [r3, #28]
 80056ee:	687b      	ldr	r3, [r7, #4]
 80056f0:	681b      	ldr	r3, [r3, #0]
 80056f2:	f042 02fa 	orr.w	r2, r2, #250	; 0xfa
 80056f6:	61da      	str	r2, [r3, #28]
				ptrHandlerI2C->ptrI2Cx->TRISE |= I2C_MAX_RISE_TIME_SM_50MHz;
 80056f8:	687b      	ldr	r3, [r7, #4]
 80056fa:	681b      	ldr	r3, [r3, #0]
 80056fc:	6a1a      	ldr	r2, [r3, #32]
 80056fe:	687b      	ldr	r3, [r7, #4]
 8005700:	681b      	ldr	r3, [r3, #0]
 8005702:	f042 0233 	orr.w	r2, r2, #51	; 0x33
 8005706:	621a      	str	r2, [r3, #32]
				break;
 8005708:	e065      	b.n	80057d6 <i2c_config+0x282>
	else{


		//Estamos en modo "Fast" (FM Mode)
		//Seleccioanmo el modo Fast
		ptrHandlerI2C->ptrI2Cx->CCR |=  I2C_CCR_FS;
 800570a:	687b      	ldr	r3, [r7, #4]
 800570c:	681b      	ldr	r3, [r3, #0]
 800570e:	69da      	ldr	r2, [r3, #28]
 8005710:	687b      	ldr	r3, [r7, #4]
 8005712:	681b      	ldr	r3, [r3, #0]
 8005714:	f442 4200 	orr.w	r2, r2, #32768	; 0x8000
 8005718:	61da      	str	r2, [r3, #28]

		//configuramos el registro que se encarga de generar la seal del reloj
		switch(ptrHandlerI2C->I2C_Config.clkSpeed){
 800571a:	687b      	ldr	r3, [r7, #4]
 800571c:	79db      	ldrb	r3, [r3, #7]
 800571e:	2b32      	cmp	r3, #50	; 0x32
 8005720:	d045      	beq.n	80057ae <i2c_config+0x25a>
 8005722:	2b32      	cmp	r3, #50	; 0x32
 8005724:	dc56      	bgt.n	80057d4 <i2c_config+0x280>
 8005726:	2b14      	cmp	r3, #20
 8005728:	d030      	beq.n	800578c <i2c_config+0x238>
 800572a:	2b14      	cmp	r3, #20
 800572c:	dc52      	bgt.n	80057d4 <i2c_config+0x280>
 800572e:	2b04      	cmp	r3, #4
 8005730:	d002      	beq.n	8005738 <i2c_config+0x1e4>
 8005732:	2b10      	cmp	r3, #16
 8005734:	d011      	beq.n	800575a <i2c_config+0x206>


				break;
			}default:{

				break;
 8005736:	e04d      	b.n	80057d4 <i2c_config+0x280>
				ptrHandlerI2C->ptrI2Cx->CCR |=(I2C_MODE_FM_SPEED_400KHz_4MHz << I2C_CCR_CCR_Pos);
 8005738:	687b      	ldr	r3, [r7, #4]
 800573a:	681b      	ldr	r3, [r3, #0]
 800573c:	69da      	ldr	r2, [r3, #28]
 800573e:	687b      	ldr	r3, [r7, #4]
 8005740:	681b      	ldr	r3, [r3, #0]
 8005742:	f042 0203 	orr.w	r2, r2, #3
 8005746:	61da      	str	r2, [r3, #28]
				ptrHandlerI2C->ptrI2Cx->TRISE |= I2C_MAX_RISE_TIME_FM_4MHz;
 8005748:	687b      	ldr	r3, [r7, #4]
 800574a:	681b      	ldr	r3, [r3, #0]
 800574c:	6a1a      	ldr	r2, [r3, #32]
 800574e:	687b      	ldr	r3, [r7, #4]
 8005750:	681b      	ldr	r3, [r3, #0]
 8005752:	f042 0202 	orr.w	r2, r2, #2
 8005756:	621a      	str	r2, [r3, #32]
				break;
 8005758:	e03d      	b.n	80057d6 <i2c_config+0x282>
				ptrHandlerI2C->ptrI2Cx->CCR |=(I2C_MODE_FM_SPEED_400KHz_16MHz << I2C_CCR_CCR_Pos);
 800575a:	687b      	ldr	r3, [r7, #4]
 800575c:	681b      	ldr	r3, [r3, #0]
 800575e:	69da      	ldr	r2, [r3, #28]
 8005760:	687b      	ldr	r3, [r7, #4]
 8005762:	681b      	ldr	r3, [r3, #0]
 8005764:	f042 020d 	orr.w	r2, r2, #13
 8005768:	61da      	str	r2, [r3, #28]
				ptrHandlerI2C->ptrI2Cx->TRISE |= I2C_MAX_RISE_TIME_FM_16MHz;
 800576a:	687b      	ldr	r3, [r7, #4]
 800576c:	681b      	ldr	r3, [r3, #0]
 800576e:	6a1a      	ldr	r2, [r3, #32]
 8005770:	687b      	ldr	r3, [r7, #4]
 8005772:	681b      	ldr	r3, [r3, #0]
 8005774:	f042 0206 	orr.w	r2, r2, #6
 8005778:	621a      	str	r2, [r3, #32]
				break;
 800577a:	e02c      	b.n	80057d6 <i2c_config+0x282>
 800577c:	40005400 	.word	0x40005400
 8005780:	40023800 	.word	0x40023800
 8005784:	40005800 	.word	0x40005800
 8005788:	40005c00 	.word	0x40005c00
				ptrHandlerI2C->ptrI2Cx->CCR |=(I2C_MODE_FM_SPEED_400KHz_20MHz << I2C_CCR_CCR_Pos);
 800578c:	687b      	ldr	r3, [r7, #4]
 800578e:	681b      	ldr	r3, [r3, #0]
 8005790:	69da      	ldr	r2, [r3, #28]
 8005792:	687b      	ldr	r3, [r7, #4]
 8005794:	681b      	ldr	r3, [r3, #0]
 8005796:	f042 0211 	orr.w	r2, r2, #17
 800579a:	61da      	str	r2, [r3, #28]
				ptrHandlerI2C->ptrI2Cx->TRISE |= I2C_MAX_RISE_TIME_FM_20MHz;
 800579c:	687b      	ldr	r3, [r7, #4]
 800579e:	681b      	ldr	r3, [r3, #0]
 80057a0:	6a1a      	ldr	r2, [r3, #32]
 80057a2:	687b      	ldr	r3, [r7, #4]
 80057a4:	681b      	ldr	r3, [r3, #0]
 80057a6:	f042 0207 	orr.w	r2, r2, #7
 80057aa:	621a      	str	r2, [r3, #32]
				break;
 80057ac:	e013      	b.n	80057d6 <i2c_config+0x282>
				ptrHandlerI2C->ptrI2Cx->CCR |= (I2C_MODE_FM_SPEED_400KHz_50MHz << I2C_CCR_CCR_Pos);
 80057ae:	687b      	ldr	r3, [r7, #4]
 80057b0:	681b      	ldr	r3, [r3, #0]
 80057b2:	69da      	ldr	r2, [r3, #28]
 80057b4:	687b      	ldr	r3, [r7, #4]
 80057b6:	681b      	ldr	r3, [r3, #0]
 80057b8:	f042 022a 	orr.w	r2, r2, #42	; 0x2a
 80057bc:	61da      	str	r2, [r3, #28]
				ptrHandlerI2C->ptrI2Cx->TRISE |= I2C_MAX_RISE_TIME_FM_50MHz;
 80057be:	687b      	ldr	r3, [r7, #4]
 80057c0:	681b      	ldr	r3, [r3, #0]
 80057c2:	6a1a      	ldr	r2, [r3, #32]
 80057c4:	687b      	ldr	r3, [r7, #4]
 80057c6:	681b      	ldr	r3, [r3, #0]
 80057c8:	f042 0210 	orr.w	r2, r2, #16
 80057cc:	621a      	str	r2, [r3, #32]
				break;
 80057ce:	e002      	b.n	80057d6 <i2c_config+0x282>
				break;
 80057d0:	bf00      	nop
 80057d2:	e002      	b.n	80057da <i2c_config+0x286>
				break;
 80057d4:	bf00      	nop

		}

	}

	while(ptrHandlerI2C->ptrI2Cx->SR2 & I2C_SR2_BUSY){
 80057d6:	e000      	b.n	80057da <i2c_config+0x286>
		__NOP();
 80057d8:	bf00      	nop
	while(ptrHandlerI2C->ptrI2Cx->SR2 & I2C_SR2_BUSY){
 80057da:	687b      	ldr	r3, [r7, #4]
 80057dc:	681b      	ldr	r3, [r3, #0]
 80057de:	699b      	ldr	r3, [r3, #24]
 80057e0:	f003 0302 	and.w	r3, r3, #2
 80057e4:	2b00      	cmp	r3, #0
 80057e6:	d1f7      	bne.n	80057d8 <i2c_config+0x284>
	}

	/* 5. Activamos el modulo I2C */
	ptrHandlerI2C->ptrI2Cx->CR1 |= I2C_CR1_PE;
 80057e8:	687b      	ldr	r3, [r7, #4]
 80057ea:	681b      	ldr	r3, [r3, #0]
 80057ec:	681a      	ldr	r2, [r3, #0]
 80057ee:	687b      	ldr	r3, [r7, #4]
 80057f0:	681b      	ldr	r3, [r3, #0]
 80057f2:	f042 0201 	orr.w	r2, r2, #1
 80057f6:	601a      	str	r2, [r3, #0]

}
 80057f8:	bf00      	nop
 80057fa:	370c      	adds	r7, #12
 80057fc:	46bd      	mov	sp, r7
 80057fe:	f85d 7b04 	ldr.w	r7, [sp], #4
 8005802:	4770      	bx	lr

08005804 <i2c_stopTransaction>:


/* 8. Generamos la condicion de stop */
void i2c_stopTransaction(I2C_Handler_t *ptrHandlerI2C){
 8005804:	b480      	push	{r7}
 8005806:	b083      	sub	sp, #12
 8005808:	af00      	add	r7, sp, #0
 800580a:	6078      	str	r0, [r7, #4]
	ptrHandlerI2C->ptrI2Cx->CR1 |= I2C_CR1_STOP;
 800580c:	687b      	ldr	r3, [r7, #4]
 800580e:	681b      	ldr	r3, [r3, #0]
 8005810:	681a      	ldr	r2, [r3, #0]
 8005812:	687b      	ldr	r3, [r7, #4]
 8005814:	681b      	ldr	r3, [r3, #0]
 8005816:	f442 7200 	orr.w	r2, r2, #512	; 0x200
 800581a:	601a      	str	r2, [r3, #0]
}
 800581c:	bf00      	nop
 800581e:	370c      	adds	r7, #12
 8005820:	46bd      	mov	sp, r7
 8005822:	f85d 7b04 	ldr.w	r7, [sp], #4
 8005826:	4770      	bx	lr

08005828 <i2c_startTransaction>:


void i2c_startTransaction(I2C_Handler_t *ptrHandlerI2C){
 8005828:	b480      	push	{r7}
 800582a:	b083      	sub	sp, #12
 800582c:	af00      	add	r7, sp, #0
 800582e:	6078      	str	r0, [r7, #4]
	/* 1. Verificamos que la linea no esta ocupada - bit "busy" en I2C_SR2 */
	while(ptrHandlerI2C->ptrI2Cx->SR2 & I2C_SR2_BUSY){
 8005830:	e000      	b.n	8005834 <i2c_startTransaction+0xc>
		__NOP();
 8005832:	bf00      	nop
	while(ptrHandlerI2C->ptrI2Cx->SR2 & I2C_SR2_BUSY){
 8005834:	687b      	ldr	r3, [r7, #4]
 8005836:	681b      	ldr	r3, [r3, #0]
 8005838:	699b      	ldr	r3, [r3, #24]
 800583a:	f003 0302 	and.w	r3, r3, #2
 800583e:	2b00      	cmp	r3, #0
 8005840:	d1f7      	bne.n	8005832 <i2c_startTransaction+0xa>
	}

	/* 2. Genereamos la seal "start" */
	ptrHandlerI2C->ptrI2Cx->CR1 |= I2C_CR1_START;
 8005842:	687b      	ldr	r3, [r7, #4]
 8005844:	681b      	ldr	r3, [r3, #0]
 8005846:	681a      	ldr	r2, [r3, #0]
 8005848:	687b      	ldr	r3, [r7, #4]
 800584a:	681b      	ldr	r3, [r3, #0]
 800584c:	f442 7280 	orr.w	r2, r2, #256	; 0x100
 8005850:	601a      	str	r2, [r3, #0]

	/* 2a. Esperamos a que la bandera del evento "start" se levante
	 * Mientras esperamos, el valor de SB es 0, entonces la negacion (!) es 1*/
	while(!(ptrHandlerI2C->ptrI2Cx->SR1 & I2C_SR1_SB)){
 8005852:	e000      	b.n	8005856 <i2c_startTransaction+0x2e>
		__NOP();
 8005854:	bf00      	nop
	while(!(ptrHandlerI2C->ptrI2Cx->SR1 & I2C_SR1_SB)){
 8005856:	687b      	ldr	r3, [r7, #4]
 8005858:	681b      	ldr	r3, [r3, #0]
 800585a:	695b      	ldr	r3, [r3, #20]
 800585c:	f003 0301 	and.w	r3, r3, #1
 8005860:	2b00      	cmp	r3, #0
 8005862:	d0f7      	beq.n	8005854 <i2c_startTransaction+0x2c>
	}
}
 8005864:	bf00      	nop
 8005866:	bf00      	nop
 8005868:	370c      	adds	r7, #12
 800586a:	46bd      	mov	sp, r7
 800586c:	f85d 7b04 	ldr.w	r7, [sp], #4
 8005870:	4770      	bx	lr

08005872 <i2c_reStartTransaction>:

/**/
void i2c_reStartTransaction(I2C_Handler_t *ptrHandlerI2C){
 8005872:	b480      	push	{r7}
 8005874:	b083      	sub	sp, #12
 8005876:	af00      	add	r7, sp, #0
 8005878:	6078      	str	r0, [r7, #4]
	/*2. Generamos la seal "start" */
	ptrHandlerI2C->ptrI2Cx->CR1 |= I2C_CR1_START;
 800587a:	687b      	ldr	r3, [r7, #4]
 800587c:	681b      	ldr	r3, [r3, #0]
 800587e:	681a      	ldr	r2, [r3, #0]
 8005880:	687b      	ldr	r3, [r7, #4]
 8005882:	681b      	ldr	r3, [r3, #0]
 8005884:	f442 7280 	orr.w	r2, r2, #256	; 0x100
 8005888:	601a      	str	r2, [r3, #0]

	/* 2a. Esperamos a que la bandera del evento "start" se levante*/
	/* Mientras esperamos, el valor de SB es 0, entonces la negacion es 1 */
	while(!(ptrHandlerI2C->ptrI2Cx->SR1 & I2C_SR1_SB)){
 800588a:	e000      	b.n	800588e <i2c_reStartTransaction+0x1c>
		__NOP();
 800588c:	bf00      	nop
	while(!(ptrHandlerI2C->ptrI2Cx->SR1 & I2C_SR1_SB)){
 800588e:	687b      	ldr	r3, [r7, #4]
 8005890:	681b      	ldr	r3, [r3, #0]
 8005892:	695b      	ldr	r3, [r3, #20]
 8005894:	f003 0301 	and.w	r3, r3, #1
 8005898:	2b00      	cmp	r3, #0
 800589a:	d0f7      	beq.n	800588c <i2c_reStartTransaction+0x1a>
	}
}
 800589c:	bf00      	nop
 800589e:	bf00      	nop
 80058a0:	370c      	adds	r7, #12
 80058a2:	46bd      	mov	sp, r7
 80058a4:	f85d 7b04 	ldr.w	r7, [sp], #4
 80058a8:	4770      	bx	lr

080058aa <i2c_sendNoAck>:

/* 7a. Activamos la indicacion para no-ACK (indicacion para el Slave de terminar) */
void i2c_sendNoAck(I2C_Handler_t *ptrHandlerI2C){
 80058aa:	b480      	push	{r7}
 80058ac:	b083      	sub	sp, #12
 80058ae:	af00      	add	r7, sp, #0
 80058b0:	6078      	str	r0, [r7, #4]
	/*(Debemos escribir cero en la posicion ACK del registro de control 1) */
	ptrHandlerI2C->ptrI2Cx->CR1 &= ~(I2C_CR1_ACK);
 80058b2:	687b      	ldr	r3, [r7, #4]
 80058b4:	681b      	ldr	r3, [r3, #0]
 80058b6:	681a      	ldr	r2, [r3, #0]
 80058b8:	687b      	ldr	r3, [r7, #4]
 80058ba:	681b      	ldr	r3, [r3, #0]
 80058bc:	f422 6280 	bic.w	r2, r2, #1024	; 0x400
 80058c0:	601a      	str	r2, [r3, #0]
}
 80058c2:	bf00      	nop
 80058c4:	370c      	adds	r7, #12
 80058c6:	46bd      	mov	sp, r7
 80058c8:	f85d 7b04 	ldr.w	r7, [sp], #4
 80058cc:	4770      	bx	lr

080058ce <i2c_sendSlaveAddressRW>:
	/* (Debemos escribir uno en la posicion ACK del registro de control 1)*/
	ptrHandlerI2C->ptrI2Cx->CR1 |= I2C_CR1_ACK;
}

/**/
void i2c_sendSlaveAddressRW(I2C_Handler_t *ptrHandlerI2C, uint8_t slaveAddress, uint8_t readOrWrite){
 80058ce:	b480      	push	{r7}
 80058d0:	b085      	sub	sp, #20
 80058d2:	af00      	add	r7, sp, #0
 80058d4:	6078      	str	r0, [r7, #4]
 80058d6:	460b      	mov	r3, r1
 80058d8:	70fb      	strb	r3, [r7, #3]
 80058da:	4613      	mov	r3, r2
 80058dc:	70bb      	strb	r3, [r7, #2]
	/* 0. Definimos una variable auxiliar */
	uint8_t auxByte = 0;
 80058de:	2300      	movs	r3, #0
 80058e0:	73fb      	strb	r3, [r7, #15]
	(void) auxByte;

	/* 3. Enviamos la direccion del Slave y el bit que indica que deseamos escribir (0) */
	/* (en el siguiente paso se envia la direccion de memoria que se desea escribir  */
	ptrHandlerI2C->ptrI2Cx->DR = (slaveAddress << 1) | readOrWrite;
 80058e2:	78fb      	ldrb	r3, [r7, #3]
 80058e4:	005a      	lsls	r2, r3, #1
 80058e6:	78bb      	ldrb	r3, [r7, #2]
 80058e8:	431a      	orrs	r2, r3
 80058ea:	687b      	ldr	r3, [r7, #4]
 80058ec:	681b      	ldr	r3, [r3, #0]
 80058ee:	611a      	str	r2, [r3, #16]

	/* 3.1 Esperamos hasta que la bendera del evento "addr" se levante
	 * (esto nos indica que la direccion fue enviada satisfactoriamente
	 */
	while( !(ptrHandlerI2C->ptrI2Cx->SR1 & I2C_SR1_ADDR)){
 80058f0:	e000      	b.n	80058f4 <i2c_sendSlaveAddressRW+0x26>
		__NOP();
 80058f2:	bf00      	nop
	while( !(ptrHandlerI2C->ptrI2Cx->SR1 & I2C_SR1_ADDR)){
 80058f4:	687b      	ldr	r3, [r7, #4]
 80058f6:	681b      	ldr	r3, [r3, #0]
 80058f8:	695b      	ldr	r3, [r3, #20]
 80058fa:	f003 0302 	and.w	r3, r3, #2
 80058fe:	2b00      	cmp	r3, #0
 8005900:	d0f7      	beq.n	80058f2 <i2c_sendSlaveAddressRW+0x24>
	}

	/* 3.2 Debemos limpiar la bandera de la recepcion de ACK de la "addr", para lo cual
	 * debemos leer en secuencia el I2C_SR1 y luego I2C_SR2
	 */
	auxByte = ptrHandlerI2C->ptrI2Cx->SR1;
 8005902:	687b      	ldr	r3, [r7, #4]
 8005904:	681b      	ldr	r3, [r3, #0]
 8005906:	695b      	ldr	r3, [r3, #20]
 8005908:	73fb      	strb	r3, [r7, #15]
	auxByte = ptrHandlerI2C->ptrI2Cx->SR2;
 800590a:	687b      	ldr	r3, [r7, #4]
 800590c:	681b      	ldr	r3, [r3, #0]
 800590e:	699b      	ldr	r3, [r3, #24]
 8005910:	73fb      	strb	r3, [r7, #15]

}
 8005912:	bf00      	nop
 8005914:	3714      	adds	r7, #20
 8005916:	46bd      	mov	sp, r7
 8005918:	f85d 7b04 	ldr.w	r7, [sp], #4
 800591c:	4770      	bx	lr

0800591e <i2c_sendMemoryAddress>:

/**/
void i2c_sendMemoryAddress(I2C_Handler_t *ptrHandlerI2C, uint8_t memAddr){
 800591e:	b480      	push	{r7}
 8005920:	b083      	sub	sp, #12
 8005922:	af00      	add	r7, sp, #0
 8005924:	6078      	str	r0, [r7, #4]
 8005926:	460b      	mov	r3, r1
 8005928:	70fb      	strb	r3, [r7, #3]
	/* 4. Enviamos la direccion de memoria qe deseamos leer */
	ptrHandlerI2C->ptrI2Cx->DR = memAddr;
 800592a:	687b      	ldr	r3, [r7, #4]
 800592c:	681b      	ldr	r3, [r3, #0]
 800592e:	78fa      	ldrb	r2, [r7, #3]
 8005930:	611a      	str	r2, [r3, #16]

	/* 4.1 Esoeramos hasta que el byte sea transmitido */
	while( !(ptrHandlerI2C->ptrI2Cx->SR1 & I2C_SR1_TXE)){
 8005932:	e000      	b.n	8005936 <i2c_sendMemoryAddress+0x18>
		__NOP();
 8005934:	bf00      	nop
	while( !(ptrHandlerI2C->ptrI2Cx->SR1 & I2C_SR1_TXE)){
 8005936:	687b      	ldr	r3, [r7, #4]
 8005938:	681b      	ldr	r3, [r3, #0]
 800593a:	695b      	ldr	r3, [r3, #20]
 800593c:	f003 0380 	and.w	r3, r3, #128	; 0x80
 8005940:	2b00      	cmp	r3, #0
 8005942:	d0f7      	beq.n	8005934 <i2c_sendMemoryAddress+0x16>
	}
}
 8005944:	bf00      	nop
 8005946:	bf00      	nop
 8005948:	370c      	adds	r7, #12
 800594a:	46bd      	mov	sp, r7
 800594c:	f85d 7b04 	ldr.w	r7, [sp], #4
 8005950:	4770      	bx	lr

08005952 <i2c_sendDataByte>:

/**/
void i2c_sendDataByte(I2C_Handler_t *ptrHandlerI2C, uint8_t dataToWrite){
 8005952:	b480      	push	{r7}
 8005954:	b083      	sub	sp, #12
 8005956:	af00      	add	r7, sp, #0
 8005958:	6078      	str	r0, [r7, #4]
 800595a:	460b      	mov	r3, r1
 800595c:	70fb      	strb	r3, [r7, #3]
	/* 5. Cargamos el valor que deseamos escribir */
	ptrHandlerI2C->ptrI2Cx->DR = dataToWrite;
 800595e:	687b      	ldr	r3, [r7, #4]
 8005960:	681b      	ldr	r3, [r3, #0]
 8005962:	78fa      	ldrb	r2, [r7, #3]
 8005964:	611a      	str	r2, [r3, #16]

	/* 6. Esperamos hasta que el byte sea transmitido */
	while( !(ptrHandlerI2C->ptrI2Cx->SR1 & I2C_SR1_BTF)){
 8005966:	e000      	b.n	800596a <i2c_sendDataByte+0x18>
		__NOP();
 8005968:	bf00      	nop
	while( !(ptrHandlerI2C->ptrI2Cx->SR1 & I2C_SR1_BTF)){
 800596a:	687b      	ldr	r3, [r7, #4]
 800596c:	681b      	ldr	r3, [r3, #0]
 800596e:	695b      	ldr	r3, [r3, #20]
 8005970:	f003 0304 	and.w	r3, r3, #4
 8005974:	2b00      	cmp	r3, #0
 8005976:	d0f7      	beq.n	8005968 <i2c_sendDataByte+0x16>
	}
}
 8005978:	bf00      	nop
 800597a:	bf00      	nop
 800597c:	370c      	adds	r7, #12
 800597e:	46bd      	mov	sp, r7
 8005980:	f85d 7b04 	ldr.w	r7, [sp], #4
 8005984:	4770      	bx	lr

08005986 <i2c_readDataByte>:

uint8_t i2c_readDataByte(I2C_Handler_t *ptrHandlerI2C){
 8005986:	b480      	push	{r7}
 8005988:	b083      	sub	sp, #12
 800598a:	af00      	add	r7, sp, #0
 800598c:	6078      	str	r0, [r7, #4]
	/*9. Esperamos hasta que el byte entrante sea recibido */
	while( !(ptrHandlerI2C->ptrI2Cx->SR1 & I2C_SR1_RXNE)){
 800598e:	e000      	b.n	8005992 <i2c_readDataByte+0xc>
		__NOP();
 8005990:	bf00      	nop
	while( !(ptrHandlerI2C->ptrI2Cx->SR1 & I2C_SR1_RXNE)){
 8005992:	687b      	ldr	r3, [r7, #4]
 8005994:	681b      	ldr	r3, [r3, #0]
 8005996:	695b      	ldr	r3, [r3, #20]
 8005998:	f003 0340 	and.w	r3, r3, #64	; 0x40
 800599c:	2b00      	cmp	r3, #0
 800599e:	d0f7      	beq.n	8005990 <i2c_readDataByte+0xa>
	}

	ptrHandlerI2C->I2C_Config.dataI2C = ptrHandlerI2C->ptrI2Cx->DR;
 80059a0:	687b      	ldr	r3, [r7, #4]
 80059a2:	681b      	ldr	r3, [r3, #0]
 80059a4:	691b      	ldr	r3, [r3, #16]
 80059a6:	b2da      	uxtb	r2, r3
 80059a8:	687b      	ldr	r3, [r7, #4]
 80059aa:	719a      	strb	r2, [r3, #6]
	return ptrHandlerI2C->I2C_Config.dataI2C;
 80059ac:	687b      	ldr	r3, [r7, #4]
 80059ae:	799b      	ldrb	r3, [r3, #6]
}
 80059b0:	4618      	mov	r0, r3
 80059b2:	370c      	adds	r7, #12
 80059b4:	46bd      	mov	sp, r7
 80059b6:	f85d 7b04 	ldr.w	r7, [sp], #4
 80059ba:	4770      	bx	lr

080059bc <__errno>:
 80059bc:	4b01      	ldr	r3, [pc, #4]	; (80059c4 <__errno+0x8>)
 80059be:	6818      	ldr	r0, [r3, #0]
 80059c0:	4770      	bx	lr
 80059c2:	bf00      	nop
 80059c4:	20000010 	.word	0x20000010

080059c8 <__libc_init_array>:
 80059c8:	b570      	push	{r4, r5, r6, lr}
 80059ca:	4d0d      	ldr	r5, [pc, #52]	; (8005a00 <__libc_init_array+0x38>)
 80059cc:	4c0d      	ldr	r4, [pc, #52]	; (8005a04 <__libc_init_array+0x3c>)
 80059ce:	1b64      	subs	r4, r4, r5
 80059d0:	10a4      	asrs	r4, r4, #2
 80059d2:	2600      	movs	r6, #0
 80059d4:	42a6      	cmp	r6, r4
 80059d6:	d109      	bne.n	80059ec <__libc_init_array+0x24>
 80059d8:	4d0b      	ldr	r5, [pc, #44]	; (8005a08 <__libc_init_array+0x40>)
 80059da:	4c0c      	ldr	r4, [pc, #48]	; (8005a0c <__libc_init_array+0x44>)
 80059dc:	f004 ff28 	bl	800a830 <_init>
 80059e0:	1b64      	subs	r4, r4, r5
 80059e2:	10a4      	asrs	r4, r4, #2
 80059e4:	2600      	movs	r6, #0
 80059e6:	42a6      	cmp	r6, r4
 80059e8:	d105      	bne.n	80059f6 <__libc_init_array+0x2e>
 80059ea:	bd70      	pop	{r4, r5, r6, pc}
 80059ec:	f855 3b04 	ldr.w	r3, [r5], #4
 80059f0:	4798      	blx	r3
 80059f2:	3601      	adds	r6, #1
 80059f4:	e7ee      	b.n	80059d4 <__libc_init_array+0xc>
 80059f6:	f855 3b04 	ldr.w	r3, [r5], #4
 80059fa:	4798      	blx	r3
 80059fc:	3601      	adds	r6, #1
 80059fe:	e7f2      	b.n	80059e6 <__libc_init_array+0x1e>
 8005a00:	0800af68 	.word	0x0800af68
 8005a04:	0800af68 	.word	0x0800af68
 8005a08:	0800af68 	.word	0x0800af68
 8005a0c:	0800af6c 	.word	0x0800af6c

08005a10 <malloc>:
 8005a10:	4b02      	ldr	r3, [pc, #8]	; (8005a1c <malloc+0xc>)
 8005a12:	4601      	mov	r1, r0
 8005a14:	6818      	ldr	r0, [r3, #0]
 8005a16:	f000 b877 	b.w	8005b08 <_malloc_r>
 8005a1a:	bf00      	nop
 8005a1c:	20000010 	.word	0x20000010

08005a20 <memset>:
 8005a20:	4402      	add	r2, r0
 8005a22:	4603      	mov	r3, r0
 8005a24:	4293      	cmp	r3, r2
 8005a26:	d100      	bne.n	8005a2a <memset+0xa>
 8005a28:	4770      	bx	lr
 8005a2a:	f803 1b01 	strb.w	r1, [r3], #1
 8005a2e:	e7f9      	b.n	8005a24 <memset+0x4>

08005a30 <_free_r>:
 8005a30:	b537      	push	{r0, r1, r2, r4, r5, lr}
 8005a32:	2900      	cmp	r1, #0
 8005a34:	d044      	beq.n	8005ac0 <_free_r+0x90>
 8005a36:	f851 3c04 	ldr.w	r3, [r1, #-4]
 8005a3a:	9001      	str	r0, [sp, #4]
 8005a3c:	2b00      	cmp	r3, #0
 8005a3e:	f1a1 0404 	sub.w	r4, r1, #4
 8005a42:	bfb8      	it	lt
 8005a44:	18e4      	addlt	r4, r4, r3
 8005a46:	f001 fc51 	bl	80072ec <__malloc_lock>
 8005a4a:	4a1e      	ldr	r2, [pc, #120]	; (8005ac4 <_free_r+0x94>)
 8005a4c:	9801      	ldr	r0, [sp, #4]
 8005a4e:	6813      	ldr	r3, [r2, #0]
 8005a50:	b933      	cbnz	r3, 8005a60 <_free_r+0x30>
 8005a52:	6063      	str	r3, [r4, #4]
 8005a54:	6014      	str	r4, [r2, #0]
 8005a56:	b003      	add	sp, #12
 8005a58:	e8bd 4030 	ldmia.w	sp!, {r4, r5, lr}
 8005a5c:	f001 bc4c 	b.w	80072f8 <__malloc_unlock>
 8005a60:	42a3      	cmp	r3, r4
 8005a62:	d908      	bls.n	8005a76 <_free_r+0x46>
 8005a64:	6825      	ldr	r5, [r4, #0]
 8005a66:	1961      	adds	r1, r4, r5
 8005a68:	428b      	cmp	r3, r1
 8005a6a:	bf01      	itttt	eq
 8005a6c:	6819      	ldreq	r1, [r3, #0]
 8005a6e:	685b      	ldreq	r3, [r3, #4]
 8005a70:	1949      	addeq	r1, r1, r5
 8005a72:	6021      	streq	r1, [r4, #0]
 8005a74:	e7ed      	b.n	8005a52 <_free_r+0x22>
 8005a76:	461a      	mov	r2, r3
 8005a78:	685b      	ldr	r3, [r3, #4]
 8005a7a:	b10b      	cbz	r3, 8005a80 <_free_r+0x50>
 8005a7c:	42a3      	cmp	r3, r4
 8005a7e:	d9fa      	bls.n	8005a76 <_free_r+0x46>
 8005a80:	6811      	ldr	r1, [r2, #0]
 8005a82:	1855      	adds	r5, r2, r1
 8005a84:	42a5      	cmp	r5, r4
 8005a86:	d10b      	bne.n	8005aa0 <_free_r+0x70>
 8005a88:	6824      	ldr	r4, [r4, #0]
 8005a8a:	4421      	add	r1, r4
 8005a8c:	1854      	adds	r4, r2, r1
 8005a8e:	42a3      	cmp	r3, r4
 8005a90:	6011      	str	r1, [r2, #0]
 8005a92:	d1e0      	bne.n	8005a56 <_free_r+0x26>
 8005a94:	681c      	ldr	r4, [r3, #0]
 8005a96:	685b      	ldr	r3, [r3, #4]
 8005a98:	6053      	str	r3, [r2, #4]
 8005a9a:	4421      	add	r1, r4
 8005a9c:	6011      	str	r1, [r2, #0]
 8005a9e:	e7da      	b.n	8005a56 <_free_r+0x26>
 8005aa0:	d902      	bls.n	8005aa8 <_free_r+0x78>
 8005aa2:	230c      	movs	r3, #12
 8005aa4:	6003      	str	r3, [r0, #0]
 8005aa6:	e7d6      	b.n	8005a56 <_free_r+0x26>
 8005aa8:	6825      	ldr	r5, [r4, #0]
 8005aaa:	1961      	adds	r1, r4, r5
 8005aac:	428b      	cmp	r3, r1
 8005aae:	bf04      	itt	eq
 8005ab0:	6819      	ldreq	r1, [r3, #0]
 8005ab2:	685b      	ldreq	r3, [r3, #4]
 8005ab4:	6063      	str	r3, [r4, #4]
 8005ab6:	bf04      	itt	eq
 8005ab8:	1949      	addeq	r1, r1, r5
 8005aba:	6021      	streq	r1, [r4, #0]
 8005abc:	6054      	str	r4, [r2, #4]
 8005abe:	e7ca      	b.n	8005a56 <_free_r+0x26>
 8005ac0:	b003      	add	sp, #12
 8005ac2:	bd30      	pop	{r4, r5, pc}
 8005ac4:	200004a4 	.word	0x200004a4

08005ac8 <sbrk_aligned>:
 8005ac8:	b570      	push	{r4, r5, r6, lr}
 8005aca:	4e0e      	ldr	r6, [pc, #56]	; (8005b04 <sbrk_aligned+0x3c>)
 8005acc:	460c      	mov	r4, r1
 8005ace:	6831      	ldr	r1, [r6, #0]
 8005ad0:	4605      	mov	r5, r0
 8005ad2:	b911      	cbnz	r1, 8005ada <sbrk_aligned+0x12>
 8005ad4:	f000 fcf6 	bl	80064c4 <_sbrk_r>
 8005ad8:	6030      	str	r0, [r6, #0]
 8005ada:	4621      	mov	r1, r4
 8005adc:	4628      	mov	r0, r5
 8005ade:	f000 fcf1 	bl	80064c4 <_sbrk_r>
 8005ae2:	1c43      	adds	r3, r0, #1
 8005ae4:	d00a      	beq.n	8005afc <sbrk_aligned+0x34>
 8005ae6:	1cc4      	adds	r4, r0, #3
 8005ae8:	f024 0403 	bic.w	r4, r4, #3
 8005aec:	42a0      	cmp	r0, r4
 8005aee:	d007      	beq.n	8005b00 <sbrk_aligned+0x38>
 8005af0:	1a21      	subs	r1, r4, r0
 8005af2:	4628      	mov	r0, r5
 8005af4:	f000 fce6 	bl	80064c4 <_sbrk_r>
 8005af8:	3001      	adds	r0, #1
 8005afa:	d101      	bne.n	8005b00 <sbrk_aligned+0x38>
 8005afc:	f04f 34ff 	mov.w	r4, #4294967295
 8005b00:	4620      	mov	r0, r4
 8005b02:	bd70      	pop	{r4, r5, r6, pc}
 8005b04:	200004a8 	.word	0x200004a8

08005b08 <_malloc_r>:
 8005b08:	e92d 41f0 	stmdb	sp!, {r4, r5, r6, r7, r8, lr}
 8005b0c:	1ccd      	adds	r5, r1, #3
 8005b0e:	f025 0503 	bic.w	r5, r5, #3
 8005b12:	3508      	adds	r5, #8
 8005b14:	2d0c      	cmp	r5, #12
 8005b16:	bf38      	it	cc
 8005b18:	250c      	movcc	r5, #12
 8005b1a:	2d00      	cmp	r5, #0
 8005b1c:	4607      	mov	r7, r0
 8005b1e:	db01      	blt.n	8005b24 <_malloc_r+0x1c>
 8005b20:	42a9      	cmp	r1, r5
 8005b22:	d905      	bls.n	8005b30 <_malloc_r+0x28>
 8005b24:	230c      	movs	r3, #12
 8005b26:	603b      	str	r3, [r7, #0]
 8005b28:	2600      	movs	r6, #0
 8005b2a:	4630      	mov	r0, r6
 8005b2c:	e8bd 81f0 	ldmia.w	sp!, {r4, r5, r6, r7, r8, pc}
 8005b30:	4e2e      	ldr	r6, [pc, #184]	; (8005bec <_malloc_r+0xe4>)
 8005b32:	f001 fbdb 	bl	80072ec <__malloc_lock>
 8005b36:	6833      	ldr	r3, [r6, #0]
 8005b38:	461c      	mov	r4, r3
 8005b3a:	bb34      	cbnz	r4, 8005b8a <_malloc_r+0x82>
 8005b3c:	4629      	mov	r1, r5
 8005b3e:	4638      	mov	r0, r7
 8005b40:	f7ff ffc2 	bl	8005ac8 <sbrk_aligned>
 8005b44:	1c43      	adds	r3, r0, #1
 8005b46:	4604      	mov	r4, r0
 8005b48:	d14d      	bne.n	8005be6 <_malloc_r+0xde>
 8005b4a:	6834      	ldr	r4, [r6, #0]
 8005b4c:	4626      	mov	r6, r4
 8005b4e:	2e00      	cmp	r6, #0
 8005b50:	d140      	bne.n	8005bd4 <_malloc_r+0xcc>
 8005b52:	6823      	ldr	r3, [r4, #0]
 8005b54:	4631      	mov	r1, r6
 8005b56:	4638      	mov	r0, r7
 8005b58:	eb04 0803 	add.w	r8, r4, r3
 8005b5c:	f000 fcb2 	bl	80064c4 <_sbrk_r>
 8005b60:	4580      	cmp	r8, r0
 8005b62:	d13a      	bne.n	8005bda <_malloc_r+0xd2>
 8005b64:	6821      	ldr	r1, [r4, #0]
 8005b66:	3503      	adds	r5, #3
 8005b68:	1a6d      	subs	r5, r5, r1
 8005b6a:	f025 0503 	bic.w	r5, r5, #3
 8005b6e:	3508      	adds	r5, #8
 8005b70:	2d0c      	cmp	r5, #12
 8005b72:	bf38      	it	cc
 8005b74:	250c      	movcc	r5, #12
 8005b76:	4629      	mov	r1, r5
 8005b78:	4638      	mov	r0, r7
 8005b7a:	f7ff ffa5 	bl	8005ac8 <sbrk_aligned>
 8005b7e:	3001      	adds	r0, #1
 8005b80:	d02b      	beq.n	8005bda <_malloc_r+0xd2>
 8005b82:	6823      	ldr	r3, [r4, #0]
 8005b84:	442b      	add	r3, r5
 8005b86:	6023      	str	r3, [r4, #0]
 8005b88:	e00e      	b.n	8005ba8 <_malloc_r+0xa0>
 8005b8a:	6822      	ldr	r2, [r4, #0]
 8005b8c:	1b52      	subs	r2, r2, r5
 8005b8e:	d41e      	bmi.n	8005bce <_malloc_r+0xc6>
 8005b90:	2a0b      	cmp	r2, #11
 8005b92:	d916      	bls.n	8005bc2 <_malloc_r+0xba>
 8005b94:	1961      	adds	r1, r4, r5
 8005b96:	42a3      	cmp	r3, r4
 8005b98:	6025      	str	r5, [r4, #0]
 8005b9a:	bf18      	it	ne
 8005b9c:	6059      	strne	r1, [r3, #4]
 8005b9e:	6863      	ldr	r3, [r4, #4]
 8005ba0:	bf08      	it	eq
 8005ba2:	6031      	streq	r1, [r6, #0]
 8005ba4:	5162      	str	r2, [r4, r5]
 8005ba6:	604b      	str	r3, [r1, #4]
 8005ba8:	4638      	mov	r0, r7
 8005baa:	f104 060b 	add.w	r6, r4, #11
 8005bae:	f001 fba3 	bl	80072f8 <__malloc_unlock>
 8005bb2:	f026 0607 	bic.w	r6, r6, #7
 8005bb6:	1d23      	adds	r3, r4, #4
 8005bb8:	1af2      	subs	r2, r6, r3
 8005bba:	d0b6      	beq.n	8005b2a <_malloc_r+0x22>
 8005bbc:	1b9b      	subs	r3, r3, r6
 8005bbe:	50a3      	str	r3, [r4, r2]
 8005bc0:	e7b3      	b.n	8005b2a <_malloc_r+0x22>
 8005bc2:	6862      	ldr	r2, [r4, #4]
 8005bc4:	42a3      	cmp	r3, r4
 8005bc6:	bf0c      	ite	eq
 8005bc8:	6032      	streq	r2, [r6, #0]
 8005bca:	605a      	strne	r2, [r3, #4]
 8005bcc:	e7ec      	b.n	8005ba8 <_malloc_r+0xa0>
 8005bce:	4623      	mov	r3, r4
 8005bd0:	6864      	ldr	r4, [r4, #4]
 8005bd2:	e7b2      	b.n	8005b3a <_malloc_r+0x32>
 8005bd4:	4634      	mov	r4, r6
 8005bd6:	6876      	ldr	r6, [r6, #4]
 8005bd8:	e7b9      	b.n	8005b4e <_malloc_r+0x46>
 8005bda:	230c      	movs	r3, #12
 8005bdc:	603b      	str	r3, [r7, #0]
 8005bde:	4638      	mov	r0, r7
 8005be0:	f001 fb8a 	bl	80072f8 <__malloc_unlock>
 8005be4:	e7a1      	b.n	8005b2a <_malloc_r+0x22>
 8005be6:	6025      	str	r5, [r4, #0]
 8005be8:	e7de      	b.n	8005ba8 <_malloc_r+0xa0>
 8005bea:	bf00      	nop
 8005bec:	200004a4 	.word	0x200004a4

08005bf0 <__cvt>:
 8005bf0:	e92d 47ff 	stmdb	sp!, {r0, r1, r2, r3, r4, r5, r6, r7, r8, r9, sl, lr}
 8005bf4:	ec55 4b10 	vmov	r4, r5, d0
 8005bf8:	2d00      	cmp	r5, #0
 8005bfa:	460e      	mov	r6, r1
 8005bfc:	4619      	mov	r1, r3
 8005bfe:	462b      	mov	r3, r5
 8005c00:	bfbb      	ittet	lt
 8005c02:	f105 4300 	addlt.w	r3, r5, #2147483648	; 0x80000000
 8005c06:	461d      	movlt	r5, r3
 8005c08:	2300      	movge	r3, #0
 8005c0a:	232d      	movlt	r3, #45	; 0x2d
 8005c0c:	700b      	strb	r3, [r1, #0]
 8005c0e:	9b0d      	ldr	r3, [sp, #52]	; 0x34
 8005c10:	f8dd a030 	ldr.w	sl, [sp, #48]	; 0x30
 8005c14:	4691      	mov	r9, r2
 8005c16:	f023 0820 	bic.w	r8, r3, #32
 8005c1a:	bfbc      	itt	lt
 8005c1c:	4622      	movlt	r2, r4
 8005c1e:	4614      	movlt	r4, r2
 8005c20:	f1b8 0f46 	cmp.w	r8, #70	; 0x46
 8005c24:	d005      	beq.n	8005c32 <__cvt+0x42>
 8005c26:	f1b8 0f45 	cmp.w	r8, #69	; 0x45
 8005c2a:	d100      	bne.n	8005c2e <__cvt+0x3e>
 8005c2c:	3601      	adds	r6, #1
 8005c2e:	2102      	movs	r1, #2
 8005c30:	e000      	b.n	8005c34 <__cvt+0x44>
 8005c32:	2103      	movs	r1, #3
 8005c34:	ab03      	add	r3, sp, #12
 8005c36:	9301      	str	r3, [sp, #4]
 8005c38:	ab02      	add	r3, sp, #8
 8005c3a:	9300      	str	r3, [sp, #0]
 8005c3c:	ec45 4b10 	vmov	d0, r4, r5
 8005c40:	4653      	mov	r3, sl
 8005c42:	4632      	mov	r2, r6
 8005c44:	f000 fd40 	bl	80066c8 <_dtoa_r>
 8005c48:	f1b8 0f47 	cmp.w	r8, #71	; 0x47
 8005c4c:	4607      	mov	r7, r0
 8005c4e:	d102      	bne.n	8005c56 <__cvt+0x66>
 8005c50:	f019 0f01 	tst.w	r9, #1
 8005c54:	d022      	beq.n	8005c9c <__cvt+0xac>
 8005c56:	f1b8 0f46 	cmp.w	r8, #70	; 0x46
 8005c5a:	eb07 0906 	add.w	r9, r7, r6
 8005c5e:	d110      	bne.n	8005c82 <__cvt+0x92>
 8005c60:	783b      	ldrb	r3, [r7, #0]
 8005c62:	2b30      	cmp	r3, #48	; 0x30
 8005c64:	d10a      	bne.n	8005c7c <__cvt+0x8c>
 8005c66:	2200      	movs	r2, #0
 8005c68:	2300      	movs	r3, #0
 8005c6a:	4620      	mov	r0, r4
 8005c6c:	4629      	mov	r1, r5
 8005c6e:	f7fa ff33 	bl	8000ad8 <__aeabi_dcmpeq>
 8005c72:	b918      	cbnz	r0, 8005c7c <__cvt+0x8c>
 8005c74:	f1c6 0601 	rsb	r6, r6, #1
 8005c78:	f8ca 6000 	str.w	r6, [sl]
 8005c7c:	f8da 3000 	ldr.w	r3, [sl]
 8005c80:	4499      	add	r9, r3
 8005c82:	2200      	movs	r2, #0
 8005c84:	2300      	movs	r3, #0
 8005c86:	4620      	mov	r0, r4
 8005c88:	4629      	mov	r1, r5
 8005c8a:	f7fa ff25 	bl	8000ad8 <__aeabi_dcmpeq>
 8005c8e:	b108      	cbz	r0, 8005c94 <__cvt+0xa4>
 8005c90:	f8cd 900c 	str.w	r9, [sp, #12]
 8005c94:	2230      	movs	r2, #48	; 0x30
 8005c96:	9b03      	ldr	r3, [sp, #12]
 8005c98:	454b      	cmp	r3, r9
 8005c9a:	d307      	bcc.n	8005cac <__cvt+0xbc>
 8005c9c:	9b03      	ldr	r3, [sp, #12]
 8005c9e:	9a0e      	ldr	r2, [sp, #56]	; 0x38
 8005ca0:	1bdb      	subs	r3, r3, r7
 8005ca2:	4638      	mov	r0, r7
 8005ca4:	6013      	str	r3, [r2, #0]
 8005ca6:	b004      	add	sp, #16
 8005ca8:	e8bd 87f0 	ldmia.w	sp!, {r4, r5, r6, r7, r8, r9, sl, pc}
 8005cac:	1c59      	adds	r1, r3, #1
 8005cae:	9103      	str	r1, [sp, #12]
 8005cb0:	701a      	strb	r2, [r3, #0]
 8005cb2:	e7f0      	b.n	8005c96 <__cvt+0xa6>

08005cb4 <__exponent>:
 8005cb4:	b5f7      	push	{r0, r1, r2, r4, r5, r6, r7, lr}
 8005cb6:	4603      	mov	r3, r0
 8005cb8:	2900      	cmp	r1, #0
 8005cba:	bfb8      	it	lt
 8005cbc:	4249      	neglt	r1, r1
 8005cbe:	f803 2b02 	strb.w	r2, [r3], #2
 8005cc2:	bfb4      	ite	lt
 8005cc4:	222d      	movlt	r2, #45	; 0x2d
 8005cc6:	222b      	movge	r2, #43	; 0x2b
 8005cc8:	2909      	cmp	r1, #9
 8005cca:	7042      	strb	r2, [r0, #1]
 8005ccc:	dd2a      	ble.n	8005d24 <__exponent+0x70>
 8005cce:	f10d 0407 	add.w	r4, sp, #7
 8005cd2:	46a4      	mov	ip, r4
 8005cd4:	270a      	movs	r7, #10
 8005cd6:	46a6      	mov	lr, r4
 8005cd8:	460a      	mov	r2, r1
 8005cda:	fb91 f6f7 	sdiv	r6, r1, r7
 8005cde:	fb07 1516 	mls	r5, r7, r6, r1
 8005ce2:	3530      	adds	r5, #48	; 0x30
 8005ce4:	2a63      	cmp	r2, #99	; 0x63
 8005ce6:	f104 34ff 	add.w	r4, r4, #4294967295
 8005cea:	f80e 5c01 	strb.w	r5, [lr, #-1]
 8005cee:	4631      	mov	r1, r6
 8005cf0:	dcf1      	bgt.n	8005cd6 <__exponent+0x22>
 8005cf2:	3130      	adds	r1, #48	; 0x30
 8005cf4:	f1ae 0502 	sub.w	r5, lr, #2
 8005cf8:	f804 1c01 	strb.w	r1, [r4, #-1]
 8005cfc:	1c44      	adds	r4, r0, #1
 8005cfe:	4629      	mov	r1, r5
 8005d00:	4561      	cmp	r1, ip
 8005d02:	d30a      	bcc.n	8005d1a <__exponent+0x66>
 8005d04:	f10d 0209 	add.w	r2, sp, #9
 8005d08:	eba2 020e 	sub.w	r2, r2, lr
 8005d0c:	4565      	cmp	r5, ip
 8005d0e:	bf88      	it	hi
 8005d10:	2200      	movhi	r2, #0
 8005d12:	4413      	add	r3, r2
 8005d14:	1a18      	subs	r0, r3, r0
 8005d16:	b003      	add	sp, #12
 8005d18:	bdf0      	pop	{r4, r5, r6, r7, pc}
 8005d1a:	f811 2b01 	ldrb.w	r2, [r1], #1
 8005d1e:	f804 2f01 	strb.w	r2, [r4, #1]!
 8005d22:	e7ed      	b.n	8005d00 <__exponent+0x4c>
 8005d24:	2330      	movs	r3, #48	; 0x30
 8005d26:	3130      	adds	r1, #48	; 0x30
 8005d28:	7083      	strb	r3, [r0, #2]
 8005d2a:	70c1      	strb	r1, [r0, #3]
 8005d2c:	1d03      	adds	r3, r0, #4
 8005d2e:	e7f1      	b.n	8005d14 <__exponent+0x60>

08005d30 <_printf_float>:
 8005d30:	e92d 4ff0 	stmdb	sp!, {r4, r5, r6, r7, r8, r9, sl, fp, lr}
 8005d34:	ed2d 8b02 	vpush	{d8}
 8005d38:	b08d      	sub	sp, #52	; 0x34
 8005d3a:	460c      	mov	r4, r1
 8005d3c:	f8dd 8060 	ldr.w	r8, [sp, #96]	; 0x60
 8005d40:	4616      	mov	r6, r2
 8005d42:	461f      	mov	r7, r3
 8005d44:	4605      	mov	r5, r0
 8005d46:	f001 faad 	bl	80072a4 <_localeconv_r>
 8005d4a:	f8d0 a000 	ldr.w	sl, [r0]
 8005d4e:	4650      	mov	r0, sl
 8005d50:	f7fa fa46 	bl	80001e0 <strlen>
 8005d54:	2300      	movs	r3, #0
 8005d56:	930a      	str	r3, [sp, #40]	; 0x28
 8005d58:	6823      	ldr	r3, [r4, #0]
 8005d5a:	9305      	str	r3, [sp, #20]
 8005d5c:	f8d8 3000 	ldr.w	r3, [r8]
 8005d60:	f894 b018 	ldrb.w	fp, [r4, #24]
 8005d64:	3307      	adds	r3, #7
 8005d66:	f023 0307 	bic.w	r3, r3, #7
 8005d6a:	f103 0208 	add.w	r2, r3, #8
 8005d6e:	f8c8 2000 	str.w	r2, [r8]
 8005d72:	e9d3 2300 	ldrd	r2, r3, [r3]
 8005d76:	e9c4 2312 	strd	r2, r3, [r4, #72]	; 0x48
 8005d7a:	e9d4 8912 	ldrd	r8, r9, [r4, #72]	; 0x48
 8005d7e:	f029 4300 	bic.w	r3, r9, #2147483648	; 0x80000000
 8005d82:	9307      	str	r3, [sp, #28]
 8005d84:	f8cd 8018 	str.w	r8, [sp, #24]
 8005d88:	ee08 0a10 	vmov	s16, r0
 8005d8c:	4b9f      	ldr	r3, [pc, #636]	; (800600c <_printf_float+0x2dc>)
 8005d8e:	e9dd 0106 	ldrd	r0, r1, [sp, #24]
 8005d92:	f04f 32ff 	mov.w	r2, #4294967295
 8005d96:	f7fa fed1 	bl	8000b3c <__aeabi_dcmpun>
 8005d9a:	bb88      	cbnz	r0, 8005e00 <_printf_float+0xd0>
 8005d9c:	e9dd 0106 	ldrd	r0, r1, [sp, #24]
 8005da0:	4b9a      	ldr	r3, [pc, #616]	; (800600c <_printf_float+0x2dc>)
 8005da2:	f04f 32ff 	mov.w	r2, #4294967295
 8005da6:	f7fa feab 	bl	8000b00 <__aeabi_dcmple>
 8005daa:	bb48      	cbnz	r0, 8005e00 <_printf_float+0xd0>
 8005dac:	2200      	movs	r2, #0
 8005dae:	2300      	movs	r3, #0
 8005db0:	4640      	mov	r0, r8
 8005db2:	4649      	mov	r1, r9
 8005db4:	f7fa fe9a 	bl	8000aec <__aeabi_dcmplt>
 8005db8:	b110      	cbz	r0, 8005dc0 <_printf_float+0x90>
 8005dba:	232d      	movs	r3, #45	; 0x2d
 8005dbc:	f884 3043 	strb.w	r3, [r4, #67]	; 0x43
 8005dc0:	4b93      	ldr	r3, [pc, #588]	; (8006010 <_printf_float+0x2e0>)
 8005dc2:	4894      	ldr	r0, [pc, #592]	; (8006014 <_printf_float+0x2e4>)
 8005dc4:	f1bb 0f47 	cmp.w	fp, #71	; 0x47
 8005dc8:	bf94      	ite	ls
 8005dca:	4698      	movls	r8, r3
 8005dcc:	4680      	movhi	r8, r0
 8005dce:	2303      	movs	r3, #3
 8005dd0:	6123      	str	r3, [r4, #16]
 8005dd2:	9b05      	ldr	r3, [sp, #20]
 8005dd4:	f023 0204 	bic.w	r2, r3, #4
 8005dd8:	6022      	str	r2, [r4, #0]
 8005dda:	f04f 0900 	mov.w	r9, #0
 8005dde:	9700      	str	r7, [sp, #0]
 8005de0:	4633      	mov	r3, r6
 8005de2:	aa0b      	add	r2, sp, #44	; 0x2c
 8005de4:	4621      	mov	r1, r4
 8005de6:	4628      	mov	r0, r5
 8005de8:	f000 f9d8 	bl	800619c <_printf_common>
 8005dec:	3001      	adds	r0, #1
 8005dee:	f040 8090 	bne.w	8005f12 <_printf_float+0x1e2>
 8005df2:	f04f 30ff 	mov.w	r0, #4294967295
 8005df6:	b00d      	add	sp, #52	; 0x34
 8005df8:	ecbd 8b02 	vpop	{d8}
 8005dfc:	e8bd 8ff0 	ldmia.w	sp!, {r4, r5, r6, r7, r8, r9, sl, fp, pc}
 8005e00:	4642      	mov	r2, r8
 8005e02:	464b      	mov	r3, r9
 8005e04:	4640      	mov	r0, r8
 8005e06:	4649      	mov	r1, r9
 8005e08:	f7fa fe98 	bl	8000b3c <__aeabi_dcmpun>
 8005e0c:	b140      	cbz	r0, 8005e20 <_printf_float+0xf0>
 8005e0e:	464b      	mov	r3, r9
 8005e10:	2b00      	cmp	r3, #0
 8005e12:	bfbc      	itt	lt
 8005e14:	232d      	movlt	r3, #45	; 0x2d
 8005e16:	f884 3043 	strblt.w	r3, [r4, #67]	; 0x43
 8005e1a:	487f      	ldr	r0, [pc, #508]	; (8006018 <_printf_float+0x2e8>)
 8005e1c:	4b7f      	ldr	r3, [pc, #508]	; (800601c <_printf_float+0x2ec>)
 8005e1e:	e7d1      	b.n	8005dc4 <_printf_float+0x94>
 8005e20:	6863      	ldr	r3, [r4, #4]
 8005e22:	f00b 02df 	and.w	r2, fp, #223	; 0xdf
 8005e26:	9206      	str	r2, [sp, #24]
 8005e28:	1c5a      	adds	r2, r3, #1
 8005e2a:	d13f      	bne.n	8005eac <_printf_float+0x17c>
 8005e2c:	2306      	movs	r3, #6
 8005e2e:	6063      	str	r3, [r4, #4]
 8005e30:	9b05      	ldr	r3, [sp, #20]
 8005e32:	6861      	ldr	r1, [r4, #4]
 8005e34:	f443 6280 	orr.w	r2, r3, #1024	; 0x400
 8005e38:	2300      	movs	r3, #0
 8005e3a:	9303      	str	r3, [sp, #12]
 8005e3c:	ab0a      	add	r3, sp, #40	; 0x28
 8005e3e:	e9cd b301 	strd	fp, r3, [sp, #4]
 8005e42:	ab09      	add	r3, sp, #36	; 0x24
 8005e44:	ec49 8b10 	vmov	d0, r8, r9
 8005e48:	9300      	str	r3, [sp, #0]
 8005e4a:	6022      	str	r2, [r4, #0]
 8005e4c:	f10d 0323 	add.w	r3, sp, #35	; 0x23
 8005e50:	4628      	mov	r0, r5
 8005e52:	f7ff fecd 	bl	8005bf0 <__cvt>
 8005e56:	9b06      	ldr	r3, [sp, #24]
 8005e58:	9909      	ldr	r1, [sp, #36]	; 0x24
 8005e5a:	2b47      	cmp	r3, #71	; 0x47
 8005e5c:	4680      	mov	r8, r0
 8005e5e:	d108      	bne.n	8005e72 <_printf_float+0x142>
 8005e60:	1cc8      	adds	r0, r1, #3
 8005e62:	db02      	blt.n	8005e6a <_printf_float+0x13a>
 8005e64:	6863      	ldr	r3, [r4, #4]
 8005e66:	4299      	cmp	r1, r3
 8005e68:	dd41      	ble.n	8005eee <_printf_float+0x1be>
 8005e6a:	f1ab 0b02 	sub.w	fp, fp, #2
 8005e6e:	fa5f fb8b 	uxtb.w	fp, fp
 8005e72:	f1bb 0f65 	cmp.w	fp, #101	; 0x65
 8005e76:	d820      	bhi.n	8005eba <_printf_float+0x18a>
 8005e78:	3901      	subs	r1, #1
 8005e7a:	465a      	mov	r2, fp
 8005e7c:	f104 0050 	add.w	r0, r4, #80	; 0x50
 8005e80:	9109      	str	r1, [sp, #36]	; 0x24
 8005e82:	f7ff ff17 	bl	8005cb4 <__exponent>
 8005e86:	9a0a      	ldr	r2, [sp, #40]	; 0x28
 8005e88:	1813      	adds	r3, r2, r0
 8005e8a:	2a01      	cmp	r2, #1
 8005e8c:	4681      	mov	r9, r0
 8005e8e:	6123      	str	r3, [r4, #16]
 8005e90:	dc02      	bgt.n	8005e98 <_printf_float+0x168>
 8005e92:	6822      	ldr	r2, [r4, #0]
 8005e94:	07d2      	lsls	r2, r2, #31
 8005e96:	d501      	bpl.n	8005e9c <_printf_float+0x16c>
 8005e98:	3301      	adds	r3, #1
 8005e9a:	6123      	str	r3, [r4, #16]
 8005e9c:	f89d 3023 	ldrb.w	r3, [sp, #35]	; 0x23
 8005ea0:	2b00      	cmp	r3, #0
 8005ea2:	d09c      	beq.n	8005dde <_printf_float+0xae>
 8005ea4:	232d      	movs	r3, #45	; 0x2d
 8005ea6:	f884 3043 	strb.w	r3, [r4, #67]	; 0x43
 8005eaa:	e798      	b.n	8005dde <_printf_float+0xae>
 8005eac:	9a06      	ldr	r2, [sp, #24]
 8005eae:	2a47      	cmp	r2, #71	; 0x47
 8005eb0:	d1be      	bne.n	8005e30 <_printf_float+0x100>
 8005eb2:	2b00      	cmp	r3, #0
 8005eb4:	d1bc      	bne.n	8005e30 <_printf_float+0x100>
 8005eb6:	2301      	movs	r3, #1
 8005eb8:	e7b9      	b.n	8005e2e <_printf_float+0xfe>
 8005eba:	f1bb 0f66 	cmp.w	fp, #102	; 0x66
 8005ebe:	d118      	bne.n	8005ef2 <_printf_float+0x1c2>
 8005ec0:	2900      	cmp	r1, #0
 8005ec2:	6863      	ldr	r3, [r4, #4]
 8005ec4:	dd0b      	ble.n	8005ede <_printf_float+0x1ae>
 8005ec6:	6121      	str	r1, [r4, #16]
 8005ec8:	b913      	cbnz	r3, 8005ed0 <_printf_float+0x1a0>
 8005eca:	6822      	ldr	r2, [r4, #0]
 8005ecc:	07d0      	lsls	r0, r2, #31
 8005ece:	d502      	bpl.n	8005ed6 <_printf_float+0x1a6>
 8005ed0:	3301      	adds	r3, #1
 8005ed2:	440b      	add	r3, r1
 8005ed4:	6123      	str	r3, [r4, #16]
 8005ed6:	65a1      	str	r1, [r4, #88]	; 0x58
 8005ed8:	f04f 0900 	mov.w	r9, #0
 8005edc:	e7de      	b.n	8005e9c <_printf_float+0x16c>
 8005ede:	b913      	cbnz	r3, 8005ee6 <_printf_float+0x1b6>
 8005ee0:	6822      	ldr	r2, [r4, #0]
 8005ee2:	07d2      	lsls	r2, r2, #31
 8005ee4:	d501      	bpl.n	8005eea <_printf_float+0x1ba>
 8005ee6:	3302      	adds	r3, #2
 8005ee8:	e7f4      	b.n	8005ed4 <_printf_float+0x1a4>
 8005eea:	2301      	movs	r3, #1
 8005eec:	e7f2      	b.n	8005ed4 <_printf_float+0x1a4>
 8005eee:	f04f 0b67 	mov.w	fp, #103	; 0x67
 8005ef2:	9b0a      	ldr	r3, [sp, #40]	; 0x28
 8005ef4:	4299      	cmp	r1, r3
 8005ef6:	db05      	blt.n	8005f04 <_printf_float+0x1d4>
 8005ef8:	6823      	ldr	r3, [r4, #0]
 8005efa:	6121      	str	r1, [r4, #16]
 8005efc:	07d8      	lsls	r0, r3, #31
 8005efe:	d5ea      	bpl.n	8005ed6 <_printf_float+0x1a6>
 8005f00:	1c4b      	adds	r3, r1, #1
 8005f02:	e7e7      	b.n	8005ed4 <_printf_float+0x1a4>
 8005f04:	2900      	cmp	r1, #0
 8005f06:	bfd4      	ite	le
 8005f08:	f1c1 0202 	rsble	r2, r1, #2
 8005f0c:	2201      	movgt	r2, #1
 8005f0e:	4413      	add	r3, r2
 8005f10:	e7e0      	b.n	8005ed4 <_printf_float+0x1a4>
 8005f12:	6823      	ldr	r3, [r4, #0]
 8005f14:	055a      	lsls	r2, r3, #21
 8005f16:	d407      	bmi.n	8005f28 <_printf_float+0x1f8>
 8005f18:	6923      	ldr	r3, [r4, #16]
 8005f1a:	4642      	mov	r2, r8
 8005f1c:	4631      	mov	r1, r6
 8005f1e:	4628      	mov	r0, r5
 8005f20:	47b8      	blx	r7
 8005f22:	3001      	adds	r0, #1
 8005f24:	d12c      	bne.n	8005f80 <_printf_float+0x250>
 8005f26:	e764      	b.n	8005df2 <_printf_float+0xc2>
 8005f28:	f1bb 0f65 	cmp.w	fp, #101	; 0x65
 8005f2c:	f240 80e0 	bls.w	80060f0 <_printf_float+0x3c0>
 8005f30:	e9d4 0112 	ldrd	r0, r1, [r4, #72]	; 0x48
 8005f34:	2200      	movs	r2, #0
 8005f36:	2300      	movs	r3, #0
 8005f38:	f7fa fdce 	bl	8000ad8 <__aeabi_dcmpeq>
 8005f3c:	2800      	cmp	r0, #0
 8005f3e:	d034      	beq.n	8005faa <_printf_float+0x27a>
 8005f40:	4a37      	ldr	r2, [pc, #220]	; (8006020 <_printf_float+0x2f0>)
 8005f42:	2301      	movs	r3, #1
 8005f44:	4631      	mov	r1, r6
 8005f46:	4628      	mov	r0, r5
 8005f48:	47b8      	blx	r7
 8005f4a:	3001      	adds	r0, #1
 8005f4c:	f43f af51 	beq.w	8005df2 <_printf_float+0xc2>
 8005f50:	e9dd 2309 	ldrd	r2, r3, [sp, #36]	; 0x24
 8005f54:	429a      	cmp	r2, r3
 8005f56:	db02      	blt.n	8005f5e <_printf_float+0x22e>
 8005f58:	6823      	ldr	r3, [r4, #0]
 8005f5a:	07d8      	lsls	r0, r3, #31
 8005f5c:	d510      	bpl.n	8005f80 <_printf_float+0x250>
 8005f5e:	ee18 3a10 	vmov	r3, s16
 8005f62:	4652      	mov	r2, sl
 8005f64:	4631      	mov	r1, r6
 8005f66:	4628      	mov	r0, r5
 8005f68:	47b8      	blx	r7
 8005f6a:	3001      	adds	r0, #1
 8005f6c:	f43f af41 	beq.w	8005df2 <_printf_float+0xc2>
 8005f70:	f04f 0800 	mov.w	r8, #0
 8005f74:	f104 091a 	add.w	r9, r4, #26
 8005f78:	9b0a      	ldr	r3, [sp, #40]	; 0x28
 8005f7a:	3b01      	subs	r3, #1
 8005f7c:	4543      	cmp	r3, r8
 8005f7e:	dc09      	bgt.n	8005f94 <_printf_float+0x264>
 8005f80:	6823      	ldr	r3, [r4, #0]
 8005f82:	079b      	lsls	r3, r3, #30
 8005f84:	f100 8105 	bmi.w	8006192 <_printf_float+0x462>
 8005f88:	68e0      	ldr	r0, [r4, #12]
 8005f8a:	9b0b      	ldr	r3, [sp, #44]	; 0x2c
 8005f8c:	4298      	cmp	r0, r3
 8005f8e:	bfb8      	it	lt
 8005f90:	4618      	movlt	r0, r3
 8005f92:	e730      	b.n	8005df6 <_printf_float+0xc6>
 8005f94:	2301      	movs	r3, #1
 8005f96:	464a      	mov	r2, r9
 8005f98:	4631      	mov	r1, r6
 8005f9a:	4628      	mov	r0, r5
 8005f9c:	47b8      	blx	r7
 8005f9e:	3001      	adds	r0, #1
 8005fa0:	f43f af27 	beq.w	8005df2 <_printf_float+0xc2>
 8005fa4:	f108 0801 	add.w	r8, r8, #1
 8005fa8:	e7e6      	b.n	8005f78 <_printf_float+0x248>
 8005faa:	9b09      	ldr	r3, [sp, #36]	; 0x24
 8005fac:	2b00      	cmp	r3, #0
 8005fae:	dc39      	bgt.n	8006024 <_printf_float+0x2f4>
 8005fb0:	4a1b      	ldr	r2, [pc, #108]	; (8006020 <_printf_float+0x2f0>)
 8005fb2:	2301      	movs	r3, #1
 8005fb4:	4631      	mov	r1, r6
 8005fb6:	4628      	mov	r0, r5
 8005fb8:	47b8      	blx	r7
 8005fba:	3001      	adds	r0, #1
 8005fbc:	f43f af19 	beq.w	8005df2 <_printf_float+0xc2>
 8005fc0:	e9dd 2309 	ldrd	r2, r3, [sp, #36]	; 0x24
 8005fc4:	4313      	orrs	r3, r2
 8005fc6:	d102      	bne.n	8005fce <_printf_float+0x29e>
 8005fc8:	6823      	ldr	r3, [r4, #0]
 8005fca:	07d9      	lsls	r1, r3, #31
 8005fcc:	d5d8      	bpl.n	8005f80 <_printf_float+0x250>
 8005fce:	ee18 3a10 	vmov	r3, s16
 8005fd2:	4652      	mov	r2, sl
 8005fd4:	4631      	mov	r1, r6
 8005fd6:	4628      	mov	r0, r5
 8005fd8:	47b8      	blx	r7
 8005fda:	3001      	adds	r0, #1
 8005fdc:	f43f af09 	beq.w	8005df2 <_printf_float+0xc2>
 8005fe0:	f04f 0900 	mov.w	r9, #0
 8005fe4:	f104 0a1a 	add.w	sl, r4, #26
 8005fe8:	9b09      	ldr	r3, [sp, #36]	; 0x24
 8005fea:	425b      	negs	r3, r3
 8005fec:	454b      	cmp	r3, r9
 8005fee:	dc01      	bgt.n	8005ff4 <_printf_float+0x2c4>
 8005ff0:	9b0a      	ldr	r3, [sp, #40]	; 0x28
 8005ff2:	e792      	b.n	8005f1a <_printf_float+0x1ea>
 8005ff4:	2301      	movs	r3, #1
 8005ff6:	4652      	mov	r2, sl
 8005ff8:	4631      	mov	r1, r6
 8005ffa:	4628      	mov	r0, r5
 8005ffc:	47b8      	blx	r7
 8005ffe:	3001      	adds	r0, #1
 8006000:	f43f aef7 	beq.w	8005df2 <_printf_float+0xc2>
 8006004:	f109 0901 	add.w	r9, r9, #1
 8006008:	e7ee      	b.n	8005fe8 <_printf_float+0x2b8>
 800600a:	bf00      	nop
 800600c:	7fefffff 	.word	0x7fefffff
 8006010:	0800a918 	.word	0x0800a918
 8006014:	0800a91c 	.word	0x0800a91c
 8006018:	0800a924 	.word	0x0800a924
 800601c:	0800a920 	.word	0x0800a920
 8006020:	0800a928 	.word	0x0800a928
 8006024:	9a0a      	ldr	r2, [sp, #40]	; 0x28
 8006026:	6da3      	ldr	r3, [r4, #88]	; 0x58
 8006028:	429a      	cmp	r2, r3
 800602a:	bfa8      	it	ge
 800602c:	461a      	movge	r2, r3
 800602e:	2a00      	cmp	r2, #0
 8006030:	4691      	mov	r9, r2
 8006032:	dc37      	bgt.n	80060a4 <_printf_float+0x374>
 8006034:	f04f 0b00 	mov.w	fp, #0
 8006038:	ea29 79e9 	bic.w	r9, r9, r9, asr #31
 800603c:	f104 021a 	add.w	r2, r4, #26
 8006040:	6da3      	ldr	r3, [r4, #88]	; 0x58
 8006042:	9305      	str	r3, [sp, #20]
 8006044:	eba3 0309 	sub.w	r3, r3, r9
 8006048:	455b      	cmp	r3, fp
 800604a:	dc33      	bgt.n	80060b4 <_printf_float+0x384>
 800604c:	e9dd 2309 	ldrd	r2, r3, [sp, #36]	; 0x24
 8006050:	429a      	cmp	r2, r3
 8006052:	db3b      	blt.n	80060cc <_printf_float+0x39c>
 8006054:	6823      	ldr	r3, [r4, #0]
 8006056:	07da      	lsls	r2, r3, #31
 8006058:	d438      	bmi.n	80060cc <_printf_float+0x39c>
 800605a:	9b0a      	ldr	r3, [sp, #40]	; 0x28
 800605c:	9a05      	ldr	r2, [sp, #20]
 800605e:	9909      	ldr	r1, [sp, #36]	; 0x24
 8006060:	1a9a      	subs	r2, r3, r2
 8006062:	eba3 0901 	sub.w	r9, r3, r1
 8006066:	4591      	cmp	r9, r2
 8006068:	bfa8      	it	ge
 800606a:	4691      	movge	r9, r2
 800606c:	f1b9 0f00 	cmp.w	r9, #0
 8006070:	dc35      	bgt.n	80060de <_printf_float+0x3ae>
 8006072:	f04f 0800 	mov.w	r8, #0
 8006076:	ea29 79e9 	bic.w	r9, r9, r9, asr #31
 800607a:	f104 0a1a 	add.w	sl, r4, #26
 800607e:	e9dd 2309 	ldrd	r2, r3, [sp, #36]	; 0x24
 8006082:	1a9b      	subs	r3, r3, r2
 8006084:	eba3 0309 	sub.w	r3, r3, r9
 8006088:	4543      	cmp	r3, r8
 800608a:	f77f af79 	ble.w	8005f80 <_printf_float+0x250>
 800608e:	2301      	movs	r3, #1
 8006090:	4652      	mov	r2, sl
 8006092:	4631      	mov	r1, r6
 8006094:	4628      	mov	r0, r5
 8006096:	47b8      	blx	r7
 8006098:	3001      	adds	r0, #1
 800609a:	f43f aeaa 	beq.w	8005df2 <_printf_float+0xc2>
 800609e:	f108 0801 	add.w	r8, r8, #1
 80060a2:	e7ec      	b.n	800607e <_printf_float+0x34e>
 80060a4:	4613      	mov	r3, r2
 80060a6:	4631      	mov	r1, r6
 80060a8:	4642      	mov	r2, r8
 80060aa:	4628      	mov	r0, r5
 80060ac:	47b8      	blx	r7
 80060ae:	3001      	adds	r0, #1
 80060b0:	d1c0      	bne.n	8006034 <_printf_float+0x304>
 80060b2:	e69e      	b.n	8005df2 <_printf_float+0xc2>
 80060b4:	2301      	movs	r3, #1
 80060b6:	4631      	mov	r1, r6
 80060b8:	4628      	mov	r0, r5
 80060ba:	9205      	str	r2, [sp, #20]
 80060bc:	47b8      	blx	r7
 80060be:	3001      	adds	r0, #1
 80060c0:	f43f ae97 	beq.w	8005df2 <_printf_float+0xc2>
 80060c4:	9a05      	ldr	r2, [sp, #20]
 80060c6:	f10b 0b01 	add.w	fp, fp, #1
 80060ca:	e7b9      	b.n	8006040 <_printf_float+0x310>
 80060cc:	ee18 3a10 	vmov	r3, s16
 80060d0:	4652      	mov	r2, sl
 80060d2:	4631      	mov	r1, r6
 80060d4:	4628      	mov	r0, r5
 80060d6:	47b8      	blx	r7
 80060d8:	3001      	adds	r0, #1
 80060da:	d1be      	bne.n	800605a <_printf_float+0x32a>
 80060dc:	e689      	b.n	8005df2 <_printf_float+0xc2>
 80060de:	9a05      	ldr	r2, [sp, #20]
 80060e0:	464b      	mov	r3, r9
 80060e2:	4442      	add	r2, r8
 80060e4:	4631      	mov	r1, r6
 80060e6:	4628      	mov	r0, r5
 80060e8:	47b8      	blx	r7
 80060ea:	3001      	adds	r0, #1
 80060ec:	d1c1      	bne.n	8006072 <_printf_float+0x342>
 80060ee:	e680      	b.n	8005df2 <_printf_float+0xc2>
 80060f0:	9a0a      	ldr	r2, [sp, #40]	; 0x28
 80060f2:	2a01      	cmp	r2, #1
 80060f4:	dc01      	bgt.n	80060fa <_printf_float+0x3ca>
 80060f6:	07db      	lsls	r3, r3, #31
 80060f8:	d538      	bpl.n	800616c <_printf_float+0x43c>
 80060fa:	2301      	movs	r3, #1
 80060fc:	4642      	mov	r2, r8
 80060fe:	4631      	mov	r1, r6
 8006100:	4628      	mov	r0, r5
 8006102:	47b8      	blx	r7
 8006104:	3001      	adds	r0, #1
 8006106:	f43f ae74 	beq.w	8005df2 <_printf_float+0xc2>
 800610a:	ee18 3a10 	vmov	r3, s16
 800610e:	4652      	mov	r2, sl
 8006110:	4631      	mov	r1, r6
 8006112:	4628      	mov	r0, r5
 8006114:	47b8      	blx	r7
 8006116:	3001      	adds	r0, #1
 8006118:	f43f ae6b 	beq.w	8005df2 <_printf_float+0xc2>
 800611c:	e9d4 0112 	ldrd	r0, r1, [r4, #72]	; 0x48
 8006120:	2200      	movs	r2, #0
 8006122:	2300      	movs	r3, #0
 8006124:	f7fa fcd8 	bl	8000ad8 <__aeabi_dcmpeq>
 8006128:	b9d8      	cbnz	r0, 8006162 <_printf_float+0x432>
 800612a:	9b0a      	ldr	r3, [sp, #40]	; 0x28
 800612c:	f108 0201 	add.w	r2, r8, #1
 8006130:	3b01      	subs	r3, #1
 8006132:	4631      	mov	r1, r6
 8006134:	4628      	mov	r0, r5
 8006136:	47b8      	blx	r7
 8006138:	3001      	adds	r0, #1
 800613a:	d10e      	bne.n	800615a <_printf_float+0x42a>
 800613c:	e659      	b.n	8005df2 <_printf_float+0xc2>
 800613e:	2301      	movs	r3, #1
 8006140:	4652      	mov	r2, sl
 8006142:	4631      	mov	r1, r6
 8006144:	4628      	mov	r0, r5
 8006146:	47b8      	blx	r7
 8006148:	3001      	adds	r0, #1
 800614a:	f43f ae52 	beq.w	8005df2 <_printf_float+0xc2>
 800614e:	f108 0801 	add.w	r8, r8, #1
 8006152:	9b0a      	ldr	r3, [sp, #40]	; 0x28
 8006154:	3b01      	subs	r3, #1
 8006156:	4543      	cmp	r3, r8
 8006158:	dcf1      	bgt.n	800613e <_printf_float+0x40e>
 800615a:	464b      	mov	r3, r9
 800615c:	f104 0250 	add.w	r2, r4, #80	; 0x50
 8006160:	e6dc      	b.n	8005f1c <_printf_float+0x1ec>
 8006162:	f04f 0800 	mov.w	r8, #0
 8006166:	f104 0a1a 	add.w	sl, r4, #26
 800616a:	e7f2      	b.n	8006152 <_printf_float+0x422>
 800616c:	2301      	movs	r3, #1
 800616e:	4642      	mov	r2, r8
 8006170:	e7df      	b.n	8006132 <_printf_float+0x402>
 8006172:	2301      	movs	r3, #1
 8006174:	464a      	mov	r2, r9
 8006176:	4631      	mov	r1, r6
 8006178:	4628      	mov	r0, r5
 800617a:	47b8      	blx	r7
 800617c:	3001      	adds	r0, #1
 800617e:	f43f ae38 	beq.w	8005df2 <_printf_float+0xc2>
 8006182:	f108 0801 	add.w	r8, r8, #1
 8006186:	68e3      	ldr	r3, [r4, #12]
 8006188:	990b      	ldr	r1, [sp, #44]	; 0x2c
 800618a:	1a5b      	subs	r3, r3, r1
 800618c:	4543      	cmp	r3, r8
 800618e:	dcf0      	bgt.n	8006172 <_printf_float+0x442>
 8006190:	e6fa      	b.n	8005f88 <_printf_float+0x258>
 8006192:	f04f 0800 	mov.w	r8, #0
 8006196:	f104 0919 	add.w	r9, r4, #25
 800619a:	e7f4      	b.n	8006186 <_printf_float+0x456>

0800619c <_printf_common>:
 800619c:	e92d 47f0 	stmdb	sp!, {r4, r5, r6, r7, r8, r9, sl, lr}
 80061a0:	4616      	mov	r6, r2
 80061a2:	4699      	mov	r9, r3
 80061a4:	688a      	ldr	r2, [r1, #8]
 80061a6:	690b      	ldr	r3, [r1, #16]
 80061a8:	f8dd 8020 	ldr.w	r8, [sp, #32]
 80061ac:	4293      	cmp	r3, r2
 80061ae:	bfb8      	it	lt
 80061b0:	4613      	movlt	r3, r2
 80061b2:	6033      	str	r3, [r6, #0]
 80061b4:	f891 2043 	ldrb.w	r2, [r1, #67]	; 0x43
 80061b8:	4607      	mov	r7, r0
 80061ba:	460c      	mov	r4, r1
 80061bc:	b10a      	cbz	r2, 80061c2 <_printf_common+0x26>
 80061be:	3301      	adds	r3, #1
 80061c0:	6033      	str	r3, [r6, #0]
 80061c2:	6823      	ldr	r3, [r4, #0]
 80061c4:	0699      	lsls	r1, r3, #26
 80061c6:	bf42      	ittt	mi
 80061c8:	6833      	ldrmi	r3, [r6, #0]
 80061ca:	3302      	addmi	r3, #2
 80061cc:	6033      	strmi	r3, [r6, #0]
 80061ce:	6825      	ldr	r5, [r4, #0]
 80061d0:	f015 0506 	ands.w	r5, r5, #6
 80061d4:	d106      	bne.n	80061e4 <_printf_common+0x48>
 80061d6:	f104 0a19 	add.w	sl, r4, #25
 80061da:	68e3      	ldr	r3, [r4, #12]
 80061dc:	6832      	ldr	r2, [r6, #0]
 80061de:	1a9b      	subs	r3, r3, r2
 80061e0:	42ab      	cmp	r3, r5
 80061e2:	dc26      	bgt.n	8006232 <_printf_common+0x96>
 80061e4:	f894 2043 	ldrb.w	r2, [r4, #67]	; 0x43
 80061e8:	1e13      	subs	r3, r2, #0
 80061ea:	6822      	ldr	r2, [r4, #0]
 80061ec:	bf18      	it	ne
 80061ee:	2301      	movne	r3, #1
 80061f0:	0692      	lsls	r2, r2, #26
 80061f2:	d42b      	bmi.n	800624c <_printf_common+0xb0>
 80061f4:	f104 0243 	add.w	r2, r4, #67	; 0x43
 80061f8:	4649      	mov	r1, r9
 80061fa:	4638      	mov	r0, r7
 80061fc:	47c0      	blx	r8
 80061fe:	3001      	adds	r0, #1
 8006200:	d01e      	beq.n	8006240 <_printf_common+0xa4>
 8006202:	6823      	ldr	r3, [r4, #0]
 8006204:	68e5      	ldr	r5, [r4, #12]
 8006206:	6832      	ldr	r2, [r6, #0]
 8006208:	f003 0306 	and.w	r3, r3, #6
 800620c:	2b04      	cmp	r3, #4
 800620e:	bf08      	it	eq
 8006210:	1aad      	subeq	r5, r5, r2
 8006212:	68a3      	ldr	r3, [r4, #8]
 8006214:	6922      	ldr	r2, [r4, #16]
 8006216:	bf0c      	ite	eq
 8006218:	ea25 75e5 	biceq.w	r5, r5, r5, asr #31
 800621c:	2500      	movne	r5, #0
 800621e:	4293      	cmp	r3, r2
 8006220:	bfc4      	itt	gt
 8006222:	1a9b      	subgt	r3, r3, r2
 8006224:	18ed      	addgt	r5, r5, r3
 8006226:	2600      	movs	r6, #0
 8006228:	341a      	adds	r4, #26
 800622a:	42b5      	cmp	r5, r6
 800622c:	d11a      	bne.n	8006264 <_printf_common+0xc8>
 800622e:	2000      	movs	r0, #0
 8006230:	e008      	b.n	8006244 <_printf_common+0xa8>
 8006232:	2301      	movs	r3, #1
 8006234:	4652      	mov	r2, sl
 8006236:	4649      	mov	r1, r9
 8006238:	4638      	mov	r0, r7
 800623a:	47c0      	blx	r8
 800623c:	3001      	adds	r0, #1
 800623e:	d103      	bne.n	8006248 <_printf_common+0xac>
 8006240:	f04f 30ff 	mov.w	r0, #4294967295
 8006244:	e8bd 87f0 	ldmia.w	sp!, {r4, r5, r6, r7, r8, r9, sl, pc}
 8006248:	3501      	adds	r5, #1
 800624a:	e7c6      	b.n	80061da <_printf_common+0x3e>
 800624c:	18e1      	adds	r1, r4, r3
 800624e:	1c5a      	adds	r2, r3, #1
 8006250:	2030      	movs	r0, #48	; 0x30
 8006252:	f881 0043 	strb.w	r0, [r1, #67]	; 0x43
 8006256:	4422      	add	r2, r4
 8006258:	f894 1045 	ldrb.w	r1, [r4, #69]	; 0x45
 800625c:	f882 1043 	strb.w	r1, [r2, #67]	; 0x43
 8006260:	3302      	adds	r3, #2
 8006262:	e7c7      	b.n	80061f4 <_printf_common+0x58>
 8006264:	2301      	movs	r3, #1
 8006266:	4622      	mov	r2, r4
 8006268:	4649      	mov	r1, r9
 800626a:	4638      	mov	r0, r7
 800626c:	47c0      	blx	r8
 800626e:	3001      	adds	r0, #1
 8006270:	d0e6      	beq.n	8006240 <_printf_common+0xa4>
 8006272:	3601      	adds	r6, #1
 8006274:	e7d9      	b.n	800622a <_printf_common+0x8e>
	...

08006278 <_printf_i>:
 8006278:	e92d 47ff 	stmdb	sp!, {r0, r1, r2, r3, r4, r5, r6, r7, r8, r9, sl, lr}
 800627c:	7e0f      	ldrb	r7, [r1, #24]
 800627e:	9d0c      	ldr	r5, [sp, #48]	; 0x30
 8006280:	2f78      	cmp	r7, #120	; 0x78
 8006282:	4691      	mov	r9, r2
 8006284:	4680      	mov	r8, r0
 8006286:	460c      	mov	r4, r1
 8006288:	469a      	mov	sl, r3
 800628a:	f101 0243 	add.w	r2, r1, #67	; 0x43
 800628e:	d807      	bhi.n	80062a0 <_printf_i+0x28>
 8006290:	2f62      	cmp	r7, #98	; 0x62
 8006292:	d80a      	bhi.n	80062aa <_printf_i+0x32>
 8006294:	2f00      	cmp	r7, #0
 8006296:	f000 80d8 	beq.w	800644a <_printf_i+0x1d2>
 800629a:	2f58      	cmp	r7, #88	; 0x58
 800629c:	f000 80a3 	beq.w	80063e6 <_printf_i+0x16e>
 80062a0:	f104 0542 	add.w	r5, r4, #66	; 0x42
 80062a4:	f884 7042 	strb.w	r7, [r4, #66]	; 0x42
 80062a8:	e03a      	b.n	8006320 <_printf_i+0xa8>
 80062aa:	f1a7 0363 	sub.w	r3, r7, #99	; 0x63
 80062ae:	2b15      	cmp	r3, #21
 80062b0:	d8f6      	bhi.n	80062a0 <_printf_i+0x28>
 80062b2:	a101      	add	r1, pc, #4	; (adr r1, 80062b8 <_printf_i+0x40>)
 80062b4:	f851 f023 	ldr.w	pc, [r1, r3, lsl #2]
 80062b8:	08006311 	.word	0x08006311
 80062bc:	08006325 	.word	0x08006325
 80062c0:	080062a1 	.word	0x080062a1
 80062c4:	080062a1 	.word	0x080062a1
 80062c8:	080062a1 	.word	0x080062a1
 80062cc:	080062a1 	.word	0x080062a1
 80062d0:	08006325 	.word	0x08006325
 80062d4:	080062a1 	.word	0x080062a1
 80062d8:	080062a1 	.word	0x080062a1
 80062dc:	080062a1 	.word	0x080062a1
 80062e0:	080062a1 	.word	0x080062a1
 80062e4:	08006431 	.word	0x08006431
 80062e8:	08006355 	.word	0x08006355
 80062ec:	08006413 	.word	0x08006413
 80062f0:	080062a1 	.word	0x080062a1
 80062f4:	080062a1 	.word	0x080062a1
 80062f8:	08006453 	.word	0x08006453
 80062fc:	080062a1 	.word	0x080062a1
 8006300:	08006355 	.word	0x08006355
 8006304:	080062a1 	.word	0x080062a1
 8006308:	080062a1 	.word	0x080062a1
 800630c:	0800641b 	.word	0x0800641b
 8006310:	682b      	ldr	r3, [r5, #0]
 8006312:	1d1a      	adds	r2, r3, #4
 8006314:	681b      	ldr	r3, [r3, #0]
 8006316:	602a      	str	r2, [r5, #0]
 8006318:	f104 0542 	add.w	r5, r4, #66	; 0x42
 800631c:	f884 3042 	strb.w	r3, [r4, #66]	; 0x42
 8006320:	2301      	movs	r3, #1
 8006322:	e0a3      	b.n	800646c <_printf_i+0x1f4>
 8006324:	6820      	ldr	r0, [r4, #0]
 8006326:	6829      	ldr	r1, [r5, #0]
 8006328:	0606      	lsls	r6, r0, #24
 800632a:	f101 0304 	add.w	r3, r1, #4
 800632e:	d50a      	bpl.n	8006346 <_printf_i+0xce>
 8006330:	680e      	ldr	r6, [r1, #0]
 8006332:	602b      	str	r3, [r5, #0]
 8006334:	2e00      	cmp	r6, #0
 8006336:	da03      	bge.n	8006340 <_printf_i+0xc8>
 8006338:	232d      	movs	r3, #45	; 0x2d
 800633a:	4276      	negs	r6, r6
 800633c:	f884 3043 	strb.w	r3, [r4, #67]	; 0x43
 8006340:	485e      	ldr	r0, [pc, #376]	; (80064bc <_printf_i+0x244>)
 8006342:	230a      	movs	r3, #10
 8006344:	e019      	b.n	800637a <_printf_i+0x102>
 8006346:	680e      	ldr	r6, [r1, #0]
 8006348:	602b      	str	r3, [r5, #0]
 800634a:	f010 0f40 	tst.w	r0, #64	; 0x40
 800634e:	bf18      	it	ne
 8006350:	b236      	sxthne	r6, r6
 8006352:	e7ef      	b.n	8006334 <_printf_i+0xbc>
 8006354:	682b      	ldr	r3, [r5, #0]
 8006356:	6820      	ldr	r0, [r4, #0]
 8006358:	1d19      	adds	r1, r3, #4
 800635a:	6029      	str	r1, [r5, #0]
 800635c:	0601      	lsls	r1, r0, #24
 800635e:	d501      	bpl.n	8006364 <_printf_i+0xec>
 8006360:	681e      	ldr	r6, [r3, #0]
 8006362:	e002      	b.n	800636a <_printf_i+0xf2>
 8006364:	0646      	lsls	r6, r0, #25
 8006366:	d5fb      	bpl.n	8006360 <_printf_i+0xe8>
 8006368:	881e      	ldrh	r6, [r3, #0]
 800636a:	4854      	ldr	r0, [pc, #336]	; (80064bc <_printf_i+0x244>)
 800636c:	2f6f      	cmp	r7, #111	; 0x6f
 800636e:	bf0c      	ite	eq
 8006370:	2308      	moveq	r3, #8
 8006372:	230a      	movne	r3, #10
 8006374:	2100      	movs	r1, #0
 8006376:	f884 1043 	strb.w	r1, [r4, #67]	; 0x43
 800637a:	6865      	ldr	r5, [r4, #4]
 800637c:	60a5      	str	r5, [r4, #8]
 800637e:	2d00      	cmp	r5, #0
 8006380:	bfa2      	ittt	ge
 8006382:	6821      	ldrge	r1, [r4, #0]
 8006384:	f021 0104 	bicge.w	r1, r1, #4
 8006388:	6021      	strge	r1, [r4, #0]
 800638a:	b90e      	cbnz	r6, 8006390 <_printf_i+0x118>
 800638c:	2d00      	cmp	r5, #0
 800638e:	d04d      	beq.n	800642c <_printf_i+0x1b4>
 8006390:	4615      	mov	r5, r2
 8006392:	fbb6 f1f3 	udiv	r1, r6, r3
 8006396:	fb03 6711 	mls	r7, r3, r1, r6
 800639a:	5dc7      	ldrb	r7, [r0, r7]
 800639c:	f805 7d01 	strb.w	r7, [r5, #-1]!
 80063a0:	4637      	mov	r7, r6
 80063a2:	42bb      	cmp	r3, r7
 80063a4:	460e      	mov	r6, r1
 80063a6:	d9f4      	bls.n	8006392 <_printf_i+0x11a>
 80063a8:	2b08      	cmp	r3, #8
 80063aa:	d10b      	bne.n	80063c4 <_printf_i+0x14c>
 80063ac:	6823      	ldr	r3, [r4, #0]
 80063ae:	07de      	lsls	r6, r3, #31
 80063b0:	d508      	bpl.n	80063c4 <_printf_i+0x14c>
 80063b2:	6923      	ldr	r3, [r4, #16]
 80063b4:	6861      	ldr	r1, [r4, #4]
 80063b6:	4299      	cmp	r1, r3
 80063b8:	bfde      	ittt	le
 80063ba:	2330      	movle	r3, #48	; 0x30
 80063bc:	f805 3c01 	strble.w	r3, [r5, #-1]
 80063c0:	f105 35ff 	addle.w	r5, r5, #4294967295
 80063c4:	1b52      	subs	r2, r2, r5
 80063c6:	6122      	str	r2, [r4, #16]
 80063c8:	f8cd a000 	str.w	sl, [sp]
 80063cc:	464b      	mov	r3, r9
 80063ce:	aa03      	add	r2, sp, #12
 80063d0:	4621      	mov	r1, r4
 80063d2:	4640      	mov	r0, r8
 80063d4:	f7ff fee2 	bl	800619c <_printf_common>
 80063d8:	3001      	adds	r0, #1
 80063da:	d14c      	bne.n	8006476 <_printf_i+0x1fe>
 80063dc:	f04f 30ff 	mov.w	r0, #4294967295
 80063e0:	b004      	add	sp, #16
 80063e2:	e8bd 87f0 	ldmia.w	sp!, {r4, r5, r6, r7, r8, r9, sl, pc}
 80063e6:	4835      	ldr	r0, [pc, #212]	; (80064bc <_printf_i+0x244>)
 80063e8:	f881 7045 	strb.w	r7, [r1, #69]	; 0x45
 80063ec:	6829      	ldr	r1, [r5, #0]
 80063ee:	6823      	ldr	r3, [r4, #0]
 80063f0:	f851 6b04 	ldr.w	r6, [r1], #4
 80063f4:	6029      	str	r1, [r5, #0]
 80063f6:	061d      	lsls	r5, r3, #24
 80063f8:	d514      	bpl.n	8006424 <_printf_i+0x1ac>
 80063fa:	07df      	lsls	r7, r3, #31
 80063fc:	bf44      	itt	mi
 80063fe:	f043 0320 	orrmi.w	r3, r3, #32
 8006402:	6023      	strmi	r3, [r4, #0]
 8006404:	b91e      	cbnz	r6, 800640e <_printf_i+0x196>
 8006406:	6823      	ldr	r3, [r4, #0]
 8006408:	f023 0320 	bic.w	r3, r3, #32
 800640c:	6023      	str	r3, [r4, #0]
 800640e:	2310      	movs	r3, #16
 8006410:	e7b0      	b.n	8006374 <_printf_i+0xfc>
 8006412:	6823      	ldr	r3, [r4, #0]
 8006414:	f043 0320 	orr.w	r3, r3, #32
 8006418:	6023      	str	r3, [r4, #0]
 800641a:	2378      	movs	r3, #120	; 0x78
 800641c:	4828      	ldr	r0, [pc, #160]	; (80064c0 <_printf_i+0x248>)
 800641e:	f884 3045 	strb.w	r3, [r4, #69]	; 0x45
 8006422:	e7e3      	b.n	80063ec <_printf_i+0x174>
 8006424:	0659      	lsls	r1, r3, #25
 8006426:	bf48      	it	mi
 8006428:	b2b6      	uxthmi	r6, r6
 800642a:	e7e6      	b.n	80063fa <_printf_i+0x182>
 800642c:	4615      	mov	r5, r2
 800642e:	e7bb      	b.n	80063a8 <_printf_i+0x130>
 8006430:	682b      	ldr	r3, [r5, #0]
 8006432:	6826      	ldr	r6, [r4, #0]
 8006434:	6961      	ldr	r1, [r4, #20]
 8006436:	1d18      	adds	r0, r3, #4
 8006438:	6028      	str	r0, [r5, #0]
 800643a:	0635      	lsls	r5, r6, #24
 800643c:	681b      	ldr	r3, [r3, #0]
 800643e:	d501      	bpl.n	8006444 <_printf_i+0x1cc>
 8006440:	6019      	str	r1, [r3, #0]
 8006442:	e002      	b.n	800644a <_printf_i+0x1d2>
 8006444:	0670      	lsls	r0, r6, #25
 8006446:	d5fb      	bpl.n	8006440 <_printf_i+0x1c8>
 8006448:	8019      	strh	r1, [r3, #0]
 800644a:	2300      	movs	r3, #0
 800644c:	6123      	str	r3, [r4, #16]
 800644e:	4615      	mov	r5, r2
 8006450:	e7ba      	b.n	80063c8 <_printf_i+0x150>
 8006452:	682b      	ldr	r3, [r5, #0]
 8006454:	1d1a      	adds	r2, r3, #4
 8006456:	602a      	str	r2, [r5, #0]
 8006458:	681d      	ldr	r5, [r3, #0]
 800645a:	6862      	ldr	r2, [r4, #4]
 800645c:	2100      	movs	r1, #0
 800645e:	4628      	mov	r0, r5
 8006460:	f7f9 fec6 	bl	80001f0 <memchr>
 8006464:	b108      	cbz	r0, 800646a <_printf_i+0x1f2>
 8006466:	1b40      	subs	r0, r0, r5
 8006468:	6060      	str	r0, [r4, #4]
 800646a:	6863      	ldr	r3, [r4, #4]
 800646c:	6123      	str	r3, [r4, #16]
 800646e:	2300      	movs	r3, #0
 8006470:	f884 3043 	strb.w	r3, [r4, #67]	; 0x43
 8006474:	e7a8      	b.n	80063c8 <_printf_i+0x150>
 8006476:	6923      	ldr	r3, [r4, #16]
 8006478:	462a      	mov	r2, r5
 800647a:	4649      	mov	r1, r9
 800647c:	4640      	mov	r0, r8
 800647e:	47d0      	blx	sl
 8006480:	3001      	adds	r0, #1
 8006482:	d0ab      	beq.n	80063dc <_printf_i+0x164>
 8006484:	6823      	ldr	r3, [r4, #0]
 8006486:	079b      	lsls	r3, r3, #30
 8006488:	d413      	bmi.n	80064b2 <_printf_i+0x23a>
 800648a:	68e0      	ldr	r0, [r4, #12]
 800648c:	9b03      	ldr	r3, [sp, #12]
 800648e:	4298      	cmp	r0, r3
 8006490:	bfb8      	it	lt
 8006492:	4618      	movlt	r0, r3
 8006494:	e7a4      	b.n	80063e0 <_printf_i+0x168>
 8006496:	2301      	movs	r3, #1
 8006498:	4632      	mov	r2, r6
 800649a:	4649      	mov	r1, r9
 800649c:	4640      	mov	r0, r8
 800649e:	47d0      	blx	sl
 80064a0:	3001      	adds	r0, #1
 80064a2:	d09b      	beq.n	80063dc <_printf_i+0x164>
 80064a4:	3501      	adds	r5, #1
 80064a6:	68e3      	ldr	r3, [r4, #12]
 80064a8:	9903      	ldr	r1, [sp, #12]
 80064aa:	1a5b      	subs	r3, r3, r1
 80064ac:	42ab      	cmp	r3, r5
 80064ae:	dcf2      	bgt.n	8006496 <_printf_i+0x21e>
 80064b0:	e7eb      	b.n	800648a <_printf_i+0x212>
 80064b2:	2500      	movs	r5, #0
 80064b4:	f104 0619 	add.w	r6, r4, #25
 80064b8:	e7f5      	b.n	80064a6 <_printf_i+0x22e>
 80064ba:	bf00      	nop
 80064bc:	0800a92a 	.word	0x0800a92a
 80064c0:	0800a93b 	.word	0x0800a93b

080064c4 <_sbrk_r>:
 80064c4:	b538      	push	{r3, r4, r5, lr}
 80064c6:	4d06      	ldr	r5, [pc, #24]	; (80064e0 <_sbrk_r+0x1c>)
 80064c8:	2300      	movs	r3, #0
 80064ca:	4604      	mov	r4, r0
 80064cc:	4608      	mov	r0, r1
 80064ce:	602b      	str	r3, [r5, #0]
 80064d0:	f004 f9a0 	bl	800a814 <_sbrk>
 80064d4:	1c43      	adds	r3, r0, #1
 80064d6:	d102      	bne.n	80064de <_sbrk_r+0x1a>
 80064d8:	682b      	ldr	r3, [r5, #0]
 80064da:	b103      	cbz	r3, 80064de <_sbrk_r+0x1a>
 80064dc:	6023      	str	r3, [r4, #0]
 80064de:	bd38      	pop	{r3, r4, r5, pc}
 80064e0:	200004ac 	.word	0x200004ac

080064e4 <__sread>:
 80064e4:	b510      	push	{r4, lr}
 80064e6:	460c      	mov	r4, r1
 80064e8:	f9b1 100e 	ldrsh.w	r1, [r1, #14]
 80064ec:	f001 faa4 	bl	8007a38 <_read_r>
 80064f0:	2800      	cmp	r0, #0
 80064f2:	bfab      	itete	ge
 80064f4:	6d63      	ldrge	r3, [r4, #84]	; 0x54
 80064f6:	89a3      	ldrhlt	r3, [r4, #12]
 80064f8:	181b      	addge	r3, r3, r0
 80064fa:	f423 5380 	biclt.w	r3, r3, #4096	; 0x1000
 80064fe:	bfac      	ite	ge
 8006500:	6563      	strge	r3, [r4, #84]	; 0x54
 8006502:	81a3      	strhlt	r3, [r4, #12]
 8006504:	bd10      	pop	{r4, pc}

08006506 <__swrite>:
 8006506:	e92d 41f0 	stmdb	sp!, {r4, r5, r6, r7, r8, lr}
 800650a:	461f      	mov	r7, r3
 800650c:	898b      	ldrh	r3, [r1, #12]
 800650e:	05db      	lsls	r3, r3, #23
 8006510:	4605      	mov	r5, r0
 8006512:	460c      	mov	r4, r1
 8006514:	4616      	mov	r6, r2
 8006516:	d505      	bpl.n	8006524 <__swrite+0x1e>
 8006518:	f9b1 100e 	ldrsh.w	r1, [r1, #14]
 800651c:	2302      	movs	r3, #2
 800651e:	2200      	movs	r2, #0
 8006520:	f000 fec4 	bl	80072ac <_lseek_r>
 8006524:	89a3      	ldrh	r3, [r4, #12]
 8006526:	f9b4 100e 	ldrsh.w	r1, [r4, #14]
 800652a:	f423 5380 	bic.w	r3, r3, #4096	; 0x1000
 800652e:	81a3      	strh	r3, [r4, #12]
 8006530:	4632      	mov	r2, r6
 8006532:	463b      	mov	r3, r7
 8006534:	4628      	mov	r0, r5
 8006536:	e8bd 41f0 	ldmia.w	sp!, {r4, r5, r6, r7, r8, lr}
 800653a:	f000 b817 	b.w	800656c <_write_r>

0800653e <__sseek>:
 800653e:	b510      	push	{r4, lr}
 8006540:	460c      	mov	r4, r1
 8006542:	f9b1 100e 	ldrsh.w	r1, [r1, #14]
 8006546:	f000 feb1 	bl	80072ac <_lseek_r>
 800654a:	1c43      	adds	r3, r0, #1
 800654c:	89a3      	ldrh	r3, [r4, #12]
 800654e:	bf15      	itete	ne
 8006550:	6560      	strne	r0, [r4, #84]	; 0x54
 8006552:	f423 5380 	biceq.w	r3, r3, #4096	; 0x1000
 8006556:	f443 5380 	orrne.w	r3, r3, #4096	; 0x1000
 800655a:	81a3      	strheq	r3, [r4, #12]
 800655c:	bf18      	it	ne
 800655e:	81a3      	strhne	r3, [r4, #12]
 8006560:	bd10      	pop	{r4, pc}

08006562 <__sclose>:
 8006562:	f9b1 100e 	ldrsh.w	r1, [r1, #14]
 8006566:	f000 b813 	b.w	8006590 <_close_r>
	...

0800656c <_write_r>:
 800656c:	b538      	push	{r3, r4, r5, lr}
 800656e:	4d07      	ldr	r5, [pc, #28]	; (800658c <_write_r+0x20>)
 8006570:	4604      	mov	r4, r0
 8006572:	4608      	mov	r0, r1
 8006574:	4611      	mov	r1, r2
 8006576:	2200      	movs	r2, #0
 8006578:	602a      	str	r2, [r5, #0]
 800657a:	461a      	mov	r2, r3
 800657c:	f7fb fa21 	bl	80019c2 <_write>
 8006580:	1c43      	adds	r3, r0, #1
 8006582:	d102      	bne.n	800658a <_write_r+0x1e>
 8006584:	682b      	ldr	r3, [r5, #0]
 8006586:	b103      	cbz	r3, 800658a <_write_r+0x1e>
 8006588:	6023      	str	r3, [r4, #0]
 800658a:	bd38      	pop	{r3, r4, r5, pc}
 800658c:	200004ac 	.word	0x200004ac

08006590 <_close_r>:
 8006590:	b538      	push	{r3, r4, r5, lr}
 8006592:	4d06      	ldr	r5, [pc, #24]	; (80065ac <_close_r+0x1c>)
 8006594:	2300      	movs	r3, #0
 8006596:	4604      	mov	r4, r0
 8006598:	4608      	mov	r0, r1
 800659a:	602b      	str	r3, [r5, #0]
 800659c:	f7fb fa2d 	bl	80019fa <_close>
 80065a0:	1c43      	adds	r3, r0, #1
 80065a2:	d102      	bne.n	80065aa <_close_r+0x1a>
 80065a4:	682b      	ldr	r3, [r5, #0]
 80065a6:	b103      	cbz	r3, 80065aa <_close_r+0x1a>
 80065a8:	6023      	str	r3, [r4, #0]
 80065aa:	bd38      	pop	{r3, r4, r5, pc}
 80065ac:	200004ac 	.word	0x200004ac

080065b0 <quorem>:
 80065b0:	e92d 4ff7 	stmdb	sp!, {r0, r1, r2, r4, r5, r6, r7, r8, r9, sl, fp, lr}
 80065b4:	6903      	ldr	r3, [r0, #16]
 80065b6:	690c      	ldr	r4, [r1, #16]
 80065b8:	42a3      	cmp	r3, r4
 80065ba:	4607      	mov	r7, r0
 80065bc:	f2c0 8081 	blt.w	80066c2 <quorem+0x112>
 80065c0:	3c01      	subs	r4, #1
 80065c2:	f101 0814 	add.w	r8, r1, #20
 80065c6:	f100 0514 	add.w	r5, r0, #20
 80065ca:	eb05 0384 	add.w	r3, r5, r4, lsl #2
 80065ce:	9301      	str	r3, [sp, #4]
 80065d0:	f858 3024 	ldr.w	r3, [r8, r4, lsl #2]
 80065d4:	f855 2024 	ldr.w	r2, [r5, r4, lsl #2]
 80065d8:	3301      	adds	r3, #1
 80065da:	429a      	cmp	r2, r3
 80065dc:	ea4f 0b84 	mov.w	fp, r4, lsl #2
 80065e0:	eb08 0984 	add.w	r9, r8, r4, lsl #2
 80065e4:	fbb2 f6f3 	udiv	r6, r2, r3
 80065e8:	d331      	bcc.n	800664e <quorem+0x9e>
 80065ea:	f04f 0e00 	mov.w	lr, #0
 80065ee:	4640      	mov	r0, r8
 80065f0:	46ac      	mov	ip, r5
 80065f2:	46f2      	mov	sl, lr
 80065f4:	f850 2b04 	ldr.w	r2, [r0], #4
 80065f8:	b293      	uxth	r3, r2
 80065fa:	fb06 e303 	mla	r3, r6, r3, lr
 80065fe:	ea4f 4e13 	mov.w	lr, r3, lsr #16
 8006602:	b29b      	uxth	r3, r3
 8006604:	ebaa 0303 	sub.w	r3, sl, r3
 8006608:	f8dc a000 	ldr.w	sl, [ip]
 800660c:	0c12      	lsrs	r2, r2, #16
 800660e:	fa13 f38a 	uxtah	r3, r3, sl
 8006612:	fb06 e202 	mla	r2, r6, r2, lr
 8006616:	9300      	str	r3, [sp, #0]
 8006618:	9b00      	ldr	r3, [sp, #0]
 800661a:	ea4f 4e12 	mov.w	lr, r2, lsr #16
 800661e:	b292      	uxth	r2, r2
 8006620:	ebc2 421a 	rsb	r2, r2, sl, lsr #16
 8006624:	eb02 4223 	add.w	r2, r2, r3, asr #16
 8006628:	f8bd 3000 	ldrh.w	r3, [sp]
 800662c:	4581      	cmp	r9, r0
 800662e:	ea43 4302 	orr.w	r3, r3, r2, lsl #16
 8006632:	f84c 3b04 	str.w	r3, [ip], #4
 8006636:	ea4f 4a22 	mov.w	sl, r2, asr #16
 800663a:	d2db      	bcs.n	80065f4 <quorem+0x44>
 800663c:	f855 300b 	ldr.w	r3, [r5, fp]
 8006640:	b92b      	cbnz	r3, 800664e <quorem+0x9e>
 8006642:	9b01      	ldr	r3, [sp, #4]
 8006644:	3b04      	subs	r3, #4
 8006646:	429d      	cmp	r5, r3
 8006648:	461a      	mov	r2, r3
 800664a:	d32e      	bcc.n	80066aa <quorem+0xfa>
 800664c:	613c      	str	r4, [r7, #16]
 800664e:	4638      	mov	r0, r7
 8006650:	f001 f8da 	bl	8007808 <__mcmp>
 8006654:	2800      	cmp	r0, #0
 8006656:	db24      	blt.n	80066a2 <quorem+0xf2>
 8006658:	3601      	adds	r6, #1
 800665a:	4628      	mov	r0, r5
 800665c:	f04f 0c00 	mov.w	ip, #0
 8006660:	f858 2b04 	ldr.w	r2, [r8], #4
 8006664:	f8d0 e000 	ldr.w	lr, [r0]
 8006668:	b293      	uxth	r3, r2
 800666a:	ebac 0303 	sub.w	r3, ip, r3
 800666e:	0c12      	lsrs	r2, r2, #16
 8006670:	fa13 f38e 	uxtah	r3, r3, lr
 8006674:	ebc2 421e 	rsb	r2, r2, lr, lsr #16
 8006678:	eb02 4223 	add.w	r2, r2, r3, asr #16
 800667c:	b29b      	uxth	r3, r3
 800667e:	ea43 4302 	orr.w	r3, r3, r2, lsl #16
 8006682:	45c1      	cmp	r9, r8
 8006684:	f840 3b04 	str.w	r3, [r0], #4
 8006688:	ea4f 4c22 	mov.w	ip, r2, asr #16
 800668c:	d2e8      	bcs.n	8006660 <quorem+0xb0>
 800668e:	f855 2024 	ldr.w	r2, [r5, r4, lsl #2]
 8006692:	eb05 0384 	add.w	r3, r5, r4, lsl #2
 8006696:	b922      	cbnz	r2, 80066a2 <quorem+0xf2>
 8006698:	3b04      	subs	r3, #4
 800669a:	429d      	cmp	r5, r3
 800669c:	461a      	mov	r2, r3
 800669e:	d30a      	bcc.n	80066b6 <quorem+0x106>
 80066a0:	613c      	str	r4, [r7, #16]
 80066a2:	4630      	mov	r0, r6
 80066a4:	b003      	add	sp, #12
 80066a6:	e8bd 8ff0 	ldmia.w	sp!, {r4, r5, r6, r7, r8, r9, sl, fp, pc}
 80066aa:	6812      	ldr	r2, [r2, #0]
 80066ac:	3b04      	subs	r3, #4
 80066ae:	2a00      	cmp	r2, #0
 80066b0:	d1cc      	bne.n	800664c <quorem+0x9c>
 80066b2:	3c01      	subs	r4, #1
 80066b4:	e7c7      	b.n	8006646 <quorem+0x96>
 80066b6:	6812      	ldr	r2, [r2, #0]
 80066b8:	3b04      	subs	r3, #4
 80066ba:	2a00      	cmp	r2, #0
 80066bc:	d1f0      	bne.n	80066a0 <quorem+0xf0>
 80066be:	3c01      	subs	r4, #1
 80066c0:	e7eb      	b.n	800669a <quorem+0xea>
 80066c2:	2000      	movs	r0, #0
 80066c4:	e7ee      	b.n	80066a4 <quorem+0xf4>
	...

080066c8 <_dtoa_r>:
 80066c8:	e92d 4ff0 	stmdb	sp!, {r4, r5, r6, r7, r8, r9, sl, fp, lr}
 80066cc:	ed2d 8b04 	vpush	{d8-d9}
 80066d0:	ec57 6b10 	vmov	r6, r7, d0
 80066d4:	b093      	sub	sp, #76	; 0x4c
 80066d6:	6a45      	ldr	r5, [r0, #36]	; 0x24
 80066d8:	f8dd 8080 	ldr.w	r8, [sp, #128]	; 0x80
 80066dc:	9106      	str	r1, [sp, #24]
 80066de:	ee10 aa10 	vmov	sl, s0
 80066e2:	4604      	mov	r4, r0
 80066e4:	9209      	str	r2, [sp, #36]	; 0x24
 80066e6:	930c      	str	r3, [sp, #48]	; 0x30
 80066e8:	46bb      	mov	fp, r7
 80066ea:	b975      	cbnz	r5, 800670a <_dtoa_r+0x42>
 80066ec:	2010      	movs	r0, #16
 80066ee:	f7ff f98f 	bl	8005a10 <malloc>
 80066f2:	4602      	mov	r2, r0
 80066f4:	6260      	str	r0, [r4, #36]	; 0x24
 80066f6:	b920      	cbnz	r0, 8006702 <_dtoa_r+0x3a>
 80066f8:	4ba7      	ldr	r3, [pc, #668]	; (8006998 <_dtoa_r+0x2d0>)
 80066fa:	21ea      	movs	r1, #234	; 0xea
 80066fc:	48a7      	ldr	r0, [pc, #668]	; (800699c <_dtoa_r+0x2d4>)
 80066fe:	f001 f9ad 	bl	8007a5c <__assert_func>
 8006702:	e9c0 5501 	strd	r5, r5, [r0, #4]
 8006706:	6005      	str	r5, [r0, #0]
 8006708:	60c5      	str	r5, [r0, #12]
 800670a:	6a63      	ldr	r3, [r4, #36]	; 0x24
 800670c:	6819      	ldr	r1, [r3, #0]
 800670e:	b151      	cbz	r1, 8006726 <_dtoa_r+0x5e>
 8006710:	685a      	ldr	r2, [r3, #4]
 8006712:	604a      	str	r2, [r1, #4]
 8006714:	2301      	movs	r3, #1
 8006716:	4093      	lsls	r3, r2
 8006718:	608b      	str	r3, [r1, #8]
 800671a:	4620      	mov	r0, r4
 800671c:	f000 fe32 	bl	8007384 <_Bfree>
 8006720:	6a63      	ldr	r3, [r4, #36]	; 0x24
 8006722:	2200      	movs	r2, #0
 8006724:	601a      	str	r2, [r3, #0]
 8006726:	1e3b      	subs	r3, r7, #0
 8006728:	bfaa      	itet	ge
 800672a:	2300      	movge	r3, #0
 800672c:	f023 4b00 	biclt.w	fp, r3, #2147483648	; 0x80000000
 8006730:	f8c8 3000 	strge.w	r3, [r8]
 8006734:	4b9a      	ldr	r3, [pc, #616]	; (80069a0 <_dtoa_r+0x2d8>)
 8006736:	bfbc      	itt	lt
 8006738:	2201      	movlt	r2, #1
 800673a:	f8c8 2000 	strlt.w	r2, [r8]
 800673e:	ea33 030b 	bics.w	r3, r3, fp
 8006742:	d11b      	bne.n	800677c <_dtoa_r+0xb4>
 8006744:	9a0c      	ldr	r2, [sp, #48]	; 0x30
 8006746:	f242 730f 	movw	r3, #9999	; 0x270f
 800674a:	6013      	str	r3, [r2, #0]
 800674c:	f3cb 0313 	ubfx	r3, fp, #0, #20
 8006750:	4333      	orrs	r3, r6
 8006752:	f000 8592 	beq.w	800727a <_dtoa_r+0xbb2>
 8006756:	9b21      	ldr	r3, [sp, #132]	; 0x84
 8006758:	b963      	cbnz	r3, 8006774 <_dtoa_r+0xac>
 800675a:	4b92      	ldr	r3, [pc, #584]	; (80069a4 <_dtoa_r+0x2dc>)
 800675c:	e022      	b.n	80067a4 <_dtoa_r+0xdc>
 800675e:	4b92      	ldr	r3, [pc, #584]	; (80069a8 <_dtoa_r+0x2e0>)
 8006760:	9301      	str	r3, [sp, #4]
 8006762:	3308      	adds	r3, #8
 8006764:	9a21      	ldr	r2, [sp, #132]	; 0x84
 8006766:	6013      	str	r3, [r2, #0]
 8006768:	9801      	ldr	r0, [sp, #4]
 800676a:	b013      	add	sp, #76	; 0x4c
 800676c:	ecbd 8b04 	vpop	{d8-d9}
 8006770:	e8bd 8ff0 	ldmia.w	sp!, {r4, r5, r6, r7, r8, r9, sl, fp, pc}
 8006774:	4b8b      	ldr	r3, [pc, #556]	; (80069a4 <_dtoa_r+0x2dc>)
 8006776:	9301      	str	r3, [sp, #4]
 8006778:	3303      	adds	r3, #3
 800677a:	e7f3      	b.n	8006764 <_dtoa_r+0x9c>
 800677c:	2200      	movs	r2, #0
 800677e:	2300      	movs	r3, #0
 8006780:	4650      	mov	r0, sl
 8006782:	4659      	mov	r1, fp
 8006784:	f7fa f9a8 	bl	8000ad8 <__aeabi_dcmpeq>
 8006788:	ec4b ab19 	vmov	d9, sl, fp
 800678c:	4680      	mov	r8, r0
 800678e:	b158      	cbz	r0, 80067a8 <_dtoa_r+0xe0>
 8006790:	9a0c      	ldr	r2, [sp, #48]	; 0x30
 8006792:	2301      	movs	r3, #1
 8006794:	6013      	str	r3, [r2, #0]
 8006796:	9b21      	ldr	r3, [sp, #132]	; 0x84
 8006798:	2b00      	cmp	r3, #0
 800679a:	f000 856b 	beq.w	8007274 <_dtoa_r+0xbac>
 800679e:	4883      	ldr	r0, [pc, #524]	; (80069ac <_dtoa_r+0x2e4>)
 80067a0:	6018      	str	r0, [r3, #0]
 80067a2:	1e43      	subs	r3, r0, #1
 80067a4:	9301      	str	r3, [sp, #4]
 80067a6:	e7df      	b.n	8006768 <_dtoa_r+0xa0>
 80067a8:	ec4b ab10 	vmov	d0, sl, fp
 80067ac:	aa10      	add	r2, sp, #64	; 0x40
 80067ae:	a911      	add	r1, sp, #68	; 0x44
 80067b0:	4620      	mov	r0, r4
 80067b2:	f001 f8cf 	bl	8007954 <__d2b>
 80067b6:	f3cb 550a 	ubfx	r5, fp, #20, #11
 80067ba:	ee08 0a10 	vmov	s16, r0
 80067be:	2d00      	cmp	r5, #0
 80067c0:	f000 8084 	beq.w	80068cc <_dtoa_r+0x204>
 80067c4:	ee19 3a90 	vmov	r3, s19
 80067c8:	f3c3 0313 	ubfx	r3, r3, #0, #20
 80067cc:	f043 577f 	orr.w	r7, r3, #1069547520	; 0x3fc00000
 80067d0:	4656      	mov	r6, sl
 80067d2:	f447 1740 	orr.w	r7, r7, #3145728	; 0x300000
 80067d6:	f2a5 35ff 	subw	r5, r5, #1023	; 0x3ff
 80067da:	f8cd 8038 	str.w	r8, [sp, #56]	; 0x38
 80067de:	4b74      	ldr	r3, [pc, #464]	; (80069b0 <_dtoa_r+0x2e8>)
 80067e0:	2200      	movs	r2, #0
 80067e2:	4630      	mov	r0, r6
 80067e4:	4639      	mov	r1, r7
 80067e6:	f7f9 fd57 	bl	8000298 <__aeabi_dsub>
 80067ea:	a365      	add	r3, pc, #404	; (adr r3, 8006980 <_dtoa_r+0x2b8>)
 80067ec:	e9d3 2300 	ldrd	r2, r3, [r3]
 80067f0:	f7f9 ff0a 	bl	8000608 <__aeabi_dmul>
 80067f4:	a364      	add	r3, pc, #400	; (adr r3, 8006988 <_dtoa_r+0x2c0>)
 80067f6:	e9d3 2300 	ldrd	r2, r3, [r3]
 80067fa:	f7f9 fd4f 	bl	800029c <__adddf3>
 80067fe:	4606      	mov	r6, r0
 8006800:	4628      	mov	r0, r5
 8006802:	460f      	mov	r7, r1
 8006804:	f7f9 fe96 	bl	8000534 <__aeabi_i2d>
 8006808:	a361      	add	r3, pc, #388	; (adr r3, 8006990 <_dtoa_r+0x2c8>)
 800680a:	e9d3 2300 	ldrd	r2, r3, [r3]
 800680e:	f7f9 fefb 	bl	8000608 <__aeabi_dmul>
 8006812:	4602      	mov	r2, r0
 8006814:	460b      	mov	r3, r1
 8006816:	4630      	mov	r0, r6
 8006818:	4639      	mov	r1, r7
 800681a:	f7f9 fd3f 	bl	800029c <__adddf3>
 800681e:	4606      	mov	r6, r0
 8006820:	460f      	mov	r7, r1
 8006822:	f7fa f9a1 	bl	8000b68 <__aeabi_d2iz>
 8006826:	2200      	movs	r2, #0
 8006828:	9000      	str	r0, [sp, #0]
 800682a:	2300      	movs	r3, #0
 800682c:	4630      	mov	r0, r6
 800682e:	4639      	mov	r1, r7
 8006830:	f7fa f95c 	bl	8000aec <__aeabi_dcmplt>
 8006834:	b150      	cbz	r0, 800684c <_dtoa_r+0x184>
 8006836:	9800      	ldr	r0, [sp, #0]
 8006838:	f7f9 fe7c 	bl	8000534 <__aeabi_i2d>
 800683c:	4632      	mov	r2, r6
 800683e:	463b      	mov	r3, r7
 8006840:	f7fa f94a 	bl	8000ad8 <__aeabi_dcmpeq>
 8006844:	b910      	cbnz	r0, 800684c <_dtoa_r+0x184>
 8006846:	9b00      	ldr	r3, [sp, #0]
 8006848:	3b01      	subs	r3, #1
 800684a:	9300      	str	r3, [sp, #0]
 800684c:	9b00      	ldr	r3, [sp, #0]
 800684e:	2b16      	cmp	r3, #22
 8006850:	d85a      	bhi.n	8006908 <_dtoa_r+0x240>
 8006852:	9a00      	ldr	r2, [sp, #0]
 8006854:	4b57      	ldr	r3, [pc, #348]	; (80069b4 <_dtoa_r+0x2ec>)
 8006856:	eb03 03c2 	add.w	r3, r3, r2, lsl #3
 800685a:	e9d3 2300 	ldrd	r2, r3, [r3]
 800685e:	ec51 0b19 	vmov	r0, r1, d9
 8006862:	f7fa f943 	bl	8000aec <__aeabi_dcmplt>
 8006866:	2800      	cmp	r0, #0
 8006868:	d050      	beq.n	800690c <_dtoa_r+0x244>
 800686a:	9b00      	ldr	r3, [sp, #0]
 800686c:	3b01      	subs	r3, #1
 800686e:	9300      	str	r3, [sp, #0]
 8006870:	2300      	movs	r3, #0
 8006872:	930b      	str	r3, [sp, #44]	; 0x2c
 8006874:	9b10      	ldr	r3, [sp, #64]	; 0x40
 8006876:	1b5d      	subs	r5, r3, r5
 8006878:	1e6b      	subs	r3, r5, #1
 800687a:	9305      	str	r3, [sp, #20]
 800687c:	bf45      	ittet	mi
 800687e:	f1c5 0301 	rsbmi	r3, r5, #1
 8006882:	9304      	strmi	r3, [sp, #16]
 8006884:	2300      	movpl	r3, #0
 8006886:	2300      	movmi	r3, #0
 8006888:	bf4c      	ite	mi
 800688a:	9305      	strmi	r3, [sp, #20]
 800688c:	9304      	strpl	r3, [sp, #16]
 800688e:	9b00      	ldr	r3, [sp, #0]
 8006890:	2b00      	cmp	r3, #0
 8006892:	db3d      	blt.n	8006910 <_dtoa_r+0x248>
 8006894:	9b05      	ldr	r3, [sp, #20]
 8006896:	9a00      	ldr	r2, [sp, #0]
 8006898:	920a      	str	r2, [sp, #40]	; 0x28
 800689a:	4413      	add	r3, r2
 800689c:	9305      	str	r3, [sp, #20]
 800689e:	2300      	movs	r3, #0
 80068a0:	9307      	str	r3, [sp, #28]
 80068a2:	9b06      	ldr	r3, [sp, #24]
 80068a4:	2b09      	cmp	r3, #9
 80068a6:	f200 8089 	bhi.w	80069bc <_dtoa_r+0x2f4>
 80068aa:	2b05      	cmp	r3, #5
 80068ac:	bfc4      	itt	gt
 80068ae:	3b04      	subgt	r3, #4
 80068b0:	9306      	strgt	r3, [sp, #24]
 80068b2:	9b06      	ldr	r3, [sp, #24]
 80068b4:	f1a3 0302 	sub.w	r3, r3, #2
 80068b8:	bfcc      	ite	gt
 80068ba:	2500      	movgt	r5, #0
 80068bc:	2501      	movle	r5, #1
 80068be:	2b03      	cmp	r3, #3
 80068c0:	f200 8087 	bhi.w	80069d2 <_dtoa_r+0x30a>
 80068c4:	e8df f003 	tbb	[pc, r3]
 80068c8:	59383a2d 	.word	0x59383a2d
 80068cc:	e9dd 5310 	ldrd	r5, r3, [sp, #64]	; 0x40
 80068d0:	441d      	add	r5, r3
 80068d2:	f205 4332 	addw	r3, r5, #1074	; 0x432
 80068d6:	2b20      	cmp	r3, #32
 80068d8:	bfc1      	itttt	gt
 80068da:	f1c3 0340 	rsbgt	r3, r3, #64	; 0x40
 80068de:	f205 4012 	addwgt	r0, r5, #1042	; 0x412
 80068e2:	fa0b f303 	lslgt.w	r3, fp, r3
 80068e6:	fa26 f000 	lsrgt.w	r0, r6, r0
 80068ea:	bfda      	itte	le
 80068ec:	f1c3 0320 	rsble	r3, r3, #32
 80068f0:	fa06 f003 	lslle.w	r0, r6, r3
 80068f4:	4318      	orrgt	r0, r3
 80068f6:	f7f9 fe0d 	bl	8000514 <__aeabi_ui2d>
 80068fa:	2301      	movs	r3, #1
 80068fc:	4606      	mov	r6, r0
 80068fe:	f1a1 77f8 	sub.w	r7, r1, #32505856	; 0x1f00000
 8006902:	3d01      	subs	r5, #1
 8006904:	930e      	str	r3, [sp, #56]	; 0x38
 8006906:	e76a      	b.n	80067de <_dtoa_r+0x116>
 8006908:	2301      	movs	r3, #1
 800690a:	e7b2      	b.n	8006872 <_dtoa_r+0x1aa>
 800690c:	900b      	str	r0, [sp, #44]	; 0x2c
 800690e:	e7b1      	b.n	8006874 <_dtoa_r+0x1ac>
 8006910:	9b04      	ldr	r3, [sp, #16]
 8006912:	9a00      	ldr	r2, [sp, #0]
 8006914:	1a9b      	subs	r3, r3, r2
 8006916:	9304      	str	r3, [sp, #16]
 8006918:	4253      	negs	r3, r2
 800691a:	9307      	str	r3, [sp, #28]
 800691c:	2300      	movs	r3, #0
 800691e:	930a      	str	r3, [sp, #40]	; 0x28
 8006920:	e7bf      	b.n	80068a2 <_dtoa_r+0x1da>
 8006922:	2300      	movs	r3, #0
 8006924:	9308      	str	r3, [sp, #32]
 8006926:	9b09      	ldr	r3, [sp, #36]	; 0x24
 8006928:	2b00      	cmp	r3, #0
 800692a:	dc55      	bgt.n	80069d8 <_dtoa_r+0x310>
 800692c:	2301      	movs	r3, #1
 800692e:	e9cd 3302 	strd	r3, r3, [sp, #8]
 8006932:	461a      	mov	r2, r3
 8006934:	9209      	str	r2, [sp, #36]	; 0x24
 8006936:	e00c      	b.n	8006952 <_dtoa_r+0x28a>
 8006938:	2301      	movs	r3, #1
 800693a:	e7f3      	b.n	8006924 <_dtoa_r+0x25c>
 800693c:	2300      	movs	r3, #0
 800693e:	9a09      	ldr	r2, [sp, #36]	; 0x24
 8006940:	9308      	str	r3, [sp, #32]
 8006942:	9b00      	ldr	r3, [sp, #0]
 8006944:	4413      	add	r3, r2
 8006946:	9302      	str	r3, [sp, #8]
 8006948:	3301      	adds	r3, #1
 800694a:	2b01      	cmp	r3, #1
 800694c:	9303      	str	r3, [sp, #12]
 800694e:	bfb8      	it	lt
 8006950:	2301      	movlt	r3, #1
 8006952:	6a60      	ldr	r0, [r4, #36]	; 0x24
 8006954:	2200      	movs	r2, #0
 8006956:	6042      	str	r2, [r0, #4]
 8006958:	2204      	movs	r2, #4
 800695a:	f102 0614 	add.w	r6, r2, #20
 800695e:	429e      	cmp	r6, r3
 8006960:	6841      	ldr	r1, [r0, #4]
 8006962:	d93d      	bls.n	80069e0 <_dtoa_r+0x318>
 8006964:	4620      	mov	r0, r4
 8006966:	f000 fccd 	bl	8007304 <_Balloc>
 800696a:	9001      	str	r0, [sp, #4]
 800696c:	2800      	cmp	r0, #0
 800696e:	d13b      	bne.n	80069e8 <_dtoa_r+0x320>
 8006970:	4b11      	ldr	r3, [pc, #68]	; (80069b8 <_dtoa_r+0x2f0>)
 8006972:	4602      	mov	r2, r0
 8006974:	f44f 71d5 	mov.w	r1, #426	; 0x1aa
 8006978:	e6c0      	b.n	80066fc <_dtoa_r+0x34>
 800697a:	2301      	movs	r3, #1
 800697c:	e7df      	b.n	800693e <_dtoa_r+0x276>
 800697e:	bf00      	nop
 8006980:	636f4361 	.word	0x636f4361
 8006984:	3fd287a7 	.word	0x3fd287a7
 8006988:	8b60c8b3 	.word	0x8b60c8b3
 800698c:	3fc68a28 	.word	0x3fc68a28
 8006990:	509f79fb 	.word	0x509f79fb
 8006994:	3fd34413 	.word	0x3fd34413
 8006998:	0800a959 	.word	0x0800a959
 800699c:	0800a970 	.word	0x0800a970
 80069a0:	7ff00000 	.word	0x7ff00000
 80069a4:	0800a955 	.word	0x0800a955
 80069a8:	0800a94c 	.word	0x0800a94c
 80069ac:	0800a929 	.word	0x0800a929
 80069b0:	3ff80000 	.word	0x3ff80000
 80069b4:	0800aa60 	.word	0x0800aa60
 80069b8:	0800a9cb 	.word	0x0800a9cb
 80069bc:	2501      	movs	r5, #1
 80069be:	2300      	movs	r3, #0
 80069c0:	9306      	str	r3, [sp, #24]
 80069c2:	9508      	str	r5, [sp, #32]
 80069c4:	f04f 33ff 	mov.w	r3, #4294967295
 80069c8:	e9cd 3302 	strd	r3, r3, [sp, #8]
 80069cc:	2200      	movs	r2, #0
 80069ce:	2312      	movs	r3, #18
 80069d0:	e7b0      	b.n	8006934 <_dtoa_r+0x26c>
 80069d2:	2301      	movs	r3, #1
 80069d4:	9308      	str	r3, [sp, #32]
 80069d6:	e7f5      	b.n	80069c4 <_dtoa_r+0x2fc>
 80069d8:	9b09      	ldr	r3, [sp, #36]	; 0x24
 80069da:	e9cd 3302 	strd	r3, r3, [sp, #8]
 80069de:	e7b8      	b.n	8006952 <_dtoa_r+0x28a>
 80069e0:	3101      	adds	r1, #1
 80069e2:	6041      	str	r1, [r0, #4]
 80069e4:	0052      	lsls	r2, r2, #1
 80069e6:	e7b8      	b.n	800695a <_dtoa_r+0x292>
 80069e8:	6a63      	ldr	r3, [r4, #36]	; 0x24
 80069ea:	9a01      	ldr	r2, [sp, #4]
 80069ec:	601a      	str	r2, [r3, #0]
 80069ee:	9b03      	ldr	r3, [sp, #12]
 80069f0:	2b0e      	cmp	r3, #14
 80069f2:	f200 809d 	bhi.w	8006b30 <_dtoa_r+0x468>
 80069f6:	2d00      	cmp	r5, #0
 80069f8:	f000 809a 	beq.w	8006b30 <_dtoa_r+0x468>
 80069fc:	9b00      	ldr	r3, [sp, #0]
 80069fe:	2b00      	cmp	r3, #0
 8006a00:	dd32      	ble.n	8006a68 <_dtoa_r+0x3a0>
 8006a02:	4ab7      	ldr	r2, [pc, #732]	; (8006ce0 <_dtoa_r+0x618>)
 8006a04:	f003 030f 	and.w	r3, r3, #15
 8006a08:	eb02 03c3 	add.w	r3, r2, r3, lsl #3
 8006a0c:	e9d3 8900 	ldrd	r8, r9, [r3]
 8006a10:	9b00      	ldr	r3, [sp, #0]
 8006a12:	05d8      	lsls	r0, r3, #23
 8006a14:	ea4f 1723 	mov.w	r7, r3, asr #4
 8006a18:	d516      	bpl.n	8006a48 <_dtoa_r+0x380>
 8006a1a:	4bb2      	ldr	r3, [pc, #712]	; (8006ce4 <_dtoa_r+0x61c>)
 8006a1c:	ec51 0b19 	vmov	r0, r1, d9
 8006a20:	e9d3 2308 	ldrd	r2, r3, [r3, #32]
 8006a24:	f7f9 ff1a 	bl	800085c <__aeabi_ddiv>
 8006a28:	f007 070f 	and.w	r7, r7, #15
 8006a2c:	4682      	mov	sl, r0
 8006a2e:	468b      	mov	fp, r1
 8006a30:	2503      	movs	r5, #3
 8006a32:	4eac      	ldr	r6, [pc, #688]	; (8006ce4 <_dtoa_r+0x61c>)
 8006a34:	b957      	cbnz	r7, 8006a4c <_dtoa_r+0x384>
 8006a36:	4642      	mov	r2, r8
 8006a38:	464b      	mov	r3, r9
 8006a3a:	4650      	mov	r0, sl
 8006a3c:	4659      	mov	r1, fp
 8006a3e:	f7f9 ff0d 	bl	800085c <__aeabi_ddiv>
 8006a42:	4682      	mov	sl, r0
 8006a44:	468b      	mov	fp, r1
 8006a46:	e028      	b.n	8006a9a <_dtoa_r+0x3d2>
 8006a48:	2502      	movs	r5, #2
 8006a4a:	e7f2      	b.n	8006a32 <_dtoa_r+0x36a>
 8006a4c:	07f9      	lsls	r1, r7, #31
 8006a4e:	d508      	bpl.n	8006a62 <_dtoa_r+0x39a>
 8006a50:	4640      	mov	r0, r8
 8006a52:	4649      	mov	r1, r9
 8006a54:	e9d6 2300 	ldrd	r2, r3, [r6]
 8006a58:	f7f9 fdd6 	bl	8000608 <__aeabi_dmul>
 8006a5c:	3501      	adds	r5, #1
 8006a5e:	4680      	mov	r8, r0
 8006a60:	4689      	mov	r9, r1
 8006a62:	107f      	asrs	r7, r7, #1
 8006a64:	3608      	adds	r6, #8
 8006a66:	e7e5      	b.n	8006a34 <_dtoa_r+0x36c>
 8006a68:	f000 809b 	beq.w	8006ba2 <_dtoa_r+0x4da>
 8006a6c:	9b00      	ldr	r3, [sp, #0]
 8006a6e:	4f9d      	ldr	r7, [pc, #628]	; (8006ce4 <_dtoa_r+0x61c>)
 8006a70:	425e      	negs	r6, r3
 8006a72:	4b9b      	ldr	r3, [pc, #620]	; (8006ce0 <_dtoa_r+0x618>)
 8006a74:	f006 020f 	and.w	r2, r6, #15
 8006a78:	eb03 03c2 	add.w	r3, r3, r2, lsl #3
 8006a7c:	e9d3 2300 	ldrd	r2, r3, [r3]
 8006a80:	ec51 0b19 	vmov	r0, r1, d9
 8006a84:	f7f9 fdc0 	bl	8000608 <__aeabi_dmul>
 8006a88:	1136      	asrs	r6, r6, #4
 8006a8a:	4682      	mov	sl, r0
 8006a8c:	468b      	mov	fp, r1
 8006a8e:	2300      	movs	r3, #0
 8006a90:	2502      	movs	r5, #2
 8006a92:	2e00      	cmp	r6, #0
 8006a94:	d17a      	bne.n	8006b8c <_dtoa_r+0x4c4>
 8006a96:	2b00      	cmp	r3, #0
 8006a98:	d1d3      	bne.n	8006a42 <_dtoa_r+0x37a>
 8006a9a:	9b0b      	ldr	r3, [sp, #44]	; 0x2c
 8006a9c:	2b00      	cmp	r3, #0
 8006a9e:	f000 8082 	beq.w	8006ba6 <_dtoa_r+0x4de>
 8006aa2:	4b91      	ldr	r3, [pc, #580]	; (8006ce8 <_dtoa_r+0x620>)
 8006aa4:	2200      	movs	r2, #0
 8006aa6:	4650      	mov	r0, sl
 8006aa8:	4659      	mov	r1, fp
 8006aaa:	f7fa f81f 	bl	8000aec <__aeabi_dcmplt>
 8006aae:	2800      	cmp	r0, #0
 8006ab0:	d079      	beq.n	8006ba6 <_dtoa_r+0x4de>
 8006ab2:	9b03      	ldr	r3, [sp, #12]
 8006ab4:	2b00      	cmp	r3, #0
 8006ab6:	d076      	beq.n	8006ba6 <_dtoa_r+0x4de>
 8006ab8:	9b02      	ldr	r3, [sp, #8]
 8006aba:	2b00      	cmp	r3, #0
 8006abc:	dd36      	ble.n	8006b2c <_dtoa_r+0x464>
 8006abe:	9b00      	ldr	r3, [sp, #0]
 8006ac0:	4650      	mov	r0, sl
 8006ac2:	4659      	mov	r1, fp
 8006ac4:	1e5f      	subs	r7, r3, #1
 8006ac6:	2200      	movs	r2, #0
 8006ac8:	4b88      	ldr	r3, [pc, #544]	; (8006cec <_dtoa_r+0x624>)
 8006aca:	f7f9 fd9d 	bl	8000608 <__aeabi_dmul>
 8006ace:	9e02      	ldr	r6, [sp, #8]
 8006ad0:	4682      	mov	sl, r0
 8006ad2:	468b      	mov	fp, r1
 8006ad4:	3501      	adds	r5, #1
 8006ad6:	4628      	mov	r0, r5
 8006ad8:	f7f9 fd2c 	bl	8000534 <__aeabi_i2d>
 8006adc:	4652      	mov	r2, sl
 8006ade:	465b      	mov	r3, fp
 8006ae0:	f7f9 fd92 	bl	8000608 <__aeabi_dmul>
 8006ae4:	4b82      	ldr	r3, [pc, #520]	; (8006cf0 <_dtoa_r+0x628>)
 8006ae6:	2200      	movs	r2, #0
 8006ae8:	f7f9 fbd8 	bl	800029c <__adddf3>
 8006aec:	46d0      	mov	r8, sl
 8006aee:	46d9      	mov	r9, fp
 8006af0:	4682      	mov	sl, r0
 8006af2:	f1a1 7b50 	sub.w	fp, r1, #54525952	; 0x3400000
 8006af6:	2e00      	cmp	r6, #0
 8006af8:	d158      	bne.n	8006bac <_dtoa_r+0x4e4>
 8006afa:	4b7e      	ldr	r3, [pc, #504]	; (8006cf4 <_dtoa_r+0x62c>)
 8006afc:	2200      	movs	r2, #0
 8006afe:	4640      	mov	r0, r8
 8006b00:	4649      	mov	r1, r9
 8006b02:	f7f9 fbc9 	bl	8000298 <__aeabi_dsub>
 8006b06:	4652      	mov	r2, sl
 8006b08:	465b      	mov	r3, fp
 8006b0a:	4680      	mov	r8, r0
 8006b0c:	4689      	mov	r9, r1
 8006b0e:	f7fa f80b 	bl	8000b28 <__aeabi_dcmpgt>
 8006b12:	2800      	cmp	r0, #0
 8006b14:	f040 8295 	bne.w	8007042 <_dtoa_r+0x97a>
 8006b18:	4652      	mov	r2, sl
 8006b1a:	f10b 4300 	add.w	r3, fp, #2147483648	; 0x80000000
 8006b1e:	4640      	mov	r0, r8
 8006b20:	4649      	mov	r1, r9
 8006b22:	f7f9 ffe3 	bl	8000aec <__aeabi_dcmplt>
 8006b26:	2800      	cmp	r0, #0
 8006b28:	f040 8289 	bne.w	800703e <_dtoa_r+0x976>
 8006b2c:	ec5b ab19 	vmov	sl, fp, d9
 8006b30:	9b11      	ldr	r3, [sp, #68]	; 0x44
 8006b32:	2b00      	cmp	r3, #0
 8006b34:	f2c0 8148 	blt.w	8006dc8 <_dtoa_r+0x700>
 8006b38:	9a00      	ldr	r2, [sp, #0]
 8006b3a:	2a0e      	cmp	r2, #14
 8006b3c:	f300 8144 	bgt.w	8006dc8 <_dtoa_r+0x700>
 8006b40:	4b67      	ldr	r3, [pc, #412]	; (8006ce0 <_dtoa_r+0x618>)
 8006b42:	eb03 03c2 	add.w	r3, r3, r2, lsl #3
 8006b46:	e9d3 8900 	ldrd	r8, r9, [r3]
 8006b4a:	9b09      	ldr	r3, [sp, #36]	; 0x24
 8006b4c:	2b00      	cmp	r3, #0
 8006b4e:	f280 80d5 	bge.w	8006cfc <_dtoa_r+0x634>
 8006b52:	9b03      	ldr	r3, [sp, #12]
 8006b54:	2b00      	cmp	r3, #0
 8006b56:	f300 80d1 	bgt.w	8006cfc <_dtoa_r+0x634>
 8006b5a:	f040 826f 	bne.w	800703c <_dtoa_r+0x974>
 8006b5e:	4b65      	ldr	r3, [pc, #404]	; (8006cf4 <_dtoa_r+0x62c>)
 8006b60:	2200      	movs	r2, #0
 8006b62:	4640      	mov	r0, r8
 8006b64:	4649      	mov	r1, r9
 8006b66:	f7f9 fd4f 	bl	8000608 <__aeabi_dmul>
 8006b6a:	4652      	mov	r2, sl
 8006b6c:	465b      	mov	r3, fp
 8006b6e:	f7f9 ffd1 	bl	8000b14 <__aeabi_dcmpge>
 8006b72:	9e03      	ldr	r6, [sp, #12]
 8006b74:	4637      	mov	r7, r6
 8006b76:	2800      	cmp	r0, #0
 8006b78:	f040 8245 	bne.w	8007006 <_dtoa_r+0x93e>
 8006b7c:	9d01      	ldr	r5, [sp, #4]
 8006b7e:	2331      	movs	r3, #49	; 0x31
 8006b80:	f805 3b01 	strb.w	r3, [r5], #1
 8006b84:	9b00      	ldr	r3, [sp, #0]
 8006b86:	3301      	adds	r3, #1
 8006b88:	9300      	str	r3, [sp, #0]
 8006b8a:	e240      	b.n	800700e <_dtoa_r+0x946>
 8006b8c:	07f2      	lsls	r2, r6, #31
 8006b8e:	d505      	bpl.n	8006b9c <_dtoa_r+0x4d4>
 8006b90:	e9d7 2300 	ldrd	r2, r3, [r7]
 8006b94:	f7f9 fd38 	bl	8000608 <__aeabi_dmul>
 8006b98:	3501      	adds	r5, #1
 8006b9a:	2301      	movs	r3, #1
 8006b9c:	1076      	asrs	r6, r6, #1
 8006b9e:	3708      	adds	r7, #8
 8006ba0:	e777      	b.n	8006a92 <_dtoa_r+0x3ca>
 8006ba2:	2502      	movs	r5, #2
 8006ba4:	e779      	b.n	8006a9a <_dtoa_r+0x3d2>
 8006ba6:	9f00      	ldr	r7, [sp, #0]
 8006ba8:	9e03      	ldr	r6, [sp, #12]
 8006baa:	e794      	b.n	8006ad6 <_dtoa_r+0x40e>
 8006bac:	9901      	ldr	r1, [sp, #4]
 8006bae:	4b4c      	ldr	r3, [pc, #304]	; (8006ce0 <_dtoa_r+0x618>)
 8006bb0:	4431      	add	r1, r6
 8006bb2:	910d      	str	r1, [sp, #52]	; 0x34
 8006bb4:	9908      	ldr	r1, [sp, #32]
 8006bb6:	eb03 03c6 	add.w	r3, r3, r6, lsl #3
 8006bba:	e953 2302 	ldrd	r2, r3, [r3, #-8]
 8006bbe:	2900      	cmp	r1, #0
 8006bc0:	d043      	beq.n	8006c4a <_dtoa_r+0x582>
 8006bc2:	494d      	ldr	r1, [pc, #308]	; (8006cf8 <_dtoa_r+0x630>)
 8006bc4:	2000      	movs	r0, #0
 8006bc6:	f7f9 fe49 	bl	800085c <__aeabi_ddiv>
 8006bca:	4652      	mov	r2, sl
 8006bcc:	465b      	mov	r3, fp
 8006bce:	f7f9 fb63 	bl	8000298 <__aeabi_dsub>
 8006bd2:	9d01      	ldr	r5, [sp, #4]
 8006bd4:	4682      	mov	sl, r0
 8006bd6:	468b      	mov	fp, r1
 8006bd8:	4649      	mov	r1, r9
 8006bda:	4640      	mov	r0, r8
 8006bdc:	f7f9 ffc4 	bl	8000b68 <__aeabi_d2iz>
 8006be0:	4606      	mov	r6, r0
 8006be2:	f7f9 fca7 	bl	8000534 <__aeabi_i2d>
 8006be6:	4602      	mov	r2, r0
 8006be8:	460b      	mov	r3, r1
 8006bea:	4640      	mov	r0, r8
 8006bec:	4649      	mov	r1, r9
 8006bee:	f7f9 fb53 	bl	8000298 <__aeabi_dsub>
 8006bf2:	3630      	adds	r6, #48	; 0x30
 8006bf4:	f805 6b01 	strb.w	r6, [r5], #1
 8006bf8:	4652      	mov	r2, sl
 8006bfa:	465b      	mov	r3, fp
 8006bfc:	4680      	mov	r8, r0
 8006bfe:	4689      	mov	r9, r1
 8006c00:	f7f9 ff74 	bl	8000aec <__aeabi_dcmplt>
 8006c04:	2800      	cmp	r0, #0
 8006c06:	d163      	bne.n	8006cd0 <_dtoa_r+0x608>
 8006c08:	4642      	mov	r2, r8
 8006c0a:	464b      	mov	r3, r9
 8006c0c:	4936      	ldr	r1, [pc, #216]	; (8006ce8 <_dtoa_r+0x620>)
 8006c0e:	2000      	movs	r0, #0
 8006c10:	f7f9 fb42 	bl	8000298 <__aeabi_dsub>
 8006c14:	4652      	mov	r2, sl
 8006c16:	465b      	mov	r3, fp
 8006c18:	f7f9 ff68 	bl	8000aec <__aeabi_dcmplt>
 8006c1c:	2800      	cmp	r0, #0
 8006c1e:	f040 80b5 	bne.w	8006d8c <_dtoa_r+0x6c4>
 8006c22:	9b0d      	ldr	r3, [sp, #52]	; 0x34
 8006c24:	429d      	cmp	r5, r3
 8006c26:	d081      	beq.n	8006b2c <_dtoa_r+0x464>
 8006c28:	4b30      	ldr	r3, [pc, #192]	; (8006cec <_dtoa_r+0x624>)
 8006c2a:	2200      	movs	r2, #0
 8006c2c:	4650      	mov	r0, sl
 8006c2e:	4659      	mov	r1, fp
 8006c30:	f7f9 fcea 	bl	8000608 <__aeabi_dmul>
 8006c34:	4b2d      	ldr	r3, [pc, #180]	; (8006cec <_dtoa_r+0x624>)
 8006c36:	4682      	mov	sl, r0
 8006c38:	468b      	mov	fp, r1
 8006c3a:	4640      	mov	r0, r8
 8006c3c:	4649      	mov	r1, r9
 8006c3e:	2200      	movs	r2, #0
 8006c40:	f7f9 fce2 	bl	8000608 <__aeabi_dmul>
 8006c44:	4680      	mov	r8, r0
 8006c46:	4689      	mov	r9, r1
 8006c48:	e7c6      	b.n	8006bd8 <_dtoa_r+0x510>
 8006c4a:	4650      	mov	r0, sl
 8006c4c:	4659      	mov	r1, fp
 8006c4e:	f7f9 fcdb 	bl	8000608 <__aeabi_dmul>
 8006c52:	9b0d      	ldr	r3, [sp, #52]	; 0x34
 8006c54:	9d01      	ldr	r5, [sp, #4]
 8006c56:	930f      	str	r3, [sp, #60]	; 0x3c
 8006c58:	4682      	mov	sl, r0
 8006c5a:	468b      	mov	fp, r1
 8006c5c:	4649      	mov	r1, r9
 8006c5e:	4640      	mov	r0, r8
 8006c60:	f7f9 ff82 	bl	8000b68 <__aeabi_d2iz>
 8006c64:	4606      	mov	r6, r0
 8006c66:	f7f9 fc65 	bl	8000534 <__aeabi_i2d>
 8006c6a:	3630      	adds	r6, #48	; 0x30
 8006c6c:	4602      	mov	r2, r0
 8006c6e:	460b      	mov	r3, r1
 8006c70:	4640      	mov	r0, r8
 8006c72:	4649      	mov	r1, r9
 8006c74:	f7f9 fb10 	bl	8000298 <__aeabi_dsub>
 8006c78:	f805 6b01 	strb.w	r6, [r5], #1
 8006c7c:	9b0d      	ldr	r3, [sp, #52]	; 0x34
 8006c7e:	429d      	cmp	r5, r3
 8006c80:	4680      	mov	r8, r0
 8006c82:	4689      	mov	r9, r1
 8006c84:	f04f 0200 	mov.w	r2, #0
 8006c88:	d124      	bne.n	8006cd4 <_dtoa_r+0x60c>
 8006c8a:	4b1b      	ldr	r3, [pc, #108]	; (8006cf8 <_dtoa_r+0x630>)
 8006c8c:	4650      	mov	r0, sl
 8006c8e:	4659      	mov	r1, fp
 8006c90:	f7f9 fb04 	bl	800029c <__adddf3>
 8006c94:	4602      	mov	r2, r0
 8006c96:	460b      	mov	r3, r1
 8006c98:	4640      	mov	r0, r8
 8006c9a:	4649      	mov	r1, r9
 8006c9c:	f7f9 ff44 	bl	8000b28 <__aeabi_dcmpgt>
 8006ca0:	2800      	cmp	r0, #0
 8006ca2:	d173      	bne.n	8006d8c <_dtoa_r+0x6c4>
 8006ca4:	4652      	mov	r2, sl
 8006ca6:	465b      	mov	r3, fp
 8006ca8:	4913      	ldr	r1, [pc, #76]	; (8006cf8 <_dtoa_r+0x630>)
 8006caa:	2000      	movs	r0, #0
 8006cac:	f7f9 faf4 	bl	8000298 <__aeabi_dsub>
 8006cb0:	4602      	mov	r2, r0
 8006cb2:	460b      	mov	r3, r1
 8006cb4:	4640      	mov	r0, r8
 8006cb6:	4649      	mov	r1, r9
 8006cb8:	f7f9 ff18 	bl	8000aec <__aeabi_dcmplt>
 8006cbc:	2800      	cmp	r0, #0
 8006cbe:	f43f af35 	beq.w	8006b2c <_dtoa_r+0x464>
 8006cc2:	9d0f      	ldr	r5, [sp, #60]	; 0x3c
 8006cc4:	1e6b      	subs	r3, r5, #1
 8006cc6:	930f      	str	r3, [sp, #60]	; 0x3c
 8006cc8:	f815 3c01 	ldrb.w	r3, [r5, #-1]
 8006ccc:	2b30      	cmp	r3, #48	; 0x30
 8006cce:	d0f8      	beq.n	8006cc2 <_dtoa_r+0x5fa>
 8006cd0:	9700      	str	r7, [sp, #0]
 8006cd2:	e049      	b.n	8006d68 <_dtoa_r+0x6a0>
 8006cd4:	4b05      	ldr	r3, [pc, #20]	; (8006cec <_dtoa_r+0x624>)
 8006cd6:	f7f9 fc97 	bl	8000608 <__aeabi_dmul>
 8006cda:	4680      	mov	r8, r0
 8006cdc:	4689      	mov	r9, r1
 8006cde:	e7bd      	b.n	8006c5c <_dtoa_r+0x594>
 8006ce0:	0800aa60 	.word	0x0800aa60
 8006ce4:	0800aa38 	.word	0x0800aa38
 8006ce8:	3ff00000 	.word	0x3ff00000
 8006cec:	40240000 	.word	0x40240000
 8006cf0:	401c0000 	.word	0x401c0000
 8006cf4:	40140000 	.word	0x40140000
 8006cf8:	3fe00000 	.word	0x3fe00000
 8006cfc:	9d01      	ldr	r5, [sp, #4]
 8006cfe:	4656      	mov	r6, sl
 8006d00:	465f      	mov	r7, fp
 8006d02:	4642      	mov	r2, r8
 8006d04:	464b      	mov	r3, r9
 8006d06:	4630      	mov	r0, r6
 8006d08:	4639      	mov	r1, r7
 8006d0a:	f7f9 fda7 	bl	800085c <__aeabi_ddiv>
 8006d0e:	f7f9 ff2b 	bl	8000b68 <__aeabi_d2iz>
 8006d12:	4682      	mov	sl, r0
 8006d14:	f7f9 fc0e 	bl	8000534 <__aeabi_i2d>
 8006d18:	4642      	mov	r2, r8
 8006d1a:	464b      	mov	r3, r9
 8006d1c:	f7f9 fc74 	bl	8000608 <__aeabi_dmul>
 8006d20:	4602      	mov	r2, r0
 8006d22:	460b      	mov	r3, r1
 8006d24:	4630      	mov	r0, r6
 8006d26:	4639      	mov	r1, r7
 8006d28:	f10a 0630 	add.w	r6, sl, #48	; 0x30
 8006d2c:	f7f9 fab4 	bl	8000298 <__aeabi_dsub>
 8006d30:	f805 6b01 	strb.w	r6, [r5], #1
 8006d34:	9e01      	ldr	r6, [sp, #4]
 8006d36:	9f03      	ldr	r7, [sp, #12]
 8006d38:	1bae      	subs	r6, r5, r6
 8006d3a:	42b7      	cmp	r7, r6
 8006d3c:	4602      	mov	r2, r0
 8006d3e:	460b      	mov	r3, r1
 8006d40:	d135      	bne.n	8006dae <_dtoa_r+0x6e6>
 8006d42:	f7f9 faab 	bl	800029c <__adddf3>
 8006d46:	4642      	mov	r2, r8
 8006d48:	464b      	mov	r3, r9
 8006d4a:	4606      	mov	r6, r0
 8006d4c:	460f      	mov	r7, r1
 8006d4e:	f7f9 feeb 	bl	8000b28 <__aeabi_dcmpgt>
 8006d52:	b9d0      	cbnz	r0, 8006d8a <_dtoa_r+0x6c2>
 8006d54:	4642      	mov	r2, r8
 8006d56:	464b      	mov	r3, r9
 8006d58:	4630      	mov	r0, r6
 8006d5a:	4639      	mov	r1, r7
 8006d5c:	f7f9 febc 	bl	8000ad8 <__aeabi_dcmpeq>
 8006d60:	b110      	cbz	r0, 8006d68 <_dtoa_r+0x6a0>
 8006d62:	f01a 0f01 	tst.w	sl, #1
 8006d66:	d110      	bne.n	8006d8a <_dtoa_r+0x6c2>
 8006d68:	4620      	mov	r0, r4
 8006d6a:	ee18 1a10 	vmov	r1, s16
 8006d6e:	f000 fb09 	bl	8007384 <_Bfree>
 8006d72:	2300      	movs	r3, #0
 8006d74:	9800      	ldr	r0, [sp, #0]
 8006d76:	702b      	strb	r3, [r5, #0]
 8006d78:	9b0c      	ldr	r3, [sp, #48]	; 0x30
 8006d7a:	3001      	adds	r0, #1
 8006d7c:	6018      	str	r0, [r3, #0]
 8006d7e:	9b21      	ldr	r3, [sp, #132]	; 0x84
 8006d80:	2b00      	cmp	r3, #0
 8006d82:	f43f acf1 	beq.w	8006768 <_dtoa_r+0xa0>
 8006d86:	601d      	str	r5, [r3, #0]
 8006d88:	e4ee      	b.n	8006768 <_dtoa_r+0xa0>
 8006d8a:	9f00      	ldr	r7, [sp, #0]
 8006d8c:	462b      	mov	r3, r5
 8006d8e:	461d      	mov	r5, r3
 8006d90:	f813 2d01 	ldrb.w	r2, [r3, #-1]!
 8006d94:	2a39      	cmp	r2, #57	; 0x39
 8006d96:	d106      	bne.n	8006da6 <_dtoa_r+0x6de>
 8006d98:	9a01      	ldr	r2, [sp, #4]
 8006d9a:	429a      	cmp	r2, r3
 8006d9c:	d1f7      	bne.n	8006d8e <_dtoa_r+0x6c6>
 8006d9e:	9901      	ldr	r1, [sp, #4]
 8006da0:	2230      	movs	r2, #48	; 0x30
 8006da2:	3701      	adds	r7, #1
 8006da4:	700a      	strb	r2, [r1, #0]
 8006da6:	781a      	ldrb	r2, [r3, #0]
 8006da8:	3201      	adds	r2, #1
 8006daa:	701a      	strb	r2, [r3, #0]
 8006dac:	e790      	b.n	8006cd0 <_dtoa_r+0x608>
 8006dae:	4ba6      	ldr	r3, [pc, #664]	; (8007048 <_dtoa_r+0x980>)
 8006db0:	2200      	movs	r2, #0
 8006db2:	f7f9 fc29 	bl	8000608 <__aeabi_dmul>
 8006db6:	2200      	movs	r2, #0
 8006db8:	2300      	movs	r3, #0
 8006dba:	4606      	mov	r6, r0
 8006dbc:	460f      	mov	r7, r1
 8006dbe:	f7f9 fe8b 	bl	8000ad8 <__aeabi_dcmpeq>
 8006dc2:	2800      	cmp	r0, #0
 8006dc4:	d09d      	beq.n	8006d02 <_dtoa_r+0x63a>
 8006dc6:	e7cf      	b.n	8006d68 <_dtoa_r+0x6a0>
 8006dc8:	9a08      	ldr	r2, [sp, #32]
 8006dca:	2a00      	cmp	r2, #0
 8006dcc:	f000 80d7 	beq.w	8006f7e <_dtoa_r+0x8b6>
 8006dd0:	9a06      	ldr	r2, [sp, #24]
 8006dd2:	2a01      	cmp	r2, #1
 8006dd4:	f300 80ba 	bgt.w	8006f4c <_dtoa_r+0x884>
 8006dd8:	9a0e      	ldr	r2, [sp, #56]	; 0x38
 8006dda:	2a00      	cmp	r2, #0
 8006ddc:	f000 80b2 	beq.w	8006f44 <_dtoa_r+0x87c>
 8006de0:	f203 4333 	addw	r3, r3, #1075	; 0x433
 8006de4:	9e07      	ldr	r6, [sp, #28]
 8006de6:	9d04      	ldr	r5, [sp, #16]
 8006de8:	9a04      	ldr	r2, [sp, #16]
 8006dea:	441a      	add	r2, r3
 8006dec:	9204      	str	r2, [sp, #16]
 8006dee:	9a05      	ldr	r2, [sp, #20]
 8006df0:	2101      	movs	r1, #1
 8006df2:	441a      	add	r2, r3
 8006df4:	4620      	mov	r0, r4
 8006df6:	9205      	str	r2, [sp, #20]
 8006df8:	f000 fb7c 	bl	80074f4 <__i2b>
 8006dfc:	4607      	mov	r7, r0
 8006dfe:	2d00      	cmp	r5, #0
 8006e00:	dd0c      	ble.n	8006e1c <_dtoa_r+0x754>
 8006e02:	9b05      	ldr	r3, [sp, #20]
 8006e04:	2b00      	cmp	r3, #0
 8006e06:	dd09      	ble.n	8006e1c <_dtoa_r+0x754>
 8006e08:	42ab      	cmp	r3, r5
 8006e0a:	9a04      	ldr	r2, [sp, #16]
 8006e0c:	bfa8      	it	ge
 8006e0e:	462b      	movge	r3, r5
 8006e10:	1ad2      	subs	r2, r2, r3
 8006e12:	9204      	str	r2, [sp, #16]
 8006e14:	9a05      	ldr	r2, [sp, #20]
 8006e16:	1aed      	subs	r5, r5, r3
 8006e18:	1ad3      	subs	r3, r2, r3
 8006e1a:	9305      	str	r3, [sp, #20]
 8006e1c:	9b07      	ldr	r3, [sp, #28]
 8006e1e:	b31b      	cbz	r3, 8006e68 <_dtoa_r+0x7a0>
 8006e20:	9b08      	ldr	r3, [sp, #32]
 8006e22:	2b00      	cmp	r3, #0
 8006e24:	f000 80af 	beq.w	8006f86 <_dtoa_r+0x8be>
 8006e28:	2e00      	cmp	r6, #0
 8006e2a:	dd13      	ble.n	8006e54 <_dtoa_r+0x78c>
 8006e2c:	4639      	mov	r1, r7
 8006e2e:	4632      	mov	r2, r6
 8006e30:	4620      	mov	r0, r4
 8006e32:	f000 fc1f 	bl	8007674 <__pow5mult>
 8006e36:	ee18 2a10 	vmov	r2, s16
 8006e3a:	4601      	mov	r1, r0
 8006e3c:	4607      	mov	r7, r0
 8006e3e:	4620      	mov	r0, r4
 8006e40:	f000 fb6e 	bl	8007520 <__multiply>
 8006e44:	ee18 1a10 	vmov	r1, s16
 8006e48:	4680      	mov	r8, r0
 8006e4a:	4620      	mov	r0, r4
 8006e4c:	f000 fa9a 	bl	8007384 <_Bfree>
 8006e50:	ee08 8a10 	vmov	s16, r8
 8006e54:	9b07      	ldr	r3, [sp, #28]
 8006e56:	1b9a      	subs	r2, r3, r6
 8006e58:	d006      	beq.n	8006e68 <_dtoa_r+0x7a0>
 8006e5a:	ee18 1a10 	vmov	r1, s16
 8006e5e:	4620      	mov	r0, r4
 8006e60:	f000 fc08 	bl	8007674 <__pow5mult>
 8006e64:	ee08 0a10 	vmov	s16, r0
 8006e68:	2101      	movs	r1, #1
 8006e6a:	4620      	mov	r0, r4
 8006e6c:	f000 fb42 	bl	80074f4 <__i2b>
 8006e70:	9b0a      	ldr	r3, [sp, #40]	; 0x28
 8006e72:	2b00      	cmp	r3, #0
 8006e74:	4606      	mov	r6, r0
 8006e76:	f340 8088 	ble.w	8006f8a <_dtoa_r+0x8c2>
 8006e7a:	461a      	mov	r2, r3
 8006e7c:	4601      	mov	r1, r0
 8006e7e:	4620      	mov	r0, r4
 8006e80:	f000 fbf8 	bl	8007674 <__pow5mult>
 8006e84:	9b06      	ldr	r3, [sp, #24]
 8006e86:	2b01      	cmp	r3, #1
 8006e88:	4606      	mov	r6, r0
 8006e8a:	f340 8081 	ble.w	8006f90 <_dtoa_r+0x8c8>
 8006e8e:	f04f 0800 	mov.w	r8, #0
 8006e92:	6933      	ldr	r3, [r6, #16]
 8006e94:	eb06 0383 	add.w	r3, r6, r3, lsl #2
 8006e98:	6918      	ldr	r0, [r3, #16]
 8006e9a:	f000 fadb 	bl	8007454 <__hi0bits>
 8006e9e:	f1c0 0020 	rsb	r0, r0, #32
 8006ea2:	9b05      	ldr	r3, [sp, #20]
 8006ea4:	4418      	add	r0, r3
 8006ea6:	f010 001f 	ands.w	r0, r0, #31
 8006eaa:	f000 8092 	beq.w	8006fd2 <_dtoa_r+0x90a>
 8006eae:	f1c0 0320 	rsb	r3, r0, #32
 8006eb2:	2b04      	cmp	r3, #4
 8006eb4:	f340 808a 	ble.w	8006fcc <_dtoa_r+0x904>
 8006eb8:	f1c0 001c 	rsb	r0, r0, #28
 8006ebc:	9b04      	ldr	r3, [sp, #16]
 8006ebe:	4403      	add	r3, r0
 8006ec0:	9304      	str	r3, [sp, #16]
 8006ec2:	9b05      	ldr	r3, [sp, #20]
 8006ec4:	4403      	add	r3, r0
 8006ec6:	4405      	add	r5, r0
 8006ec8:	9305      	str	r3, [sp, #20]
 8006eca:	9b04      	ldr	r3, [sp, #16]
 8006ecc:	2b00      	cmp	r3, #0
 8006ece:	dd07      	ble.n	8006ee0 <_dtoa_r+0x818>
 8006ed0:	ee18 1a10 	vmov	r1, s16
 8006ed4:	461a      	mov	r2, r3
 8006ed6:	4620      	mov	r0, r4
 8006ed8:	f000 fc26 	bl	8007728 <__lshift>
 8006edc:	ee08 0a10 	vmov	s16, r0
 8006ee0:	9b05      	ldr	r3, [sp, #20]
 8006ee2:	2b00      	cmp	r3, #0
 8006ee4:	dd05      	ble.n	8006ef2 <_dtoa_r+0x82a>
 8006ee6:	4631      	mov	r1, r6
 8006ee8:	461a      	mov	r2, r3
 8006eea:	4620      	mov	r0, r4
 8006eec:	f000 fc1c 	bl	8007728 <__lshift>
 8006ef0:	4606      	mov	r6, r0
 8006ef2:	9b0b      	ldr	r3, [sp, #44]	; 0x2c
 8006ef4:	2b00      	cmp	r3, #0
 8006ef6:	d06e      	beq.n	8006fd6 <_dtoa_r+0x90e>
 8006ef8:	ee18 0a10 	vmov	r0, s16
 8006efc:	4631      	mov	r1, r6
 8006efe:	f000 fc83 	bl	8007808 <__mcmp>
 8006f02:	2800      	cmp	r0, #0
 8006f04:	da67      	bge.n	8006fd6 <_dtoa_r+0x90e>
 8006f06:	9b00      	ldr	r3, [sp, #0]
 8006f08:	3b01      	subs	r3, #1
 8006f0a:	ee18 1a10 	vmov	r1, s16
 8006f0e:	9300      	str	r3, [sp, #0]
 8006f10:	220a      	movs	r2, #10
 8006f12:	2300      	movs	r3, #0
 8006f14:	4620      	mov	r0, r4
 8006f16:	f000 fa57 	bl	80073c8 <__multadd>
 8006f1a:	9b08      	ldr	r3, [sp, #32]
 8006f1c:	ee08 0a10 	vmov	s16, r0
 8006f20:	2b00      	cmp	r3, #0
 8006f22:	f000 81b1 	beq.w	8007288 <_dtoa_r+0xbc0>
 8006f26:	2300      	movs	r3, #0
 8006f28:	4639      	mov	r1, r7
 8006f2a:	220a      	movs	r2, #10
 8006f2c:	4620      	mov	r0, r4
 8006f2e:	f000 fa4b 	bl	80073c8 <__multadd>
 8006f32:	9b02      	ldr	r3, [sp, #8]
 8006f34:	2b00      	cmp	r3, #0
 8006f36:	4607      	mov	r7, r0
 8006f38:	f300 808e 	bgt.w	8007058 <_dtoa_r+0x990>
 8006f3c:	9b06      	ldr	r3, [sp, #24]
 8006f3e:	2b02      	cmp	r3, #2
 8006f40:	dc51      	bgt.n	8006fe6 <_dtoa_r+0x91e>
 8006f42:	e089      	b.n	8007058 <_dtoa_r+0x990>
 8006f44:	9b10      	ldr	r3, [sp, #64]	; 0x40
 8006f46:	f1c3 0336 	rsb	r3, r3, #54	; 0x36
 8006f4a:	e74b      	b.n	8006de4 <_dtoa_r+0x71c>
 8006f4c:	9b03      	ldr	r3, [sp, #12]
 8006f4e:	1e5e      	subs	r6, r3, #1
 8006f50:	9b07      	ldr	r3, [sp, #28]
 8006f52:	42b3      	cmp	r3, r6
 8006f54:	bfbf      	itttt	lt
 8006f56:	9b07      	ldrlt	r3, [sp, #28]
 8006f58:	9607      	strlt	r6, [sp, #28]
 8006f5a:	1af2      	sublt	r2, r6, r3
 8006f5c:	9b0a      	ldrlt	r3, [sp, #40]	; 0x28
 8006f5e:	bfb6      	itet	lt
 8006f60:	189b      	addlt	r3, r3, r2
 8006f62:	1b9e      	subge	r6, r3, r6
 8006f64:	930a      	strlt	r3, [sp, #40]	; 0x28
 8006f66:	9b03      	ldr	r3, [sp, #12]
 8006f68:	bfb8      	it	lt
 8006f6a:	2600      	movlt	r6, #0
 8006f6c:	2b00      	cmp	r3, #0
 8006f6e:	bfb7      	itett	lt
 8006f70:	e9dd 2303 	ldrdlt	r2, r3, [sp, #12]
 8006f74:	e9dd 3503 	ldrdge	r3, r5, [sp, #12]
 8006f78:	1a9d      	sublt	r5, r3, r2
 8006f7a:	2300      	movlt	r3, #0
 8006f7c:	e734      	b.n	8006de8 <_dtoa_r+0x720>
 8006f7e:	9e07      	ldr	r6, [sp, #28]
 8006f80:	9d04      	ldr	r5, [sp, #16]
 8006f82:	9f08      	ldr	r7, [sp, #32]
 8006f84:	e73b      	b.n	8006dfe <_dtoa_r+0x736>
 8006f86:	9a07      	ldr	r2, [sp, #28]
 8006f88:	e767      	b.n	8006e5a <_dtoa_r+0x792>
 8006f8a:	9b06      	ldr	r3, [sp, #24]
 8006f8c:	2b01      	cmp	r3, #1
 8006f8e:	dc18      	bgt.n	8006fc2 <_dtoa_r+0x8fa>
 8006f90:	f1ba 0f00 	cmp.w	sl, #0
 8006f94:	d115      	bne.n	8006fc2 <_dtoa_r+0x8fa>
 8006f96:	f3cb 0313 	ubfx	r3, fp, #0, #20
 8006f9a:	b993      	cbnz	r3, 8006fc2 <_dtoa_r+0x8fa>
 8006f9c:	f02b 4300 	bic.w	r3, fp, #2147483648	; 0x80000000
 8006fa0:	0d1b      	lsrs	r3, r3, #20
 8006fa2:	051b      	lsls	r3, r3, #20
 8006fa4:	b183      	cbz	r3, 8006fc8 <_dtoa_r+0x900>
 8006fa6:	9b04      	ldr	r3, [sp, #16]
 8006fa8:	3301      	adds	r3, #1
 8006faa:	9304      	str	r3, [sp, #16]
 8006fac:	9b05      	ldr	r3, [sp, #20]
 8006fae:	3301      	adds	r3, #1
 8006fb0:	9305      	str	r3, [sp, #20]
 8006fb2:	f04f 0801 	mov.w	r8, #1
 8006fb6:	9b0a      	ldr	r3, [sp, #40]	; 0x28
 8006fb8:	2b00      	cmp	r3, #0
 8006fba:	f47f af6a 	bne.w	8006e92 <_dtoa_r+0x7ca>
 8006fbe:	2001      	movs	r0, #1
 8006fc0:	e76f      	b.n	8006ea2 <_dtoa_r+0x7da>
 8006fc2:	f04f 0800 	mov.w	r8, #0
 8006fc6:	e7f6      	b.n	8006fb6 <_dtoa_r+0x8ee>
 8006fc8:	4698      	mov	r8, r3
 8006fca:	e7f4      	b.n	8006fb6 <_dtoa_r+0x8ee>
 8006fcc:	f43f af7d 	beq.w	8006eca <_dtoa_r+0x802>
 8006fd0:	4618      	mov	r0, r3
 8006fd2:	301c      	adds	r0, #28
 8006fd4:	e772      	b.n	8006ebc <_dtoa_r+0x7f4>
 8006fd6:	9b03      	ldr	r3, [sp, #12]
 8006fd8:	2b00      	cmp	r3, #0
 8006fda:	dc37      	bgt.n	800704c <_dtoa_r+0x984>
 8006fdc:	9b06      	ldr	r3, [sp, #24]
 8006fde:	2b02      	cmp	r3, #2
 8006fe0:	dd34      	ble.n	800704c <_dtoa_r+0x984>
 8006fe2:	9b03      	ldr	r3, [sp, #12]
 8006fe4:	9302      	str	r3, [sp, #8]
 8006fe6:	9b02      	ldr	r3, [sp, #8]
 8006fe8:	b96b      	cbnz	r3, 8007006 <_dtoa_r+0x93e>
 8006fea:	4631      	mov	r1, r6
 8006fec:	2205      	movs	r2, #5
 8006fee:	4620      	mov	r0, r4
 8006ff0:	f000 f9ea 	bl	80073c8 <__multadd>
 8006ff4:	4601      	mov	r1, r0
 8006ff6:	4606      	mov	r6, r0
 8006ff8:	ee18 0a10 	vmov	r0, s16
 8006ffc:	f000 fc04 	bl	8007808 <__mcmp>
 8007000:	2800      	cmp	r0, #0
 8007002:	f73f adbb 	bgt.w	8006b7c <_dtoa_r+0x4b4>
 8007006:	9b09      	ldr	r3, [sp, #36]	; 0x24
 8007008:	9d01      	ldr	r5, [sp, #4]
 800700a:	43db      	mvns	r3, r3
 800700c:	9300      	str	r3, [sp, #0]
 800700e:	f04f 0800 	mov.w	r8, #0
 8007012:	4631      	mov	r1, r6
 8007014:	4620      	mov	r0, r4
 8007016:	f000 f9b5 	bl	8007384 <_Bfree>
 800701a:	2f00      	cmp	r7, #0
 800701c:	f43f aea4 	beq.w	8006d68 <_dtoa_r+0x6a0>
 8007020:	f1b8 0f00 	cmp.w	r8, #0
 8007024:	d005      	beq.n	8007032 <_dtoa_r+0x96a>
 8007026:	45b8      	cmp	r8, r7
 8007028:	d003      	beq.n	8007032 <_dtoa_r+0x96a>
 800702a:	4641      	mov	r1, r8
 800702c:	4620      	mov	r0, r4
 800702e:	f000 f9a9 	bl	8007384 <_Bfree>
 8007032:	4639      	mov	r1, r7
 8007034:	4620      	mov	r0, r4
 8007036:	f000 f9a5 	bl	8007384 <_Bfree>
 800703a:	e695      	b.n	8006d68 <_dtoa_r+0x6a0>
 800703c:	2600      	movs	r6, #0
 800703e:	4637      	mov	r7, r6
 8007040:	e7e1      	b.n	8007006 <_dtoa_r+0x93e>
 8007042:	9700      	str	r7, [sp, #0]
 8007044:	4637      	mov	r7, r6
 8007046:	e599      	b.n	8006b7c <_dtoa_r+0x4b4>
 8007048:	40240000 	.word	0x40240000
 800704c:	9b08      	ldr	r3, [sp, #32]
 800704e:	2b00      	cmp	r3, #0
 8007050:	f000 80ca 	beq.w	80071e8 <_dtoa_r+0xb20>
 8007054:	9b03      	ldr	r3, [sp, #12]
 8007056:	9302      	str	r3, [sp, #8]
 8007058:	2d00      	cmp	r5, #0
 800705a:	dd05      	ble.n	8007068 <_dtoa_r+0x9a0>
 800705c:	4639      	mov	r1, r7
 800705e:	462a      	mov	r2, r5
 8007060:	4620      	mov	r0, r4
 8007062:	f000 fb61 	bl	8007728 <__lshift>
 8007066:	4607      	mov	r7, r0
 8007068:	f1b8 0f00 	cmp.w	r8, #0
 800706c:	d05b      	beq.n	8007126 <_dtoa_r+0xa5e>
 800706e:	6879      	ldr	r1, [r7, #4]
 8007070:	4620      	mov	r0, r4
 8007072:	f000 f947 	bl	8007304 <_Balloc>
 8007076:	4605      	mov	r5, r0
 8007078:	b928      	cbnz	r0, 8007086 <_dtoa_r+0x9be>
 800707a:	4b87      	ldr	r3, [pc, #540]	; (8007298 <_dtoa_r+0xbd0>)
 800707c:	4602      	mov	r2, r0
 800707e:	f240 21ea 	movw	r1, #746	; 0x2ea
 8007082:	f7ff bb3b 	b.w	80066fc <_dtoa_r+0x34>
 8007086:	693a      	ldr	r2, [r7, #16]
 8007088:	3202      	adds	r2, #2
 800708a:	0092      	lsls	r2, r2, #2
 800708c:	f107 010c 	add.w	r1, r7, #12
 8007090:	300c      	adds	r0, #12
 8007092:	f000 f91d 	bl	80072d0 <memcpy>
 8007096:	2201      	movs	r2, #1
 8007098:	4629      	mov	r1, r5
 800709a:	4620      	mov	r0, r4
 800709c:	f000 fb44 	bl	8007728 <__lshift>
 80070a0:	9b01      	ldr	r3, [sp, #4]
 80070a2:	f103 0901 	add.w	r9, r3, #1
 80070a6:	e9dd 2301 	ldrd	r2, r3, [sp, #4]
 80070aa:	4413      	add	r3, r2
 80070ac:	9305      	str	r3, [sp, #20]
 80070ae:	f00a 0301 	and.w	r3, sl, #1
 80070b2:	46b8      	mov	r8, r7
 80070b4:	9304      	str	r3, [sp, #16]
 80070b6:	4607      	mov	r7, r0
 80070b8:	4631      	mov	r1, r6
 80070ba:	ee18 0a10 	vmov	r0, s16
 80070be:	f7ff fa77 	bl	80065b0 <quorem>
 80070c2:	4641      	mov	r1, r8
 80070c4:	9002      	str	r0, [sp, #8]
 80070c6:	f100 0a30 	add.w	sl, r0, #48	; 0x30
 80070ca:	ee18 0a10 	vmov	r0, s16
 80070ce:	f000 fb9b 	bl	8007808 <__mcmp>
 80070d2:	463a      	mov	r2, r7
 80070d4:	9003      	str	r0, [sp, #12]
 80070d6:	4631      	mov	r1, r6
 80070d8:	4620      	mov	r0, r4
 80070da:	f000 fbb1 	bl	8007840 <__mdiff>
 80070de:	68c2      	ldr	r2, [r0, #12]
 80070e0:	f109 3bff 	add.w	fp, r9, #4294967295
 80070e4:	4605      	mov	r5, r0
 80070e6:	bb02      	cbnz	r2, 800712a <_dtoa_r+0xa62>
 80070e8:	4601      	mov	r1, r0
 80070ea:	ee18 0a10 	vmov	r0, s16
 80070ee:	f000 fb8b 	bl	8007808 <__mcmp>
 80070f2:	4602      	mov	r2, r0
 80070f4:	4629      	mov	r1, r5
 80070f6:	4620      	mov	r0, r4
 80070f8:	9207      	str	r2, [sp, #28]
 80070fa:	f000 f943 	bl	8007384 <_Bfree>
 80070fe:	e9dd 3206 	ldrd	r3, r2, [sp, #24]
 8007102:	ea43 0102 	orr.w	r1, r3, r2
 8007106:	9b04      	ldr	r3, [sp, #16]
 8007108:	430b      	orrs	r3, r1
 800710a:	464d      	mov	r5, r9
 800710c:	d10f      	bne.n	800712e <_dtoa_r+0xa66>
 800710e:	f1ba 0f39 	cmp.w	sl, #57	; 0x39
 8007112:	d02a      	beq.n	800716a <_dtoa_r+0xaa2>
 8007114:	9b03      	ldr	r3, [sp, #12]
 8007116:	2b00      	cmp	r3, #0
 8007118:	dd02      	ble.n	8007120 <_dtoa_r+0xa58>
 800711a:	9b02      	ldr	r3, [sp, #8]
 800711c:	f103 0a31 	add.w	sl, r3, #49	; 0x31
 8007120:	f88b a000 	strb.w	sl, [fp]
 8007124:	e775      	b.n	8007012 <_dtoa_r+0x94a>
 8007126:	4638      	mov	r0, r7
 8007128:	e7ba      	b.n	80070a0 <_dtoa_r+0x9d8>
 800712a:	2201      	movs	r2, #1
 800712c:	e7e2      	b.n	80070f4 <_dtoa_r+0xa2c>
 800712e:	9b03      	ldr	r3, [sp, #12]
 8007130:	2b00      	cmp	r3, #0
 8007132:	db04      	blt.n	800713e <_dtoa_r+0xa76>
 8007134:	9906      	ldr	r1, [sp, #24]
 8007136:	430b      	orrs	r3, r1
 8007138:	9904      	ldr	r1, [sp, #16]
 800713a:	430b      	orrs	r3, r1
 800713c:	d122      	bne.n	8007184 <_dtoa_r+0xabc>
 800713e:	2a00      	cmp	r2, #0
 8007140:	ddee      	ble.n	8007120 <_dtoa_r+0xa58>
 8007142:	ee18 1a10 	vmov	r1, s16
 8007146:	2201      	movs	r2, #1
 8007148:	4620      	mov	r0, r4
 800714a:	f000 faed 	bl	8007728 <__lshift>
 800714e:	4631      	mov	r1, r6
 8007150:	ee08 0a10 	vmov	s16, r0
 8007154:	f000 fb58 	bl	8007808 <__mcmp>
 8007158:	2800      	cmp	r0, #0
 800715a:	dc03      	bgt.n	8007164 <_dtoa_r+0xa9c>
 800715c:	d1e0      	bne.n	8007120 <_dtoa_r+0xa58>
 800715e:	f01a 0f01 	tst.w	sl, #1
 8007162:	d0dd      	beq.n	8007120 <_dtoa_r+0xa58>
 8007164:	f1ba 0f39 	cmp.w	sl, #57	; 0x39
 8007168:	d1d7      	bne.n	800711a <_dtoa_r+0xa52>
 800716a:	2339      	movs	r3, #57	; 0x39
 800716c:	f88b 3000 	strb.w	r3, [fp]
 8007170:	462b      	mov	r3, r5
 8007172:	461d      	mov	r5, r3
 8007174:	3b01      	subs	r3, #1
 8007176:	f815 2c01 	ldrb.w	r2, [r5, #-1]
 800717a:	2a39      	cmp	r2, #57	; 0x39
 800717c:	d071      	beq.n	8007262 <_dtoa_r+0xb9a>
 800717e:	3201      	adds	r2, #1
 8007180:	701a      	strb	r2, [r3, #0]
 8007182:	e746      	b.n	8007012 <_dtoa_r+0x94a>
 8007184:	2a00      	cmp	r2, #0
 8007186:	dd07      	ble.n	8007198 <_dtoa_r+0xad0>
 8007188:	f1ba 0f39 	cmp.w	sl, #57	; 0x39
 800718c:	d0ed      	beq.n	800716a <_dtoa_r+0xaa2>
 800718e:	f10a 0301 	add.w	r3, sl, #1
 8007192:	f88b 3000 	strb.w	r3, [fp]
 8007196:	e73c      	b.n	8007012 <_dtoa_r+0x94a>
 8007198:	9b05      	ldr	r3, [sp, #20]
 800719a:	f809 ac01 	strb.w	sl, [r9, #-1]
 800719e:	4599      	cmp	r9, r3
 80071a0:	d047      	beq.n	8007232 <_dtoa_r+0xb6a>
 80071a2:	ee18 1a10 	vmov	r1, s16
 80071a6:	2300      	movs	r3, #0
 80071a8:	220a      	movs	r2, #10
 80071aa:	4620      	mov	r0, r4
 80071ac:	f000 f90c 	bl	80073c8 <__multadd>
 80071b0:	45b8      	cmp	r8, r7
 80071b2:	ee08 0a10 	vmov	s16, r0
 80071b6:	f04f 0300 	mov.w	r3, #0
 80071ba:	f04f 020a 	mov.w	r2, #10
 80071be:	4641      	mov	r1, r8
 80071c0:	4620      	mov	r0, r4
 80071c2:	d106      	bne.n	80071d2 <_dtoa_r+0xb0a>
 80071c4:	f000 f900 	bl	80073c8 <__multadd>
 80071c8:	4680      	mov	r8, r0
 80071ca:	4607      	mov	r7, r0
 80071cc:	f109 0901 	add.w	r9, r9, #1
 80071d0:	e772      	b.n	80070b8 <_dtoa_r+0x9f0>
 80071d2:	f000 f8f9 	bl	80073c8 <__multadd>
 80071d6:	4639      	mov	r1, r7
 80071d8:	4680      	mov	r8, r0
 80071da:	2300      	movs	r3, #0
 80071dc:	220a      	movs	r2, #10
 80071de:	4620      	mov	r0, r4
 80071e0:	f000 f8f2 	bl	80073c8 <__multadd>
 80071e4:	4607      	mov	r7, r0
 80071e6:	e7f1      	b.n	80071cc <_dtoa_r+0xb04>
 80071e8:	9b03      	ldr	r3, [sp, #12]
 80071ea:	9302      	str	r3, [sp, #8]
 80071ec:	9d01      	ldr	r5, [sp, #4]
 80071ee:	ee18 0a10 	vmov	r0, s16
 80071f2:	4631      	mov	r1, r6
 80071f4:	f7ff f9dc 	bl	80065b0 <quorem>
 80071f8:	f100 0a30 	add.w	sl, r0, #48	; 0x30
 80071fc:	9b01      	ldr	r3, [sp, #4]
 80071fe:	f805 ab01 	strb.w	sl, [r5], #1
 8007202:	1aea      	subs	r2, r5, r3
 8007204:	9b02      	ldr	r3, [sp, #8]
 8007206:	4293      	cmp	r3, r2
 8007208:	dd09      	ble.n	800721e <_dtoa_r+0xb56>
 800720a:	ee18 1a10 	vmov	r1, s16
 800720e:	2300      	movs	r3, #0
 8007210:	220a      	movs	r2, #10
 8007212:	4620      	mov	r0, r4
 8007214:	f000 f8d8 	bl	80073c8 <__multadd>
 8007218:	ee08 0a10 	vmov	s16, r0
 800721c:	e7e7      	b.n	80071ee <_dtoa_r+0xb26>
 800721e:	9b02      	ldr	r3, [sp, #8]
 8007220:	2b00      	cmp	r3, #0
 8007222:	bfc8      	it	gt
 8007224:	461d      	movgt	r5, r3
 8007226:	9b01      	ldr	r3, [sp, #4]
 8007228:	bfd8      	it	le
 800722a:	2501      	movle	r5, #1
 800722c:	441d      	add	r5, r3
 800722e:	f04f 0800 	mov.w	r8, #0
 8007232:	ee18 1a10 	vmov	r1, s16
 8007236:	2201      	movs	r2, #1
 8007238:	4620      	mov	r0, r4
 800723a:	f000 fa75 	bl	8007728 <__lshift>
 800723e:	4631      	mov	r1, r6
 8007240:	ee08 0a10 	vmov	s16, r0
 8007244:	f000 fae0 	bl	8007808 <__mcmp>
 8007248:	2800      	cmp	r0, #0
 800724a:	dc91      	bgt.n	8007170 <_dtoa_r+0xaa8>
 800724c:	d102      	bne.n	8007254 <_dtoa_r+0xb8c>
 800724e:	f01a 0f01 	tst.w	sl, #1
 8007252:	d18d      	bne.n	8007170 <_dtoa_r+0xaa8>
 8007254:	462b      	mov	r3, r5
 8007256:	461d      	mov	r5, r3
 8007258:	f813 2d01 	ldrb.w	r2, [r3, #-1]!
 800725c:	2a30      	cmp	r2, #48	; 0x30
 800725e:	d0fa      	beq.n	8007256 <_dtoa_r+0xb8e>
 8007260:	e6d7      	b.n	8007012 <_dtoa_r+0x94a>
 8007262:	9a01      	ldr	r2, [sp, #4]
 8007264:	429a      	cmp	r2, r3
 8007266:	d184      	bne.n	8007172 <_dtoa_r+0xaaa>
 8007268:	9b00      	ldr	r3, [sp, #0]
 800726a:	3301      	adds	r3, #1
 800726c:	9300      	str	r3, [sp, #0]
 800726e:	2331      	movs	r3, #49	; 0x31
 8007270:	7013      	strb	r3, [r2, #0]
 8007272:	e6ce      	b.n	8007012 <_dtoa_r+0x94a>
 8007274:	4b09      	ldr	r3, [pc, #36]	; (800729c <_dtoa_r+0xbd4>)
 8007276:	f7ff ba95 	b.w	80067a4 <_dtoa_r+0xdc>
 800727a:	9b21      	ldr	r3, [sp, #132]	; 0x84
 800727c:	2b00      	cmp	r3, #0
 800727e:	f47f aa6e 	bne.w	800675e <_dtoa_r+0x96>
 8007282:	4b07      	ldr	r3, [pc, #28]	; (80072a0 <_dtoa_r+0xbd8>)
 8007284:	f7ff ba8e 	b.w	80067a4 <_dtoa_r+0xdc>
 8007288:	9b02      	ldr	r3, [sp, #8]
 800728a:	2b00      	cmp	r3, #0
 800728c:	dcae      	bgt.n	80071ec <_dtoa_r+0xb24>
 800728e:	9b06      	ldr	r3, [sp, #24]
 8007290:	2b02      	cmp	r3, #2
 8007292:	f73f aea8 	bgt.w	8006fe6 <_dtoa_r+0x91e>
 8007296:	e7a9      	b.n	80071ec <_dtoa_r+0xb24>
 8007298:	0800a9cb 	.word	0x0800a9cb
 800729c:	0800a928 	.word	0x0800a928
 80072a0:	0800a94c 	.word	0x0800a94c

080072a4 <_localeconv_r>:
 80072a4:	4800      	ldr	r0, [pc, #0]	; (80072a8 <_localeconv_r+0x4>)
 80072a6:	4770      	bx	lr
 80072a8:	20000164 	.word	0x20000164

080072ac <_lseek_r>:
 80072ac:	b538      	push	{r3, r4, r5, lr}
 80072ae:	4d07      	ldr	r5, [pc, #28]	; (80072cc <_lseek_r+0x20>)
 80072b0:	4604      	mov	r4, r0
 80072b2:	4608      	mov	r0, r1
 80072b4:	4611      	mov	r1, r2
 80072b6:	2200      	movs	r2, #0
 80072b8:	602a      	str	r2, [r5, #0]
 80072ba:	461a      	mov	r2, r3
 80072bc:	f7fa fbc4 	bl	8001a48 <_lseek>
 80072c0:	1c43      	adds	r3, r0, #1
 80072c2:	d102      	bne.n	80072ca <_lseek_r+0x1e>
 80072c4:	682b      	ldr	r3, [r5, #0]
 80072c6:	b103      	cbz	r3, 80072ca <_lseek_r+0x1e>
 80072c8:	6023      	str	r3, [r4, #0]
 80072ca:	bd38      	pop	{r3, r4, r5, pc}
 80072cc:	200004ac 	.word	0x200004ac

080072d0 <memcpy>:
 80072d0:	440a      	add	r2, r1
 80072d2:	4291      	cmp	r1, r2
 80072d4:	f100 33ff 	add.w	r3, r0, #4294967295
 80072d8:	d100      	bne.n	80072dc <memcpy+0xc>
 80072da:	4770      	bx	lr
 80072dc:	b510      	push	{r4, lr}
 80072de:	f811 4b01 	ldrb.w	r4, [r1], #1
 80072e2:	f803 4f01 	strb.w	r4, [r3, #1]!
 80072e6:	4291      	cmp	r1, r2
 80072e8:	d1f9      	bne.n	80072de <memcpy+0xe>
 80072ea:	bd10      	pop	{r4, pc}

080072ec <__malloc_lock>:
 80072ec:	4801      	ldr	r0, [pc, #4]	; (80072f4 <__malloc_lock+0x8>)
 80072ee:	f000 bd9d 	b.w	8007e2c <__retarget_lock_acquire_recursive>
 80072f2:	bf00      	nop
 80072f4:	200004b0 	.word	0x200004b0

080072f8 <__malloc_unlock>:
 80072f8:	4801      	ldr	r0, [pc, #4]	; (8007300 <__malloc_unlock+0x8>)
 80072fa:	f000 bd98 	b.w	8007e2e <__retarget_lock_release_recursive>
 80072fe:	bf00      	nop
 8007300:	200004b0 	.word	0x200004b0

08007304 <_Balloc>:
 8007304:	b570      	push	{r4, r5, r6, lr}
 8007306:	6a46      	ldr	r6, [r0, #36]	; 0x24
 8007308:	4604      	mov	r4, r0
 800730a:	460d      	mov	r5, r1
 800730c:	b976      	cbnz	r6, 800732c <_Balloc+0x28>
 800730e:	2010      	movs	r0, #16
 8007310:	f7fe fb7e 	bl	8005a10 <malloc>
 8007314:	4602      	mov	r2, r0
 8007316:	6260      	str	r0, [r4, #36]	; 0x24
 8007318:	b920      	cbnz	r0, 8007324 <_Balloc+0x20>
 800731a:	4b18      	ldr	r3, [pc, #96]	; (800737c <_Balloc+0x78>)
 800731c:	4818      	ldr	r0, [pc, #96]	; (8007380 <_Balloc+0x7c>)
 800731e:	2166      	movs	r1, #102	; 0x66
 8007320:	f000 fb9c 	bl	8007a5c <__assert_func>
 8007324:	e9c0 6601 	strd	r6, r6, [r0, #4]
 8007328:	6006      	str	r6, [r0, #0]
 800732a:	60c6      	str	r6, [r0, #12]
 800732c:	6a66      	ldr	r6, [r4, #36]	; 0x24
 800732e:	68f3      	ldr	r3, [r6, #12]
 8007330:	b183      	cbz	r3, 8007354 <_Balloc+0x50>
 8007332:	6a63      	ldr	r3, [r4, #36]	; 0x24
 8007334:	68db      	ldr	r3, [r3, #12]
 8007336:	f853 0025 	ldr.w	r0, [r3, r5, lsl #2]
 800733a:	b9b8      	cbnz	r0, 800736c <_Balloc+0x68>
 800733c:	2101      	movs	r1, #1
 800733e:	fa01 f605 	lsl.w	r6, r1, r5
 8007342:	1d72      	adds	r2, r6, #5
 8007344:	0092      	lsls	r2, r2, #2
 8007346:	4620      	mov	r0, r4
 8007348:	f000 fb60 	bl	8007a0c <_calloc_r>
 800734c:	b160      	cbz	r0, 8007368 <_Balloc+0x64>
 800734e:	e9c0 5601 	strd	r5, r6, [r0, #4]
 8007352:	e00e      	b.n	8007372 <_Balloc+0x6e>
 8007354:	2221      	movs	r2, #33	; 0x21
 8007356:	2104      	movs	r1, #4
 8007358:	4620      	mov	r0, r4
 800735a:	f000 fb57 	bl	8007a0c <_calloc_r>
 800735e:	6a63      	ldr	r3, [r4, #36]	; 0x24
 8007360:	60f0      	str	r0, [r6, #12]
 8007362:	68db      	ldr	r3, [r3, #12]
 8007364:	2b00      	cmp	r3, #0
 8007366:	d1e4      	bne.n	8007332 <_Balloc+0x2e>
 8007368:	2000      	movs	r0, #0
 800736a:	bd70      	pop	{r4, r5, r6, pc}
 800736c:	6802      	ldr	r2, [r0, #0]
 800736e:	f843 2025 	str.w	r2, [r3, r5, lsl #2]
 8007372:	2300      	movs	r3, #0
 8007374:	e9c0 3303 	strd	r3, r3, [r0, #12]
 8007378:	e7f7      	b.n	800736a <_Balloc+0x66>
 800737a:	bf00      	nop
 800737c:	0800a959 	.word	0x0800a959
 8007380:	0800a9dc 	.word	0x0800a9dc

08007384 <_Bfree>:
 8007384:	b570      	push	{r4, r5, r6, lr}
 8007386:	6a46      	ldr	r6, [r0, #36]	; 0x24
 8007388:	4605      	mov	r5, r0
 800738a:	460c      	mov	r4, r1
 800738c:	b976      	cbnz	r6, 80073ac <_Bfree+0x28>
 800738e:	2010      	movs	r0, #16
 8007390:	f7fe fb3e 	bl	8005a10 <malloc>
 8007394:	4602      	mov	r2, r0
 8007396:	6268      	str	r0, [r5, #36]	; 0x24
 8007398:	b920      	cbnz	r0, 80073a4 <_Bfree+0x20>
 800739a:	4b09      	ldr	r3, [pc, #36]	; (80073c0 <_Bfree+0x3c>)
 800739c:	4809      	ldr	r0, [pc, #36]	; (80073c4 <_Bfree+0x40>)
 800739e:	218a      	movs	r1, #138	; 0x8a
 80073a0:	f000 fb5c 	bl	8007a5c <__assert_func>
 80073a4:	e9c0 6601 	strd	r6, r6, [r0, #4]
 80073a8:	6006      	str	r6, [r0, #0]
 80073aa:	60c6      	str	r6, [r0, #12]
 80073ac:	b13c      	cbz	r4, 80073be <_Bfree+0x3a>
 80073ae:	6a6b      	ldr	r3, [r5, #36]	; 0x24
 80073b0:	6862      	ldr	r2, [r4, #4]
 80073b2:	68db      	ldr	r3, [r3, #12]
 80073b4:	f853 1022 	ldr.w	r1, [r3, r2, lsl #2]
 80073b8:	6021      	str	r1, [r4, #0]
 80073ba:	f843 4022 	str.w	r4, [r3, r2, lsl #2]
 80073be:	bd70      	pop	{r4, r5, r6, pc}
 80073c0:	0800a959 	.word	0x0800a959
 80073c4:	0800a9dc 	.word	0x0800a9dc

080073c8 <__multadd>:
 80073c8:	e92d 41f0 	stmdb	sp!, {r4, r5, r6, r7, r8, lr}
 80073cc:	690d      	ldr	r5, [r1, #16]
 80073ce:	4607      	mov	r7, r0
 80073d0:	460c      	mov	r4, r1
 80073d2:	461e      	mov	r6, r3
 80073d4:	f101 0c14 	add.w	ip, r1, #20
 80073d8:	2000      	movs	r0, #0
 80073da:	f8dc 3000 	ldr.w	r3, [ip]
 80073de:	b299      	uxth	r1, r3
 80073e0:	fb02 6101 	mla	r1, r2, r1, r6
 80073e4:	0c1e      	lsrs	r6, r3, #16
 80073e6:	0c0b      	lsrs	r3, r1, #16
 80073e8:	fb02 3306 	mla	r3, r2, r6, r3
 80073ec:	b289      	uxth	r1, r1
 80073ee:	3001      	adds	r0, #1
 80073f0:	eb01 4103 	add.w	r1, r1, r3, lsl #16
 80073f4:	4285      	cmp	r5, r0
 80073f6:	f84c 1b04 	str.w	r1, [ip], #4
 80073fa:	ea4f 4613 	mov.w	r6, r3, lsr #16
 80073fe:	dcec      	bgt.n	80073da <__multadd+0x12>
 8007400:	b30e      	cbz	r6, 8007446 <__multadd+0x7e>
 8007402:	68a3      	ldr	r3, [r4, #8]
 8007404:	42ab      	cmp	r3, r5
 8007406:	dc19      	bgt.n	800743c <__multadd+0x74>
 8007408:	6861      	ldr	r1, [r4, #4]
 800740a:	4638      	mov	r0, r7
 800740c:	3101      	adds	r1, #1
 800740e:	f7ff ff79 	bl	8007304 <_Balloc>
 8007412:	4680      	mov	r8, r0
 8007414:	b928      	cbnz	r0, 8007422 <__multadd+0x5a>
 8007416:	4602      	mov	r2, r0
 8007418:	4b0c      	ldr	r3, [pc, #48]	; (800744c <__multadd+0x84>)
 800741a:	480d      	ldr	r0, [pc, #52]	; (8007450 <__multadd+0x88>)
 800741c:	21b5      	movs	r1, #181	; 0xb5
 800741e:	f000 fb1d 	bl	8007a5c <__assert_func>
 8007422:	6922      	ldr	r2, [r4, #16]
 8007424:	3202      	adds	r2, #2
 8007426:	f104 010c 	add.w	r1, r4, #12
 800742a:	0092      	lsls	r2, r2, #2
 800742c:	300c      	adds	r0, #12
 800742e:	f7ff ff4f 	bl	80072d0 <memcpy>
 8007432:	4621      	mov	r1, r4
 8007434:	4638      	mov	r0, r7
 8007436:	f7ff ffa5 	bl	8007384 <_Bfree>
 800743a:	4644      	mov	r4, r8
 800743c:	eb04 0385 	add.w	r3, r4, r5, lsl #2
 8007440:	3501      	adds	r5, #1
 8007442:	615e      	str	r6, [r3, #20]
 8007444:	6125      	str	r5, [r4, #16]
 8007446:	4620      	mov	r0, r4
 8007448:	e8bd 81f0 	ldmia.w	sp!, {r4, r5, r6, r7, r8, pc}
 800744c:	0800a9cb 	.word	0x0800a9cb
 8007450:	0800a9dc 	.word	0x0800a9dc

08007454 <__hi0bits>:
 8007454:	0c03      	lsrs	r3, r0, #16
 8007456:	041b      	lsls	r3, r3, #16
 8007458:	b9d3      	cbnz	r3, 8007490 <__hi0bits+0x3c>
 800745a:	0400      	lsls	r0, r0, #16
 800745c:	2310      	movs	r3, #16
 800745e:	f010 4f7f 	tst.w	r0, #4278190080	; 0xff000000
 8007462:	bf04      	itt	eq
 8007464:	0200      	lsleq	r0, r0, #8
 8007466:	3308      	addeq	r3, #8
 8007468:	f010 4f70 	tst.w	r0, #4026531840	; 0xf0000000
 800746c:	bf04      	itt	eq
 800746e:	0100      	lsleq	r0, r0, #4
 8007470:	3304      	addeq	r3, #4
 8007472:	f010 4f40 	tst.w	r0, #3221225472	; 0xc0000000
 8007476:	bf04      	itt	eq
 8007478:	0080      	lsleq	r0, r0, #2
 800747a:	3302      	addeq	r3, #2
 800747c:	2800      	cmp	r0, #0
 800747e:	db05      	blt.n	800748c <__hi0bits+0x38>
 8007480:	f010 4f80 	tst.w	r0, #1073741824	; 0x40000000
 8007484:	f103 0301 	add.w	r3, r3, #1
 8007488:	bf08      	it	eq
 800748a:	2320      	moveq	r3, #32
 800748c:	4618      	mov	r0, r3
 800748e:	4770      	bx	lr
 8007490:	2300      	movs	r3, #0
 8007492:	e7e4      	b.n	800745e <__hi0bits+0xa>

08007494 <__lo0bits>:
 8007494:	6803      	ldr	r3, [r0, #0]
 8007496:	f013 0207 	ands.w	r2, r3, #7
 800749a:	4601      	mov	r1, r0
 800749c:	d00b      	beq.n	80074b6 <__lo0bits+0x22>
 800749e:	07da      	lsls	r2, r3, #31
 80074a0:	d423      	bmi.n	80074ea <__lo0bits+0x56>
 80074a2:	0798      	lsls	r0, r3, #30
 80074a4:	bf49      	itett	mi
 80074a6:	085b      	lsrmi	r3, r3, #1
 80074a8:	089b      	lsrpl	r3, r3, #2
 80074aa:	2001      	movmi	r0, #1
 80074ac:	600b      	strmi	r3, [r1, #0]
 80074ae:	bf5c      	itt	pl
 80074b0:	600b      	strpl	r3, [r1, #0]
 80074b2:	2002      	movpl	r0, #2
 80074b4:	4770      	bx	lr
 80074b6:	b298      	uxth	r0, r3
 80074b8:	b9a8      	cbnz	r0, 80074e6 <__lo0bits+0x52>
 80074ba:	0c1b      	lsrs	r3, r3, #16
 80074bc:	2010      	movs	r0, #16
 80074be:	b2da      	uxtb	r2, r3
 80074c0:	b90a      	cbnz	r2, 80074c6 <__lo0bits+0x32>
 80074c2:	3008      	adds	r0, #8
 80074c4:	0a1b      	lsrs	r3, r3, #8
 80074c6:	071a      	lsls	r2, r3, #28
 80074c8:	bf04      	itt	eq
 80074ca:	091b      	lsreq	r3, r3, #4
 80074cc:	3004      	addeq	r0, #4
 80074ce:	079a      	lsls	r2, r3, #30
 80074d0:	bf04      	itt	eq
 80074d2:	089b      	lsreq	r3, r3, #2
 80074d4:	3002      	addeq	r0, #2
 80074d6:	07da      	lsls	r2, r3, #31
 80074d8:	d403      	bmi.n	80074e2 <__lo0bits+0x4e>
 80074da:	085b      	lsrs	r3, r3, #1
 80074dc:	f100 0001 	add.w	r0, r0, #1
 80074e0:	d005      	beq.n	80074ee <__lo0bits+0x5a>
 80074e2:	600b      	str	r3, [r1, #0]
 80074e4:	4770      	bx	lr
 80074e6:	4610      	mov	r0, r2
 80074e8:	e7e9      	b.n	80074be <__lo0bits+0x2a>
 80074ea:	2000      	movs	r0, #0
 80074ec:	4770      	bx	lr
 80074ee:	2020      	movs	r0, #32
 80074f0:	4770      	bx	lr
	...

080074f4 <__i2b>:
 80074f4:	b510      	push	{r4, lr}
 80074f6:	460c      	mov	r4, r1
 80074f8:	2101      	movs	r1, #1
 80074fa:	f7ff ff03 	bl	8007304 <_Balloc>
 80074fe:	4602      	mov	r2, r0
 8007500:	b928      	cbnz	r0, 800750e <__i2b+0x1a>
 8007502:	4b05      	ldr	r3, [pc, #20]	; (8007518 <__i2b+0x24>)
 8007504:	4805      	ldr	r0, [pc, #20]	; (800751c <__i2b+0x28>)
 8007506:	f44f 71a0 	mov.w	r1, #320	; 0x140
 800750a:	f000 faa7 	bl	8007a5c <__assert_func>
 800750e:	2301      	movs	r3, #1
 8007510:	6144      	str	r4, [r0, #20]
 8007512:	6103      	str	r3, [r0, #16]
 8007514:	bd10      	pop	{r4, pc}
 8007516:	bf00      	nop
 8007518:	0800a9cb 	.word	0x0800a9cb
 800751c:	0800a9dc 	.word	0x0800a9dc

08007520 <__multiply>:
 8007520:	e92d 4ff0 	stmdb	sp!, {r4, r5, r6, r7, r8, r9, sl, fp, lr}
 8007524:	4691      	mov	r9, r2
 8007526:	690a      	ldr	r2, [r1, #16]
 8007528:	f8d9 3010 	ldr.w	r3, [r9, #16]
 800752c:	429a      	cmp	r2, r3
 800752e:	bfb8      	it	lt
 8007530:	460b      	movlt	r3, r1
 8007532:	460c      	mov	r4, r1
 8007534:	bfbc      	itt	lt
 8007536:	464c      	movlt	r4, r9
 8007538:	4699      	movlt	r9, r3
 800753a:	6927      	ldr	r7, [r4, #16]
 800753c:	f8d9 a010 	ldr.w	sl, [r9, #16]
 8007540:	68a3      	ldr	r3, [r4, #8]
 8007542:	6861      	ldr	r1, [r4, #4]
 8007544:	eb07 060a 	add.w	r6, r7, sl
 8007548:	42b3      	cmp	r3, r6
 800754a:	b085      	sub	sp, #20
 800754c:	bfb8      	it	lt
 800754e:	3101      	addlt	r1, #1
 8007550:	f7ff fed8 	bl	8007304 <_Balloc>
 8007554:	b930      	cbnz	r0, 8007564 <__multiply+0x44>
 8007556:	4602      	mov	r2, r0
 8007558:	4b44      	ldr	r3, [pc, #272]	; (800766c <__multiply+0x14c>)
 800755a:	4845      	ldr	r0, [pc, #276]	; (8007670 <__multiply+0x150>)
 800755c:	f240 115d 	movw	r1, #349	; 0x15d
 8007560:	f000 fa7c 	bl	8007a5c <__assert_func>
 8007564:	f100 0514 	add.w	r5, r0, #20
 8007568:	eb05 0886 	add.w	r8, r5, r6, lsl #2
 800756c:	462b      	mov	r3, r5
 800756e:	2200      	movs	r2, #0
 8007570:	4543      	cmp	r3, r8
 8007572:	d321      	bcc.n	80075b8 <__multiply+0x98>
 8007574:	f104 0314 	add.w	r3, r4, #20
 8007578:	eb03 0787 	add.w	r7, r3, r7, lsl #2
 800757c:	f109 0314 	add.w	r3, r9, #20
 8007580:	eb03 028a 	add.w	r2, r3, sl, lsl #2
 8007584:	9202      	str	r2, [sp, #8]
 8007586:	1b3a      	subs	r2, r7, r4
 8007588:	3a15      	subs	r2, #21
 800758a:	f022 0203 	bic.w	r2, r2, #3
 800758e:	3204      	adds	r2, #4
 8007590:	f104 0115 	add.w	r1, r4, #21
 8007594:	428f      	cmp	r7, r1
 8007596:	bf38      	it	cc
 8007598:	2204      	movcc	r2, #4
 800759a:	9201      	str	r2, [sp, #4]
 800759c:	9a02      	ldr	r2, [sp, #8]
 800759e:	9303      	str	r3, [sp, #12]
 80075a0:	429a      	cmp	r2, r3
 80075a2:	d80c      	bhi.n	80075be <__multiply+0x9e>
 80075a4:	2e00      	cmp	r6, #0
 80075a6:	dd03      	ble.n	80075b0 <__multiply+0x90>
 80075a8:	f858 3d04 	ldr.w	r3, [r8, #-4]!
 80075ac:	2b00      	cmp	r3, #0
 80075ae:	d05a      	beq.n	8007666 <__multiply+0x146>
 80075b0:	6106      	str	r6, [r0, #16]
 80075b2:	b005      	add	sp, #20
 80075b4:	e8bd 8ff0 	ldmia.w	sp!, {r4, r5, r6, r7, r8, r9, sl, fp, pc}
 80075b8:	f843 2b04 	str.w	r2, [r3], #4
 80075bc:	e7d8      	b.n	8007570 <__multiply+0x50>
 80075be:	f8b3 a000 	ldrh.w	sl, [r3]
 80075c2:	f1ba 0f00 	cmp.w	sl, #0
 80075c6:	d024      	beq.n	8007612 <__multiply+0xf2>
 80075c8:	f104 0e14 	add.w	lr, r4, #20
 80075cc:	46a9      	mov	r9, r5
 80075ce:	f04f 0c00 	mov.w	ip, #0
 80075d2:	f85e 2b04 	ldr.w	r2, [lr], #4
 80075d6:	f8d9 1000 	ldr.w	r1, [r9]
 80075da:	fa1f fb82 	uxth.w	fp, r2
 80075de:	b289      	uxth	r1, r1
 80075e0:	fb0a 110b 	mla	r1, sl, fp, r1
 80075e4:	ea4f 4b12 	mov.w	fp, r2, lsr #16
 80075e8:	f8d9 2000 	ldr.w	r2, [r9]
 80075ec:	4461      	add	r1, ip
 80075ee:	ea4f 4c12 	mov.w	ip, r2, lsr #16
 80075f2:	fb0a c20b 	mla	r2, sl, fp, ip
 80075f6:	eb02 4211 	add.w	r2, r2, r1, lsr #16
 80075fa:	b289      	uxth	r1, r1
 80075fc:	ea41 4102 	orr.w	r1, r1, r2, lsl #16
 8007600:	4577      	cmp	r7, lr
 8007602:	f849 1b04 	str.w	r1, [r9], #4
 8007606:	ea4f 4c12 	mov.w	ip, r2, lsr #16
 800760a:	d8e2      	bhi.n	80075d2 <__multiply+0xb2>
 800760c:	9a01      	ldr	r2, [sp, #4]
 800760e:	f845 c002 	str.w	ip, [r5, r2]
 8007612:	9a03      	ldr	r2, [sp, #12]
 8007614:	f8b2 9002 	ldrh.w	r9, [r2, #2]
 8007618:	3304      	adds	r3, #4
 800761a:	f1b9 0f00 	cmp.w	r9, #0
 800761e:	d020      	beq.n	8007662 <__multiply+0x142>
 8007620:	6829      	ldr	r1, [r5, #0]
 8007622:	f104 0c14 	add.w	ip, r4, #20
 8007626:	46ae      	mov	lr, r5
 8007628:	f04f 0a00 	mov.w	sl, #0
 800762c:	f8bc b000 	ldrh.w	fp, [ip]
 8007630:	f8be 2002 	ldrh.w	r2, [lr, #2]
 8007634:	fb09 220b 	mla	r2, r9, fp, r2
 8007638:	4492      	add	sl, r2
 800763a:	b289      	uxth	r1, r1
 800763c:	ea41 410a 	orr.w	r1, r1, sl, lsl #16
 8007640:	f84e 1b04 	str.w	r1, [lr], #4
 8007644:	f85c 2b04 	ldr.w	r2, [ip], #4
 8007648:	f8be 1000 	ldrh.w	r1, [lr]
 800764c:	0c12      	lsrs	r2, r2, #16
 800764e:	fb09 1102 	mla	r1, r9, r2, r1
 8007652:	eb01 411a 	add.w	r1, r1, sl, lsr #16
 8007656:	4567      	cmp	r7, ip
 8007658:	ea4f 4a11 	mov.w	sl, r1, lsr #16
 800765c:	d8e6      	bhi.n	800762c <__multiply+0x10c>
 800765e:	9a01      	ldr	r2, [sp, #4]
 8007660:	50a9      	str	r1, [r5, r2]
 8007662:	3504      	adds	r5, #4
 8007664:	e79a      	b.n	800759c <__multiply+0x7c>
 8007666:	3e01      	subs	r6, #1
 8007668:	e79c      	b.n	80075a4 <__multiply+0x84>
 800766a:	bf00      	nop
 800766c:	0800a9cb 	.word	0x0800a9cb
 8007670:	0800a9dc 	.word	0x0800a9dc

08007674 <__pow5mult>:
 8007674:	e92d 43f8 	stmdb	sp!, {r3, r4, r5, r6, r7, r8, r9, lr}
 8007678:	4615      	mov	r5, r2
 800767a:	f012 0203 	ands.w	r2, r2, #3
 800767e:	4606      	mov	r6, r0
 8007680:	460f      	mov	r7, r1
 8007682:	d007      	beq.n	8007694 <__pow5mult+0x20>
 8007684:	4c25      	ldr	r4, [pc, #148]	; (800771c <__pow5mult+0xa8>)
 8007686:	3a01      	subs	r2, #1
 8007688:	2300      	movs	r3, #0
 800768a:	f854 2022 	ldr.w	r2, [r4, r2, lsl #2]
 800768e:	f7ff fe9b 	bl	80073c8 <__multadd>
 8007692:	4607      	mov	r7, r0
 8007694:	10ad      	asrs	r5, r5, #2
 8007696:	d03d      	beq.n	8007714 <__pow5mult+0xa0>
 8007698:	6a74      	ldr	r4, [r6, #36]	; 0x24
 800769a:	b97c      	cbnz	r4, 80076bc <__pow5mult+0x48>
 800769c:	2010      	movs	r0, #16
 800769e:	f7fe f9b7 	bl	8005a10 <malloc>
 80076a2:	4602      	mov	r2, r0
 80076a4:	6270      	str	r0, [r6, #36]	; 0x24
 80076a6:	b928      	cbnz	r0, 80076b4 <__pow5mult+0x40>
 80076a8:	4b1d      	ldr	r3, [pc, #116]	; (8007720 <__pow5mult+0xac>)
 80076aa:	481e      	ldr	r0, [pc, #120]	; (8007724 <__pow5mult+0xb0>)
 80076ac:	f44f 71d7 	mov.w	r1, #430	; 0x1ae
 80076b0:	f000 f9d4 	bl	8007a5c <__assert_func>
 80076b4:	e9c0 4401 	strd	r4, r4, [r0, #4]
 80076b8:	6004      	str	r4, [r0, #0]
 80076ba:	60c4      	str	r4, [r0, #12]
 80076bc:	f8d6 8024 	ldr.w	r8, [r6, #36]	; 0x24
 80076c0:	f8d8 4008 	ldr.w	r4, [r8, #8]
 80076c4:	b94c      	cbnz	r4, 80076da <__pow5mult+0x66>
 80076c6:	f240 2171 	movw	r1, #625	; 0x271
 80076ca:	4630      	mov	r0, r6
 80076cc:	f7ff ff12 	bl	80074f4 <__i2b>
 80076d0:	2300      	movs	r3, #0
 80076d2:	f8c8 0008 	str.w	r0, [r8, #8]
 80076d6:	4604      	mov	r4, r0
 80076d8:	6003      	str	r3, [r0, #0]
 80076da:	f04f 0900 	mov.w	r9, #0
 80076de:	07eb      	lsls	r3, r5, #31
 80076e0:	d50a      	bpl.n	80076f8 <__pow5mult+0x84>
 80076e2:	4639      	mov	r1, r7
 80076e4:	4622      	mov	r2, r4
 80076e6:	4630      	mov	r0, r6
 80076e8:	f7ff ff1a 	bl	8007520 <__multiply>
 80076ec:	4639      	mov	r1, r7
 80076ee:	4680      	mov	r8, r0
 80076f0:	4630      	mov	r0, r6
 80076f2:	f7ff fe47 	bl	8007384 <_Bfree>
 80076f6:	4647      	mov	r7, r8
 80076f8:	106d      	asrs	r5, r5, #1
 80076fa:	d00b      	beq.n	8007714 <__pow5mult+0xa0>
 80076fc:	6820      	ldr	r0, [r4, #0]
 80076fe:	b938      	cbnz	r0, 8007710 <__pow5mult+0x9c>
 8007700:	4622      	mov	r2, r4
 8007702:	4621      	mov	r1, r4
 8007704:	4630      	mov	r0, r6
 8007706:	f7ff ff0b 	bl	8007520 <__multiply>
 800770a:	6020      	str	r0, [r4, #0]
 800770c:	f8c0 9000 	str.w	r9, [r0]
 8007710:	4604      	mov	r4, r0
 8007712:	e7e4      	b.n	80076de <__pow5mult+0x6a>
 8007714:	4638      	mov	r0, r7
 8007716:	e8bd 83f8 	ldmia.w	sp!, {r3, r4, r5, r6, r7, r8, r9, pc}
 800771a:	bf00      	nop
 800771c:	0800ab28 	.word	0x0800ab28
 8007720:	0800a959 	.word	0x0800a959
 8007724:	0800a9dc 	.word	0x0800a9dc

08007728 <__lshift>:
 8007728:	e92d 47f0 	stmdb	sp!, {r4, r5, r6, r7, r8, r9, sl, lr}
 800772c:	460c      	mov	r4, r1
 800772e:	6849      	ldr	r1, [r1, #4]
 8007730:	6923      	ldr	r3, [r4, #16]
 8007732:	eb03 1862 	add.w	r8, r3, r2, asr #5
 8007736:	68a3      	ldr	r3, [r4, #8]
 8007738:	4607      	mov	r7, r0
 800773a:	4691      	mov	r9, r2
 800773c:	ea4f 1a62 	mov.w	sl, r2, asr #5
 8007740:	f108 0601 	add.w	r6, r8, #1
 8007744:	42b3      	cmp	r3, r6
 8007746:	db0b      	blt.n	8007760 <__lshift+0x38>
 8007748:	4638      	mov	r0, r7
 800774a:	f7ff fddb 	bl	8007304 <_Balloc>
 800774e:	4605      	mov	r5, r0
 8007750:	b948      	cbnz	r0, 8007766 <__lshift+0x3e>
 8007752:	4602      	mov	r2, r0
 8007754:	4b2a      	ldr	r3, [pc, #168]	; (8007800 <__lshift+0xd8>)
 8007756:	482b      	ldr	r0, [pc, #172]	; (8007804 <__lshift+0xdc>)
 8007758:	f240 11d9 	movw	r1, #473	; 0x1d9
 800775c:	f000 f97e 	bl	8007a5c <__assert_func>
 8007760:	3101      	adds	r1, #1
 8007762:	005b      	lsls	r3, r3, #1
 8007764:	e7ee      	b.n	8007744 <__lshift+0x1c>
 8007766:	2300      	movs	r3, #0
 8007768:	f100 0114 	add.w	r1, r0, #20
 800776c:	f100 0210 	add.w	r2, r0, #16
 8007770:	4618      	mov	r0, r3
 8007772:	4553      	cmp	r3, sl
 8007774:	db37      	blt.n	80077e6 <__lshift+0xbe>
 8007776:	6920      	ldr	r0, [r4, #16]
 8007778:	ea2a 7aea 	bic.w	sl, sl, sl, asr #31
 800777c:	f104 0314 	add.w	r3, r4, #20
 8007780:	f019 091f 	ands.w	r9, r9, #31
 8007784:	eb01 018a 	add.w	r1, r1, sl, lsl #2
 8007788:	eb03 0080 	add.w	r0, r3, r0, lsl #2
 800778c:	d02f      	beq.n	80077ee <__lshift+0xc6>
 800778e:	f1c9 0e20 	rsb	lr, r9, #32
 8007792:	468a      	mov	sl, r1
 8007794:	f04f 0c00 	mov.w	ip, #0
 8007798:	681a      	ldr	r2, [r3, #0]
 800779a:	fa02 f209 	lsl.w	r2, r2, r9
 800779e:	ea42 020c 	orr.w	r2, r2, ip
 80077a2:	f84a 2b04 	str.w	r2, [sl], #4
 80077a6:	f853 2b04 	ldr.w	r2, [r3], #4
 80077aa:	4298      	cmp	r0, r3
 80077ac:	fa22 fc0e 	lsr.w	ip, r2, lr
 80077b0:	d8f2      	bhi.n	8007798 <__lshift+0x70>
 80077b2:	1b03      	subs	r3, r0, r4
 80077b4:	3b15      	subs	r3, #21
 80077b6:	f023 0303 	bic.w	r3, r3, #3
 80077ba:	3304      	adds	r3, #4
 80077bc:	f104 0215 	add.w	r2, r4, #21
 80077c0:	4290      	cmp	r0, r2
 80077c2:	bf38      	it	cc
 80077c4:	2304      	movcc	r3, #4
 80077c6:	f841 c003 	str.w	ip, [r1, r3]
 80077ca:	f1bc 0f00 	cmp.w	ip, #0
 80077ce:	d001      	beq.n	80077d4 <__lshift+0xac>
 80077d0:	f108 0602 	add.w	r6, r8, #2
 80077d4:	3e01      	subs	r6, #1
 80077d6:	4638      	mov	r0, r7
 80077d8:	612e      	str	r6, [r5, #16]
 80077da:	4621      	mov	r1, r4
 80077dc:	f7ff fdd2 	bl	8007384 <_Bfree>
 80077e0:	4628      	mov	r0, r5
 80077e2:	e8bd 87f0 	ldmia.w	sp!, {r4, r5, r6, r7, r8, r9, sl, pc}
 80077e6:	f842 0f04 	str.w	r0, [r2, #4]!
 80077ea:	3301      	adds	r3, #1
 80077ec:	e7c1      	b.n	8007772 <__lshift+0x4a>
 80077ee:	3904      	subs	r1, #4
 80077f0:	f853 2b04 	ldr.w	r2, [r3], #4
 80077f4:	f841 2f04 	str.w	r2, [r1, #4]!
 80077f8:	4298      	cmp	r0, r3
 80077fa:	d8f9      	bhi.n	80077f0 <__lshift+0xc8>
 80077fc:	e7ea      	b.n	80077d4 <__lshift+0xac>
 80077fe:	bf00      	nop
 8007800:	0800a9cb 	.word	0x0800a9cb
 8007804:	0800a9dc 	.word	0x0800a9dc

08007808 <__mcmp>:
 8007808:	b530      	push	{r4, r5, lr}
 800780a:	6902      	ldr	r2, [r0, #16]
 800780c:	690c      	ldr	r4, [r1, #16]
 800780e:	1b12      	subs	r2, r2, r4
 8007810:	d10e      	bne.n	8007830 <__mcmp+0x28>
 8007812:	f100 0314 	add.w	r3, r0, #20
 8007816:	3114      	adds	r1, #20
 8007818:	eb03 0084 	add.w	r0, r3, r4, lsl #2
 800781c:	eb01 0184 	add.w	r1, r1, r4, lsl #2
 8007820:	f850 5d04 	ldr.w	r5, [r0, #-4]!
 8007824:	f851 4d04 	ldr.w	r4, [r1, #-4]!
 8007828:	42a5      	cmp	r5, r4
 800782a:	d003      	beq.n	8007834 <__mcmp+0x2c>
 800782c:	d305      	bcc.n	800783a <__mcmp+0x32>
 800782e:	2201      	movs	r2, #1
 8007830:	4610      	mov	r0, r2
 8007832:	bd30      	pop	{r4, r5, pc}
 8007834:	4283      	cmp	r3, r0
 8007836:	d3f3      	bcc.n	8007820 <__mcmp+0x18>
 8007838:	e7fa      	b.n	8007830 <__mcmp+0x28>
 800783a:	f04f 32ff 	mov.w	r2, #4294967295
 800783e:	e7f7      	b.n	8007830 <__mcmp+0x28>

08007840 <__mdiff>:
 8007840:	e92d 4ff8 	stmdb	sp!, {r3, r4, r5, r6, r7, r8, r9, sl, fp, lr}
 8007844:	460c      	mov	r4, r1
 8007846:	4606      	mov	r6, r0
 8007848:	4611      	mov	r1, r2
 800784a:	4620      	mov	r0, r4
 800784c:	4690      	mov	r8, r2
 800784e:	f7ff ffdb 	bl	8007808 <__mcmp>
 8007852:	1e05      	subs	r5, r0, #0
 8007854:	d110      	bne.n	8007878 <__mdiff+0x38>
 8007856:	4629      	mov	r1, r5
 8007858:	4630      	mov	r0, r6
 800785a:	f7ff fd53 	bl	8007304 <_Balloc>
 800785e:	b930      	cbnz	r0, 800786e <__mdiff+0x2e>
 8007860:	4b3a      	ldr	r3, [pc, #232]	; (800794c <__mdiff+0x10c>)
 8007862:	4602      	mov	r2, r0
 8007864:	f240 2132 	movw	r1, #562	; 0x232
 8007868:	4839      	ldr	r0, [pc, #228]	; (8007950 <__mdiff+0x110>)
 800786a:	f000 f8f7 	bl	8007a5c <__assert_func>
 800786e:	2301      	movs	r3, #1
 8007870:	e9c0 3504 	strd	r3, r5, [r0, #16]
 8007874:	e8bd 8ff8 	ldmia.w	sp!, {r3, r4, r5, r6, r7, r8, r9, sl, fp, pc}
 8007878:	bfa4      	itt	ge
 800787a:	4643      	movge	r3, r8
 800787c:	46a0      	movge	r8, r4
 800787e:	4630      	mov	r0, r6
 8007880:	f8d8 1004 	ldr.w	r1, [r8, #4]
 8007884:	bfa6      	itte	ge
 8007886:	461c      	movge	r4, r3
 8007888:	2500      	movge	r5, #0
 800788a:	2501      	movlt	r5, #1
 800788c:	f7ff fd3a 	bl	8007304 <_Balloc>
 8007890:	b920      	cbnz	r0, 800789c <__mdiff+0x5c>
 8007892:	4b2e      	ldr	r3, [pc, #184]	; (800794c <__mdiff+0x10c>)
 8007894:	4602      	mov	r2, r0
 8007896:	f44f 7110 	mov.w	r1, #576	; 0x240
 800789a:	e7e5      	b.n	8007868 <__mdiff+0x28>
 800789c:	f8d8 7010 	ldr.w	r7, [r8, #16]
 80078a0:	6926      	ldr	r6, [r4, #16]
 80078a2:	60c5      	str	r5, [r0, #12]
 80078a4:	f104 0914 	add.w	r9, r4, #20
 80078a8:	f108 0514 	add.w	r5, r8, #20
 80078ac:	f100 0e14 	add.w	lr, r0, #20
 80078b0:	eb05 0c87 	add.w	ip, r5, r7, lsl #2
 80078b4:	eb09 0686 	add.w	r6, r9, r6, lsl #2
 80078b8:	f108 0210 	add.w	r2, r8, #16
 80078bc:	46f2      	mov	sl, lr
 80078be:	2100      	movs	r1, #0
 80078c0:	f859 3b04 	ldr.w	r3, [r9], #4
 80078c4:	f852 bf04 	ldr.w	fp, [r2, #4]!
 80078c8:	fa1f f883 	uxth.w	r8, r3
 80078cc:	fa11 f18b 	uxtah	r1, r1, fp
 80078d0:	0c1b      	lsrs	r3, r3, #16
 80078d2:	eba1 0808 	sub.w	r8, r1, r8
 80078d6:	ebc3 431b 	rsb	r3, r3, fp, lsr #16
 80078da:	eb03 4328 	add.w	r3, r3, r8, asr #16
 80078de:	fa1f f888 	uxth.w	r8, r8
 80078e2:	1419      	asrs	r1, r3, #16
 80078e4:	454e      	cmp	r6, r9
 80078e6:	ea48 4303 	orr.w	r3, r8, r3, lsl #16
 80078ea:	f84a 3b04 	str.w	r3, [sl], #4
 80078ee:	d8e7      	bhi.n	80078c0 <__mdiff+0x80>
 80078f0:	1b33      	subs	r3, r6, r4
 80078f2:	3b15      	subs	r3, #21
 80078f4:	f023 0303 	bic.w	r3, r3, #3
 80078f8:	3304      	adds	r3, #4
 80078fa:	3415      	adds	r4, #21
 80078fc:	42a6      	cmp	r6, r4
 80078fe:	bf38      	it	cc
 8007900:	2304      	movcc	r3, #4
 8007902:	441d      	add	r5, r3
 8007904:	4473      	add	r3, lr
 8007906:	469e      	mov	lr, r3
 8007908:	462e      	mov	r6, r5
 800790a:	4566      	cmp	r6, ip
 800790c:	d30e      	bcc.n	800792c <__mdiff+0xec>
 800790e:	f10c 0203 	add.w	r2, ip, #3
 8007912:	1b52      	subs	r2, r2, r5
 8007914:	f022 0203 	bic.w	r2, r2, #3
 8007918:	3d03      	subs	r5, #3
 800791a:	45ac      	cmp	ip, r5
 800791c:	bf38      	it	cc
 800791e:	2200      	movcc	r2, #0
 8007920:	441a      	add	r2, r3
 8007922:	f852 3d04 	ldr.w	r3, [r2, #-4]!
 8007926:	b17b      	cbz	r3, 8007948 <__mdiff+0x108>
 8007928:	6107      	str	r7, [r0, #16]
 800792a:	e7a3      	b.n	8007874 <__mdiff+0x34>
 800792c:	f856 8b04 	ldr.w	r8, [r6], #4
 8007930:	fa11 f288 	uxtah	r2, r1, r8
 8007934:	1414      	asrs	r4, r2, #16
 8007936:	eb04 4418 	add.w	r4, r4, r8, lsr #16
 800793a:	b292      	uxth	r2, r2
 800793c:	ea42 4204 	orr.w	r2, r2, r4, lsl #16
 8007940:	f84e 2b04 	str.w	r2, [lr], #4
 8007944:	1421      	asrs	r1, r4, #16
 8007946:	e7e0      	b.n	800790a <__mdiff+0xca>
 8007948:	3f01      	subs	r7, #1
 800794a:	e7ea      	b.n	8007922 <__mdiff+0xe2>
 800794c:	0800a9cb 	.word	0x0800a9cb
 8007950:	0800a9dc 	.word	0x0800a9dc

08007954 <__d2b>:
 8007954:	e92d 43f7 	stmdb	sp!, {r0, r1, r2, r4, r5, r6, r7, r8, r9, lr}
 8007958:	4689      	mov	r9, r1
 800795a:	2101      	movs	r1, #1
 800795c:	ec57 6b10 	vmov	r6, r7, d0
 8007960:	4690      	mov	r8, r2
 8007962:	f7ff fccf 	bl	8007304 <_Balloc>
 8007966:	4604      	mov	r4, r0
 8007968:	b930      	cbnz	r0, 8007978 <__d2b+0x24>
 800796a:	4602      	mov	r2, r0
 800796c:	4b25      	ldr	r3, [pc, #148]	; (8007a04 <__d2b+0xb0>)
 800796e:	4826      	ldr	r0, [pc, #152]	; (8007a08 <__d2b+0xb4>)
 8007970:	f240 310a 	movw	r1, #778	; 0x30a
 8007974:	f000 f872 	bl	8007a5c <__assert_func>
 8007978:	f3c7 550a 	ubfx	r5, r7, #20, #11
 800797c:	f3c7 0313 	ubfx	r3, r7, #0, #20
 8007980:	bb35      	cbnz	r5, 80079d0 <__d2b+0x7c>
 8007982:	2e00      	cmp	r6, #0
 8007984:	9301      	str	r3, [sp, #4]
 8007986:	d028      	beq.n	80079da <__d2b+0x86>
 8007988:	4668      	mov	r0, sp
 800798a:	9600      	str	r6, [sp, #0]
 800798c:	f7ff fd82 	bl	8007494 <__lo0bits>
 8007990:	9900      	ldr	r1, [sp, #0]
 8007992:	b300      	cbz	r0, 80079d6 <__d2b+0x82>
 8007994:	9a01      	ldr	r2, [sp, #4]
 8007996:	f1c0 0320 	rsb	r3, r0, #32
 800799a:	fa02 f303 	lsl.w	r3, r2, r3
 800799e:	430b      	orrs	r3, r1
 80079a0:	40c2      	lsrs	r2, r0
 80079a2:	6163      	str	r3, [r4, #20]
 80079a4:	9201      	str	r2, [sp, #4]
 80079a6:	9b01      	ldr	r3, [sp, #4]
 80079a8:	61a3      	str	r3, [r4, #24]
 80079aa:	2b00      	cmp	r3, #0
 80079ac:	bf14      	ite	ne
 80079ae:	2202      	movne	r2, #2
 80079b0:	2201      	moveq	r2, #1
 80079b2:	6122      	str	r2, [r4, #16]
 80079b4:	b1d5      	cbz	r5, 80079ec <__d2b+0x98>
 80079b6:	f2a5 4533 	subw	r5, r5, #1075	; 0x433
 80079ba:	4405      	add	r5, r0
 80079bc:	f8c9 5000 	str.w	r5, [r9]
 80079c0:	f1c0 0035 	rsb	r0, r0, #53	; 0x35
 80079c4:	f8c8 0000 	str.w	r0, [r8]
 80079c8:	4620      	mov	r0, r4
 80079ca:	b003      	add	sp, #12
 80079cc:	e8bd 83f0 	ldmia.w	sp!, {r4, r5, r6, r7, r8, r9, pc}
 80079d0:	f443 1380 	orr.w	r3, r3, #1048576	; 0x100000
 80079d4:	e7d5      	b.n	8007982 <__d2b+0x2e>
 80079d6:	6161      	str	r1, [r4, #20]
 80079d8:	e7e5      	b.n	80079a6 <__d2b+0x52>
 80079da:	a801      	add	r0, sp, #4
 80079dc:	f7ff fd5a 	bl	8007494 <__lo0bits>
 80079e0:	9b01      	ldr	r3, [sp, #4]
 80079e2:	6163      	str	r3, [r4, #20]
 80079e4:	2201      	movs	r2, #1
 80079e6:	6122      	str	r2, [r4, #16]
 80079e8:	3020      	adds	r0, #32
 80079ea:	e7e3      	b.n	80079b4 <__d2b+0x60>
 80079ec:	eb04 0382 	add.w	r3, r4, r2, lsl #2
 80079f0:	f2a0 4032 	subw	r0, r0, #1074	; 0x432
 80079f4:	f8c9 0000 	str.w	r0, [r9]
 80079f8:	6918      	ldr	r0, [r3, #16]
 80079fa:	f7ff fd2b 	bl	8007454 <__hi0bits>
 80079fe:	ebc0 1042 	rsb	r0, r0, r2, lsl #5
 8007a02:	e7df      	b.n	80079c4 <__d2b+0x70>
 8007a04:	0800a9cb 	.word	0x0800a9cb
 8007a08:	0800a9dc 	.word	0x0800a9dc

08007a0c <_calloc_r>:
 8007a0c:	b537      	push	{r0, r1, r2, r4, r5, lr}
 8007a0e:	fba1 2402 	umull	r2, r4, r1, r2
 8007a12:	b94c      	cbnz	r4, 8007a28 <_calloc_r+0x1c>
 8007a14:	4611      	mov	r1, r2
 8007a16:	9201      	str	r2, [sp, #4]
 8007a18:	f7fe f876 	bl	8005b08 <_malloc_r>
 8007a1c:	9a01      	ldr	r2, [sp, #4]
 8007a1e:	4605      	mov	r5, r0
 8007a20:	b930      	cbnz	r0, 8007a30 <_calloc_r+0x24>
 8007a22:	4628      	mov	r0, r5
 8007a24:	b003      	add	sp, #12
 8007a26:	bd30      	pop	{r4, r5, pc}
 8007a28:	220c      	movs	r2, #12
 8007a2a:	6002      	str	r2, [r0, #0]
 8007a2c:	2500      	movs	r5, #0
 8007a2e:	e7f8      	b.n	8007a22 <_calloc_r+0x16>
 8007a30:	4621      	mov	r1, r4
 8007a32:	f7fd fff5 	bl	8005a20 <memset>
 8007a36:	e7f4      	b.n	8007a22 <_calloc_r+0x16>

08007a38 <_read_r>:
 8007a38:	b538      	push	{r3, r4, r5, lr}
 8007a3a:	4d07      	ldr	r5, [pc, #28]	; (8007a58 <_read_r+0x20>)
 8007a3c:	4604      	mov	r4, r0
 8007a3e:	4608      	mov	r0, r1
 8007a40:	4611      	mov	r1, r2
 8007a42:	2200      	movs	r2, #0
 8007a44:	602a      	str	r2, [r5, #0]
 8007a46:	461a      	mov	r2, r3
 8007a48:	f7f9 ff9e 	bl	8001988 <_read>
 8007a4c:	1c43      	adds	r3, r0, #1
 8007a4e:	d102      	bne.n	8007a56 <_read_r+0x1e>
 8007a50:	682b      	ldr	r3, [r5, #0]
 8007a52:	b103      	cbz	r3, 8007a56 <_read_r+0x1e>
 8007a54:	6023      	str	r3, [r4, #0]
 8007a56:	bd38      	pop	{r3, r4, r5, pc}
 8007a58:	200004ac 	.word	0x200004ac

08007a5c <__assert_func>:
 8007a5c:	b51f      	push	{r0, r1, r2, r3, r4, lr}
 8007a5e:	4614      	mov	r4, r2
 8007a60:	461a      	mov	r2, r3
 8007a62:	4b09      	ldr	r3, [pc, #36]	; (8007a88 <__assert_func+0x2c>)
 8007a64:	681b      	ldr	r3, [r3, #0]
 8007a66:	4605      	mov	r5, r0
 8007a68:	68d8      	ldr	r0, [r3, #12]
 8007a6a:	b14c      	cbz	r4, 8007a80 <__assert_func+0x24>
 8007a6c:	4b07      	ldr	r3, [pc, #28]	; (8007a8c <__assert_func+0x30>)
 8007a6e:	9100      	str	r1, [sp, #0]
 8007a70:	e9cd 3401 	strd	r3, r4, [sp, #4]
 8007a74:	4906      	ldr	r1, [pc, #24]	; (8007a90 <__assert_func+0x34>)
 8007a76:	462b      	mov	r3, r5
 8007a78:	f000 f9a6 	bl	8007dc8 <fiprintf>
 8007a7c:	f000 fc12 	bl	80082a4 <abort>
 8007a80:	4b04      	ldr	r3, [pc, #16]	; (8007a94 <__assert_func+0x38>)
 8007a82:	461c      	mov	r4, r3
 8007a84:	e7f3      	b.n	8007a6e <__assert_func+0x12>
 8007a86:	bf00      	nop
 8007a88:	20000010 	.word	0x20000010
 8007a8c:	0800ab34 	.word	0x0800ab34
 8007a90:	0800ab41 	.word	0x0800ab41
 8007a94:	0800ab6f 	.word	0x0800ab6f

08007a98 <__sflush_r>:
 8007a98:	898a      	ldrh	r2, [r1, #12]
 8007a9a:	e92d 41f0 	stmdb	sp!, {r4, r5, r6, r7, r8, lr}
 8007a9e:	4605      	mov	r5, r0
 8007aa0:	0710      	lsls	r0, r2, #28
 8007aa2:	460c      	mov	r4, r1
 8007aa4:	d458      	bmi.n	8007b58 <__sflush_r+0xc0>
 8007aa6:	684b      	ldr	r3, [r1, #4]
 8007aa8:	2b00      	cmp	r3, #0
 8007aaa:	dc05      	bgt.n	8007ab8 <__sflush_r+0x20>
 8007aac:	6c0b      	ldr	r3, [r1, #64]	; 0x40
 8007aae:	2b00      	cmp	r3, #0
 8007ab0:	dc02      	bgt.n	8007ab8 <__sflush_r+0x20>
 8007ab2:	2000      	movs	r0, #0
 8007ab4:	e8bd 81f0 	ldmia.w	sp!, {r4, r5, r6, r7, r8, pc}
 8007ab8:	6ae6      	ldr	r6, [r4, #44]	; 0x2c
 8007aba:	2e00      	cmp	r6, #0
 8007abc:	d0f9      	beq.n	8007ab2 <__sflush_r+0x1a>
 8007abe:	2300      	movs	r3, #0
 8007ac0:	f412 5280 	ands.w	r2, r2, #4096	; 0x1000
 8007ac4:	682f      	ldr	r7, [r5, #0]
 8007ac6:	602b      	str	r3, [r5, #0]
 8007ac8:	d032      	beq.n	8007b30 <__sflush_r+0x98>
 8007aca:	6d60      	ldr	r0, [r4, #84]	; 0x54
 8007acc:	89a3      	ldrh	r3, [r4, #12]
 8007ace:	075a      	lsls	r2, r3, #29
 8007ad0:	d505      	bpl.n	8007ade <__sflush_r+0x46>
 8007ad2:	6863      	ldr	r3, [r4, #4]
 8007ad4:	1ac0      	subs	r0, r0, r3
 8007ad6:	6b63      	ldr	r3, [r4, #52]	; 0x34
 8007ad8:	b10b      	cbz	r3, 8007ade <__sflush_r+0x46>
 8007ada:	6c23      	ldr	r3, [r4, #64]	; 0x40
 8007adc:	1ac0      	subs	r0, r0, r3
 8007ade:	2300      	movs	r3, #0
 8007ae0:	4602      	mov	r2, r0
 8007ae2:	6ae6      	ldr	r6, [r4, #44]	; 0x2c
 8007ae4:	6a21      	ldr	r1, [r4, #32]
 8007ae6:	4628      	mov	r0, r5
 8007ae8:	47b0      	blx	r6
 8007aea:	1c43      	adds	r3, r0, #1
 8007aec:	89a3      	ldrh	r3, [r4, #12]
 8007aee:	d106      	bne.n	8007afe <__sflush_r+0x66>
 8007af0:	6829      	ldr	r1, [r5, #0]
 8007af2:	291d      	cmp	r1, #29
 8007af4:	d82c      	bhi.n	8007b50 <__sflush_r+0xb8>
 8007af6:	4a2a      	ldr	r2, [pc, #168]	; (8007ba0 <__sflush_r+0x108>)
 8007af8:	40ca      	lsrs	r2, r1
 8007afa:	07d6      	lsls	r6, r2, #31
 8007afc:	d528      	bpl.n	8007b50 <__sflush_r+0xb8>
 8007afe:	2200      	movs	r2, #0
 8007b00:	6062      	str	r2, [r4, #4]
 8007b02:	04d9      	lsls	r1, r3, #19
 8007b04:	6922      	ldr	r2, [r4, #16]
 8007b06:	6022      	str	r2, [r4, #0]
 8007b08:	d504      	bpl.n	8007b14 <__sflush_r+0x7c>
 8007b0a:	1c42      	adds	r2, r0, #1
 8007b0c:	d101      	bne.n	8007b12 <__sflush_r+0x7a>
 8007b0e:	682b      	ldr	r3, [r5, #0]
 8007b10:	b903      	cbnz	r3, 8007b14 <__sflush_r+0x7c>
 8007b12:	6560      	str	r0, [r4, #84]	; 0x54
 8007b14:	6b61      	ldr	r1, [r4, #52]	; 0x34
 8007b16:	602f      	str	r7, [r5, #0]
 8007b18:	2900      	cmp	r1, #0
 8007b1a:	d0ca      	beq.n	8007ab2 <__sflush_r+0x1a>
 8007b1c:	f104 0344 	add.w	r3, r4, #68	; 0x44
 8007b20:	4299      	cmp	r1, r3
 8007b22:	d002      	beq.n	8007b2a <__sflush_r+0x92>
 8007b24:	4628      	mov	r0, r5
 8007b26:	f7fd ff83 	bl	8005a30 <_free_r>
 8007b2a:	2000      	movs	r0, #0
 8007b2c:	6360      	str	r0, [r4, #52]	; 0x34
 8007b2e:	e7c1      	b.n	8007ab4 <__sflush_r+0x1c>
 8007b30:	6a21      	ldr	r1, [r4, #32]
 8007b32:	2301      	movs	r3, #1
 8007b34:	4628      	mov	r0, r5
 8007b36:	47b0      	blx	r6
 8007b38:	1c41      	adds	r1, r0, #1
 8007b3a:	d1c7      	bne.n	8007acc <__sflush_r+0x34>
 8007b3c:	682b      	ldr	r3, [r5, #0]
 8007b3e:	2b00      	cmp	r3, #0
 8007b40:	d0c4      	beq.n	8007acc <__sflush_r+0x34>
 8007b42:	2b1d      	cmp	r3, #29
 8007b44:	d001      	beq.n	8007b4a <__sflush_r+0xb2>
 8007b46:	2b16      	cmp	r3, #22
 8007b48:	d101      	bne.n	8007b4e <__sflush_r+0xb6>
 8007b4a:	602f      	str	r7, [r5, #0]
 8007b4c:	e7b1      	b.n	8007ab2 <__sflush_r+0x1a>
 8007b4e:	89a3      	ldrh	r3, [r4, #12]
 8007b50:	f043 0340 	orr.w	r3, r3, #64	; 0x40
 8007b54:	81a3      	strh	r3, [r4, #12]
 8007b56:	e7ad      	b.n	8007ab4 <__sflush_r+0x1c>
 8007b58:	690f      	ldr	r7, [r1, #16]
 8007b5a:	2f00      	cmp	r7, #0
 8007b5c:	d0a9      	beq.n	8007ab2 <__sflush_r+0x1a>
 8007b5e:	0793      	lsls	r3, r2, #30
 8007b60:	680e      	ldr	r6, [r1, #0]
 8007b62:	bf08      	it	eq
 8007b64:	694b      	ldreq	r3, [r1, #20]
 8007b66:	600f      	str	r7, [r1, #0]
 8007b68:	bf18      	it	ne
 8007b6a:	2300      	movne	r3, #0
 8007b6c:	eba6 0807 	sub.w	r8, r6, r7
 8007b70:	608b      	str	r3, [r1, #8]
 8007b72:	f1b8 0f00 	cmp.w	r8, #0
 8007b76:	dd9c      	ble.n	8007ab2 <__sflush_r+0x1a>
 8007b78:	6a21      	ldr	r1, [r4, #32]
 8007b7a:	6aa6      	ldr	r6, [r4, #40]	; 0x28
 8007b7c:	4643      	mov	r3, r8
 8007b7e:	463a      	mov	r2, r7
 8007b80:	4628      	mov	r0, r5
 8007b82:	47b0      	blx	r6
 8007b84:	2800      	cmp	r0, #0
 8007b86:	dc06      	bgt.n	8007b96 <__sflush_r+0xfe>
 8007b88:	89a3      	ldrh	r3, [r4, #12]
 8007b8a:	f043 0340 	orr.w	r3, r3, #64	; 0x40
 8007b8e:	81a3      	strh	r3, [r4, #12]
 8007b90:	f04f 30ff 	mov.w	r0, #4294967295
 8007b94:	e78e      	b.n	8007ab4 <__sflush_r+0x1c>
 8007b96:	4407      	add	r7, r0
 8007b98:	eba8 0800 	sub.w	r8, r8, r0
 8007b9c:	e7e9      	b.n	8007b72 <__sflush_r+0xda>
 8007b9e:	bf00      	nop
 8007ba0:	20400001 	.word	0x20400001

08007ba4 <_fflush_r>:
 8007ba4:	b538      	push	{r3, r4, r5, lr}
 8007ba6:	690b      	ldr	r3, [r1, #16]
 8007ba8:	4605      	mov	r5, r0
 8007baa:	460c      	mov	r4, r1
 8007bac:	b913      	cbnz	r3, 8007bb4 <_fflush_r+0x10>
 8007bae:	2500      	movs	r5, #0
 8007bb0:	4628      	mov	r0, r5
 8007bb2:	bd38      	pop	{r3, r4, r5, pc}
 8007bb4:	b118      	cbz	r0, 8007bbe <_fflush_r+0x1a>
 8007bb6:	6983      	ldr	r3, [r0, #24]
 8007bb8:	b90b      	cbnz	r3, 8007bbe <_fflush_r+0x1a>
 8007bba:	f000 f887 	bl	8007ccc <__sinit>
 8007bbe:	4b14      	ldr	r3, [pc, #80]	; (8007c10 <_fflush_r+0x6c>)
 8007bc0:	429c      	cmp	r4, r3
 8007bc2:	d11b      	bne.n	8007bfc <_fflush_r+0x58>
 8007bc4:	686c      	ldr	r4, [r5, #4]
 8007bc6:	f9b4 300c 	ldrsh.w	r3, [r4, #12]
 8007bca:	2b00      	cmp	r3, #0
 8007bcc:	d0ef      	beq.n	8007bae <_fflush_r+0xa>
 8007bce:	6e62      	ldr	r2, [r4, #100]	; 0x64
 8007bd0:	07d0      	lsls	r0, r2, #31
 8007bd2:	d404      	bmi.n	8007bde <_fflush_r+0x3a>
 8007bd4:	0599      	lsls	r1, r3, #22
 8007bd6:	d402      	bmi.n	8007bde <_fflush_r+0x3a>
 8007bd8:	6da0      	ldr	r0, [r4, #88]	; 0x58
 8007bda:	f000 f927 	bl	8007e2c <__retarget_lock_acquire_recursive>
 8007bde:	4628      	mov	r0, r5
 8007be0:	4621      	mov	r1, r4
 8007be2:	f7ff ff59 	bl	8007a98 <__sflush_r>
 8007be6:	6e63      	ldr	r3, [r4, #100]	; 0x64
 8007be8:	07da      	lsls	r2, r3, #31
 8007bea:	4605      	mov	r5, r0
 8007bec:	d4e0      	bmi.n	8007bb0 <_fflush_r+0xc>
 8007bee:	89a3      	ldrh	r3, [r4, #12]
 8007bf0:	059b      	lsls	r3, r3, #22
 8007bf2:	d4dd      	bmi.n	8007bb0 <_fflush_r+0xc>
 8007bf4:	6da0      	ldr	r0, [r4, #88]	; 0x58
 8007bf6:	f000 f91a 	bl	8007e2e <__retarget_lock_release_recursive>
 8007bfa:	e7d9      	b.n	8007bb0 <_fflush_r+0xc>
 8007bfc:	4b05      	ldr	r3, [pc, #20]	; (8007c14 <_fflush_r+0x70>)
 8007bfe:	429c      	cmp	r4, r3
 8007c00:	d101      	bne.n	8007c06 <_fflush_r+0x62>
 8007c02:	68ac      	ldr	r4, [r5, #8]
 8007c04:	e7df      	b.n	8007bc6 <_fflush_r+0x22>
 8007c06:	4b04      	ldr	r3, [pc, #16]	; (8007c18 <_fflush_r+0x74>)
 8007c08:	429c      	cmp	r4, r3
 8007c0a:	bf08      	it	eq
 8007c0c:	68ec      	ldreq	r4, [r5, #12]
 8007c0e:	e7da      	b.n	8007bc6 <_fflush_r+0x22>
 8007c10:	0800ac94 	.word	0x0800ac94
 8007c14:	0800acb4 	.word	0x0800acb4
 8007c18:	0800ac74 	.word	0x0800ac74

08007c1c <std>:
 8007c1c:	2300      	movs	r3, #0
 8007c1e:	b510      	push	{r4, lr}
 8007c20:	4604      	mov	r4, r0
 8007c22:	e9c0 3300 	strd	r3, r3, [r0]
 8007c26:	e9c0 3304 	strd	r3, r3, [r0, #16]
 8007c2a:	6083      	str	r3, [r0, #8]
 8007c2c:	8181      	strh	r1, [r0, #12]
 8007c2e:	6643      	str	r3, [r0, #100]	; 0x64
 8007c30:	81c2      	strh	r2, [r0, #14]
 8007c32:	6183      	str	r3, [r0, #24]
 8007c34:	4619      	mov	r1, r3
 8007c36:	2208      	movs	r2, #8
 8007c38:	305c      	adds	r0, #92	; 0x5c
 8007c3a:	f7fd fef1 	bl	8005a20 <memset>
 8007c3e:	4b05      	ldr	r3, [pc, #20]	; (8007c54 <std+0x38>)
 8007c40:	6263      	str	r3, [r4, #36]	; 0x24
 8007c42:	4b05      	ldr	r3, [pc, #20]	; (8007c58 <std+0x3c>)
 8007c44:	62a3      	str	r3, [r4, #40]	; 0x28
 8007c46:	4b05      	ldr	r3, [pc, #20]	; (8007c5c <std+0x40>)
 8007c48:	62e3      	str	r3, [r4, #44]	; 0x2c
 8007c4a:	4b05      	ldr	r3, [pc, #20]	; (8007c60 <std+0x44>)
 8007c4c:	6224      	str	r4, [r4, #32]
 8007c4e:	6323      	str	r3, [r4, #48]	; 0x30
 8007c50:	bd10      	pop	{r4, pc}
 8007c52:	bf00      	nop
 8007c54:	080064e5 	.word	0x080064e5
 8007c58:	08006507 	.word	0x08006507
 8007c5c:	0800653f 	.word	0x0800653f
 8007c60:	08006563 	.word	0x08006563

08007c64 <_cleanup_r>:
 8007c64:	4901      	ldr	r1, [pc, #4]	; (8007c6c <_cleanup_r+0x8>)
 8007c66:	f000 b8c1 	b.w	8007dec <_fwalk_reent>
 8007c6a:	bf00      	nop
 8007c6c:	08007ba5 	.word	0x08007ba5

08007c70 <__sfmoreglue>:
 8007c70:	b570      	push	{r4, r5, r6, lr}
 8007c72:	2268      	movs	r2, #104	; 0x68
 8007c74:	1e4d      	subs	r5, r1, #1
 8007c76:	4355      	muls	r5, r2
 8007c78:	460e      	mov	r6, r1
 8007c7a:	f105 0174 	add.w	r1, r5, #116	; 0x74
 8007c7e:	f7fd ff43 	bl	8005b08 <_malloc_r>
 8007c82:	4604      	mov	r4, r0
 8007c84:	b140      	cbz	r0, 8007c98 <__sfmoreglue+0x28>
 8007c86:	2100      	movs	r1, #0
 8007c88:	e9c0 1600 	strd	r1, r6, [r0]
 8007c8c:	300c      	adds	r0, #12
 8007c8e:	60a0      	str	r0, [r4, #8]
 8007c90:	f105 0268 	add.w	r2, r5, #104	; 0x68
 8007c94:	f7fd fec4 	bl	8005a20 <memset>
 8007c98:	4620      	mov	r0, r4
 8007c9a:	bd70      	pop	{r4, r5, r6, pc}

08007c9c <__sfp_lock_acquire>:
 8007c9c:	4801      	ldr	r0, [pc, #4]	; (8007ca4 <__sfp_lock_acquire+0x8>)
 8007c9e:	f000 b8c5 	b.w	8007e2c <__retarget_lock_acquire_recursive>
 8007ca2:	bf00      	nop
 8007ca4:	200004b1 	.word	0x200004b1

08007ca8 <__sfp_lock_release>:
 8007ca8:	4801      	ldr	r0, [pc, #4]	; (8007cb0 <__sfp_lock_release+0x8>)
 8007caa:	f000 b8c0 	b.w	8007e2e <__retarget_lock_release_recursive>
 8007cae:	bf00      	nop
 8007cb0:	200004b1 	.word	0x200004b1

08007cb4 <__sinit_lock_acquire>:
 8007cb4:	4801      	ldr	r0, [pc, #4]	; (8007cbc <__sinit_lock_acquire+0x8>)
 8007cb6:	f000 b8b9 	b.w	8007e2c <__retarget_lock_acquire_recursive>
 8007cba:	bf00      	nop
 8007cbc:	200004b2 	.word	0x200004b2

08007cc0 <__sinit_lock_release>:
 8007cc0:	4801      	ldr	r0, [pc, #4]	; (8007cc8 <__sinit_lock_release+0x8>)
 8007cc2:	f000 b8b4 	b.w	8007e2e <__retarget_lock_release_recursive>
 8007cc6:	bf00      	nop
 8007cc8:	200004b2 	.word	0x200004b2

08007ccc <__sinit>:
 8007ccc:	b510      	push	{r4, lr}
 8007cce:	4604      	mov	r4, r0
 8007cd0:	f7ff fff0 	bl	8007cb4 <__sinit_lock_acquire>
 8007cd4:	69a3      	ldr	r3, [r4, #24]
 8007cd6:	b11b      	cbz	r3, 8007ce0 <__sinit+0x14>
 8007cd8:	e8bd 4010 	ldmia.w	sp!, {r4, lr}
 8007cdc:	f7ff bff0 	b.w	8007cc0 <__sinit_lock_release>
 8007ce0:	e9c4 3312 	strd	r3, r3, [r4, #72]	; 0x48
 8007ce4:	6523      	str	r3, [r4, #80]	; 0x50
 8007ce6:	4b13      	ldr	r3, [pc, #76]	; (8007d34 <__sinit+0x68>)
 8007ce8:	4a13      	ldr	r2, [pc, #76]	; (8007d38 <__sinit+0x6c>)
 8007cea:	681b      	ldr	r3, [r3, #0]
 8007cec:	62a2      	str	r2, [r4, #40]	; 0x28
 8007cee:	42a3      	cmp	r3, r4
 8007cf0:	bf04      	itt	eq
 8007cf2:	2301      	moveq	r3, #1
 8007cf4:	61a3      	streq	r3, [r4, #24]
 8007cf6:	4620      	mov	r0, r4
 8007cf8:	f000 f820 	bl	8007d3c <__sfp>
 8007cfc:	6060      	str	r0, [r4, #4]
 8007cfe:	4620      	mov	r0, r4
 8007d00:	f000 f81c 	bl	8007d3c <__sfp>
 8007d04:	60a0      	str	r0, [r4, #8]
 8007d06:	4620      	mov	r0, r4
 8007d08:	f000 f818 	bl	8007d3c <__sfp>
 8007d0c:	2200      	movs	r2, #0
 8007d0e:	60e0      	str	r0, [r4, #12]
 8007d10:	2104      	movs	r1, #4
 8007d12:	6860      	ldr	r0, [r4, #4]
 8007d14:	f7ff ff82 	bl	8007c1c <std>
 8007d18:	68a0      	ldr	r0, [r4, #8]
 8007d1a:	2201      	movs	r2, #1
 8007d1c:	2109      	movs	r1, #9
 8007d1e:	f7ff ff7d 	bl	8007c1c <std>
 8007d22:	68e0      	ldr	r0, [r4, #12]
 8007d24:	2202      	movs	r2, #2
 8007d26:	2112      	movs	r1, #18
 8007d28:	f7ff ff78 	bl	8007c1c <std>
 8007d2c:	2301      	movs	r3, #1
 8007d2e:	61a3      	str	r3, [r4, #24]
 8007d30:	e7d2      	b.n	8007cd8 <__sinit+0xc>
 8007d32:	bf00      	nop
 8007d34:	0800a914 	.word	0x0800a914
 8007d38:	08007c65 	.word	0x08007c65

08007d3c <__sfp>:
 8007d3c:	b5f8      	push	{r3, r4, r5, r6, r7, lr}
 8007d3e:	4607      	mov	r7, r0
 8007d40:	f7ff ffac 	bl	8007c9c <__sfp_lock_acquire>
 8007d44:	4b1e      	ldr	r3, [pc, #120]	; (8007dc0 <__sfp+0x84>)
 8007d46:	681e      	ldr	r6, [r3, #0]
 8007d48:	69b3      	ldr	r3, [r6, #24]
 8007d4a:	b913      	cbnz	r3, 8007d52 <__sfp+0x16>
 8007d4c:	4630      	mov	r0, r6
 8007d4e:	f7ff ffbd 	bl	8007ccc <__sinit>
 8007d52:	3648      	adds	r6, #72	; 0x48
 8007d54:	e9d6 3401 	ldrd	r3, r4, [r6, #4]
 8007d58:	3b01      	subs	r3, #1
 8007d5a:	d503      	bpl.n	8007d64 <__sfp+0x28>
 8007d5c:	6833      	ldr	r3, [r6, #0]
 8007d5e:	b30b      	cbz	r3, 8007da4 <__sfp+0x68>
 8007d60:	6836      	ldr	r6, [r6, #0]
 8007d62:	e7f7      	b.n	8007d54 <__sfp+0x18>
 8007d64:	f9b4 500c 	ldrsh.w	r5, [r4, #12]
 8007d68:	b9d5      	cbnz	r5, 8007da0 <__sfp+0x64>
 8007d6a:	4b16      	ldr	r3, [pc, #88]	; (8007dc4 <__sfp+0x88>)
 8007d6c:	60e3      	str	r3, [r4, #12]
 8007d6e:	f104 0058 	add.w	r0, r4, #88	; 0x58
 8007d72:	6665      	str	r5, [r4, #100]	; 0x64
 8007d74:	f000 f859 	bl	8007e2a <__retarget_lock_init_recursive>
 8007d78:	f7ff ff96 	bl	8007ca8 <__sfp_lock_release>
 8007d7c:	e9c4 5501 	strd	r5, r5, [r4, #4]
 8007d80:	e9c4 5504 	strd	r5, r5, [r4, #16]
 8007d84:	6025      	str	r5, [r4, #0]
 8007d86:	61a5      	str	r5, [r4, #24]
 8007d88:	2208      	movs	r2, #8
 8007d8a:	4629      	mov	r1, r5
 8007d8c:	f104 005c 	add.w	r0, r4, #92	; 0x5c
 8007d90:	f7fd fe46 	bl	8005a20 <memset>
 8007d94:	e9c4 550d 	strd	r5, r5, [r4, #52]	; 0x34
 8007d98:	e9c4 5512 	strd	r5, r5, [r4, #72]	; 0x48
 8007d9c:	4620      	mov	r0, r4
 8007d9e:	bdf8      	pop	{r3, r4, r5, r6, r7, pc}
 8007da0:	3468      	adds	r4, #104	; 0x68
 8007da2:	e7d9      	b.n	8007d58 <__sfp+0x1c>
 8007da4:	2104      	movs	r1, #4
 8007da6:	4638      	mov	r0, r7
 8007da8:	f7ff ff62 	bl	8007c70 <__sfmoreglue>
 8007dac:	4604      	mov	r4, r0
 8007dae:	6030      	str	r0, [r6, #0]
 8007db0:	2800      	cmp	r0, #0
 8007db2:	d1d5      	bne.n	8007d60 <__sfp+0x24>
 8007db4:	f7ff ff78 	bl	8007ca8 <__sfp_lock_release>
 8007db8:	230c      	movs	r3, #12
 8007dba:	603b      	str	r3, [r7, #0]
 8007dbc:	e7ee      	b.n	8007d9c <__sfp+0x60>
 8007dbe:	bf00      	nop
 8007dc0:	0800a914 	.word	0x0800a914
 8007dc4:	ffff0001 	.word	0xffff0001

08007dc8 <fiprintf>:
 8007dc8:	b40e      	push	{r1, r2, r3}
 8007dca:	b503      	push	{r0, r1, lr}
 8007dcc:	4601      	mov	r1, r0
 8007dce:	ab03      	add	r3, sp, #12
 8007dd0:	4805      	ldr	r0, [pc, #20]	; (8007de8 <fiprintf+0x20>)
 8007dd2:	f853 2b04 	ldr.w	r2, [r3], #4
 8007dd6:	6800      	ldr	r0, [r0, #0]
 8007dd8:	9301      	str	r3, [sp, #4]
 8007dda:	f000 f865 	bl	8007ea8 <_vfiprintf_r>
 8007dde:	b002      	add	sp, #8
 8007de0:	f85d eb04 	ldr.w	lr, [sp], #4
 8007de4:	b003      	add	sp, #12
 8007de6:	4770      	bx	lr
 8007de8:	20000010 	.word	0x20000010

08007dec <_fwalk_reent>:
 8007dec:	e92d 43f8 	stmdb	sp!, {r3, r4, r5, r6, r7, r8, r9, lr}
 8007df0:	4606      	mov	r6, r0
 8007df2:	4688      	mov	r8, r1
 8007df4:	f100 0448 	add.w	r4, r0, #72	; 0x48
 8007df8:	2700      	movs	r7, #0
 8007dfa:	e9d4 9501 	ldrd	r9, r5, [r4, #4]
 8007dfe:	f1b9 0901 	subs.w	r9, r9, #1
 8007e02:	d505      	bpl.n	8007e10 <_fwalk_reent+0x24>
 8007e04:	6824      	ldr	r4, [r4, #0]
 8007e06:	2c00      	cmp	r4, #0
 8007e08:	d1f7      	bne.n	8007dfa <_fwalk_reent+0xe>
 8007e0a:	4638      	mov	r0, r7
 8007e0c:	e8bd 83f8 	ldmia.w	sp!, {r3, r4, r5, r6, r7, r8, r9, pc}
 8007e10:	89ab      	ldrh	r3, [r5, #12]
 8007e12:	2b01      	cmp	r3, #1
 8007e14:	d907      	bls.n	8007e26 <_fwalk_reent+0x3a>
 8007e16:	f9b5 300e 	ldrsh.w	r3, [r5, #14]
 8007e1a:	3301      	adds	r3, #1
 8007e1c:	d003      	beq.n	8007e26 <_fwalk_reent+0x3a>
 8007e1e:	4629      	mov	r1, r5
 8007e20:	4630      	mov	r0, r6
 8007e22:	47c0      	blx	r8
 8007e24:	4307      	orrs	r7, r0
 8007e26:	3568      	adds	r5, #104	; 0x68
 8007e28:	e7e9      	b.n	8007dfe <_fwalk_reent+0x12>

08007e2a <__retarget_lock_init_recursive>:
 8007e2a:	4770      	bx	lr

08007e2c <__retarget_lock_acquire_recursive>:
 8007e2c:	4770      	bx	lr

08007e2e <__retarget_lock_release_recursive>:
 8007e2e:	4770      	bx	lr

08007e30 <__ascii_mbtowc>:
 8007e30:	b082      	sub	sp, #8
 8007e32:	b901      	cbnz	r1, 8007e36 <__ascii_mbtowc+0x6>
 8007e34:	a901      	add	r1, sp, #4
 8007e36:	b142      	cbz	r2, 8007e4a <__ascii_mbtowc+0x1a>
 8007e38:	b14b      	cbz	r3, 8007e4e <__ascii_mbtowc+0x1e>
 8007e3a:	7813      	ldrb	r3, [r2, #0]
 8007e3c:	600b      	str	r3, [r1, #0]
 8007e3e:	7812      	ldrb	r2, [r2, #0]
 8007e40:	1e10      	subs	r0, r2, #0
 8007e42:	bf18      	it	ne
 8007e44:	2001      	movne	r0, #1
 8007e46:	b002      	add	sp, #8
 8007e48:	4770      	bx	lr
 8007e4a:	4610      	mov	r0, r2
 8007e4c:	e7fb      	b.n	8007e46 <__ascii_mbtowc+0x16>
 8007e4e:	f06f 0001 	mvn.w	r0, #1
 8007e52:	e7f8      	b.n	8007e46 <__ascii_mbtowc+0x16>

08007e54 <__sfputc_r>:
 8007e54:	6893      	ldr	r3, [r2, #8]
 8007e56:	3b01      	subs	r3, #1
 8007e58:	2b00      	cmp	r3, #0
 8007e5a:	b410      	push	{r4}
 8007e5c:	6093      	str	r3, [r2, #8]
 8007e5e:	da08      	bge.n	8007e72 <__sfputc_r+0x1e>
 8007e60:	6994      	ldr	r4, [r2, #24]
 8007e62:	42a3      	cmp	r3, r4
 8007e64:	db01      	blt.n	8007e6a <__sfputc_r+0x16>
 8007e66:	290a      	cmp	r1, #10
 8007e68:	d103      	bne.n	8007e72 <__sfputc_r+0x1e>
 8007e6a:	f85d 4b04 	ldr.w	r4, [sp], #4
 8007e6e:	f000 b94b 	b.w	8008108 <__swbuf_r>
 8007e72:	6813      	ldr	r3, [r2, #0]
 8007e74:	1c58      	adds	r0, r3, #1
 8007e76:	6010      	str	r0, [r2, #0]
 8007e78:	7019      	strb	r1, [r3, #0]
 8007e7a:	4608      	mov	r0, r1
 8007e7c:	f85d 4b04 	ldr.w	r4, [sp], #4
 8007e80:	4770      	bx	lr

08007e82 <__sfputs_r>:
 8007e82:	b5f8      	push	{r3, r4, r5, r6, r7, lr}
 8007e84:	4606      	mov	r6, r0
 8007e86:	460f      	mov	r7, r1
 8007e88:	4614      	mov	r4, r2
 8007e8a:	18d5      	adds	r5, r2, r3
 8007e8c:	42ac      	cmp	r4, r5
 8007e8e:	d101      	bne.n	8007e94 <__sfputs_r+0x12>
 8007e90:	2000      	movs	r0, #0
 8007e92:	e007      	b.n	8007ea4 <__sfputs_r+0x22>
 8007e94:	f814 1b01 	ldrb.w	r1, [r4], #1
 8007e98:	463a      	mov	r2, r7
 8007e9a:	4630      	mov	r0, r6
 8007e9c:	f7ff ffda 	bl	8007e54 <__sfputc_r>
 8007ea0:	1c43      	adds	r3, r0, #1
 8007ea2:	d1f3      	bne.n	8007e8c <__sfputs_r+0xa>
 8007ea4:	bdf8      	pop	{r3, r4, r5, r6, r7, pc}
	...

08007ea8 <_vfiprintf_r>:
 8007ea8:	e92d 4ff0 	stmdb	sp!, {r4, r5, r6, r7, r8, r9, sl, fp, lr}
 8007eac:	460d      	mov	r5, r1
 8007eae:	b09d      	sub	sp, #116	; 0x74
 8007eb0:	4614      	mov	r4, r2
 8007eb2:	4698      	mov	r8, r3
 8007eb4:	4606      	mov	r6, r0
 8007eb6:	b118      	cbz	r0, 8007ec0 <_vfiprintf_r+0x18>
 8007eb8:	6983      	ldr	r3, [r0, #24]
 8007eba:	b90b      	cbnz	r3, 8007ec0 <_vfiprintf_r+0x18>
 8007ebc:	f7ff ff06 	bl	8007ccc <__sinit>
 8007ec0:	4b89      	ldr	r3, [pc, #548]	; (80080e8 <_vfiprintf_r+0x240>)
 8007ec2:	429d      	cmp	r5, r3
 8007ec4:	d11b      	bne.n	8007efe <_vfiprintf_r+0x56>
 8007ec6:	6875      	ldr	r5, [r6, #4]
 8007ec8:	6e6b      	ldr	r3, [r5, #100]	; 0x64
 8007eca:	07d9      	lsls	r1, r3, #31
 8007ecc:	d405      	bmi.n	8007eda <_vfiprintf_r+0x32>
 8007ece:	89ab      	ldrh	r3, [r5, #12]
 8007ed0:	059a      	lsls	r2, r3, #22
 8007ed2:	d402      	bmi.n	8007eda <_vfiprintf_r+0x32>
 8007ed4:	6da8      	ldr	r0, [r5, #88]	; 0x58
 8007ed6:	f7ff ffa9 	bl	8007e2c <__retarget_lock_acquire_recursive>
 8007eda:	89ab      	ldrh	r3, [r5, #12]
 8007edc:	071b      	lsls	r3, r3, #28
 8007ede:	d501      	bpl.n	8007ee4 <_vfiprintf_r+0x3c>
 8007ee0:	692b      	ldr	r3, [r5, #16]
 8007ee2:	b9eb      	cbnz	r3, 8007f20 <_vfiprintf_r+0x78>
 8007ee4:	4629      	mov	r1, r5
 8007ee6:	4630      	mov	r0, r6
 8007ee8:	f000 f96e 	bl	80081c8 <__swsetup_r>
 8007eec:	b1c0      	cbz	r0, 8007f20 <_vfiprintf_r+0x78>
 8007eee:	6e6b      	ldr	r3, [r5, #100]	; 0x64
 8007ef0:	07dc      	lsls	r4, r3, #31
 8007ef2:	d50e      	bpl.n	8007f12 <_vfiprintf_r+0x6a>
 8007ef4:	f04f 30ff 	mov.w	r0, #4294967295
 8007ef8:	b01d      	add	sp, #116	; 0x74
 8007efa:	e8bd 8ff0 	ldmia.w	sp!, {r4, r5, r6, r7, r8, r9, sl, fp, pc}
 8007efe:	4b7b      	ldr	r3, [pc, #492]	; (80080ec <_vfiprintf_r+0x244>)
 8007f00:	429d      	cmp	r5, r3
 8007f02:	d101      	bne.n	8007f08 <_vfiprintf_r+0x60>
 8007f04:	68b5      	ldr	r5, [r6, #8]
 8007f06:	e7df      	b.n	8007ec8 <_vfiprintf_r+0x20>
 8007f08:	4b79      	ldr	r3, [pc, #484]	; (80080f0 <_vfiprintf_r+0x248>)
 8007f0a:	429d      	cmp	r5, r3
 8007f0c:	bf08      	it	eq
 8007f0e:	68f5      	ldreq	r5, [r6, #12]
 8007f10:	e7da      	b.n	8007ec8 <_vfiprintf_r+0x20>
 8007f12:	89ab      	ldrh	r3, [r5, #12]
 8007f14:	0598      	lsls	r0, r3, #22
 8007f16:	d4ed      	bmi.n	8007ef4 <_vfiprintf_r+0x4c>
 8007f18:	6da8      	ldr	r0, [r5, #88]	; 0x58
 8007f1a:	f7ff ff88 	bl	8007e2e <__retarget_lock_release_recursive>
 8007f1e:	e7e9      	b.n	8007ef4 <_vfiprintf_r+0x4c>
 8007f20:	2300      	movs	r3, #0
 8007f22:	9309      	str	r3, [sp, #36]	; 0x24
 8007f24:	2320      	movs	r3, #32
 8007f26:	f88d 3029 	strb.w	r3, [sp, #41]	; 0x29
 8007f2a:	f8cd 800c 	str.w	r8, [sp, #12]
 8007f2e:	2330      	movs	r3, #48	; 0x30
 8007f30:	f8df 81c0 	ldr.w	r8, [pc, #448]	; 80080f4 <_vfiprintf_r+0x24c>
 8007f34:	f88d 302a 	strb.w	r3, [sp, #42]	; 0x2a
 8007f38:	f04f 0901 	mov.w	r9, #1
 8007f3c:	4623      	mov	r3, r4
 8007f3e:	469a      	mov	sl, r3
 8007f40:	f813 2b01 	ldrb.w	r2, [r3], #1
 8007f44:	b10a      	cbz	r2, 8007f4a <_vfiprintf_r+0xa2>
 8007f46:	2a25      	cmp	r2, #37	; 0x25
 8007f48:	d1f9      	bne.n	8007f3e <_vfiprintf_r+0x96>
 8007f4a:	ebba 0b04 	subs.w	fp, sl, r4
 8007f4e:	d00b      	beq.n	8007f68 <_vfiprintf_r+0xc0>
 8007f50:	465b      	mov	r3, fp
 8007f52:	4622      	mov	r2, r4
 8007f54:	4629      	mov	r1, r5
 8007f56:	4630      	mov	r0, r6
 8007f58:	f7ff ff93 	bl	8007e82 <__sfputs_r>
 8007f5c:	3001      	adds	r0, #1
 8007f5e:	f000 80aa 	beq.w	80080b6 <_vfiprintf_r+0x20e>
 8007f62:	9a09      	ldr	r2, [sp, #36]	; 0x24
 8007f64:	445a      	add	r2, fp
 8007f66:	9209      	str	r2, [sp, #36]	; 0x24
 8007f68:	f89a 3000 	ldrb.w	r3, [sl]
 8007f6c:	2b00      	cmp	r3, #0
 8007f6e:	f000 80a2 	beq.w	80080b6 <_vfiprintf_r+0x20e>
 8007f72:	2300      	movs	r3, #0
 8007f74:	f04f 32ff 	mov.w	r2, #4294967295
 8007f78:	e9cd 2305 	strd	r2, r3, [sp, #20]
 8007f7c:	f10a 0a01 	add.w	sl, sl, #1
 8007f80:	9304      	str	r3, [sp, #16]
 8007f82:	9307      	str	r3, [sp, #28]
 8007f84:	f88d 3053 	strb.w	r3, [sp, #83]	; 0x53
 8007f88:	931a      	str	r3, [sp, #104]	; 0x68
 8007f8a:	4654      	mov	r4, sl
 8007f8c:	2205      	movs	r2, #5
 8007f8e:	f814 1b01 	ldrb.w	r1, [r4], #1
 8007f92:	4858      	ldr	r0, [pc, #352]	; (80080f4 <_vfiprintf_r+0x24c>)
 8007f94:	f7f8 f92c 	bl	80001f0 <memchr>
 8007f98:	9a04      	ldr	r2, [sp, #16]
 8007f9a:	b9d8      	cbnz	r0, 8007fd4 <_vfiprintf_r+0x12c>
 8007f9c:	06d1      	lsls	r1, r2, #27
 8007f9e:	bf44      	itt	mi
 8007fa0:	2320      	movmi	r3, #32
 8007fa2:	f88d 3053 	strbmi.w	r3, [sp, #83]	; 0x53
 8007fa6:	0713      	lsls	r3, r2, #28
 8007fa8:	bf44      	itt	mi
 8007faa:	232b      	movmi	r3, #43	; 0x2b
 8007fac:	f88d 3053 	strbmi.w	r3, [sp, #83]	; 0x53
 8007fb0:	f89a 3000 	ldrb.w	r3, [sl]
 8007fb4:	2b2a      	cmp	r3, #42	; 0x2a
 8007fb6:	d015      	beq.n	8007fe4 <_vfiprintf_r+0x13c>
 8007fb8:	9a07      	ldr	r2, [sp, #28]
 8007fba:	4654      	mov	r4, sl
 8007fbc:	2000      	movs	r0, #0
 8007fbe:	f04f 0c0a 	mov.w	ip, #10
 8007fc2:	4621      	mov	r1, r4
 8007fc4:	f811 3b01 	ldrb.w	r3, [r1], #1
 8007fc8:	3b30      	subs	r3, #48	; 0x30
 8007fca:	2b09      	cmp	r3, #9
 8007fcc:	d94e      	bls.n	800806c <_vfiprintf_r+0x1c4>
 8007fce:	b1b0      	cbz	r0, 8007ffe <_vfiprintf_r+0x156>
 8007fd0:	9207      	str	r2, [sp, #28]
 8007fd2:	e014      	b.n	8007ffe <_vfiprintf_r+0x156>
 8007fd4:	eba0 0308 	sub.w	r3, r0, r8
 8007fd8:	fa09 f303 	lsl.w	r3, r9, r3
 8007fdc:	4313      	orrs	r3, r2
 8007fde:	9304      	str	r3, [sp, #16]
 8007fe0:	46a2      	mov	sl, r4
 8007fe2:	e7d2      	b.n	8007f8a <_vfiprintf_r+0xe2>
 8007fe4:	9b03      	ldr	r3, [sp, #12]
 8007fe6:	1d19      	adds	r1, r3, #4
 8007fe8:	681b      	ldr	r3, [r3, #0]
 8007fea:	9103      	str	r1, [sp, #12]
 8007fec:	2b00      	cmp	r3, #0
 8007fee:	bfbb      	ittet	lt
 8007ff0:	425b      	neglt	r3, r3
 8007ff2:	f042 0202 	orrlt.w	r2, r2, #2
 8007ff6:	9307      	strge	r3, [sp, #28]
 8007ff8:	9307      	strlt	r3, [sp, #28]
 8007ffa:	bfb8      	it	lt
 8007ffc:	9204      	strlt	r2, [sp, #16]
 8007ffe:	7823      	ldrb	r3, [r4, #0]
 8008000:	2b2e      	cmp	r3, #46	; 0x2e
 8008002:	d10c      	bne.n	800801e <_vfiprintf_r+0x176>
 8008004:	7863      	ldrb	r3, [r4, #1]
 8008006:	2b2a      	cmp	r3, #42	; 0x2a
 8008008:	d135      	bne.n	8008076 <_vfiprintf_r+0x1ce>
 800800a:	9b03      	ldr	r3, [sp, #12]
 800800c:	1d1a      	adds	r2, r3, #4
 800800e:	681b      	ldr	r3, [r3, #0]
 8008010:	9203      	str	r2, [sp, #12]
 8008012:	2b00      	cmp	r3, #0
 8008014:	bfb8      	it	lt
 8008016:	f04f 33ff 	movlt.w	r3, #4294967295
 800801a:	3402      	adds	r4, #2
 800801c:	9305      	str	r3, [sp, #20]
 800801e:	f8df a0e4 	ldr.w	sl, [pc, #228]	; 8008104 <_vfiprintf_r+0x25c>
 8008022:	7821      	ldrb	r1, [r4, #0]
 8008024:	2203      	movs	r2, #3
 8008026:	4650      	mov	r0, sl
 8008028:	f7f8 f8e2 	bl	80001f0 <memchr>
 800802c:	b140      	cbz	r0, 8008040 <_vfiprintf_r+0x198>
 800802e:	2340      	movs	r3, #64	; 0x40
 8008030:	eba0 000a 	sub.w	r0, r0, sl
 8008034:	fa03 f000 	lsl.w	r0, r3, r0
 8008038:	9b04      	ldr	r3, [sp, #16]
 800803a:	4303      	orrs	r3, r0
 800803c:	3401      	adds	r4, #1
 800803e:	9304      	str	r3, [sp, #16]
 8008040:	f814 1b01 	ldrb.w	r1, [r4], #1
 8008044:	482c      	ldr	r0, [pc, #176]	; (80080f8 <_vfiprintf_r+0x250>)
 8008046:	f88d 1028 	strb.w	r1, [sp, #40]	; 0x28
 800804a:	2206      	movs	r2, #6
 800804c:	f7f8 f8d0 	bl	80001f0 <memchr>
 8008050:	2800      	cmp	r0, #0
 8008052:	d03f      	beq.n	80080d4 <_vfiprintf_r+0x22c>
 8008054:	4b29      	ldr	r3, [pc, #164]	; (80080fc <_vfiprintf_r+0x254>)
 8008056:	bb1b      	cbnz	r3, 80080a0 <_vfiprintf_r+0x1f8>
 8008058:	9b03      	ldr	r3, [sp, #12]
 800805a:	3307      	adds	r3, #7
 800805c:	f023 0307 	bic.w	r3, r3, #7
 8008060:	3308      	adds	r3, #8
 8008062:	9303      	str	r3, [sp, #12]
 8008064:	9b09      	ldr	r3, [sp, #36]	; 0x24
 8008066:	443b      	add	r3, r7
 8008068:	9309      	str	r3, [sp, #36]	; 0x24
 800806a:	e767      	b.n	8007f3c <_vfiprintf_r+0x94>
 800806c:	fb0c 3202 	mla	r2, ip, r2, r3
 8008070:	460c      	mov	r4, r1
 8008072:	2001      	movs	r0, #1
 8008074:	e7a5      	b.n	8007fc2 <_vfiprintf_r+0x11a>
 8008076:	2300      	movs	r3, #0
 8008078:	3401      	adds	r4, #1
 800807a:	9305      	str	r3, [sp, #20]
 800807c:	4619      	mov	r1, r3
 800807e:	f04f 0c0a 	mov.w	ip, #10
 8008082:	4620      	mov	r0, r4
 8008084:	f810 2b01 	ldrb.w	r2, [r0], #1
 8008088:	3a30      	subs	r2, #48	; 0x30
 800808a:	2a09      	cmp	r2, #9
 800808c:	d903      	bls.n	8008096 <_vfiprintf_r+0x1ee>
 800808e:	2b00      	cmp	r3, #0
 8008090:	d0c5      	beq.n	800801e <_vfiprintf_r+0x176>
 8008092:	9105      	str	r1, [sp, #20]
 8008094:	e7c3      	b.n	800801e <_vfiprintf_r+0x176>
 8008096:	fb0c 2101 	mla	r1, ip, r1, r2
 800809a:	4604      	mov	r4, r0
 800809c:	2301      	movs	r3, #1
 800809e:	e7f0      	b.n	8008082 <_vfiprintf_r+0x1da>
 80080a0:	ab03      	add	r3, sp, #12
 80080a2:	9300      	str	r3, [sp, #0]
 80080a4:	462a      	mov	r2, r5
 80080a6:	4b16      	ldr	r3, [pc, #88]	; (8008100 <_vfiprintf_r+0x258>)
 80080a8:	a904      	add	r1, sp, #16
 80080aa:	4630      	mov	r0, r6
 80080ac:	f7fd fe40 	bl	8005d30 <_printf_float>
 80080b0:	4607      	mov	r7, r0
 80080b2:	1c78      	adds	r0, r7, #1
 80080b4:	d1d6      	bne.n	8008064 <_vfiprintf_r+0x1bc>
 80080b6:	6e6b      	ldr	r3, [r5, #100]	; 0x64
 80080b8:	07d9      	lsls	r1, r3, #31
 80080ba:	d405      	bmi.n	80080c8 <_vfiprintf_r+0x220>
 80080bc:	89ab      	ldrh	r3, [r5, #12]
 80080be:	059a      	lsls	r2, r3, #22
 80080c0:	d402      	bmi.n	80080c8 <_vfiprintf_r+0x220>
 80080c2:	6da8      	ldr	r0, [r5, #88]	; 0x58
 80080c4:	f7ff feb3 	bl	8007e2e <__retarget_lock_release_recursive>
 80080c8:	89ab      	ldrh	r3, [r5, #12]
 80080ca:	065b      	lsls	r3, r3, #25
 80080cc:	f53f af12 	bmi.w	8007ef4 <_vfiprintf_r+0x4c>
 80080d0:	9809      	ldr	r0, [sp, #36]	; 0x24
 80080d2:	e711      	b.n	8007ef8 <_vfiprintf_r+0x50>
 80080d4:	ab03      	add	r3, sp, #12
 80080d6:	9300      	str	r3, [sp, #0]
 80080d8:	462a      	mov	r2, r5
 80080da:	4b09      	ldr	r3, [pc, #36]	; (8008100 <_vfiprintf_r+0x258>)
 80080dc:	a904      	add	r1, sp, #16
 80080de:	4630      	mov	r0, r6
 80080e0:	f7fe f8ca 	bl	8006278 <_printf_i>
 80080e4:	e7e4      	b.n	80080b0 <_vfiprintf_r+0x208>
 80080e6:	bf00      	nop
 80080e8:	0800ac94 	.word	0x0800ac94
 80080ec:	0800acb4 	.word	0x0800acb4
 80080f0:	0800ac74 	.word	0x0800ac74
 80080f4:	0800acde 	.word	0x0800acde
 80080f8:	0800ace8 	.word	0x0800ace8
 80080fc:	08005d31 	.word	0x08005d31
 8008100:	08007e83 	.word	0x08007e83
 8008104:	0800ace4 	.word	0x0800ace4

08008108 <__swbuf_r>:
 8008108:	b5f8      	push	{r3, r4, r5, r6, r7, lr}
 800810a:	460e      	mov	r6, r1
 800810c:	4614      	mov	r4, r2
 800810e:	4605      	mov	r5, r0
 8008110:	b118      	cbz	r0, 800811a <__swbuf_r+0x12>
 8008112:	6983      	ldr	r3, [r0, #24]
 8008114:	b90b      	cbnz	r3, 800811a <__swbuf_r+0x12>
 8008116:	f7ff fdd9 	bl	8007ccc <__sinit>
 800811a:	4b21      	ldr	r3, [pc, #132]	; (80081a0 <__swbuf_r+0x98>)
 800811c:	429c      	cmp	r4, r3
 800811e:	d12b      	bne.n	8008178 <__swbuf_r+0x70>
 8008120:	686c      	ldr	r4, [r5, #4]
 8008122:	69a3      	ldr	r3, [r4, #24]
 8008124:	60a3      	str	r3, [r4, #8]
 8008126:	89a3      	ldrh	r3, [r4, #12]
 8008128:	071a      	lsls	r2, r3, #28
 800812a:	d52f      	bpl.n	800818c <__swbuf_r+0x84>
 800812c:	6923      	ldr	r3, [r4, #16]
 800812e:	b36b      	cbz	r3, 800818c <__swbuf_r+0x84>
 8008130:	6923      	ldr	r3, [r4, #16]
 8008132:	6820      	ldr	r0, [r4, #0]
 8008134:	1ac0      	subs	r0, r0, r3
 8008136:	6963      	ldr	r3, [r4, #20]
 8008138:	b2f6      	uxtb	r6, r6
 800813a:	4283      	cmp	r3, r0
 800813c:	4637      	mov	r7, r6
 800813e:	dc04      	bgt.n	800814a <__swbuf_r+0x42>
 8008140:	4621      	mov	r1, r4
 8008142:	4628      	mov	r0, r5
 8008144:	f7ff fd2e 	bl	8007ba4 <_fflush_r>
 8008148:	bb30      	cbnz	r0, 8008198 <__swbuf_r+0x90>
 800814a:	68a3      	ldr	r3, [r4, #8]
 800814c:	3b01      	subs	r3, #1
 800814e:	60a3      	str	r3, [r4, #8]
 8008150:	6823      	ldr	r3, [r4, #0]
 8008152:	1c5a      	adds	r2, r3, #1
 8008154:	6022      	str	r2, [r4, #0]
 8008156:	701e      	strb	r6, [r3, #0]
 8008158:	6963      	ldr	r3, [r4, #20]
 800815a:	3001      	adds	r0, #1
 800815c:	4283      	cmp	r3, r0
 800815e:	d004      	beq.n	800816a <__swbuf_r+0x62>
 8008160:	89a3      	ldrh	r3, [r4, #12]
 8008162:	07db      	lsls	r3, r3, #31
 8008164:	d506      	bpl.n	8008174 <__swbuf_r+0x6c>
 8008166:	2e0a      	cmp	r6, #10
 8008168:	d104      	bne.n	8008174 <__swbuf_r+0x6c>
 800816a:	4621      	mov	r1, r4
 800816c:	4628      	mov	r0, r5
 800816e:	f7ff fd19 	bl	8007ba4 <_fflush_r>
 8008172:	b988      	cbnz	r0, 8008198 <__swbuf_r+0x90>
 8008174:	4638      	mov	r0, r7
 8008176:	bdf8      	pop	{r3, r4, r5, r6, r7, pc}
 8008178:	4b0a      	ldr	r3, [pc, #40]	; (80081a4 <__swbuf_r+0x9c>)
 800817a:	429c      	cmp	r4, r3
 800817c:	d101      	bne.n	8008182 <__swbuf_r+0x7a>
 800817e:	68ac      	ldr	r4, [r5, #8]
 8008180:	e7cf      	b.n	8008122 <__swbuf_r+0x1a>
 8008182:	4b09      	ldr	r3, [pc, #36]	; (80081a8 <__swbuf_r+0xa0>)
 8008184:	429c      	cmp	r4, r3
 8008186:	bf08      	it	eq
 8008188:	68ec      	ldreq	r4, [r5, #12]
 800818a:	e7ca      	b.n	8008122 <__swbuf_r+0x1a>
 800818c:	4621      	mov	r1, r4
 800818e:	4628      	mov	r0, r5
 8008190:	f000 f81a 	bl	80081c8 <__swsetup_r>
 8008194:	2800      	cmp	r0, #0
 8008196:	d0cb      	beq.n	8008130 <__swbuf_r+0x28>
 8008198:	f04f 37ff 	mov.w	r7, #4294967295
 800819c:	e7ea      	b.n	8008174 <__swbuf_r+0x6c>
 800819e:	bf00      	nop
 80081a0:	0800ac94 	.word	0x0800ac94
 80081a4:	0800acb4 	.word	0x0800acb4
 80081a8:	0800ac74 	.word	0x0800ac74

080081ac <__ascii_wctomb>:
 80081ac:	b149      	cbz	r1, 80081c2 <__ascii_wctomb+0x16>
 80081ae:	2aff      	cmp	r2, #255	; 0xff
 80081b0:	bf85      	ittet	hi
 80081b2:	238a      	movhi	r3, #138	; 0x8a
 80081b4:	6003      	strhi	r3, [r0, #0]
 80081b6:	700a      	strbls	r2, [r1, #0]
 80081b8:	f04f 30ff 	movhi.w	r0, #4294967295
 80081bc:	bf98      	it	ls
 80081be:	2001      	movls	r0, #1
 80081c0:	4770      	bx	lr
 80081c2:	4608      	mov	r0, r1
 80081c4:	4770      	bx	lr
	...

080081c8 <__swsetup_r>:
 80081c8:	4b32      	ldr	r3, [pc, #200]	; (8008294 <__swsetup_r+0xcc>)
 80081ca:	b570      	push	{r4, r5, r6, lr}
 80081cc:	681d      	ldr	r5, [r3, #0]
 80081ce:	4606      	mov	r6, r0
 80081d0:	460c      	mov	r4, r1
 80081d2:	b125      	cbz	r5, 80081de <__swsetup_r+0x16>
 80081d4:	69ab      	ldr	r3, [r5, #24]
 80081d6:	b913      	cbnz	r3, 80081de <__swsetup_r+0x16>
 80081d8:	4628      	mov	r0, r5
 80081da:	f7ff fd77 	bl	8007ccc <__sinit>
 80081de:	4b2e      	ldr	r3, [pc, #184]	; (8008298 <__swsetup_r+0xd0>)
 80081e0:	429c      	cmp	r4, r3
 80081e2:	d10f      	bne.n	8008204 <__swsetup_r+0x3c>
 80081e4:	686c      	ldr	r4, [r5, #4]
 80081e6:	89a3      	ldrh	r3, [r4, #12]
 80081e8:	f9b4 200c 	ldrsh.w	r2, [r4, #12]
 80081ec:	0719      	lsls	r1, r3, #28
 80081ee:	d42c      	bmi.n	800824a <__swsetup_r+0x82>
 80081f0:	06dd      	lsls	r5, r3, #27
 80081f2:	d411      	bmi.n	8008218 <__swsetup_r+0x50>
 80081f4:	2309      	movs	r3, #9
 80081f6:	6033      	str	r3, [r6, #0]
 80081f8:	f042 0340 	orr.w	r3, r2, #64	; 0x40
 80081fc:	81a3      	strh	r3, [r4, #12]
 80081fe:	f04f 30ff 	mov.w	r0, #4294967295
 8008202:	e03e      	b.n	8008282 <__swsetup_r+0xba>
 8008204:	4b25      	ldr	r3, [pc, #148]	; (800829c <__swsetup_r+0xd4>)
 8008206:	429c      	cmp	r4, r3
 8008208:	d101      	bne.n	800820e <__swsetup_r+0x46>
 800820a:	68ac      	ldr	r4, [r5, #8]
 800820c:	e7eb      	b.n	80081e6 <__swsetup_r+0x1e>
 800820e:	4b24      	ldr	r3, [pc, #144]	; (80082a0 <__swsetup_r+0xd8>)
 8008210:	429c      	cmp	r4, r3
 8008212:	bf08      	it	eq
 8008214:	68ec      	ldreq	r4, [r5, #12]
 8008216:	e7e6      	b.n	80081e6 <__swsetup_r+0x1e>
 8008218:	0758      	lsls	r0, r3, #29
 800821a:	d512      	bpl.n	8008242 <__swsetup_r+0x7a>
 800821c:	6b61      	ldr	r1, [r4, #52]	; 0x34
 800821e:	b141      	cbz	r1, 8008232 <__swsetup_r+0x6a>
 8008220:	f104 0344 	add.w	r3, r4, #68	; 0x44
 8008224:	4299      	cmp	r1, r3
 8008226:	d002      	beq.n	800822e <__swsetup_r+0x66>
 8008228:	4630      	mov	r0, r6
 800822a:	f7fd fc01 	bl	8005a30 <_free_r>
 800822e:	2300      	movs	r3, #0
 8008230:	6363      	str	r3, [r4, #52]	; 0x34
 8008232:	89a3      	ldrh	r3, [r4, #12]
 8008234:	f023 0324 	bic.w	r3, r3, #36	; 0x24
 8008238:	81a3      	strh	r3, [r4, #12]
 800823a:	2300      	movs	r3, #0
 800823c:	6063      	str	r3, [r4, #4]
 800823e:	6923      	ldr	r3, [r4, #16]
 8008240:	6023      	str	r3, [r4, #0]
 8008242:	89a3      	ldrh	r3, [r4, #12]
 8008244:	f043 0308 	orr.w	r3, r3, #8
 8008248:	81a3      	strh	r3, [r4, #12]
 800824a:	6923      	ldr	r3, [r4, #16]
 800824c:	b94b      	cbnz	r3, 8008262 <__swsetup_r+0x9a>
 800824e:	89a3      	ldrh	r3, [r4, #12]
 8008250:	f403 7320 	and.w	r3, r3, #640	; 0x280
 8008254:	f5b3 7f00 	cmp.w	r3, #512	; 0x200
 8008258:	d003      	beq.n	8008262 <__swsetup_r+0x9a>
 800825a:	4621      	mov	r1, r4
 800825c:	4630      	mov	r0, r6
 800825e:	f000 f84d 	bl	80082fc <__smakebuf_r>
 8008262:	89a0      	ldrh	r0, [r4, #12]
 8008264:	f9b4 200c 	ldrsh.w	r2, [r4, #12]
 8008268:	f010 0301 	ands.w	r3, r0, #1
 800826c:	d00a      	beq.n	8008284 <__swsetup_r+0xbc>
 800826e:	2300      	movs	r3, #0
 8008270:	60a3      	str	r3, [r4, #8]
 8008272:	6963      	ldr	r3, [r4, #20]
 8008274:	425b      	negs	r3, r3
 8008276:	61a3      	str	r3, [r4, #24]
 8008278:	6923      	ldr	r3, [r4, #16]
 800827a:	b943      	cbnz	r3, 800828e <__swsetup_r+0xc6>
 800827c:	f010 0080 	ands.w	r0, r0, #128	; 0x80
 8008280:	d1ba      	bne.n	80081f8 <__swsetup_r+0x30>
 8008282:	bd70      	pop	{r4, r5, r6, pc}
 8008284:	0781      	lsls	r1, r0, #30
 8008286:	bf58      	it	pl
 8008288:	6963      	ldrpl	r3, [r4, #20]
 800828a:	60a3      	str	r3, [r4, #8]
 800828c:	e7f4      	b.n	8008278 <__swsetup_r+0xb0>
 800828e:	2000      	movs	r0, #0
 8008290:	e7f7      	b.n	8008282 <__swsetup_r+0xba>
 8008292:	bf00      	nop
 8008294:	20000010 	.word	0x20000010
 8008298:	0800ac94 	.word	0x0800ac94
 800829c:	0800acb4 	.word	0x0800acb4
 80082a0:	0800ac74 	.word	0x0800ac74

080082a4 <abort>:
 80082a4:	b508      	push	{r3, lr}
 80082a6:	2006      	movs	r0, #6
 80082a8:	f000 f890 	bl	80083cc <raise>
 80082ac:	2001      	movs	r0, #1
 80082ae:	f7f9 fb61 	bl	8001974 <_exit>

080082b2 <__swhatbuf_r>:
 80082b2:	b570      	push	{r4, r5, r6, lr}
 80082b4:	460e      	mov	r6, r1
 80082b6:	f9b1 100e 	ldrsh.w	r1, [r1, #14]
 80082ba:	2900      	cmp	r1, #0
 80082bc:	b096      	sub	sp, #88	; 0x58
 80082be:	4614      	mov	r4, r2
 80082c0:	461d      	mov	r5, r3
 80082c2:	da08      	bge.n	80082d6 <__swhatbuf_r+0x24>
 80082c4:	f9b6 300c 	ldrsh.w	r3, [r6, #12]
 80082c8:	2200      	movs	r2, #0
 80082ca:	602a      	str	r2, [r5, #0]
 80082cc:	061a      	lsls	r2, r3, #24
 80082ce:	d410      	bmi.n	80082f2 <__swhatbuf_r+0x40>
 80082d0:	f44f 6380 	mov.w	r3, #1024	; 0x400
 80082d4:	e00e      	b.n	80082f4 <__swhatbuf_r+0x42>
 80082d6:	466a      	mov	r2, sp
 80082d8:	f000 f894 	bl	8008404 <_fstat_r>
 80082dc:	2800      	cmp	r0, #0
 80082de:	dbf1      	blt.n	80082c4 <__swhatbuf_r+0x12>
 80082e0:	9a01      	ldr	r2, [sp, #4]
 80082e2:	f402 4270 	and.w	r2, r2, #61440	; 0xf000
 80082e6:	f5a2 5300 	sub.w	r3, r2, #8192	; 0x2000
 80082ea:	425a      	negs	r2, r3
 80082ec:	415a      	adcs	r2, r3
 80082ee:	602a      	str	r2, [r5, #0]
 80082f0:	e7ee      	b.n	80082d0 <__swhatbuf_r+0x1e>
 80082f2:	2340      	movs	r3, #64	; 0x40
 80082f4:	2000      	movs	r0, #0
 80082f6:	6023      	str	r3, [r4, #0]
 80082f8:	b016      	add	sp, #88	; 0x58
 80082fa:	bd70      	pop	{r4, r5, r6, pc}

080082fc <__smakebuf_r>:
 80082fc:	898b      	ldrh	r3, [r1, #12]
 80082fe:	b573      	push	{r0, r1, r4, r5, r6, lr}
 8008300:	079d      	lsls	r5, r3, #30
 8008302:	4606      	mov	r6, r0
 8008304:	460c      	mov	r4, r1
 8008306:	d507      	bpl.n	8008318 <__smakebuf_r+0x1c>
 8008308:	f104 0347 	add.w	r3, r4, #71	; 0x47
 800830c:	6023      	str	r3, [r4, #0]
 800830e:	6123      	str	r3, [r4, #16]
 8008310:	2301      	movs	r3, #1
 8008312:	6163      	str	r3, [r4, #20]
 8008314:	b002      	add	sp, #8
 8008316:	bd70      	pop	{r4, r5, r6, pc}
 8008318:	ab01      	add	r3, sp, #4
 800831a:	466a      	mov	r2, sp
 800831c:	f7ff ffc9 	bl	80082b2 <__swhatbuf_r>
 8008320:	9900      	ldr	r1, [sp, #0]
 8008322:	4605      	mov	r5, r0
 8008324:	4630      	mov	r0, r6
 8008326:	f7fd fbef 	bl	8005b08 <_malloc_r>
 800832a:	b948      	cbnz	r0, 8008340 <__smakebuf_r+0x44>
 800832c:	f9b4 300c 	ldrsh.w	r3, [r4, #12]
 8008330:	059a      	lsls	r2, r3, #22
 8008332:	d4ef      	bmi.n	8008314 <__smakebuf_r+0x18>
 8008334:	f023 0303 	bic.w	r3, r3, #3
 8008338:	f043 0302 	orr.w	r3, r3, #2
 800833c:	81a3      	strh	r3, [r4, #12]
 800833e:	e7e3      	b.n	8008308 <__smakebuf_r+0xc>
 8008340:	4b0d      	ldr	r3, [pc, #52]	; (8008378 <__smakebuf_r+0x7c>)
 8008342:	62b3      	str	r3, [r6, #40]	; 0x28
 8008344:	89a3      	ldrh	r3, [r4, #12]
 8008346:	6020      	str	r0, [r4, #0]
 8008348:	f043 0380 	orr.w	r3, r3, #128	; 0x80
 800834c:	81a3      	strh	r3, [r4, #12]
 800834e:	9b00      	ldr	r3, [sp, #0]
 8008350:	6163      	str	r3, [r4, #20]
 8008352:	9b01      	ldr	r3, [sp, #4]
 8008354:	6120      	str	r0, [r4, #16]
 8008356:	b15b      	cbz	r3, 8008370 <__smakebuf_r+0x74>
 8008358:	f9b4 100e 	ldrsh.w	r1, [r4, #14]
 800835c:	4630      	mov	r0, r6
 800835e:	f000 f863 	bl	8008428 <_isatty_r>
 8008362:	b128      	cbz	r0, 8008370 <__smakebuf_r+0x74>
 8008364:	89a3      	ldrh	r3, [r4, #12]
 8008366:	f023 0303 	bic.w	r3, r3, #3
 800836a:	f043 0301 	orr.w	r3, r3, #1
 800836e:	81a3      	strh	r3, [r4, #12]
 8008370:	89a0      	ldrh	r0, [r4, #12]
 8008372:	4305      	orrs	r5, r0
 8008374:	81a5      	strh	r5, [r4, #12]
 8008376:	e7cd      	b.n	8008314 <__smakebuf_r+0x18>
 8008378:	08007c65 	.word	0x08007c65

0800837c <_raise_r>:
 800837c:	291f      	cmp	r1, #31
 800837e:	b538      	push	{r3, r4, r5, lr}
 8008380:	4604      	mov	r4, r0
 8008382:	460d      	mov	r5, r1
 8008384:	d904      	bls.n	8008390 <_raise_r+0x14>
 8008386:	2316      	movs	r3, #22
 8008388:	6003      	str	r3, [r0, #0]
 800838a:	f04f 30ff 	mov.w	r0, #4294967295
 800838e:	bd38      	pop	{r3, r4, r5, pc}
 8008390:	6c42      	ldr	r2, [r0, #68]	; 0x44
 8008392:	b112      	cbz	r2, 800839a <_raise_r+0x1e>
 8008394:	f852 3021 	ldr.w	r3, [r2, r1, lsl #2]
 8008398:	b94b      	cbnz	r3, 80083ae <_raise_r+0x32>
 800839a:	4620      	mov	r0, r4
 800839c:	f000 f830 	bl	8008400 <_getpid_r>
 80083a0:	462a      	mov	r2, r5
 80083a2:	4601      	mov	r1, r0
 80083a4:	4620      	mov	r0, r4
 80083a6:	e8bd 4038 	ldmia.w	sp!, {r3, r4, r5, lr}
 80083aa:	f000 b817 	b.w	80083dc <_kill_r>
 80083ae:	2b01      	cmp	r3, #1
 80083b0:	d00a      	beq.n	80083c8 <_raise_r+0x4c>
 80083b2:	1c59      	adds	r1, r3, #1
 80083b4:	d103      	bne.n	80083be <_raise_r+0x42>
 80083b6:	2316      	movs	r3, #22
 80083b8:	6003      	str	r3, [r0, #0]
 80083ba:	2001      	movs	r0, #1
 80083bc:	e7e7      	b.n	800838e <_raise_r+0x12>
 80083be:	2400      	movs	r4, #0
 80083c0:	f842 4025 	str.w	r4, [r2, r5, lsl #2]
 80083c4:	4628      	mov	r0, r5
 80083c6:	4798      	blx	r3
 80083c8:	2000      	movs	r0, #0
 80083ca:	e7e0      	b.n	800838e <_raise_r+0x12>

080083cc <raise>:
 80083cc:	4b02      	ldr	r3, [pc, #8]	; (80083d8 <raise+0xc>)
 80083ce:	4601      	mov	r1, r0
 80083d0:	6818      	ldr	r0, [r3, #0]
 80083d2:	f7ff bfd3 	b.w	800837c <_raise_r>
 80083d6:	bf00      	nop
 80083d8:	20000010 	.word	0x20000010

080083dc <_kill_r>:
 80083dc:	b538      	push	{r3, r4, r5, lr}
 80083de:	4d07      	ldr	r5, [pc, #28]	; (80083fc <_kill_r+0x20>)
 80083e0:	2300      	movs	r3, #0
 80083e2:	4604      	mov	r4, r0
 80083e4:	4608      	mov	r0, r1
 80083e6:	4611      	mov	r1, r2
 80083e8:	602b      	str	r3, [r5, #0]
 80083ea:	f7f9 fab3 	bl	8001954 <_kill>
 80083ee:	1c43      	adds	r3, r0, #1
 80083f0:	d102      	bne.n	80083f8 <_kill_r+0x1c>
 80083f2:	682b      	ldr	r3, [r5, #0]
 80083f4:	b103      	cbz	r3, 80083f8 <_kill_r+0x1c>
 80083f6:	6023      	str	r3, [r4, #0]
 80083f8:	bd38      	pop	{r3, r4, r5, pc}
 80083fa:	bf00      	nop
 80083fc:	200004ac 	.word	0x200004ac

08008400 <_getpid_r>:
 8008400:	f7f9 baa0 	b.w	8001944 <_getpid>

08008404 <_fstat_r>:
 8008404:	b538      	push	{r3, r4, r5, lr}
 8008406:	4d07      	ldr	r5, [pc, #28]	; (8008424 <_fstat_r+0x20>)
 8008408:	2300      	movs	r3, #0
 800840a:	4604      	mov	r4, r0
 800840c:	4608      	mov	r0, r1
 800840e:	4611      	mov	r1, r2
 8008410:	602b      	str	r3, [r5, #0]
 8008412:	f7f9 fafe 	bl	8001a12 <_fstat>
 8008416:	1c43      	adds	r3, r0, #1
 8008418:	d102      	bne.n	8008420 <_fstat_r+0x1c>
 800841a:	682b      	ldr	r3, [r5, #0]
 800841c:	b103      	cbz	r3, 8008420 <_fstat_r+0x1c>
 800841e:	6023      	str	r3, [r4, #0]
 8008420:	bd38      	pop	{r3, r4, r5, pc}
 8008422:	bf00      	nop
 8008424:	200004ac 	.word	0x200004ac

08008428 <_isatty_r>:
 8008428:	b538      	push	{r3, r4, r5, lr}
 800842a:	4d06      	ldr	r5, [pc, #24]	; (8008444 <_isatty_r+0x1c>)
 800842c:	2300      	movs	r3, #0
 800842e:	4604      	mov	r4, r0
 8008430:	4608      	mov	r0, r1
 8008432:	602b      	str	r3, [r5, #0]
 8008434:	f7f9 fafd 	bl	8001a32 <_isatty>
 8008438:	1c43      	adds	r3, r0, #1
 800843a:	d102      	bne.n	8008442 <_isatty_r+0x1a>
 800843c:	682b      	ldr	r3, [r5, #0]
 800843e:	b103      	cbz	r3, 8008442 <_isatty_r+0x1a>
 8008440:	6023      	str	r3, [r4, #0]
 8008442:	bd38      	pop	{r3, r4, r5, pc}
 8008444:	200004ac 	.word	0x200004ac

08008448 <cos>:
 8008448:	b51f      	push	{r0, r1, r2, r3, r4, lr}
 800844a:	ec53 2b10 	vmov	r2, r3, d0
 800844e:	4826      	ldr	r0, [pc, #152]	; (80084e8 <cos+0xa0>)
 8008450:	f023 4100 	bic.w	r1, r3, #2147483648	; 0x80000000
 8008454:	4281      	cmp	r1, r0
 8008456:	dc06      	bgt.n	8008466 <cos+0x1e>
 8008458:	ed9f 1b21 	vldr	d1, [pc, #132]	; 80084e0 <cos+0x98>
 800845c:	b005      	add	sp, #20
 800845e:	f85d eb04 	ldr.w	lr, [sp], #4
 8008462:	f001 ba15 	b.w	8009890 <__kernel_cos>
 8008466:	4821      	ldr	r0, [pc, #132]	; (80084ec <cos+0xa4>)
 8008468:	4281      	cmp	r1, r0
 800846a:	dd09      	ble.n	8008480 <cos+0x38>
 800846c:	ee10 0a10 	vmov	r0, s0
 8008470:	4619      	mov	r1, r3
 8008472:	f7f7 ff11 	bl	8000298 <__aeabi_dsub>
 8008476:	ec41 0b10 	vmov	d0, r0, r1
 800847a:	b005      	add	sp, #20
 800847c:	f85d fb04 	ldr.w	pc, [sp], #4
 8008480:	4668      	mov	r0, sp
 8008482:	f000 ff45 	bl	8009310 <__ieee754_rem_pio2>
 8008486:	f000 0003 	and.w	r0, r0, #3
 800848a:	2801      	cmp	r0, #1
 800848c:	d00b      	beq.n	80084a6 <cos+0x5e>
 800848e:	2802      	cmp	r0, #2
 8008490:	d016      	beq.n	80084c0 <cos+0x78>
 8008492:	b9e0      	cbnz	r0, 80084ce <cos+0x86>
 8008494:	ed9d 1b02 	vldr	d1, [sp, #8]
 8008498:	ed9d 0b00 	vldr	d0, [sp]
 800849c:	f001 f9f8 	bl	8009890 <__kernel_cos>
 80084a0:	ec51 0b10 	vmov	r0, r1, d0
 80084a4:	e7e7      	b.n	8008476 <cos+0x2e>
 80084a6:	ed9d 1b02 	vldr	d1, [sp, #8]
 80084aa:	ed9d 0b00 	vldr	d0, [sp]
 80084ae:	f001 fe07 	bl	800a0c0 <__kernel_sin>
 80084b2:	ec53 2b10 	vmov	r2, r3, d0
 80084b6:	ee10 0a10 	vmov	r0, s0
 80084ba:	f103 4100 	add.w	r1, r3, #2147483648	; 0x80000000
 80084be:	e7da      	b.n	8008476 <cos+0x2e>
 80084c0:	ed9d 1b02 	vldr	d1, [sp, #8]
 80084c4:	ed9d 0b00 	vldr	d0, [sp]
 80084c8:	f001 f9e2 	bl	8009890 <__kernel_cos>
 80084cc:	e7f1      	b.n	80084b2 <cos+0x6a>
 80084ce:	ed9d 1b02 	vldr	d1, [sp, #8]
 80084d2:	ed9d 0b00 	vldr	d0, [sp]
 80084d6:	2001      	movs	r0, #1
 80084d8:	f001 fdf2 	bl	800a0c0 <__kernel_sin>
 80084dc:	e7e0      	b.n	80084a0 <cos+0x58>
 80084de:	bf00      	nop
	...
 80084e8:	3fe921fb 	.word	0x3fe921fb
 80084ec:	7fefffff 	.word	0x7fefffff

080084f0 <round>:
 80084f0:	ec51 0b10 	vmov	r0, r1, d0
 80084f4:	b570      	push	{r4, r5, r6, lr}
 80084f6:	f3c1 550a 	ubfx	r5, r1, #20, #11
 80084fa:	f2a5 34ff 	subw	r4, r5, #1023	; 0x3ff
 80084fe:	2c13      	cmp	r4, #19
 8008500:	ee10 2a10 	vmov	r2, s0
 8008504:	460b      	mov	r3, r1
 8008506:	dc19      	bgt.n	800853c <round+0x4c>
 8008508:	2c00      	cmp	r4, #0
 800850a:	da09      	bge.n	8008520 <round+0x30>
 800850c:	3401      	adds	r4, #1
 800850e:	f001 4300 	and.w	r3, r1, #2147483648	; 0x80000000
 8008512:	d103      	bne.n	800851c <round+0x2c>
 8008514:	f043 537f 	orr.w	r3, r3, #1069547520	; 0x3fc00000
 8008518:	f443 1340 	orr.w	r3, r3, #3145728	; 0x300000
 800851c:	2200      	movs	r2, #0
 800851e:	e028      	b.n	8008572 <round+0x82>
 8008520:	4d15      	ldr	r5, [pc, #84]	; (8008578 <round+0x88>)
 8008522:	4125      	asrs	r5, r4
 8008524:	ea01 0605 	and.w	r6, r1, r5
 8008528:	4332      	orrs	r2, r6
 800852a:	d00e      	beq.n	800854a <round+0x5a>
 800852c:	f44f 2200 	mov.w	r2, #524288	; 0x80000
 8008530:	fa42 f404 	asr.w	r4, r2, r4
 8008534:	4423      	add	r3, r4
 8008536:	ea23 0305 	bic.w	r3, r3, r5
 800853a:	e7ef      	b.n	800851c <round+0x2c>
 800853c:	2c33      	cmp	r4, #51	; 0x33
 800853e:	dd07      	ble.n	8008550 <round+0x60>
 8008540:	f5b4 6f80 	cmp.w	r4, #1024	; 0x400
 8008544:	d101      	bne.n	800854a <round+0x5a>
 8008546:	f7f7 fea9 	bl	800029c <__adddf3>
 800854a:	ec41 0b10 	vmov	d0, r0, r1
 800854e:	bd70      	pop	{r4, r5, r6, pc}
 8008550:	f2a5 4613 	subw	r6, r5, #1043	; 0x413
 8008554:	f04f 35ff 	mov.w	r5, #4294967295
 8008558:	40f5      	lsrs	r5, r6
 800855a:	4228      	tst	r0, r5
 800855c:	d0f5      	beq.n	800854a <round+0x5a>
 800855e:	2101      	movs	r1, #1
 8008560:	f1c4 0433 	rsb	r4, r4, #51	; 0x33
 8008564:	fa01 f404 	lsl.w	r4, r1, r4
 8008568:	1912      	adds	r2, r2, r4
 800856a:	bf28      	it	cs
 800856c:	185b      	addcs	r3, r3, r1
 800856e:	ea22 0205 	bic.w	r2, r2, r5
 8008572:	4619      	mov	r1, r3
 8008574:	4610      	mov	r0, r2
 8008576:	e7e8      	b.n	800854a <round+0x5a>
 8008578:	000fffff 	.word	0x000fffff
 800857c:	00000000 	.word	0x00000000

08008580 <sin>:
 8008580:	b51f      	push	{r0, r1, r2, r3, r4, lr}
 8008582:	ec53 2b10 	vmov	r2, r3, d0
 8008586:	4828      	ldr	r0, [pc, #160]	; (8008628 <sin+0xa8>)
 8008588:	f023 4100 	bic.w	r1, r3, #2147483648	; 0x80000000
 800858c:	4281      	cmp	r1, r0
 800858e:	dc07      	bgt.n	80085a0 <sin+0x20>
 8008590:	ed9f 1b23 	vldr	d1, [pc, #140]	; 8008620 <sin+0xa0>
 8008594:	2000      	movs	r0, #0
 8008596:	b005      	add	sp, #20
 8008598:	f85d eb04 	ldr.w	lr, [sp], #4
 800859c:	f001 bd90 	b.w	800a0c0 <__kernel_sin>
 80085a0:	4822      	ldr	r0, [pc, #136]	; (800862c <sin+0xac>)
 80085a2:	4281      	cmp	r1, r0
 80085a4:	dd09      	ble.n	80085ba <sin+0x3a>
 80085a6:	ee10 0a10 	vmov	r0, s0
 80085aa:	4619      	mov	r1, r3
 80085ac:	f7f7 fe74 	bl	8000298 <__aeabi_dsub>
 80085b0:	ec41 0b10 	vmov	d0, r0, r1
 80085b4:	b005      	add	sp, #20
 80085b6:	f85d fb04 	ldr.w	pc, [sp], #4
 80085ba:	4668      	mov	r0, sp
 80085bc:	f000 fea8 	bl	8009310 <__ieee754_rem_pio2>
 80085c0:	f000 0003 	and.w	r0, r0, #3
 80085c4:	2801      	cmp	r0, #1
 80085c6:	d00c      	beq.n	80085e2 <sin+0x62>
 80085c8:	2802      	cmp	r0, #2
 80085ca:	d011      	beq.n	80085f0 <sin+0x70>
 80085cc:	b9f0      	cbnz	r0, 800860c <sin+0x8c>
 80085ce:	ed9d 1b02 	vldr	d1, [sp, #8]
 80085d2:	ed9d 0b00 	vldr	d0, [sp]
 80085d6:	2001      	movs	r0, #1
 80085d8:	f001 fd72 	bl	800a0c0 <__kernel_sin>
 80085dc:	ec51 0b10 	vmov	r0, r1, d0
 80085e0:	e7e6      	b.n	80085b0 <sin+0x30>
 80085e2:	ed9d 1b02 	vldr	d1, [sp, #8]
 80085e6:	ed9d 0b00 	vldr	d0, [sp]
 80085ea:	f001 f951 	bl	8009890 <__kernel_cos>
 80085ee:	e7f5      	b.n	80085dc <sin+0x5c>
 80085f0:	ed9d 1b02 	vldr	d1, [sp, #8]
 80085f4:	ed9d 0b00 	vldr	d0, [sp]
 80085f8:	2001      	movs	r0, #1
 80085fa:	f001 fd61 	bl	800a0c0 <__kernel_sin>
 80085fe:	ec53 2b10 	vmov	r2, r3, d0
 8008602:	ee10 0a10 	vmov	r0, s0
 8008606:	f103 4100 	add.w	r1, r3, #2147483648	; 0x80000000
 800860a:	e7d1      	b.n	80085b0 <sin+0x30>
 800860c:	ed9d 1b02 	vldr	d1, [sp, #8]
 8008610:	ed9d 0b00 	vldr	d0, [sp]
 8008614:	f001 f93c 	bl	8009890 <__kernel_cos>
 8008618:	e7f1      	b.n	80085fe <sin+0x7e>
 800861a:	bf00      	nop
 800861c:	f3af 8000 	nop.w
	...
 8008628:	3fe921fb 	.word	0x3fe921fb
 800862c:	7fefffff 	.word	0x7fefffff

08008630 <atan2>:
 8008630:	f000 b872 	b.w	8008718 <__ieee754_atan2>

08008634 <pow>:
 8008634:	b5f8      	push	{r3, r4, r5, r6, r7, lr}
 8008636:	ed2d 8b02 	vpush	{d8}
 800863a:	eeb0 8a40 	vmov.f32	s16, s0
 800863e:	eef0 8a60 	vmov.f32	s17, s1
 8008642:	ec55 4b11 	vmov	r4, r5, d1
 8008646:	f000 f933 	bl	80088b0 <__ieee754_pow>
 800864a:	4622      	mov	r2, r4
 800864c:	462b      	mov	r3, r5
 800864e:	4620      	mov	r0, r4
 8008650:	4629      	mov	r1, r5
 8008652:	ec57 6b10 	vmov	r6, r7, d0
 8008656:	f7f8 fa71 	bl	8000b3c <__aeabi_dcmpun>
 800865a:	2800      	cmp	r0, #0
 800865c:	d13b      	bne.n	80086d6 <pow+0xa2>
 800865e:	ec51 0b18 	vmov	r0, r1, d8
 8008662:	2200      	movs	r2, #0
 8008664:	2300      	movs	r3, #0
 8008666:	f7f8 fa37 	bl	8000ad8 <__aeabi_dcmpeq>
 800866a:	b1b8      	cbz	r0, 800869c <pow+0x68>
 800866c:	2200      	movs	r2, #0
 800866e:	2300      	movs	r3, #0
 8008670:	4620      	mov	r0, r4
 8008672:	4629      	mov	r1, r5
 8008674:	f7f8 fa30 	bl	8000ad8 <__aeabi_dcmpeq>
 8008678:	2800      	cmp	r0, #0
 800867a:	d146      	bne.n	800870a <pow+0xd6>
 800867c:	ec45 4b10 	vmov	d0, r4, r5
 8008680:	f001 ffb7 	bl	800a5f2 <finite>
 8008684:	b338      	cbz	r0, 80086d6 <pow+0xa2>
 8008686:	2200      	movs	r2, #0
 8008688:	2300      	movs	r3, #0
 800868a:	4620      	mov	r0, r4
 800868c:	4629      	mov	r1, r5
 800868e:	f7f8 fa2d 	bl	8000aec <__aeabi_dcmplt>
 8008692:	b300      	cbz	r0, 80086d6 <pow+0xa2>
 8008694:	f7fd f992 	bl	80059bc <__errno>
 8008698:	2322      	movs	r3, #34	; 0x22
 800869a:	e01b      	b.n	80086d4 <pow+0xa0>
 800869c:	ec47 6b10 	vmov	d0, r6, r7
 80086a0:	f001 ffa7 	bl	800a5f2 <finite>
 80086a4:	b9e0      	cbnz	r0, 80086e0 <pow+0xac>
 80086a6:	eeb0 0a48 	vmov.f32	s0, s16
 80086aa:	eef0 0a68 	vmov.f32	s1, s17
 80086ae:	f001 ffa0 	bl	800a5f2 <finite>
 80086b2:	b1a8      	cbz	r0, 80086e0 <pow+0xac>
 80086b4:	ec45 4b10 	vmov	d0, r4, r5
 80086b8:	f001 ff9b 	bl	800a5f2 <finite>
 80086bc:	b180      	cbz	r0, 80086e0 <pow+0xac>
 80086be:	4632      	mov	r2, r6
 80086c0:	463b      	mov	r3, r7
 80086c2:	4630      	mov	r0, r6
 80086c4:	4639      	mov	r1, r7
 80086c6:	f7f8 fa39 	bl	8000b3c <__aeabi_dcmpun>
 80086ca:	2800      	cmp	r0, #0
 80086cc:	d0e2      	beq.n	8008694 <pow+0x60>
 80086ce:	f7fd f975 	bl	80059bc <__errno>
 80086d2:	2321      	movs	r3, #33	; 0x21
 80086d4:	6003      	str	r3, [r0, #0]
 80086d6:	ecbd 8b02 	vpop	{d8}
 80086da:	ec47 6b10 	vmov	d0, r6, r7
 80086de:	bdf8      	pop	{r3, r4, r5, r6, r7, pc}
 80086e0:	2200      	movs	r2, #0
 80086e2:	2300      	movs	r3, #0
 80086e4:	4630      	mov	r0, r6
 80086e6:	4639      	mov	r1, r7
 80086e8:	f7f8 f9f6 	bl	8000ad8 <__aeabi_dcmpeq>
 80086ec:	2800      	cmp	r0, #0
 80086ee:	d0f2      	beq.n	80086d6 <pow+0xa2>
 80086f0:	eeb0 0a48 	vmov.f32	s0, s16
 80086f4:	eef0 0a68 	vmov.f32	s1, s17
 80086f8:	f001 ff7b 	bl	800a5f2 <finite>
 80086fc:	2800      	cmp	r0, #0
 80086fe:	d0ea      	beq.n	80086d6 <pow+0xa2>
 8008700:	ec45 4b10 	vmov	d0, r4, r5
 8008704:	f001 ff75 	bl	800a5f2 <finite>
 8008708:	e7c3      	b.n	8008692 <pow+0x5e>
 800870a:	4f01      	ldr	r7, [pc, #4]	; (8008710 <pow+0xdc>)
 800870c:	2600      	movs	r6, #0
 800870e:	e7e2      	b.n	80086d6 <pow+0xa2>
 8008710:	3ff00000 	.word	0x3ff00000
 8008714:	00000000 	.word	0x00000000

08008718 <__ieee754_atan2>:
 8008718:	e92d 43f8 	stmdb	sp!, {r3, r4, r5, r6, r7, r8, r9, lr}
 800871c:	ec57 6b11 	vmov	r6, r7, d1
 8008720:	4273      	negs	r3, r6
 8008722:	f8df e184 	ldr.w	lr, [pc, #388]	; 80088a8 <__ieee754_atan2+0x190>
 8008726:	f027 4200 	bic.w	r2, r7, #2147483648	; 0x80000000
 800872a:	4333      	orrs	r3, r6
 800872c:	ea42 73d3 	orr.w	r3, r2, r3, lsr #31
 8008730:	4573      	cmp	r3, lr
 8008732:	ec51 0b10 	vmov	r0, r1, d0
 8008736:	ee11 8a10 	vmov	r8, s2
 800873a:	d80a      	bhi.n	8008752 <__ieee754_atan2+0x3a>
 800873c:	4244      	negs	r4, r0
 800873e:	f021 4300 	bic.w	r3, r1, #2147483648	; 0x80000000
 8008742:	4304      	orrs	r4, r0
 8008744:	ea43 74d4 	orr.w	r4, r3, r4, lsr #31
 8008748:	4574      	cmp	r4, lr
 800874a:	ee10 9a10 	vmov	r9, s0
 800874e:	468c      	mov	ip, r1
 8008750:	d907      	bls.n	8008762 <__ieee754_atan2+0x4a>
 8008752:	4632      	mov	r2, r6
 8008754:	463b      	mov	r3, r7
 8008756:	f7f7 fda1 	bl	800029c <__adddf3>
 800875a:	ec41 0b10 	vmov	d0, r0, r1
 800875e:	e8bd 83f8 	ldmia.w	sp!, {r3, r4, r5, r6, r7, r8, r9, pc}
 8008762:	f107 4440 	add.w	r4, r7, #3221225472	; 0xc0000000
 8008766:	f504 1480 	add.w	r4, r4, #1048576	; 0x100000
 800876a:	4334      	orrs	r4, r6
 800876c:	d103      	bne.n	8008776 <__ieee754_atan2+0x5e>
 800876e:	e8bd 43f8 	ldmia.w	sp!, {r3, r4, r5, r6, r7, r8, r9, lr}
 8008772:	f001 bd95 	b.w	800a2a0 <atan>
 8008776:	17bc      	asrs	r4, r7, #30
 8008778:	f004 0402 	and.w	r4, r4, #2
 800877c:	ea53 0909 	orrs.w	r9, r3, r9
 8008780:	ea44 74d1 	orr.w	r4, r4, r1, lsr #31
 8008784:	d107      	bne.n	8008796 <__ieee754_atan2+0x7e>
 8008786:	2c02      	cmp	r4, #2
 8008788:	d060      	beq.n	800884c <__ieee754_atan2+0x134>
 800878a:	2c03      	cmp	r4, #3
 800878c:	d1e5      	bne.n	800875a <__ieee754_atan2+0x42>
 800878e:	a142      	add	r1, pc, #264	; (adr r1, 8008898 <__ieee754_atan2+0x180>)
 8008790:	e9d1 0100 	ldrd	r0, r1, [r1]
 8008794:	e7e1      	b.n	800875a <__ieee754_atan2+0x42>
 8008796:	ea52 0808 	orrs.w	r8, r2, r8
 800879a:	d106      	bne.n	80087aa <__ieee754_atan2+0x92>
 800879c:	f1bc 0f00 	cmp.w	ip, #0
 80087a0:	da5f      	bge.n	8008862 <__ieee754_atan2+0x14a>
 80087a2:	a13f      	add	r1, pc, #252	; (adr r1, 80088a0 <__ieee754_atan2+0x188>)
 80087a4:	e9d1 0100 	ldrd	r0, r1, [r1]
 80087a8:	e7d7      	b.n	800875a <__ieee754_atan2+0x42>
 80087aa:	4572      	cmp	r2, lr
 80087ac:	d10f      	bne.n	80087ce <__ieee754_atan2+0xb6>
 80087ae:	4293      	cmp	r3, r2
 80087b0:	f104 34ff 	add.w	r4, r4, #4294967295
 80087b4:	d107      	bne.n	80087c6 <__ieee754_atan2+0xae>
 80087b6:	2c02      	cmp	r4, #2
 80087b8:	d84c      	bhi.n	8008854 <__ieee754_atan2+0x13c>
 80087ba:	4b35      	ldr	r3, [pc, #212]	; (8008890 <__ieee754_atan2+0x178>)
 80087bc:	eb03 04c4 	add.w	r4, r3, r4, lsl #3
 80087c0:	e9d4 0100 	ldrd	r0, r1, [r4]
 80087c4:	e7c9      	b.n	800875a <__ieee754_atan2+0x42>
 80087c6:	2c02      	cmp	r4, #2
 80087c8:	d848      	bhi.n	800885c <__ieee754_atan2+0x144>
 80087ca:	4b32      	ldr	r3, [pc, #200]	; (8008894 <__ieee754_atan2+0x17c>)
 80087cc:	e7f6      	b.n	80087bc <__ieee754_atan2+0xa4>
 80087ce:	4573      	cmp	r3, lr
 80087d0:	d0e4      	beq.n	800879c <__ieee754_atan2+0x84>
 80087d2:	1a9b      	subs	r3, r3, r2
 80087d4:	f1b3 7f74 	cmp.w	r3, #63963136	; 0x3d00000
 80087d8:	ea4f 5223 	mov.w	r2, r3, asr #20
 80087dc:	da1e      	bge.n	800881c <__ieee754_atan2+0x104>
 80087de:	2f00      	cmp	r7, #0
 80087e0:	da01      	bge.n	80087e6 <__ieee754_atan2+0xce>
 80087e2:	323c      	adds	r2, #60	; 0x3c
 80087e4:	db1e      	blt.n	8008824 <__ieee754_atan2+0x10c>
 80087e6:	4632      	mov	r2, r6
 80087e8:	463b      	mov	r3, r7
 80087ea:	f7f8 f837 	bl	800085c <__aeabi_ddiv>
 80087ee:	ec41 0b10 	vmov	d0, r0, r1
 80087f2:	f001 fef5 	bl	800a5e0 <fabs>
 80087f6:	f001 fd53 	bl	800a2a0 <atan>
 80087fa:	ec51 0b10 	vmov	r0, r1, d0
 80087fe:	2c01      	cmp	r4, #1
 8008800:	d013      	beq.n	800882a <__ieee754_atan2+0x112>
 8008802:	2c02      	cmp	r4, #2
 8008804:	d015      	beq.n	8008832 <__ieee754_atan2+0x11a>
 8008806:	2c00      	cmp	r4, #0
 8008808:	d0a7      	beq.n	800875a <__ieee754_atan2+0x42>
 800880a:	a319      	add	r3, pc, #100	; (adr r3, 8008870 <__ieee754_atan2+0x158>)
 800880c:	e9d3 2300 	ldrd	r2, r3, [r3]
 8008810:	f7f7 fd42 	bl	8000298 <__aeabi_dsub>
 8008814:	a318      	add	r3, pc, #96	; (adr r3, 8008878 <__ieee754_atan2+0x160>)
 8008816:	e9d3 2300 	ldrd	r2, r3, [r3]
 800881a:	e014      	b.n	8008846 <__ieee754_atan2+0x12e>
 800881c:	a118      	add	r1, pc, #96	; (adr r1, 8008880 <__ieee754_atan2+0x168>)
 800881e:	e9d1 0100 	ldrd	r0, r1, [r1]
 8008822:	e7ec      	b.n	80087fe <__ieee754_atan2+0xe6>
 8008824:	2000      	movs	r0, #0
 8008826:	2100      	movs	r1, #0
 8008828:	e7e9      	b.n	80087fe <__ieee754_atan2+0xe6>
 800882a:	f101 4300 	add.w	r3, r1, #2147483648	; 0x80000000
 800882e:	4619      	mov	r1, r3
 8008830:	e793      	b.n	800875a <__ieee754_atan2+0x42>
 8008832:	a30f      	add	r3, pc, #60	; (adr r3, 8008870 <__ieee754_atan2+0x158>)
 8008834:	e9d3 2300 	ldrd	r2, r3, [r3]
 8008838:	f7f7 fd2e 	bl	8000298 <__aeabi_dsub>
 800883c:	4602      	mov	r2, r0
 800883e:	460b      	mov	r3, r1
 8008840:	a10d      	add	r1, pc, #52	; (adr r1, 8008878 <__ieee754_atan2+0x160>)
 8008842:	e9d1 0100 	ldrd	r0, r1, [r1]
 8008846:	f7f7 fd27 	bl	8000298 <__aeabi_dsub>
 800884a:	e786      	b.n	800875a <__ieee754_atan2+0x42>
 800884c:	a10a      	add	r1, pc, #40	; (adr r1, 8008878 <__ieee754_atan2+0x160>)
 800884e:	e9d1 0100 	ldrd	r0, r1, [r1]
 8008852:	e782      	b.n	800875a <__ieee754_atan2+0x42>
 8008854:	a10c      	add	r1, pc, #48	; (adr r1, 8008888 <__ieee754_atan2+0x170>)
 8008856:	e9d1 0100 	ldrd	r0, r1, [r1]
 800885a:	e77e      	b.n	800875a <__ieee754_atan2+0x42>
 800885c:	2000      	movs	r0, #0
 800885e:	2100      	movs	r1, #0
 8008860:	e77b      	b.n	800875a <__ieee754_atan2+0x42>
 8008862:	a107      	add	r1, pc, #28	; (adr r1, 8008880 <__ieee754_atan2+0x168>)
 8008864:	e9d1 0100 	ldrd	r0, r1, [r1]
 8008868:	e777      	b.n	800875a <__ieee754_atan2+0x42>
 800886a:	bf00      	nop
 800886c:	f3af 8000 	nop.w
 8008870:	33145c07 	.word	0x33145c07
 8008874:	3ca1a626 	.word	0x3ca1a626
 8008878:	54442d18 	.word	0x54442d18
 800887c:	400921fb 	.word	0x400921fb
 8008880:	54442d18 	.word	0x54442d18
 8008884:	3ff921fb 	.word	0x3ff921fb
 8008888:	54442d18 	.word	0x54442d18
 800888c:	3fe921fb 	.word	0x3fe921fb
 8008890:	0800acf0 	.word	0x0800acf0
 8008894:	0800ad08 	.word	0x0800ad08
 8008898:	54442d18 	.word	0x54442d18
 800889c:	c00921fb 	.word	0xc00921fb
 80088a0:	54442d18 	.word	0x54442d18
 80088a4:	bff921fb 	.word	0xbff921fb
 80088a8:	7ff00000 	.word	0x7ff00000
 80088ac:	00000000 	.word	0x00000000

080088b0 <__ieee754_pow>:
 80088b0:	e92d 4ff0 	stmdb	sp!, {r4, r5, r6, r7, r8, r9, sl, fp, lr}
 80088b4:	ed2d 8b06 	vpush	{d8-d10}
 80088b8:	b089      	sub	sp, #36	; 0x24
 80088ba:	ed8d 1b00 	vstr	d1, [sp]
 80088be:	e9dd 2900 	ldrd	r2, r9, [sp]
 80088c2:	f029 4800 	bic.w	r8, r9, #2147483648	; 0x80000000
 80088c6:	ea58 0102 	orrs.w	r1, r8, r2
 80088ca:	ec57 6b10 	vmov	r6, r7, d0
 80088ce:	d115      	bne.n	80088fc <__ieee754_pow+0x4c>
 80088d0:	19b3      	adds	r3, r6, r6
 80088d2:	f487 2200 	eor.w	r2, r7, #524288	; 0x80000
 80088d6:	4152      	adcs	r2, r2
 80088d8:	4299      	cmp	r1, r3
 80088da:	4b89      	ldr	r3, [pc, #548]	; (8008b00 <__ieee754_pow+0x250>)
 80088dc:	4193      	sbcs	r3, r2
 80088de:	f080 84d2 	bcs.w	8009286 <__ieee754_pow+0x9d6>
 80088e2:	e9dd 2300 	ldrd	r2, r3, [sp]
 80088e6:	4630      	mov	r0, r6
 80088e8:	4639      	mov	r1, r7
 80088ea:	f7f7 fcd7 	bl	800029c <__adddf3>
 80088ee:	ec41 0b10 	vmov	d0, r0, r1
 80088f2:	b009      	add	sp, #36	; 0x24
 80088f4:	ecbd 8b06 	vpop	{d8-d10}
 80088f8:	e8bd 8ff0 	ldmia.w	sp!, {r4, r5, r6, r7, r8, r9, sl, fp, pc}
 80088fc:	4b81      	ldr	r3, [pc, #516]	; (8008b04 <__ieee754_pow+0x254>)
 80088fe:	f027 4400 	bic.w	r4, r7, #2147483648	; 0x80000000
 8008902:	429c      	cmp	r4, r3
 8008904:	ee10 aa10 	vmov	sl, s0
 8008908:	463d      	mov	r5, r7
 800890a:	dc06      	bgt.n	800891a <__ieee754_pow+0x6a>
 800890c:	d101      	bne.n	8008912 <__ieee754_pow+0x62>
 800890e:	2e00      	cmp	r6, #0
 8008910:	d1e7      	bne.n	80088e2 <__ieee754_pow+0x32>
 8008912:	4598      	cmp	r8, r3
 8008914:	dc01      	bgt.n	800891a <__ieee754_pow+0x6a>
 8008916:	d10f      	bne.n	8008938 <__ieee754_pow+0x88>
 8008918:	b172      	cbz	r2, 8008938 <__ieee754_pow+0x88>
 800891a:	f105 4540 	add.w	r5, r5, #3221225472	; 0xc0000000
 800891e:	f505 1580 	add.w	r5, r5, #1048576	; 0x100000
 8008922:	ea55 050a 	orrs.w	r5, r5, sl
 8008926:	d1dc      	bne.n	80088e2 <__ieee754_pow+0x32>
 8008928:	e9dd 3200 	ldrd	r3, r2, [sp]
 800892c:	18db      	adds	r3, r3, r3
 800892e:	f482 2200 	eor.w	r2, r2, #524288	; 0x80000
 8008932:	4152      	adcs	r2, r2
 8008934:	429d      	cmp	r5, r3
 8008936:	e7d0      	b.n	80088da <__ieee754_pow+0x2a>
 8008938:	2d00      	cmp	r5, #0
 800893a:	da3b      	bge.n	80089b4 <__ieee754_pow+0x104>
 800893c:	4b72      	ldr	r3, [pc, #456]	; (8008b08 <__ieee754_pow+0x258>)
 800893e:	4598      	cmp	r8, r3
 8008940:	dc51      	bgt.n	80089e6 <__ieee754_pow+0x136>
 8008942:	f1a3 7354 	sub.w	r3, r3, #55574528	; 0x3500000
 8008946:	4598      	cmp	r8, r3
 8008948:	f340 84ac 	ble.w	80092a4 <__ieee754_pow+0x9f4>
 800894c:	ea4f 5328 	mov.w	r3, r8, asr #20
 8008950:	f2a3 33ff 	subw	r3, r3, #1023	; 0x3ff
 8008954:	2b14      	cmp	r3, #20
 8008956:	dd0f      	ble.n	8008978 <__ieee754_pow+0xc8>
 8008958:	f1c3 0334 	rsb	r3, r3, #52	; 0x34
 800895c:	fa22 f103 	lsr.w	r1, r2, r3
 8008960:	fa01 f303 	lsl.w	r3, r1, r3
 8008964:	4293      	cmp	r3, r2
 8008966:	f040 849d 	bne.w	80092a4 <__ieee754_pow+0x9f4>
 800896a:	f001 0101 	and.w	r1, r1, #1
 800896e:	f1c1 0302 	rsb	r3, r1, #2
 8008972:	9304      	str	r3, [sp, #16]
 8008974:	b182      	cbz	r2, 8008998 <__ieee754_pow+0xe8>
 8008976:	e05f      	b.n	8008a38 <__ieee754_pow+0x188>
 8008978:	2a00      	cmp	r2, #0
 800897a:	d15b      	bne.n	8008a34 <__ieee754_pow+0x184>
 800897c:	f1c3 0314 	rsb	r3, r3, #20
 8008980:	fa48 f103 	asr.w	r1, r8, r3
 8008984:	fa01 f303 	lsl.w	r3, r1, r3
 8008988:	4543      	cmp	r3, r8
 800898a:	f040 8488 	bne.w	800929e <__ieee754_pow+0x9ee>
 800898e:	f001 0101 	and.w	r1, r1, #1
 8008992:	f1c1 0302 	rsb	r3, r1, #2
 8008996:	9304      	str	r3, [sp, #16]
 8008998:	4b5c      	ldr	r3, [pc, #368]	; (8008b0c <__ieee754_pow+0x25c>)
 800899a:	4598      	cmp	r8, r3
 800899c:	d132      	bne.n	8008a04 <__ieee754_pow+0x154>
 800899e:	f1b9 0f00 	cmp.w	r9, #0
 80089a2:	f280 8478 	bge.w	8009296 <__ieee754_pow+0x9e6>
 80089a6:	4959      	ldr	r1, [pc, #356]	; (8008b0c <__ieee754_pow+0x25c>)
 80089a8:	4632      	mov	r2, r6
 80089aa:	463b      	mov	r3, r7
 80089ac:	2000      	movs	r0, #0
 80089ae:	f7f7 ff55 	bl	800085c <__aeabi_ddiv>
 80089b2:	e79c      	b.n	80088ee <__ieee754_pow+0x3e>
 80089b4:	2300      	movs	r3, #0
 80089b6:	9304      	str	r3, [sp, #16]
 80089b8:	2a00      	cmp	r2, #0
 80089ba:	d13d      	bne.n	8008a38 <__ieee754_pow+0x188>
 80089bc:	4b51      	ldr	r3, [pc, #324]	; (8008b04 <__ieee754_pow+0x254>)
 80089be:	4598      	cmp	r8, r3
 80089c0:	d1ea      	bne.n	8008998 <__ieee754_pow+0xe8>
 80089c2:	f104 4340 	add.w	r3, r4, #3221225472	; 0xc0000000
 80089c6:	f503 1380 	add.w	r3, r3, #1048576	; 0x100000
 80089ca:	ea53 030a 	orrs.w	r3, r3, sl
 80089ce:	f000 845a 	beq.w	8009286 <__ieee754_pow+0x9d6>
 80089d2:	4b4f      	ldr	r3, [pc, #316]	; (8008b10 <__ieee754_pow+0x260>)
 80089d4:	429c      	cmp	r4, r3
 80089d6:	dd08      	ble.n	80089ea <__ieee754_pow+0x13a>
 80089d8:	f1b9 0f00 	cmp.w	r9, #0
 80089dc:	f2c0 8457 	blt.w	800928e <__ieee754_pow+0x9de>
 80089e0:	e9dd 0100 	ldrd	r0, r1, [sp]
 80089e4:	e783      	b.n	80088ee <__ieee754_pow+0x3e>
 80089e6:	2302      	movs	r3, #2
 80089e8:	e7e5      	b.n	80089b6 <__ieee754_pow+0x106>
 80089ea:	f1b9 0f00 	cmp.w	r9, #0
 80089ee:	f04f 0000 	mov.w	r0, #0
 80089f2:	f04f 0100 	mov.w	r1, #0
 80089f6:	f6bf af7a 	bge.w	80088ee <__ieee754_pow+0x3e>
 80089fa:	e9dd 0300 	ldrd	r0, r3, [sp]
 80089fe:	f103 4100 	add.w	r1, r3, #2147483648	; 0x80000000
 8008a02:	e774      	b.n	80088ee <__ieee754_pow+0x3e>
 8008a04:	f1b9 4f80 	cmp.w	r9, #1073741824	; 0x40000000
 8008a08:	d106      	bne.n	8008a18 <__ieee754_pow+0x168>
 8008a0a:	4632      	mov	r2, r6
 8008a0c:	463b      	mov	r3, r7
 8008a0e:	4630      	mov	r0, r6
 8008a10:	4639      	mov	r1, r7
 8008a12:	f7f7 fdf9 	bl	8000608 <__aeabi_dmul>
 8008a16:	e76a      	b.n	80088ee <__ieee754_pow+0x3e>
 8008a18:	4b3e      	ldr	r3, [pc, #248]	; (8008b14 <__ieee754_pow+0x264>)
 8008a1a:	4599      	cmp	r9, r3
 8008a1c:	d10c      	bne.n	8008a38 <__ieee754_pow+0x188>
 8008a1e:	2d00      	cmp	r5, #0
 8008a20:	db0a      	blt.n	8008a38 <__ieee754_pow+0x188>
 8008a22:	ec47 6b10 	vmov	d0, r6, r7
 8008a26:	b009      	add	sp, #36	; 0x24
 8008a28:	ecbd 8b06 	vpop	{d8-d10}
 8008a2c:	e8bd 4ff0 	ldmia.w	sp!, {r4, r5, r6, r7, r8, r9, sl, fp, lr}
 8008a30:	f000 be7a 	b.w	8009728 <__ieee754_sqrt>
 8008a34:	2300      	movs	r3, #0
 8008a36:	9304      	str	r3, [sp, #16]
 8008a38:	ec47 6b10 	vmov	d0, r6, r7
 8008a3c:	f001 fdd0 	bl	800a5e0 <fabs>
 8008a40:	ec51 0b10 	vmov	r0, r1, d0
 8008a44:	f1ba 0f00 	cmp.w	sl, #0
 8008a48:	d129      	bne.n	8008a9e <__ieee754_pow+0x1ee>
 8008a4a:	b124      	cbz	r4, 8008a56 <__ieee754_pow+0x1a6>
 8008a4c:	4b2f      	ldr	r3, [pc, #188]	; (8008b0c <__ieee754_pow+0x25c>)
 8008a4e:	f025 4240 	bic.w	r2, r5, #3221225472	; 0xc0000000
 8008a52:	429a      	cmp	r2, r3
 8008a54:	d123      	bne.n	8008a9e <__ieee754_pow+0x1ee>
 8008a56:	f1b9 0f00 	cmp.w	r9, #0
 8008a5a:	da05      	bge.n	8008a68 <__ieee754_pow+0x1b8>
 8008a5c:	4602      	mov	r2, r0
 8008a5e:	460b      	mov	r3, r1
 8008a60:	2000      	movs	r0, #0
 8008a62:	492a      	ldr	r1, [pc, #168]	; (8008b0c <__ieee754_pow+0x25c>)
 8008a64:	f7f7 fefa 	bl	800085c <__aeabi_ddiv>
 8008a68:	2d00      	cmp	r5, #0
 8008a6a:	f6bf af40 	bge.w	80088ee <__ieee754_pow+0x3e>
 8008a6e:	9b04      	ldr	r3, [sp, #16]
 8008a70:	f104 4440 	add.w	r4, r4, #3221225472	; 0xc0000000
 8008a74:	f504 1480 	add.w	r4, r4, #1048576	; 0x100000
 8008a78:	4323      	orrs	r3, r4
 8008a7a:	d108      	bne.n	8008a8e <__ieee754_pow+0x1de>
 8008a7c:	4602      	mov	r2, r0
 8008a7e:	460b      	mov	r3, r1
 8008a80:	4610      	mov	r0, r2
 8008a82:	4619      	mov	r1, r3
 8008a84:	f7f7 fc08 	bl	8000298 <__aeabi_dsub>
 8008a88:	4602      	mov	r2, r0
 8008a8a:	460b      	mov	r3, r1
 8008a8c:	e78f      	b.n	80089ae <__ieee754_pow+0xfe>
 8008a8e:	9b04      	ldr	r3, [sp, #16]
 8008a90:	2b01      	cmp	r3, #1
 8008a92:	f47f af2c 	bne.w	80088ee <__ieee754_pow+0x3e>
 8008a96:	f101 4300 	add.w	r3, r1, #2147483648	; 0x80000000
 8008a9a:	4619      	mov	r1, r3
 8008a9c:	e727      	b.n	80088ee <__ieee754_pow+0x3e>
 8008a9e:	0feb      	lsrs	r3, r5, #31
 8008aa0:	3b01      	subs	r3, #1
 8008aa2:	9306      	str	r3, [sp, #24]
 8008aa4:	9a06      	ldr	r2, [sp, #24]
 8008aa6:	9b04      	ldr	r3, [sp, #16]
 8008aa8:	4313      	orrs	r3, r2
 8008aaa:	d102      	bne.n	8008ab2 <__ieee754_pow+0x202>
 8008aac:	4632      	mov	r2, r6
 8008aae:	463b      	mov	r3, r7
 8008ab0:	e7e6      	b.n	8008a80 <__ieee754_pow+0x1d0>
 8008ab2:	4b19      	ldr	r3, [pc, #100]	; (8008b18 <__ieee754_pow+0x268>)
 8008ab4:	4598      	cmp	r8, r3
 8008ab6:	f340 80fb 	ble.w	8008cb0 <__ieee754_pow+0x400>
 8008aba:	f103 7304 	add.w	r3, r3, #34603008	; 0x2100000
 8008abe:	4598      	cmp	r8, r3
 8008ac0:	4b13      	ldr	r3, [pc, #76]	; (8008b10 <__ieee754_pow+0x260>)
 8008ac2:	dd0c      	ble.n	8008ade <__ieee754_pow+0x22e>
 8008ac4:	429c      	cmp	r4, r3
 8008ac6:	dc0f      	bgt.n	8008ae8 <__ieee754_pow+0x238>
 8008ac8:	f1b9 0f00 	cmp.w	r9, #0
 8008acc:	da0f      	bge.n	8008aee <__ieee754_pow+0x23e>
 8008ace:	2000      	movs	r0, #0
 8008ad0:	b009      	add	sp, #36	; 0x24
 8008ad2:	ecbd 8b06 	vpop	{d8-d10}
 8008ad6:	e8bd 4ff0 	ldmia.w	sp!, {r4, r5, r6, r7, r8, r9, sl, fp, lr}
 8008ada:	f001 bbd6 	b.w	800a28a <__math_oflow>
 8008ade:	429c      	cmp	r4, r3
 8008ae0:	dbf2      	blt.n	8008ac8 <__ieee754_pow+0x218>
 8008ae2:	4b0a      	ldr	r3, [pc, #40]	; (8008b0c <__ieee754_pow+0x25c>)
 8008ae4:	429c      	cmp	r4, r3
 8008ae6:	dd19      	ble.n	8008b1c <__ieee754_pow+0x26c>
 8008ae8:	f1b9 0f00 	cmp.w	r9, #0
 8008aec:	dcef      	bgt.n	8008ace <__ieee754_pow+0x21e>
 8008aee:	2000      	movs	r0, #0
 8008af0:	b009      	add	sp, #36	; 0x24
 8008af2:	ecbd 8b06 	vpop	{d8-d10}
 8008af6:	e8bd 4ff0 	ldmia.w	sp!, {r4, r5, r6, r7, r8, r9, sl, fp, lr}
 8008afa:	f001 bbbd 	b.w	800a278 <__math_uflow>
 8008afe:	bf00      	nop
 8008b00:	fff00000 	.word	0xfff00000
 8008b04:	7ff00000 	.word	0x7ff00000
 8008b08:	433fffff 	.word	0x433fffff
 8008b0c:	3ff00000 	.word	0x3ff00000
 8008b10:	3fefffff 	.word	0x3fefffff
 8008b14:	3fe00000 	.word	0x3fe00000
 8008b18:	41e00000 	.word	0x41e00000
 8008b1c:	4b60      	ldr	r3, [pc, #384]	; (8008ca0 <__ieee754_pow+0x3f0>)
 8008b1e:	2200      	movs	r2, #0
 8008b20:	f7f7 fbba 	bl	8000298 <__aeabi_dsub>
 8008b24:	a354      	add	r3, pc, #336	; (adr r3, 8008c78 <__ieee754_pow+0x3c8>)
 8008b26:	e9d3 2300 	ldrd	r2, r3, [r3]
 8008b2a:	4604      	mov	r4, r0
 8008b2c:	460d      	mov	r5, r1
 8008b2e:	f7f7 fd6b 	bl	8000608 <__aeabi_dmul>
 8008b32:	a353      	add	r3, pc, #332	; (adr r3, 8008c80 <__ieee754_pow+0x3d0>)
 8008b34:	e9d3 2300 	ldrd	r2, r3, [r3]
 8008b38:	4606      	mov	r6, r0
 8008b3a:	460f      	mov	r7, r1
 8008b3c:	4620      	mov	r0, r4
 8008b3e:	4629      	mov	r1, r5
 8008b40:	f7f7 fd62 	bl	8000608 <__aeabi_dmul>
 8008b44:	4b57      	ldr	r3, [pc, #348]	; (8008ca4 <__ieee754_pow+0x3f4>)
 8008b46:	4682      	mov	sl, r0
 8008b48:	468b      	mov	fp, r1
 8008b4a:	2200      	movs	r2, #0
 8008b4c:	4620      	mov	r0, r4
 8008b4e:	4629      	mov	r1, r5
 8008b50:	f7f7 fd5a 	bl	8000608 <__aeabi_dmul>
 8008b54:	4602      	mov	r2, r0
 8008b56:	460b      	mov	r3, r1
 8008b58:	a14b      	add	r1, pc, #300	; (adr r1, 8008c88 <__ieee754_pow+0x3d8>)
 8008b5a:	e9d1 0100 	ldrd	r0, r1, [r1]
 8008b5e:	f7f7 fb9b 	bl	8000298 <__aeabi_dsub>
 8008b62:	4622      	mov	r2, r4
 8008b64:	462b      	mov	r3, r5
 8008b66:	f7f7 fd4f 	bl	8000608 <__aeabi_dmul>
 8008b6a:	4602      	mov	r2, r0
 8008b6c:	460b      	mov	r3, r1
 8008b6e:	2000      	movs	r0, #0
 8008b70:	494d      	ldr	r1, [pc, #308]	; (8008ca8 <__ieee754_pow+0x3f8>)
 8008b72:	f7f7 fb91 	bl	8000298 <__aeabi_dsub>
 8008b76:	4622      	mov	r2, r4
 8008b78:	4680      	mov	r8, r0
 8008b7a:	4689      	mov	r9, r1
 8008b7c:	462b      	mov	r3, r5
 8008b7e:	4620      	mov	r0, r4
 8008b80:	4629      	mov	r1, r5
 8008b82:	f7f7 fd41 	bl	8000608 <__aeabi_dmul>
 8008b86:	4602      	mov	r2, r0
 8008b88:	460b      	mov	r3, r1
 8008b8a:	4640      	mov	r0, r8
 8008b8c:	4649      	mov	r1, r9
 8008b8e:	f7f7 fd3b 	bl	8000608 <__aeabi_dmul>
 8008b92:	a33f      	add	r3, pc, #252	; (adr r3, 8008c90 <__ieee754_pow+0x3e0>)
 8008b94:	e9d3 2300 	ldrd	r2, r3, [r3]
 8008b98:	f7f7 fd36 	bl	8000608 <__aeabi_dmul>
 8008b9c:	4602      	mov	r2, r0
 8008b9e:	460b      	mov	r3, r1
 8008ba0:	4650      	mov	r0, sl
 8008ba2:	4659      	mov	r1, fp
 8008ba4:	f7f7 fb78 	bl	8000298 <__aeabi_dsub>
 8008ba8:	4602      	mov	r2, r0
 8008baa:	460b      	mov	r3, r1
 8008bac:	4680      	mov	r8, r0
 8008bae:	4689      	mov	r9, r1
 8008bb0:	4630      	mov	r0, r6
 8008bb2:	4639      	mov	r1, r7
 8008bb4:	f7f7 fb72 	bl	800029c <__adddf3>
 8008bb8:	2000      	movs	r0, #0
 8008bba:	4632      	mov	r2, r6
 8008bbc:	463b      	mov	r3, r7
 8008bbe:	4604      	mov	r4, r0
 8008bc0:	460d      	mov	r5, r1
 8008bc2:	f7f7 fb69 	bl	8000298 <__aeabi_dsub>
 8008bc6:	4602      	mov	r2, r0
 8008bc8:	460b      	mov	r3, r1
 8008bca:	4640      	mov	r0, r8
 8008bcc:	4649      	mov	r1, r9
 8008bce:	f7f7 fb63 	bl	8000298 <__aeabi_dsub>
 8008bd2:	9b04      	ldr	r3, [sp, #16]
 8008bd4:	9a06      	ldr	r2, [sp, #24]
 8008bd6:	3b01      	subs	r3, #1
 8008bd8:	4313      	orrs	r3, r2
 8008bda:	4682      	mov	sl, r0
 8008bdc:	468b      	mov	fp, r1
 8008bde:	f040 81e7 	bne.w	8008fb0 <__ieee754_pow+0x700>
 8008be2:	ed9f 7b2d 	vldr	d7, [pc, #180]	; 8008c98 <__ieee754_pow+0x3e8>
 8008be6:	eeb0 8a47 	vmov.f32	s16, s14
 8008bea:	eef0 8a67 	vmov.f32	s17, s15
 8008bee:	e9dd 6700 	ldrd	r6, r7, [sp]
 8008bf2:	2600      	movs	r6, #0
 8008bf4:	4632      	mov	r2, r6
 8008bf6:	463b      	mov	r3, r7
 8008bf8:	e9dd 0100 	ldrd	r0, r1, [sp]
 8008bfc:	f7f7 fb4c 	bl	8000298 <__aeabi_dsub>
 8008c00:	4622      	mov	r2, r4
 8008c02:	462b      	mov	r3, r5
 8008c04:	f7f7 fd00 	bl	8000608 <__aeabi_dmul>
 8008c08:	e9dd 2300 	ldrd	r2, r3, [sp]
 8008c0c:	4680      	mov	r8, r0
 8008c0e:	4689      	mov	r9, r1
 8008c10:	4650      	mov	r0, sl
 8008c12:	4659      	mov	r1, fp
 8008c14:	f7f7 fcf8 	bl	8000608 <__aeabi_dmul>
 8008c18:	4602      	mov	r2, r0
 8008c1a:	460b      	mov	r3, r1
 8008c1c:	4640      	mov	r0, r8
 8008c1e:	4649      	mov	r1, r9
 8008c20:	f7f7 fb3c 	bl	800029c <__adddf3>
 8008c24:	4632      	mov	r2, r6
 8008c26:	463b      	mov	r3, r7
 8008c28:	4680      	mov	r8, r0
 8008c2a:	4689      	mov	r9, r1
 8008c2c:	4620      	mov	r0, r4
 8008c2e:	4629      	mov	r1, r5
 8008c30:	f7f7 fcea 	bl	8000608 <__aeabi_dmul>
 8008c34:	460b      	mov	r3, r1
 8008c36:	4604      	mov	r4, r0
 8008c38:	460d      	mov	r5, r1
 8008c3a:	4602      	mov	r2, r0
 8008c3c:	4649      	mov	r1, r9
 8008c3e:	4640      	mov	r0, r8
 8008c40:	f7f7 fb2c 	bl	800029c <__adddf3>
 8008c44:	4b19      	ldr	r3, [pc, #100]	; (8008cac <__ieee754_pow+0x3fc>)
 8008c46:	4299      	cmp	r1, r3
 8008c48:	ec45 4b19 	vmov	d9, r4, r5
 8008c4c:	4606      	mov	r6, r0
 8008c4e:	460f      	mov	r7, r1
 8008c50:	468b      	mov	fp, r1
 8008c52:	f340 82f1 	ble.w	8009238 <__ieee754_pow+0x988>
 8008c56:	f101 433f 	add.w	r3, r1, #3204448256	; 0xbf000000
 8008c5a:	f503 03e0 	add.w	r3, r3, #7340032	; 0x700000
 8008c5e:	4303      	orrs	r3, r0
 8008c60:	f000 81e4 	beq.w	800902c <__ieee754_pow+0x77c>
 8008c64:	ec51 0b18 	vmov	r0, r1, d8
 8008c68:	2200      	movs	r2, #0
 8008c6a:	2300      	movs	r3, #0
 8008c6c:	f7f7 ff3e 	bl	8000aec <__aeabi_dcmplt>
 8008c70:	3800      	subs	r0, #0
 8008c72:	bf18      	it	ne
 8008c74:	2001      	movne	r0, #1
 8008c76:	e72b      	b.n	8008ad0 <__ieee754_pow+0x220>
 8008c78:	60000000 	.word	0x60000000
 8008c7c:	3ff71547 	.word	0x3ff71547
 8008c80:	f85ddf44 	.word	0xf85ddf44
 8008c84:	3e54ae0b 	.word	0x3e54ae0b
 8008c88:	55555555 	.word	0x55555555
 8008c8c:	3fd55555 	.word	0x3fd55555
 8008c90:	652b82fe 	.word	0x652b82fe
 8008c94:	3ff71547 	.word	0x3ff71547
 8008c98:	00000000 	.word	0x00000000
 8008c9c:	bff00000 	.word	0xbff00000
 8008ca0:	3ff00000 	.word	0x3ff00000
 8008ca4:	3fd00000 	.word	0x3fd00000
 8008ca8:	3fe00000 	.word	0x3fe00000
 8008cac:	408fffff 	.word	0x408fffff
 8008cb0:	4bd5      	ldr	r3, [pc, #852]	; (8009008 <__ieee754_pow+0x758>)
 8008cb2:	402b      	ands	r3, r5
 8008cb4:	2200      	movs	r2, #0
 8008cb6:	b92b      	cbnz	r3, 8008cc4 <__ieee754_pow+0x414>
 8008cb8:	4bd4      	ldr	r3, [pc, #848]	; (800900c <__ieee754_pow+0x75c>)
 8008cba:	f7f7 fca5 	bl	8000608 <__aeabi_dmul>
 8008cbe:	f06f 0234 	mvn.w	r2, #52	; 0x34
 8008cc2:	460c      	mov	r4, r1
 8008cc4:	1523      	asrs	r3, r4, #20
 8008cc6:	f2a3 33ff 	subw	r3, r3, #1023	; 0x3ff
 8008cca:	4413      	add	r3, r2
 8008ccc:	9305      	str	r3, [sp, #20]
 8008cce:	4bd0      	ldr	r3, [pc, #832]	; (8009010 <__ieee754_pow+0x760>)
 8008cd0:	f3c4 0413 	ubfx	r4, r4, #0, #20
 8008cd4:	f044 557f 	orr.w	r5, r4, #1069547520	; 0x3fc00000
 8008cd8:	429c      	cmp	r4, r3
 8008cda:	f445 1540 	orr.w	r5, r5, #3145728	; 0x300000
 8008cde:	dd08      	ble.n	8008cf2 <__ieee754_pow+0x442>
 8008ce0:	4bcc      	ldr	r3, [pc, #816]	; (8009014 <__ieee754_pow+0x764>)
 8008ce2:	429c      	cmp	r4, r3
 8008ce4:	f340 8162 	ble.w	8008fac <__ieee754_pow+0x6fc>
 8008ce8:	9b05      	ldr	r3, [sp, #20]
 8008cea:	3301      	adds	r3, #1
 8008cec:	9305      	str	r3, [sp, #20]
 8008cee:	f5a5 1580 	sub.w	r5, r5, #1048576	; 0x100000
 8008cf2:	2400      	movs	r4, #0
 8008cf4:	00e3      	lsls	r3, r4, #3
 8008cf6:	9307      	str	r3, [sp, #28]
 8008cf8:	4bc7      	ldr	r3, [pc, #796]	; (8009018 <__ieee754_pow+0x768>)
 8008cfa:	eb03 03c4 	add.w	r3, r3, r4, lsl #3
 8008cfe:	ed93 7b00 	vldr	d7, [r3]
 8008d02:	4629      	mov	r1, r5
 8008d04:	ec53 2b17 	vmov	r2, r3, d7
 8008d08:	eeb0 9a47 	vmov.f32	s18, s14
 8008d0c:	eef0 9a67 	vmov.f32	s19, s15
 8008d10:	4682      	mov	sl, r0
 8008d12:	f7f7 fac1 	bl	8000298 <__aeabi_dsub>
 8008d16:	4652      	mov	r2, sl
 8008d18:	4606      	mov	r6, r0
 8008d1a:	460f      	mov	r7, r1
 8008d1c:	462b      	mov	r3, r5
 8008d1e:	ec51 0b19 	vmov	r0, r1, d9
 8008d22:	f7f7 fabb 	bl	800029c <__adddf3>
 8008d26:	4602      	mov	r2, r0
 8008d28:	460b      	mov	r3, r1
 8008d2a:	2000      	movs	r0, #0
 8008d2c:	49bb      	ldr	r1, [pc, #748]	; (800901c <__ieee754_pow+0x76c>)
 8008d2e:	f7f7 fd95 	bl	800085c <__aeabi_ddiv>
 8008d32:	ec41 0b1a 	vmov	d10, r0, r1
 8008d36:	4602      	mov	r2, r0
 8008d38:	460b      	mov	r3, r1
 8008d3a:	4630      	mov	r0, r6
 8008d3c:	4639      	mov	r1, r7
 8008d3e:	f7f7 fc63 	bl	8000608 <__aeabi_dmul>
 8008d42:	2300      	movs	r3, #0
 8008d44:	e9cd 0102 	strd	r0, r1, [sp, #8]
 8008d48:	9302      	str	r3, [sp, #8]
 8008d4a:	e9dd 8902 	ldrd	r8, r9, [sp, #8]
 8008d4e:	46ab      	mov	fp, r5
 8008d50:	106d      	asrs	r5, r5, #1
 8008d52:	f045 5500 	orr.w	r5, r5, #536870912	; 0x20000000
 8008d56:	f505 2500 	add.w	r5, r5, #524288	; 0x80000
 8008d5a:	ec41 0b18 	vmov	d8, r0, r1
 8008d5e:	eb05 4384 	add.w	r3, r5, r4, lsl #18
 8008d62:	2200      	movs	r2, #0
 8008d64:	4640      	mov	r0, r8
 8008d66:	4649      	mov	r1, r9
 8008d68:	4614      	mov	r4, r2
 8008d6a:	461d      	mov	r5, r3
 8008d6c:	f7f7 fc4c 	bl	8000608 <__aeabi_dmul>
 8008d70:	4602      	mov	r2, r0
 8008d72:	460b      	mov	r3, r1
 8008d74:	4630      	mov	r0, r6
 8008d76:	4639      	mov	r1, r7
 8008d78:	f7f7 fa8e 	bl	8000298 <__aeabi_dsub>
 8008d7c:	ec53 2b19 	vmov	r2, r3, d9
 8008d80:	4606      	mov	r6, r0
 8008d82:	460f      	mov	r7, r1
 8008d84:	4620      	mov	r0, r4
 8008d86:	4629      	mov	r1, r5
 8008d88:	f7f7 fa86 	bl	8000298 <__aeabi_dsub>
 8008d8c:	4602      	mov	r2, r0
 8008d8e:	460b      	mov	r3, r1
 8008d90:	4650      	mov	r0, sl
 8008d92:	4659      	mov	r1, fp
 8008d94:	f7f7 fa80 	bl	8000298 <__aeabi_dsub>
 8008d98:	4642      	mov	r2, r8
 8008d9a:	464b      	mov	r3, r9
 8008d9c:	f7f7 fc34 	bl	8000608 <__aeabi_dmul>
 8008da0:	4602      	mov	r2, r0
 8008da2:	460b      	mov	r3, r1
 8008da4:	4630      	mov	r0, r6
 8008da6:	4639      	mov	r1, r7
 8008da8:	f7f7 fa76 	bl	8000298 <__aeabi_dsub>
 8008dac:	ec53 2b1a 	vmov	r2, r3, d10
 8008db0:	f7f7 fc2a 	bl	8000608 <__aeabi_dmul>
 8008db4:	ec53 2b18 	vmov	r2, r3, d8
 8008db8:	ec41 0b19 	vmov	d9, r0, r1
 8008dbc:	ec51 0b18 	vmov	r0, r1, d8
 8008dc0:	f7f7 fc22 	bl	8000608 <__aeabi_dmul>
 8008dc4:	a37c      	add	r3, pc, #496	; (adr r3, 8008fb8 <__ieee754_pow+0x708>)
 8008dc6:	e9d3 2300 	ldrd	r2, r3, [r3]
 8008dca:	4604      	mov	r4, r0
 8008dcc:	460d      	mov	r5, r1
 8008dce:	f7f7 fc1b 	bl	8000608 <__aeabi_dmul>
 8008dd2:	a37b      	add	r3, pc, #492	; (adr r3, 8008fc0 <__ieee754_pow+0x710>)
 8008dd4:	e9d3 2300 	ldrd	r2, r3, [r3]
 8008dd8:	f7f7 fa60 	bl	800029c <__adddf3>
 8008ddc:	4622      	mov	r2, r4
 8008dde:	462b      	mov	r3, r5
 8008de0:	f7f7 fc12 	bl	8000608 <__aeabi_dmul>
 8008de4:	a378      	add	r3, pc, #480	; (adr r3, 8008fc8 <__ieee754_pow+0x718>)
 8008de6:	e9d3 2300 	ldrd	r2, r3, [r3]
 8008dea:	f7f7 fa57 	bl	800029c <__adddf3>
 8008dee:	4622      	mov	r2, r4
 8008df0:	462b      	mov	r3, r5
 8008df2:	f7f7 fc09 	bl	8000608 <__aeabi_dmul>
 8008df6:	a376      	add	r3, pc, #472	; (adr r3, 8008fd0 <__ieee754_pow+0x720>)
 8008df8:	e9d3 2300 	ldrd	r2, r3, [r3]
 8008dfc:	f7f7 fa4e 	bl	800029c <__adddf3>
 8008e00:	4622      	mov	r2, r4
 8008e02:	462b      	mov	r3, r5
 8008e04:	f7f7 fc00 	bl	8000608 <__aeabi_dmul>
 8008e08:	a373      	add	r3, pc, #460	; (adr r3, 8008fd8 <__ieee754_pow+0x728>)
 8008e0a:	e9d3 2300 	ldrd	r2, r3, [r3]
 8008e0e:	f7f7 fa45 	bl	800029c <__adddf3>
 8008e12:	4622      	mov	r2, r4
 8008e14:	462b      	mov	r3, r5
 8008e16:	f7f7 fbf7 	bl	8000608 <__aeabi_dmul>
 8008e1a:	a371      	add	r3, pc, #452	; (adr r3, 8008fe0 <__ieee754_pow+0x730>)
 8008e1c:	e9d3 2300 	ldrd	r2, r3, [r3]
 8008e20:	f7f7 fa3c 	bl	800029c <__adddf3>
 8008e24:	4622      	mov	r2, r4
 8008e26:	4606      	mov	r6, r0
 8008e28:	460f      	mov	r7, r1
 8008e2a:	462b      	mov	r3, r5
 8008e2c:	4620      	mov	r0, r4
 8008e2e:	4629      	mov	r1, r5
 8008e30:	f7f7 fbea 	bl	8000608 <__aeabi_dmul>
 8008e34:	4602      	mov	r2, r0
 8008e36:	460b      	mov	r3, r1
 8008e38:	4630      	mov	r0, r6
 8008e3a:	4639      	mov	r1, r7
 8008e3c:	f7f7 fbe4 	bl	8000608 <__aeabi_dmul>
 8008e40:	4642      	mov	r2, r8
 8008e42:	4604      	mov	r4, r0
 8008e44:	460d      	mov	r5, r1
 8008e46:	464b      	mov	r3, r9
 8008e48:	ec51 0b18 	vmov	r0, r1, d8
 8008e4c:	f7f7 fa26 	bl	800029c <__adddf3>
 8008e50:	ec53 2b19 	vmov	r2, r3, d9
 8008e54:	f7f7 fbd8 	bl	8000608 <__aeabi_dmul>
 8008e58:	4622      	mov	r2, r4
 8008e5a:	462b      	mov	r3, r5
 8008e5c:	f7f7 fa1e 	bl	800029c <__adddf3>
 8008e60:	4642      	mov	r2, r8
 8008e62:	4682      	mov	sl, r0
 8008e64:	468b      	mov	fp, r1
 8008e66:	464b      	mov	r3, r9
 8008e68:	4640      	mov	r0, r8
 8008e6a:	4649      	mov	r1, r9
 8008e6c:	f7f7 fbcc 	bl	8000608 <__aeabi_dmul>
 8008e70:	4b6b      	ldr	r3, [pc, #428]	; (8009020 <__ieee754_pow+0x770>)
 8008e72:	2200      	movs	r2, #0
 8008e74:	4606      	mov	r6, r0
 8008e76:	460f      	mov	r7, r1
 8008e78:	f7f7 fa10 	bl	800029c <__adddf3>
 8008e7c:	4652      	mov	r2, sl
 8008e7e:	465b      	mov	r3, fp
 8008e80:	f7f7 fa0c 	bl	800029c <__adddf3>
 8008e84:	2000      	movs	r0, #0
 8008e86:	4604      	mov	r4, r0
 8008e88:	460d      	mov	r5, r1
 8008e8a:	4602      	mov	r2, r0
 8008e8c:	460b      	mov	r3, r1
 8008e8e:	4640      	mov	r0, r8
 8008e90:	4649      	mov	r1, r9
 8008e92:	f7f7 fbb9 	bl	8000608 <__aeabi_dmul>
 8008e96:	4b62      	ldr	r3, [pc, #392]	; (8009020 <__ieee754_pow+0x770>)
 8008e98:	4680      	mov	r8, r0
 8008e9a:	4689      	mov	r9, r1
 8008e9c:	2200      	movs	r2, #0
 8008e9e:	4620      	mov	r0, r4
 8008ea0:	4629      	mov	r1, r5
 8008ea2:	f7f7 f9f9 	bl	8000298 <__aeabi_dsub>
 8008ea6:	4632      	mov	r2, r6
 8008ea8:	463b      	mov	r3, r7
 8008eaa:	f7f7 f9f5 	bl	8000298 <__aeabi_dsub>
 8008eae:	4602      	mov	r2, r0
 8008eb0:	460b      	mov	r3, r1
 8008eb2:	4650      	mov	r0, sl
 8008eb4:	4659      	mov	r1, fp
 8008eb6:	f7f7 f9ef 	bl	8000298 <__aeabi_dsub>
 8008eba:	ec53 2b18 	vmov	r2, r3, d8
 8008ebe:	f7f7 fba3 	bl	8000608 <__aeabi_dmul>
 8008ec2:	4622      	mov	r2, r4
 8008ec4:	4606      	mov	r6, r0
 8008ec6:	460f      	mov	r7, r1
 8008ec8:	462b      	mov	r3, r5
 8008eca:	ec51 0b19 	vmov	r0, r1, d9
 8008ece:	f7f7 fb9b 	bl	8000608 <__aeabi_dmul>
 8008ed2:	4602      	mov	r2, r0
 8008ed4:	460b      	mov	r3, r1
 8008ed6:	4630      	mov	r0, r6
 8008ed8:	4639      	mov	r1, r7
 8008eda:	f7f7 f9df 	bl	800029c <__adddf3>
 8008ede:	4606      	mov	r6, r0
 8008ee0:	460f      	mov	r7, r1
 8008ee2:	4602      	mov	r2, r0
 8008ee4:	460b      	mov	r3, r1
 8008ee6:	4640      	mov	r0, r8
 8008ee8:	4649      	mov	r1, r9
 8008eea:	f7f7 f9d7 	bl	800029c <__adddf3>
 8008eee:	a33e      	add	r3, pc, #248	; (adr r3, 8008fe8 <__ieee754_pow+0x738>)
 8008ef0:	e9d3 2300 	ldrd	r2, r3, [r3]
 8008ef4:	2000      	movs	r0, #0
 8008ef6:	4604      	mov	r4, r0
 8008ef8:	460d      	mov	r5, r1
 8008efa:	f7f7 fb85 	bl	8000608 <__aeabi_dmul>
 8008efe:	4642      	mov	r2, r8
 8008f00:	ec41 0b18 	vmov	d8, r0, r1
 8008f04:	464b      	mov	r3, r9
 8008f06:	4620      	mov	r0, r4
 8008f08:	4629      	mov	r1, r5
 8008f0a:	f7f7 f9c5 	bl	8000298 <__aeabi_dsub>
 8008f0e:	4602      	mov	r2, r0
 8008f10:	460b      	mov	r3, r1
 8008f12:	4630      	mov	r0, r6
 8008f14:	4639      	mov	r1, r7
 8008f16:	f7f7 f9bf 	bl	8000298 <__aeabi_dsub>
 8008f1a:	a335      	add	r3, pc, #212	; (adr r3, 8008ff0 <__ieee754_pow+0x740>)
 8008f1c:	e9d3 2300 	ldrd	r2, r3, [r3]
 8008f20:	f7f7 fb72 	bl	8000608 <__aeabi_dmul>
 8008f24:	a334      	add	r3, pc, #208	; (adr r3, 8008ff8 <__ieee754_pow+0x748>)
 8008f26:	e9d3 2300 	ldrd	r2, r3, [r3]
 8008f2a:	4606      	mov	r6, r0
 8008f2c:	460f      	mov	r7, r1
 8008f2e:	4620      	mov	r0, r4
 8008f30:	4629      	mov	r1, r5
 8008f32:	f7f7 fb69 	bl	8000608 <__aeabi_dmul>
 8008f36:	4602      	mov	r2, r0
 8008f38:	460b      	mov	r3, r1
 8008f3a:	4630      	mov	r0, r6
 8008f3c:	4639      	mov	r1, r7
 8008f3e:	f7f7 f9ad 	bl	800029c <__adddf3>
 8008f42:	9a07      	ldr	r2, [sp, #28]
 8008f44:	4b37      	ldr	r3, [pc, #220]	; (8009024 <__ieee754_pow+0x774>)
 8008f46:	4413      	add	r3, r2
 8008f48:	e9d3 2300 	ldrd	r2, r3, [r3]
 8008f4c:	f7f7 f9a6 	bl	800029c <__adddf3>
 8008f50:	4682      	mov	sl, r0
 8008f52:	9805      	ldr	r0, [sp, #20]
 8008f54:	468b      	mov	fp, r1
 8008f56:	f7f7 faed 	bl	8000534 <__aeabi_i2d>
 8008f5a:	9a07      	ldr	r2, [sp, #28]
 8008f5c:	4b32      	ldr	r3, [pc, #200]	; (8009028 <__ieee754_pow+0x778>)
 8008f5e:	4413      	add	r3, r2
 8008f60:	e9d3 8900 	ldrd	r8, r9, [r3]
 8008f64:	4606      	mov	r6, r0
 8008f66:	460f      	mov	r7, r1
 8008f68:	4652      	mov	r2, sl
 8008f6a:	465b      	mov	r3, fp
 8008f6c:	ec51 0b18 	vmov	r0, r1, d8
 8008f70:	f7f7 f994 	bl	800029c <__adddf3>
 8008f74:	4642      	mov	r2, r8
 8008f76:	464b      	mov	r3, r9
 8008f78:	f7f7 f990 	bl	800029c <__adddf3>
 8008f7c:	4632      	mov	r2, r6
 8008f7e:	463b      	mov	r3, r7
 8008f80:	f7f7 f98c 	bl	800029c <__adddf3>
 8008f84:	2000      	movs	r0, #0
 8008f86:	4632      	mov	r2, r6
 8008f88:	463b      	mov	r3, r7
 8008f8a:	4604      	mov	r4, r0
 8008f8c:	460d      	mov	r5, r1
 8008f8e:	f7f7 f983 	bl	8000298 <__aeabi_dsub>
 8008f92:	4642      	mov	r2, r8
 8008f94:	464b      	mov	r3, r9
 8008f96:	f7f7 f97f 	bl	8000298 <__aeabi_dsub>
 8008f9a:	ec53 2b18 	vmov	r2, r3, d8
 8008f9e:	f7f7 f97b 	bl	8000298 <__aeabi_dsub>
 8008fa2:	4602      	mov	r2, r0
 8008fa4:	460b      	mov	r3, r1
 8008fa6:	4650      	mov	r0, sl
 8008fa8:	4659      	mov	r1, fp
 8008faa:	e610      	b.n	8008bce <__ieee754_pow+0x31e>
 8008fac:	2401      	movs	r4, #1
 8008fae:	e6a1      	b.n	8008cf4 <__ieee754_pow+0x444>
 8008fb0:	ed9f 7b13 	vldr	d7, [pc, #76]	; 8009000 <__ieee754_pow+0x750>
 8008fb4:	e617      	b.n	8008be6 <__ieee754_pow+0x336>
 8008fb6:	bf00      	nop
 8008fb8:	4a454eef 	.word	0x4a454eef
 8008fbc:	3fca7e28 	.word	0x3fca7e28
 8008fc0:	93c9db65 	.word	0x93c9db65
 8008fc4:	3fcd864a 	.word	0x3fcd864a
 8008fc8:	a91d4101 	.word	0xa91d4101
 8008fcc:	3fd17460 	.word	0x3fd17460
 8008fd0:	518f264d 	.word	0x518f264d
 8008fd4:	3fd55555 	.word	0x3fd55555
 8008fd8:	db6fabff 	.word	0xdb6fabff
 8008fdc:	3fdb6db6 	.word	0x3fdb6db6
 8008fe0:	33333303 	.word	0x33333303
 8008fe4:	3fe33333 	.word	0x3fe33333
 8008fe8:	e0000000 	.word	0xe0000000
 8008fec:	3feec709 	.word	0x3feec709
 8008ff0:	dc3a03fd 	.word	0xdc3a03fd
 8008ff4:	3feec709 	.word	0x3feec709
 8008ff8:	145b01f5 	.word	0x145b01f5
 8008ffc:	be3e2fe0 	.word	0xbe3e2fe0
 8009000:	00000000 	.word	0x00000000
 8009004:	3ff00000 	.word	0x3ff00000
 8009008:	7ff00000 	.word	0x7ff00000
 800900c:	43400000 	.word	0x43400000
 8009010:	0003988e 	.word	0x0003988e
 8009014:	000bb679 	.word	0x000bb679
 8009018:	0800ad20 	.word	0x0800ad20
 800901c:	3ff00000 	.word	0x3ff00000
 8009020:	40080000 	.word	0x40080000
 8009024:	0800ad40 	.word	0x0800ad40
 8009028:	0800ad30 	.word	0x0800ad30
 800902c:	a3b5      	add	r3, pc, #724	; (adr r3, 8009304 <__ieee754_pow+0xa54>)
 800902e:	e9d3 2300 	ldrd	r2, r3, [r3]
 8009032:	4640      	mov	r0, r8
 8009034:	4649      	mov	r1, r9
 8009036:	f7f7 f931 	bl	800029c <__adddf3>
 800903a:	4622      	mov	r2, r4
 800903c:	ec41 0b1a 	vmov	d10, r0, r1
 8009040:	462b      	mov	r3, r5
 8009042:	4630      	mov	r0, r6
 8009044:	4639      	mov	r1, r7
 8009046:	f7f7 f927 	bl	8000298 <__aeabi_dsub>
 800904a:	4602      	mov	r2, r0
 800904c:	460b      	mov	r3, r1
 800904e:	ec51 0b1a 	vmov	r0, r1, d10
 8009052:	f7f7 fd69 	bl	8000b28 <__aeabi_dcmpgt>
 8009056:	2800      	cmp	r0, #0
 8009058:	f47f ae04 	bne.w	8008c64 <__ieee754_pow+0x3b4>
 800905c:	4aa4      	ldr	r2, [pc, #656]	; (80092f0 <__ieee754_pow+0xa40>)
 800905e:	f02b 4300 	bic.w	r3, fp, #2147483648	; 0x80000000
 8009062:	4293      	cmp	r3, r2
 8009064:	f340 8108 	ble.w	8009278 <__ieee754_pow+0x9c8>
 8009068:	151b      	asrs	r3, r3, #20
 800906a:	f44f 1a80 	mov.w	sl, #1048576	; 0x100000
 800906e:	f2a3 33fe 	subw	r3, r3, #1022	; 0x3fe
 8009072:	fa4a f303 	asr.w	r3, sl, r3
 8009076:	445b      	add	r3, fp
 8009078:	f3c3 520a 	ubfx	r2, r3, #20, #11
 800907c:	4e9d      	ldr	r6, [pc, #628]	; (80092f4 <__ieee754_pow+0xa44>)
 800907e:	f2a2 32ff 	subw	r2, r2, #1023	; 0x3ff
 8009082:	4116      	asrs	r6, r2
 8009084:	f3c3 0a13 	ubfx	sl, r3, #0, #20
 8009088:	2000      	movs	r0, #0
 800908a:	ea23 0106 	bic.w	r1, r3, r6
 800908e:	f1c2 0214 	rsb	r2, r2, #20
 8009092:	f44a 1a80 	orr.w	sl, sl, #1048576	; 0x100000
 8009096:	fa4a fa02 	asr.w	sl, sl, r2
 800909a:	f1bb 0f00 	cmp.w	fp, #0
 800909e:	4602      	mov	r2, r0
 80090a0:	460b      	mov	r3, r1
 80090a2:	4620      	mov	r0, r4
 80090a4:	4629      	mov	r1, r5
 80090a6:	bfb8      	it	lt
 80090a8:	f1ca 0a00 	rsblt	sl, sl, #0
 80090ac:	f7f7 f8f4 	bl	8000298 <__aeabi_dsub>
 80090b0:	ec41 0b19 	vmov	d9, r0, r1
 80090b4:	4642      	mov	r2, r8
 80090b6:	464b      	mov	r3, r9
 80090b8:	ec51 0b19 	vmov	r0, r1, d9
 80090bc:	f7f7 f8ee 	bl	800029c <__adddf3>
 80090c0:	a37b      	add	r3, pc, #492	; (adr r3, 80092b0 <__ieee754_pow+0xa00>)
 80090c2:	e9d3 2300 	ldrd	r2, r3, [r3]
 80090c6:	2000      	movs	r0, #0
 80090c8:	4604      	mov	r4, r0
 80090ca:	460d      	mov	r5, r1
 80090cc:	f7f7 fa9c 	bl	8000608 <__aeabi_dmul>
 80090d0:	ec53 2b19 	vmov	r2, r3, d9
 80090d4:	4606      	mov	r6, r0
 80090d6:	460f      	mov	r7, r1
 80090d8:	4620      	mov	r0, r4
 80090da:	4629      	mov	r1, r5
 80090dc:	f7f7 f8dc 	bl	8000298 <__aeabi_dsub>
 80090e0:	4602      	mov	r2, r0
 80090e2:	460b      	mov	r3, r1
 80090e4:	4640      	mov	r0, r8
 80090e6:	4649      	mov	r1, r9
 80090e8:	f7f7 f8d6 	bl	8000298 <__aeabi_dsub>
 80090ec:	a372      	add	r3, pc, #456	; (adr r3, 80092b8 <__ieee754_pow+0xa08>)
 80090ee:	e9d3 2300 	ldrd	r2, r3, [r3]
 80090f2:	f7f7 fa89 	bl	8000608 <__aeabi_dmul>
 80090f6:	a372      	add	r3, pc, #456	; (adr r3, 80092c0 <__ieee754_pow+0xa10>)
 80090f8:	e9d3 2300 	ldrd	r2, r3, [r3]
 80090fc:	4680      	mov	r8, r0
 80090fe:	4689      	mov	r9, r1
 8009100:	4620      	mov	r0, r4
 8009102:	4629      	mov	r1, r5
 8009104:	f7f7 fa80 	bl	8000608 <__aeabi_dmul>
 8009108:	4602      	mov	r2, r0
 800910a:	460b      	mov	r3, r1
 800910c:	4640      	mov	r0, r8
 800910e:	4649      	mov	r1, r9
 8009110:	f7f7 f8c4 	bl	800029c <__adddf3>
 8009114:	4604      	mov	r4, r0
 8009116:	460d      	mov	r5, r1
 8009118:	4602      	mov	r2, r0
 800911a:	460b      	mov	r3, r1
 800911c:	4630      	mov	r0, r6
 800911e:	4639      	mov	r1, r7
 8009120:	f7f7 f8bc 	bl	800029c <__adddf3>
 8009124:	4632      	mov	r2, r6
 8009126:	463b      	mov	r3, r7
 8009128:	4680      	mov	r8, r0
 800912a:	4689      	mov	r9, r1
 800912c:	f7f7 f8b4 	bl	8000298 <__aeabi_dsub>
 8009130:	4602      	mov	r2, r0
 8009132:	460b      	mov	r3, r1
 8009134:	4620      	mov	r0, r4
 8009136:	4629      	mov	r1, r5
 8009138:	f7f7 f8ae 	bl	8000298 <__aeabi_dsub>
 800913c:	4642      	mov	r2, r8
 800913e:	4606      	mov	r6, r0
 8009140:	460f      	mov	r7, r1
 8009142:	464b      	mov	r3, r9
 8009144:	4640      	mov	r0, r8
 8009146:	4649      	mov	r1, r9
 8009148:	f7f7 fa5e 	bl	8000608 <__aeabi_dmul>
 800914c:	a35e      	add	r3, pc, #376	; (adr r3, 80092c8 <__ieee754_pow+0xa18>)
 800914e:	e9d3 2300 	ldrd	r2, r3, [r3]
 8009152:	4604      	mov	r4, r0
 8009154:	460d      	mov	r5, r1
 8009156:	f7f7 fa57 	bl	8000608 <__aeabi_dmul>
 800915a:	a35d      	add	r3, pc, #372	; (adr r3, 80092d0 <__ieee754_pow+0xa20>)
 800915c:	e9d3 2300 	ldrd	r2, r3, [r3]
 8009160:	f7f7 f89a 	bl	8000298 <__aeabi_dsub>
 8009164:	4622      	mov	r2, r4
 8009166:	462b      	mov	r3, r5
 8009168:	f7f7 fa4e 	bl	8000608 <__aeabi_dmul>
 800916c:	a35a      	add	r3, pc, #360	; (adr r3, 80092d8 <__ieee754_pow+0xa28>)
 800916e:	e9d3 2300 	ldrd	r2, r3, [r3]
 8009172:	f7f7 f893 	bl	800029c <__adddf3>
 8009176:	4622      	mov	r2, r4
 8009178:	462b      	mov	r3, r5
 800917a:	f7f7 fa45 	bl	8000608 <__aeabi_dmul>
 800917e:	a358      	add	r3, pc, #352	; (adr r3, 80092e0 <__ieee754_pow+0xa30>)
 8009180:	e9d3 2300 	ldrd	r2, r3, [r3]
 8009184:	f7f7 f888 	bl	8000298 <__aeabi_dsub>
 8009188:	4622      	mov	r2, r4
 800918a:	462b      	mov	r3, r5
 800918c:	f7f7 fa3c 	bl	8000608 <__aeabi_dmul>
 8009190:	a355      	add	r3, pc, #340	; (adr r3, 80092e8 <__ieee754_pow+0xa38>)
 8009192:	e9d3 2300 	ldrd	r2, r3, [r3]
 8009196:	f7f7 f881 	bl	800029c <__adddf3>
 800919a:	4622      	mov	r2, r4
 800919c:	462b      	mov	r3, r5
 800919e:	f7f7 fa33 	bl	8000608 <__aeabi_dmul>
 80091a2:	4602      	mov	r2, r0
 80091a4:	460b      	mov	r3, r1
 80091a6:	4640      	mov	r0, r8
 80091a8:	4649      	mov	r1, r9
 80091aa:	f7f7 f875 	bl	8000298 <__aeabi_dsub>
 80091ae:	4604      	mov	r4, r0
 80091b0:	460d      	mov	r5, r1
 80091b2:	4602      	mov	r2, r0
 80091b4:	460b      	mov	r3, r1
 80091b6:	4640      	mov	r0, r8
 80091b8:	4649      	mov	r1, r9
 80091ba:	f7f7 fa25 	bl	8000608 <__aeabi_dmul>
 80091be:	2200      	movs	r2, #0
 80091c0:	ec41 0b19 	vmov	d9, r0, r1
 80091c4:	f04f 4380 	mov.w	r3, #1073741824	; 0x40000000
 80091c8:	4620      	mov	r0, r4
 80091ca:	4629      	mov	r1, r5
 80091cc:	f7f7 f864 	bl	8000298 <__aeabi_dsub>
 80091d0:	4602      	mov	r2, r0
 80091d2:	460b      	mov	r3, r1
 80091d4:	ec51 0b19 	vmov	r0, r1, d9
 80091d8:	f7f7 fb40 	bl	800085c <__aeabi_ddiv>
 80091dc:	4632      	mov	r2, r6
 80091de:	4604      	mov	r4, r0
 80091e0:	460d      	mov	r5, r1
 80091e2:	463b      	mov	r3, r7
 80091e4:	4640      	mov	r0, r8
 80091e6:	4649      	mov	r1, r9
 80091e8:	f7f7 fa0e 	bl	8000608 <__aeabi_dmul>
 80091ec:	4632      	mov	r2, r6
 80091ee:	463b      	mov	r3, r7
 80091f0:	f7f7 f854 	bl	800029c <__adddf3>
 80091f4:	4602      	mov	r2, r0
 80091f6:	460b      	mov	r3, r1
 80091f8:	4620      	mov	r0, r4
 80091fa:	4629      	mov	r1, r5
 80091fc:	f7f7 f84c 	bl	8000298 <__aeabi_dsub>
 8009200:	4642      	mov	r2, r8
 8009202:	464b      	mov	r3, r9
 8009204:	f7f7 f848 	bl	8000298 <__aeabi_dsub>
 8009208:	460b      	mov	r3, r1
 800920a:	4602      	mov	r2, r0
 800920c:	493a      	ldr	r1, [pc, #232]	; (80092f8 <__ieee754_pow+0xa48>)
 800920e:	2000      	movs	r0, #0
 8009210:	f7f7 f842 	bl	8000298 <__aeabi_dsub>
 8009214:	ec41 0b10 	vmov	d0, r0, r1
 8009218:	ee10 3a90 	vmov	r3, s1
 800921c:	eb03 530a 	add.w	r3, r3, sl, lsl #20
 8009220:	f5b3 1f80 	cmp.w	r3, #1048576	; 0x100000
 8009224:	da2b      	bge.n	800927e <__ieee754_pow+0x9ce>
 8009226:	4650      	mov	r0, sl
 8009228:	f001 fa6e 	bl	800a708 <scalbn>
 800922c:	ec51 0b10 	vmov	r0, r1, d0
 8009230:	ec53 2b18 	vmov	r2, r3, d8
 8009234:	f7ff bbed 	b.w	8008a12 <__ieee754_pow+0x162>
 8009238:	4b30      	ldr	r3, [pc, #192]	; (80092fc <__ieee754_pow+0xa4c>)
 800923a:	f021 4600 	bic.w	r6, r1, #2147483648	; 0x80000000
 800923e:	429e      	cmp	r6, r3
 8009240:	f77f af0c 	ble.w	800905c <__ieee754_pow+0x7ac>
 8009244:	4b2e      	ldr	r3, [pc, #184]	; (8009300 <__ieee754_pow+0xa50>)
 8009246:	440b      	add	r3, r1
 8009248:	4303      	orrs	r3, r0
 800924a:	d009      	beq.n	8009260 <__ieee754_pow+0x9b0>
 800924c:	ec51 0b18 	vmov	r0, r1, d8
 8009250:	2200      	movs	r2, #0
 8009252:	2300      	movs	r3, #0
 8009254:	f7f7 fc4a 	bl	8000aec <__aeabi_dcmplt>
 8009258:	3800      	subs	r0, #0
 800925a:	bf18      	it	ne
 800925c:	2001      	movne	r0, #1
 800925e:	e447      	b.n	8008af0 <__ieee754_pow+0x240>
 8009260:	4622      	mov	r2, r4
 8009262:	462b      	mov	r3, r5
 8009264:	f7f7 f818 	bl	8000298 <__aeabi_dsub>
 8009268:	4642      	mov	r2, r8
 800926a:	464b      	mov	r3, r9
 800926c:	f7f7 fc52 	bl	8000b14 <__aeabi_dcmpge>
 8009270:	2800      	cmp	r0, #0
 8009272:	f43f aef3 	beq.w	800905c <__ieee754_pow+0x7ac>
 8009276:	e7e9      	b.n	800924c <__ieee754_pow+0x99c>
 8009278:	f04f 0a00 	mov.w	sl, #0
 800927c:	e71a      	b.n	80090b4 <__ieee754_pow+0x804>
 800927e:	ec51 0b10 	vmov	r0, r1, d0
 8009282:	4619      	mov	r1, r3
 8009284:	e7d4      	b.n	8009230 <__ieee754_pow+0x980>
 8009286:	491c      	ldr	r1, [pc, #112]	; (80092f8 <__ieee754_pow+0xa48>)
 8009288:	2000      	movs	r0, #0
 800928a:	f7ff bb30 	b.w	80088ee <__ieee754_pow+0x3e>
 800928e:	2000      	movs	r0, #0
 8009290:	2100      	movs	r1, #0
 8009292:	f7ff bb2c 	b.w	80088ee <__ieee754_pow+0x3e>
 8009296:	4630      	mov	r0, r6
 8009298:	4639      	mov	r1, r7
 800929a:	f7ff bb28 	b.w	80088ee <__ieee754_pow+0x3e>
 800929e:	9204      	str	r2, [sp, #16]
 80092a0:	f7ff bb7a 	b.w	8008998 <__ieee754_pow+0xe8>
 80092a4:	2300      	movs	r3, #0
 80092a6:	f7ff bb64 	b.w	8008972 <__ieee754_pow+0xc2>
 80092aa:	bf00      	nop
 80092ac:	f3af 8000 	nop.w
 80092b0:	00000000 	.word	0x00000000
 80092b4:	3fe62e43 	.word	0x3fe62e43
 80092b8:	fefa39ef 	.word	0xfefa39ef
 80092bc:	3fe62e42 	.word	0x3fe62e42
 80092c0:	0ca86c39 	.word	0x0ca86c39
 80092c4:	be205c61 	.word	0xbe205c61
 80092c8:	72bea4d0 	.word	0x72bea4d0
 80092cc:	3e663769 	.word	0x3e663769
 80092d0:	c5d26bf1 	.word	0xc5d26bf1
 80092d4:	3ebbbd41 	.word	0x3ebbbd41
 80092d8:	af25de2c 	.word	0xaf25de2c
 80092dc:	3f11566a 	.word	0x3f11566a
 80092e0:	16bebd93 	.word	0x16bebd93
 80092e4:	3f66c16c 	.word	0x3f66c16c
 80092e8:	5555553e 	.word	0x5555553e
 80092ec:	3fc55555 	.word	0x3fc55555
 80092f0:	3fe00000 	.word	0x3fe00000
 80092f4:	000fffff 	.word	0x000fffff
 80092f8:	3ff00000 	.word	0x3ff00000
 80092fc:	4090cbff 	.word	0x4090cbff
 8009300:	3f6f3400 	.word	0x3f6f3400
 8009304:	652b82fe 	.word	0x652b82fe
 8009308:	3c971547 	.word	0x3c971547
 800930c:	00000000 	.word	0x00000000

08009310 <__ieee754_rem_pio2>:
 8009310:	e92d 4ff0 	stmdb	sp!, {r4, r5, r6, r7, r8, r9, sl, fp, lr}
 8009314:	ed2d 8b02 	vpush	{d8}
 8009318:	ec55 4b10 	vmov	r4, r5, d0
 800931c:	4bca      	ldr	r3, [pc, #808]	; (8009648 <__ieee754_rem_pio2+0x338>)
 800931e:	b08b      	sub	sp, #44	; 0x2c
 8009320:	f025 4800 	bic.w	r8, r5, #2147483648	; 0x80000000
 8009324:	4598      	cmp	r8, r3
 8009326:	4682      	mov	sl, r0
 8009328:	9502      	str	r5, [sp, #8]
 800932a:	dc08      	bgt.n	800933e <__ieee754_rem_pio2+0x2e>
 800932c:	2200      	movs	r2, #0
 800932e:	2300      	movs	r3, #0
 8009330:	ed80 0b00 	vstr	d0, [r0]
 8009334:	e9c0 2302 	strd	r2, r3, [r0, #8]
 8009338:	f04f 0b00 	mov.w	fp, #0
 800933c:	e028      	b.n	8009390 <__ieee754_rem_pio2+0x80>
 800933e:	4bc3      	ldr	r3, [pc, #780]	; (800964c <__ieee754_rem_pio2+0x33c>)
 8009340:	4598      	cmp	r8, r3
 8009342:	dc78      	bgt.n	8009436 <__ieee754_rem_pio2+0x126>
 8009344:	9b02      	ldr	r3, [sp, #8]
 8009346:	4ec2      	ldr	r6, [pc, #776]	; (8009650 <__ieee754_rem_pio2+0x340>)
 8009348:	2b00      	cmp	r3, #0
 800934a:	ee10 0a10 	vmov	r0, s0
 800934e:	a3b0      	add	r3, pc, #704	; (adr r3, 8009610 <__ieee754_rem_pio2+0x300>)
 8009350:	e9d3 2300 	ldrd	r2, r3, [r3]
 8009354:	4629      	mov	r1, r5
 8009356:	dd39      	ble.n	80093cc <__ieee754_rem_pio2+0xbc>
 8009358:	f7f6 ff9e 	bl	8000298 <__aeabi_dsub>
 800935c:	45b0      	cmp	r8, r6
 800935e:	4604      	mov	r4, r0
 8009360:	460d      	mov	r5, r1
 8009362:	d01b      	beq.n	800939c <__ieee754_rem_pio2+0x8c>
 8009364:	a3ac      	add	r3, pc, #688	; (adr r3, 8009618 <__ieee754_rem_pio2+0x308>)
 8009366:	e9d3 2300 	ldrd	r2, r3, [r3]
 800936a:	f7f6 ff95 	bl	8000298 <__aeabi_dsub>
 800936e:	4602      	mov	r2, r0
 8009370:	460b      	mov	r3, r1
 8009372:	e9ca 2300 	strd	r2, r3, [sl]
 8009376:	4620      	mov	r0, r4
 8009378:	4629      	mov	r1, r5
 800937a:	f7f6 ff8d 	bl	8000298 <__aeabi_dsub>
 800937e:	a3a6      	add	r3, pc, #664	; (adr r3, 8009618 <__ieee754_rem_pio2+0x308>)
 8009380:	e9d3 2300 	ldrd	r2, r3, [r3]
 8009384:	f7f6 ff88 	bl	8000298 <__aeabi_dsub>
 8009388:	e9ca 0102 	strd	r0, r1, [sl, #8]
 800938c:	f04f 0b01 	mov.w	fp, #1
 8009390:	4658      	mov	r0, fp
 8009392:	b00b      	add	sp, #44	; 0x2c
 8009394:	ecbd 8b02 	vpop	{d8}
 8009398:	e8bd 8ff0 	ldmia.w	sp!, {r4, r5, r6, r7, r8, r9, sl, fp, pc}
 800939c:	a3a0      	add	r3, pc, #640	; (adr r3, 8009620 <__ieee754_rem_pio2+0x310>)
 800939e:	e9d3 2300 	ldrd	r2, r3, [r3]
 80093a2:	f7f6 ff79 	bl	8000298 <__aeabi_dsub>
 80093a6:	a3a0      	add	r3, pc, #640	; (adr r3, 8009628 <__ieee754_rem_pio2+0x318>)
 80093a8:	e9d3 2300 	ldrd	r2, r3, [r3]
 80093ac:	4604      	mov	r4, r0
 80093ae:	460d      	mov	r5, r1
 80093b0:	f7f6 ff72 	bl	8000298 <__aeabi_dsub>
 80093b4:	4602      	mov	r2, r0
 80093b6:	460b      	mov	r3, r1
 80093b8:	e9ca 2300 	strd	r2, r3, [sl]
 80093bc:	4620      	mov	r0, r4
 80093be:	4629      	mov	r1, r5
 80093c0:	f7f6 ff6a 	bl	8000298 <__aeabi_dsub>
 80093c4:	a398      	add	r3, pc, #608	; (adr r3, 8009628 <__ieee754_rem_pio2+0x318>)
 80093c6:	e9d3 2300 	ldrd	r2, r3, [r3]
 80093ca:	e7db      	b.n	8009384 <__ieee754_rem_pio2+0x74>
 80093cc:	f7f6 ff66 	bl	800029c <__adddf3>
 80093d0:	45b0      	cmp	r8, r6
 80093d2:	4604      	mov	r4, r0
 80093d4:	460d      	mov	r5, r1
 80093d6:	d016      	beq.n	8009406 <__ieee754_rem_pio2+0xf6>
 80093d8:	a38f      	add	r3, pc, #572	; (adr r3, 8009618 <__ieee754_rem_pio2+0x308>)
 80093da:	e9d3 2300 	ldrd	r2, r3, [r3]
 80093de:	f7f6 ff5d 	bl	800029c <__adddf3>
 80093e2:	4602      	mov	r2, r0
 80093e4:	460b      	mov	r3, r1
 80093e6:	e9ca 2300 	strd	r2, r3, [sl]
 80093ea:	4620      	mov	r0, r4
 80093ec:	4629      	mov	r1, r5
 80093ee:	f7f6 ff53 	bl	8000298 <__aeabi_dsub>
 80093f2:	a389      	add	r3, pc, #548	; (adr r3, 8009618 <__ieee754_rem_pio2+0x308>)
 80093f4:	e9d3 2300 	ldrd	r2, r3, [r3]
 80093f8:	f7f6 ff50 	bl	800029c <__adddf3>
 80093fc:	f04f 3bff 	mov.w	fp, #4294967295
 8009400:	e9ca 0102 	strd	r0, r1, [sl, #8]
 8009404:	e7c4      	b.n	8009390 <__ieee754_rem_pio2+0x80>
 8009406:	a386      	add	r3, pc, #536	; (adr r3, 8009620 <__ieee754_rem_pio2+0x310>)
 8009408:	e9d3 2300 	ldrd	r2, r3, [r3]
 800940c:	f7f6 ff46 	bl	800029c <__adddf3>
 8009410:	a385      	add	r3, pc, #532	; (adr r3, 8009628 <__ieee754_rem_pio2+0x318>)
 8009412:	e9d3 2300 	ldrd	r2, r3, [r3]
 8009416:	4604      	mov	r4, r0
 8009418:	460d      	mov	r5, r1
 800941a:	f7f6 ff3f 	bl	800029c <__adddf3>
 800941e:	4602      	mov	r2, r0
 8009420:	460b      	mov	r3, r1
 8009422:	e9ca 2300 	strd	r2, r3, [sl]
 8009426:	4620      	mov	r0, r4
 8009428:	4629      	mov	r1, r5
 800942a:	f7f6 ff35 	bl	8000298 <__aeabi_dsub>
 800942e:	a37e      	add	r3, pc, #504	; (adr r3, 8009628 <__ieee754_rem_pio2+0x318>)
 8009430:	e9d3 2300 	ldrd	r2, r3, [r3]
 8009434:	e7e0      	b.n	80093f8 <__ieee754_rem_pio2+0xe8>
 8009436:	4b87      	ldr	r3, [pc, #540]	; (8009654 <__ieee754_rem_pio2+0x344>)
 8009438:	4598      	cmp	r8, r3
 800943a:	f300 80d9 	bgt.w	80095f0 <__ieee754_rem_pio2+0x2e0>
 800943e:	f001 f8cf 	bl	800a5e0 <fabs>
 8009442:	ec55 4b10 	vmov	r4, r5, d0
 8009446:	ee10 0a10 	vmov	r0, s0
 800944a:	a379      	add	r3, pc, #484	; (adr r3, 8009630 <__ieee754_rem_pio2+0x320>)
 800944c:	e9d3 2300 	ldrd	r2, r3, [r3]
 8009450:	4629      	mov	r1, r5
 8009452:	f7f7 f8d9 	bl	8000608 <__aeabi_dmul>
 8009456:	4b80      	ldr	r3, [pc, #512]	; (8009658 <__ieee754_rem_pio2+0x348>)
 8009458:	2200      	movs	r2, #0
 800945a:	f7f6 ff1f 	bl	800029c <__adddf3>
 800945e:	f7f7 fb83 	bl	8000b68 <__aeabi_d2iz>
 8009462:	4683      	mov	fp, r0
 8009464:	f7f7 f866 	bl	8000534 <__aeabi_i2d>
 8009468:	4602      	mov	r2, r0
 800946a:	460b      	mov	r3, r1
 800946c:	ec43 2b18 	vmov	d8, r2, r3
 8009470:	a367      	add	r3, pc, #412	; (adr r3, 8009610 <__ieee754_rem_pio2+0x300>)
 8009472:	e9d3 2300 	ldrd	r2, r3, [r3]
 8009476:	f7f7 f8c7 	bl	8000608 <__aeabi_dmul>
 800947a:	4602      	mov	r2, r0
 800947c:	460b      	mov	r3, r1
 800947e:	4620      	mov	r0, r4
 8009480:	4629      	mov	r1, r5
 8009482:	f7f6 ff09 	bl	8000298 <__aeabi_dsub>
 8009486:	a364      	add	r3, pc, #400	; (adr r3, 8009618 <__ieee754_rem_pio2+0x308>)
 8009488:	e9d3 2300 	ldrd	r2, r3, [r3]
 800948c:	4606      	mov	r6, r0
 800948e:	460f      	mov	r7, r1
 8009490:	ec51 0b18 	vmov	r0, r1, d8
 8009494:	f7f7 f8b8 	bl	8000608 <__aeabi_dmul>
 8009498:	f1bb 0f1f 	cmp.w	fp, #31
 800949c:	4604      	mov	r4, r0
 800949e:	460d      	mov	r5, r1
 80094a0:	dc0d      	bgt.n	80094be <__ieee754_rem_pio2+0x1ae>
 80094a2:	4b6e      	ldr	r3, [pc, #440]	; (800965c <__ieee754_rem_pio2+0x34c>)
 80094a4:	f10b 32ff 	add.w	r2, fp, #4294967295
 80094a8:	f853 3022 	ldr.w	r3, [r3, r2, lsl #2]
 80094ac:	4543      	cmp	r3, r8
 80094ae:	d006      	beq.n	80094be <__ieee754_rem_pio2+0x1ae>
 80094b0:	4622      	mov	r2, r4
 80094b2:	462b      	mov	r3, r5
 80094b4:	4630      	mov	r0, r6
 80094b6:	4639      	mov	r1, r7
 80094b8:	f7f6 feee 	bl	8000298 <__aeabi_dsub>
 80094bc:	e00f      	b.n	80094de <__ieee754_rem_pio2+0x1ce>
 80094be:	462b      	mov	r3, r5
 80094c0:	4622      	mov	r2, r4
 80094c2:	4630      	mov	r0, r6
 80094c4:	4639      	mov	r1, r7
 80094c6:	f7f6 fee7 	bl	8000298 <__aeabi_dsub>
 80094ca:	ea4f 5328 	mov.w	r3, r8, asr #20
 80094ce:	9303      	str	r3, [sp, #12]
 80094d0:	f3c1 530a 	ubfx	r3, r1, #20, #11
 80094d4:	ebc3 5818 	rsb	r8, r3, r8, lsr #20
 80094d8:	f1b8 0f10 	cmp.w	r8, #16
 80094dc:	dc02      	bgt.n	80094e4 <__ieee754_rem_pio2+0x1d4>
 80094de:	e9ca 0100 	strd	r0, r1, [sl]
 80094e2:	e039      	b.n	8009558 <__ieee754_rem_pio2+0x248>
 80094e4:	a34e      	add	r3, pc, #312	; (adr r3, 8009620 <__ieee754_rem_pio2+0x310>)
 80094e6:	e9d3 2300 	ldrd	r2, r3, [r3]
 80094ea:	ec51 0b18 	vmov	r0, r1, d8
 80094ee:	f7f7 f88b 	bl	8000608 <__aeabi_dmul>
 80094f2:	4604      	mov	r4, r0
 80094f4:	460d      	mov	r5, r1
 80094f6:	4602      	mov	r2, r0
 80094f8:	460b      	mov	r3, r1
 80094fa:	4630      	mov	r0, r6
 80094fc:	4639      	mov	r1, r7
 80094fe:	f7f6 fecb 	bl	8000298 <__aeabi_dsub>
 8009502:	4602      	mov	r2, r0
 8009504:	460b      	mov	r3, r1
 8009506:	4680      	mov	r8, r0
 8009508:	4689      	mov	r9, r1
 800950a:	4630      	mov	r0, r6
 800950c:	4639      	mov	r1, r7
 800950e:	f7f6 fec3 	bl	8000298 <__aeabi_dsub>
 8009512:	4622      	mov	r2, r4
 8009514:	462b      	mov	r3, r5
 8009516:	f7f6 febf 	bl	8000298 <__aeabi_dsub>
 800951a:	a343      	add	r3, pc, #268	; (adr r3, 8009628 <__ieee754_rem_pio2+0x318>)
 800951c:	e9d3 2300 	ldrd	r2, r3, [r3]
 8009520:	4604      	mov	r4, r0
 8009522:	460d      	mov	r5, r1
 8009524:	ec51 0b18 	vmov	r0, r1, d8
 8009528:	f7f7 f86e 	bl	8000608 <__aeabi_dmul>
 800952c:	4622      	mov	r2, r4
 800952e:	462b      	mov	r3, r5
 8009530:	f7f6 feb2 	bl	8000298 <__aeabi_dsub>
 8009534:	4602      	mov	r2, r0
 8009536:	460b      	mov	r3, r1
 8009538:	4604      	mov	r4, r0
 800953a:	460d      	mov	r5, r1
 800953c:	4640      	mov	r0, r8
 800953e:	4649      	mov	r1, r9
 8009540:	f7f6 feaa 	bl	8000298 <__aeabi_dsub>
 8009544:	9a03      	ldr	r2, [sp, #12]
 8009546:	f3c1 530a 	ubfx	r3, r1, #20, #11
 800954a:	1ad3      	subs	r3, r2, r3
 800954c:	2b31      	cmp	r3, #49	; 0x31
 800954e:	dc24      	bgt.n	800959a <__ieee754_rem_pio2+0x28a>
 8009550:	e9ca 0100 	strd	r0, r1, [sl]
 8009554:	4646      	mov	r6, r8
 8009556:	464f      	mov	r7, r9
 8009558:	e9da 8900 	ldrd	r8, r9, [sl]
 800955c:	4630      	mov	r0, r6
 800955e:	4642      	mov	r2, r8
 8009560:	464b      	mov	r3, r9
 8009562:	4639      	mov	r1, r7
 8009564:	f7f6 fe98 	bl	8000298 <__aeabi_dsub>
 8009568:	462b      	mov	r3, r5
 800956a:	4622      	mov	r2, r4
 800956c:	f7f6 fe94 	bl	8000298 <__aeabi_dsub>
 8009570:	9b02      	ldr	r3, [sp, #8]
 8009572:	2b00      	cmp	r3, #0
 8009574:	e9ca 0102 	strd	r0, r1, [sl, #8]
 8009578:	f6bf af0a 	bge.w	8009390 <__ieee754_rem_pio2+0x80>
 800957c:	f109 4300 	add.w	r3, r9, #2147483648	; 0x80000000
 8009580:	f8ca 3004 	str.w	r3, [sl, #4]
 8009584:	f101 4300 	add.w	r3, r1, #2147483648	; 0x80000000
 8009588:	f8ca 8000 	str.w	r8, [sl]
 800958c:	f8ca 0008 	str.w	r0, [sl, #8]
 8009590:	f8ca 300c 	str.w	r3, [sl, #12]
 8009594:	f1cb 0b00 	rsb	fp, fp, #0
 8009598:	e6fa      	b.n	8009390 <__ieee754_rem_pio2+0x80>
 800959a:	a327      	add	r3, pc, #156	; (adr r3, 8009638 <__ieee754_rem_pio2+0x328>)
 800959c:	e9d3 2300 	ldrd	r2, r3, [r3]
 80095a0:	ec51 0b18 	vmov	r0, r1, d8
 80095a4:	f7f7 f830 	bl	8000608 <__aeabi_dmul>
 80095a8:	4604      	mov	r4, r0
 80095aa:	460d      	mov	r5, r1
 80095ac:	4602      	mov	r2, r0
 80095ae:	460b      	mov	r3, r1
 80095b0:	4640      	mov	r0, r8
 80095b2:	4649      	mov	r1, r9
 80095b4:	f7f6 fe70 	bl	8000298 <__aeabi_dsub>
 80095b8:	4602      	mov	r2, r0
 80095ba:	460b      	mov	r3, r1
 80095bc:	4606      	mov	r6, r0
 80095be:	460f      	mov	r7, r1
 80095c0:	4640      	mov	r0, r8
 80095c2:	4649      	mov	r1, r9
 80095c4:	f7f6 fe68 	bl	8000298 <__aeabi_dsub>
 80095c8:	4622      	mov	r2, r4
 80095ca:	462b      	mov	r3, r5
 80095cc:	f7f6 fe64 	bl	8000298 <__aeabi_dsub>
 80095d0:	a31b      	add	r3, pc, #108	; (adr r3, 8009640 <__ieee754_rem_pio2+0x330>)
 80095d2:	e9d3 2300 	ldrd	r2, r3, [r3]
 80095d6:	4604      	mov	r4, r0
 80095d8:	460d      	mov	r5, r1
 80095da:	ec51 0b18 	vmov	r0, r1, d8
 80095de:	f7f7 f813 	bl	8000608 <__aeabi_dmul>
 80095e2:	4622      	mov	r2, r4
 80095e4:	462b      	mov	r3, r5
 80095e6:	f7f6 fe57 	bl	8000298 <__aeabi_dsub>
 80095ea:	4604      	mov	r4, r0
 80095ec:	460d      	mov	r5, r1
 80095ee:	e75f      	b.n	80094b0 <__ieee754_rem_pio2+0x1a0>
 80095f0:	4b1b      	ldr	r3, [pc, #108]	; (8009660 <__ieee754_rem_pio2+0x350>)
 80095f2:	4598      	cmp	r8, r3
 80095f4:	dd36      	ble.n	8009664 <__ieee754_rem_pio2+0x354>
 80095f6:	ee10 2a10 	vmov	r2, s0
 80095fa:	462b      	mov	r3, r5
 80095fc:	4620      	mov	r0, r4
 80095fe:	4629      	mov	r1, r5
 8009600:	f7f6 fe4a 	bl	8000298 <__aeabi_dsub>
 8009604:	e9ca 0102 	strd	r0, r1, [sl, #8]
 8009608:	e9ca 0100 	strd	r0, r1, [sl]
 800960c:	e694      	b.n	8009338 <__ieee754_rem_pio2+0x28>
 800960e:	bf00      	nop
 8009610:	54400000 	.word	0x54400000
 8009614:	3ff921fb 	.word	0x3ff921fb
 8009618:	1a626331 	.word	0x1a626331
 800961c:	3dd0b461 	.word	0x3dd0b461
 8009620:	1a600000 	.word	0x1a600000
 8009624:	3dd0b461 	.word	0x3dd0b461
 8009628:	2e037073 	.word	0x2e037073
 800962c:	3ba3198a 	.word	0x3ba3198a
 8009630:	6dc9c883 	.word	0x6dc9c883
 8009634:	3fe45f30 	.word	0x3fe45f30
 8009638:	2e000000 	.word	0x2e000000
 800963c:	3ba3198a 	.word	0x3ba3198a
 8009640:	252049c1 	.word	0x252049c1
 8009644:	397b839a 	.word	0x397b839a
 8009648:	3fe921fb 	.word	0x3fe921fb
 800964c:	4002d97b 	.word	0x4002d97b
 8009650:	3ff921fb 	.word	0x3ff921fb
 8009654:	413921fb 	.word	0x413921fb
 8009658:	3fe00000 	.word	0x3fe00000
 800965c:	0800ad50 	.word	0x0800ad50
 8009660:	7fefffff 	.word	0x7fefffff
 8009664:	ea4f 5428 	mov.w	r4, r8, asr #20
 8009668:	f2a4 4416 	subw	r4, r4, #1046	; 0x416
 800966c:	ee10 0a10 	vmov	r0, s0
 8009670:	eba8 5104 	sub.w	r1, r8, r4, lsl #20
 8009674:	ee10 6a10 	vmov	r6, s0
 8009678:	460f      	mov	r7, r1
 800967a:	f7f7 fa75 	bl	8000b68 <__aeabi_d2iz>
 800967e:	f7f6 ff59 	bl	8000534 <__aeabi_i2d>
 8009682:	4602      	mov	r2, r0
 8009684:	460b      	mov	r3, r1
 8009686:	4630      	mov	r0, r6
 8009688:	4639      	mov	r1, r7
 800968a:	e9cd 2304 	strd	r2, r3, [sp, #16]
 800968e:	f7f6 fe03 	bl	8000298 <__aeabi_dsub>
 8009692:	4b23      	ldr	r3, [pc, #140]	; (8009720 <__ieee754_rem_pio2+0x410>)
 8009694:	2200      	movs	r2, #0
 8009696:	f7f6 ffb7 	bl	8000608 <__aeabi_dmul>
 800969a:	460f      	mov	r7, r1
 800969c:	4606      	mov	r6, r0
 800969e:	f7f7 fa63 	bl	8000b68 <__aeabi_d2iz>
 80096a2:	f7f6 ff47 	bl	8000534 <__aeabi_i2d>
 80096a6:	4602      	mov	r2, r0
 80096a8:	460b      	mov	r3, r1
 80096aa:	4630      	mov	r0, r6
 80096ac:	4639      	mov	r1, r7
 80096ae:	e9cd 2306 	strd	r2, r3, [sp, #24]
 80096b2:	f7f6 fdf1 	bl	8000298 <__aeabi_dsub>
 80096b6:	4b1a      	ldr	r3, [pc, #104]	; (8009720 <__ieee754_rem_pio2+0x410>)
 80096b8:	2200      	movs	r2, #0
 80096ba:	f7f6 ffa5 	bl	8000608 <__aeabi_dmul>
 80096be:	e9cd 0108 	strd	r0, r1, [sp, #32]
 80096c2:	ad04      	add	r5, sp, #16
 80096c4:	f04f 0803 	mov.w	r8, #3
 80096c8:	46a9      	mov	r9, r5
 80096ca:	2600      	movs	r6, #0
 80096cc:	2700      	movs	r7, #0
 80096ce:	4632      	mov	r2, r6
 80096d0:	463b      	mov	r3, r7
 80096d2:	e9d5 0104 	ldrd	r0, r1, [r5, #16]
 80096d6:	46c3      	mov	fp, r8
 80096d8:	3d08      	subs	r5, #8
 80096da:	f108 38ff 	add.w	r8, r8, #4294967295
 80096de:	f7f7 f9fb 	bl	8000ad8 <__aeabi_dcmpeq>
 80096e2:	2800      	cmp	r0, #0
 80096e4:	d1f3      	bne.n	80096ce <__ieee754_rem_pio2+0x3be>
 80096e6:	4b0f      	ldr	r3, [pc, #60]	; (8009724 <__ieee754_rem_pio2+0x414>)
 80096e8:	9301      	str	r3, [sp, #4]
 80096ea:	2302      	movs	r3, #2
 80096ec:	9300      	str	r3, [sp, #0]
 80096ee:	4622      	mov	r2, r4
 80096f0:	465b      	mov	r3, fp
 80096f2:	4651      	mov	r1, sl
 80096f4:	4648      	mov	r0, r9
 80096f6:	f000 f993 	bl	8009a20 <__kernel_rem_pio2>
 80096fa:	9b02      	ldr	r3, [sp, #8]
 80096fc:	2b00      	cmp	r3, #0
 80096fe:	4683      	mov	fp, r0
 8009700:	f6bf ae46 	bge.w	8009390 <__ieee754_rem_pio2+0x80>
 8009704:	e9da 2100 	ldrd	r2, r1, [sl]
 8009708:	f101 4300 	add.w	r3, r1, #2147483648	; 0x80000000
 800970c:	e9ca 2300 	strd	r2, r3, [sl]
 8009710:	e9da 2102 	ldrd	r2, r1, [sl, #8]
 8009714:	f101 4300 	add.w	r3, r1, #2147483648	; 0x80000000
 8009718:	e9ca 2302 	strd	r2, r3, [sl, #8]
 800971c:	e73a      	b.n	8009594 <__ieee754_rem_pio2+0x284>
 800971e:	bf00      	nop
 8009720:	41700000 	.word	0x41700000
 8009724:	0800add0 	.word	0x0800add0

08009728 <__ieee754_sqrt>:
 8009728:	e92d 41f0 	stmdb	sp!, {r4, r5, r6, r7, r8, lr}
 800972c:	ec55 4b10 	vmov	r4, r5, d0
 8009730:	4e55      	ldr	r6, [pc, #340]	; (8009888 <__ieee754_sqrt+0x160>)
 8009732:	43ae      	bics	r6, r5
 8009734:	ee10 0a10 	vmov	r0, s0
 8009738:	ee10 3a10 	vmov	r3, s0
 800973c:	462a      	mov	r2, r5
 800973e:	4629      	mov	r1, r5
 8009740:	d110      	bne.n	8009764 <__ieee754_sqrt+0x3c>
 8009742:	ee10 2a10 	vmov	r2, s0
 8009746:	462b      	mov	r3, r5
 8009748:	f7f6 ff5e 	bl	8000608 <__aeabi_dmul>
 800974c:	4602      	mov	r2, r0
 800974e:	460b      	mov	r3, r1
 8009750:	4620      	mov	r0, r4
 8009752:	4629      	mov	r1, r5
 8009754:	f7f6 fda2 	bl	800029c <__adddf3>
 8009758:	4604      	mov	r4, r0
 800975a:	460d      	mov	r5, r1
 800975c:	ec45 4b10 	vmov	d0, r4, r5
 8009760:	e8bd 81f0 	ldmia.w	sp!, {r4, r5, r6, r7, r8, pc}
 8009764:	2d00      	cmp	r5, #0
 8009766:	dc10      	bgt.n	800978a <__ieee754_sqrt+0x62>
 8009768:	f025 4600 	bic.w	r6, r5, #2147483648	; 0x80000000
 800976c:	4330      	orrs	r0, r6
 800976e:	d0f5      	beq.n	800975c <__ieee754_sqrt+0x34>
 8009770:	b15d      	cbz	r5, 800978a <__ieee754_sqrt+0x62>
 8009772:	ee10 2a10 	vmov	r2, s0
 8009776:	462b      	mov	r3, r5
 8009778:	ee10 0a10 	vmov	r0, s0
 800977c:	f7f6 fd8c 	bl	8000298 <__aeabi_dsub>
 8009780:	4602      	mov	r2, r0
 8009782:	460b      	mov	r3, r1
 8009784:	f7f7 f86a 	bl	800085c <__aeabi_ddiv>
 8009788:	e7e6      	b.n	8009758 <__ieee754_sqrt+0x30>
 800978a:	1512      	asrs	r2, r2, #20
 800978c:	d074      	beq.n	8009878 <__ieee754_sqrt+0x150>
 800978e:	07d4      	lsls	r4, r2, #31
 8009790:	f3c1 0113 	ubfx	r1, r1, #0, #20
 8009794:	f2a2 37ff 	subw	r7, r2, #1023	; 0x3ff
 8009798:	f441 1180 	orr.w	r1, r1, #1048576	; 0x100000
 800979c:	bf5e      	ittt	pl
 800979e:	0fda      	lsrpl	r2, r3, #31
 80097a0:	005b      	lslpl	r3, r3, #1
 80097a2:	eb02 0141 	addpl.w	r1, r2, r1, lsl #1
 80097a6:	2400      	movs	r4, #0
 80097a8:	0fda      	lsrs	r2, r3, #31
 80097aa:	eb02 0141 	add.w	r1, r2, r1, lsl #1
 80097ae:	107f      	asrs	r7, r7, #1
 80097b0:	005b      	lsls	r3, r3, #1
 80097b2:	2516      	movs	r5, #22
 80097b4:	4620      	mov	r0, r4
 80097b6:	f44f 1200 	mov.w	r2, #2097152	; 0x200000
 80097ba:	1886      	adds	r6, r0, r2
 80097bc:	428e      	cmp	r6, r1
 80097be:	bfde      	ittt	le
 80097c0:	1b89      	suble	r1, r1, r6
 80097c2:	18b0      	addle	r0, r6, r2
 80097c4:	18a4      	addle	r4, r4, r2
 80097c6:	0049      	lsls	r1, r1, #1
 80097c8:	3d01      	subs	r5, #1
 80097ca:	eb01 71d3 	add.w	r1, r1, r3, lsr #31
 80097ce:	ea4f 0252 	mov.w	r2, r2, lsr #1
 80097d2:	ea4f 0343 	mov.w	r3, r3, lsl #1
 80097d6:	d1f0      	bne.n	80097ba <__ieee754_sqrt+0x92>
 80097d8:	462a      	mov	r2, r5
 80097da:	f04f 0e20 	mov.w	lr, #32
 80097de:	f04f 4600 	mov.w	r6, #2147483648	; 0x80000000
 80097e2:	4281      	cmp	r1, r0
 80097e4:	eb06 0c05 	add.w	ip, r6, r5
 80097e8:	dc02      	bgt.n	80097f0 <__ieee754_sqrt+0xc8>
 80097ea:	d113      	bne.n	8009814 <__ieee754_sqrt+0xec>
 80097ec:	459c      	cmp	ip, r3
 80097ee:	d811      	bhi.n	8009814 <__ieee754_sqrt+0xec>
 80097f0:	f1bc 0f00 	cmp.w	ip, #0
 80097f4:	eb0c 0506 	add.w	r5, ip, r6
 80097f8:	da43      	bge.n	8009882 <__ieee754_sqrt+0x15a>
 80097fa:	2d00      	cmp	r5, #0
 80097fc:	db41      	blt.n	8009882 <__ieee754_sqrt+0x15a>
 80097fe:	f100 0801 	add.w	r8, r0, #1
 8009802:	1a09      	subs	r1, r1, r0
 8009804:	459c      	cmp	ip, r3
 8009806:	bf88      	it	hi
 8009808:	f101 31ff 	addhi.w	r1, r1, #4294967295
 800980c:	eba3 030c 	sub.w	r3, r3, ip
 8009810:	4432      	add	r2, r6
 8009812:	4640      	mov	r0, r8
 8009814:	ea4f 7cd3 	mov.w	ip, r3, lsr #31
 8009818:	f1be 0e01 	subs.w	lr, lr, #1
 800981c:	eb0c 0141 	add.w	r1, ip, r1, lsl #1
 8009820:	ea4f 0343 	mov.w	r3, r3, lsl #1
 8009824:	ea4f 0656 	mov.w	r6, r6, lsr #1
 8009828:	d1db      	bne.n	80097e2 <__ieee754_sqrt+0xba>
 800982a:	430b      	orrs	r3, r1
 800982c:	d006      	beq.n	800983c <__ieee754_sqrt+0x114>
 800982e:	1c50      	adds	r0, r2, #1
 8009830:	bf13      	iteet	ne
 8009832:	3201      	addne	r2, #1
 8009834:	3401      	addeq	r4, #1
 8009836:	4672      	moveq	r2, lr
 8009838:	f022 0201 	bicne.w	r2, r2, #1
 800983c:	1063      	asrs	r3, r4, #1
 800983e:	0852      	lsrs	r2, r2, #1
 8009840:	07e1      	lsls	r1, r4, #31
 8009842:	f103 537f 	add.w	r3, r3, #1069547520	; 0x3fc00000
 8009846:	f503 1300 	add.w	r3, r3, #2097152	; 0x200000
 800984a:	bf48      	it	mi
 800984c:	f042 4200 	orrmi.w	r2, r2, #2147483648	; 0x80000000
 8009850:	eb03 5507 	add.w	r5, r3, r7, lsl #20
 8009854:	4614      	mov	r4, r2
 8009856:	e781      	b.n	800975c <__ieee754_sqrt+0x34>
 8009858:	0ad9      	lsrs	r1, r3, #11
 800985a:	3815      	subs	r0, #21
 800985c:	055b      	lsls	r3, r3, #21
 800985e:	2900      	cmp	r1, #0
 8009860:	d0fa      	beq.n	8009858 <__ieee754_sqrt+0x130>
 8009862:	02cd      	lsls	r5, r1, #11
 8009864:	d50a      	bpl.n	800987c <__ieee754_sqrt+0x154>
 8009866:	f1c2 0420 	rsb	r4, r2, #32
 800986a:	fa23 f404 	lsr.w	r4, r3, r4
 800986e:	1e55      	subs	r5, r2, #1
 8009870:	4093      	lsls	r3, r2
 8009872:	4321      	orrs	r1, r4
 8009874:	1b42      	subs	r2, r0, r5
 8009876:	e78a      	b.n	800978e <__ieee754_sqrt+0x66>
 8009878:	4610      	mov	r0, r2
 800987a:	e7f0      	b.n	800985e <__ieee754_sqrt+0x136>
 800987c:	0049      	lsls	r1, r1, #1
 800987e:	3201      	adds	r2, #1
 8009880:	e7ef      	b.n	8009862 <__ieee754_sqrt+0x13a>
 8009882:	4680      	mov	r8, r0
 8009884:	e7bd      	b.n	8009802 <__ieee754_sqrt+0xda>
 8009886:	bf00      	nop
 8009888:	7ff00000 	.word	0x7ff00000
 800988c:	00000000 	.word	0x00000000

08009890 <__kernel_cos>:
 8009890:	e92d 4ff7 	stmdb	sp!, {r0, r1, r2, r4, r5, r6, r7, r8, r9, sl, fp, lr}
 8009894:	ec57 6b10 	vmov	r6, r7, d0
 8009898:	f027 4800 	bic.w	r8, r7, #2147483648	; 0x80000000
 800989c:	f1b8 5f79 	cmp.w	r8, #1044381696	; 0x3e400000
 80098a0:	ed8d 1b00 	vstr	d1, [sp]
 80098a4:	da07      	bge.n	80098b6 <__kernel_cos+0x26>
 80098a6:	ee10 0a10 	vmov	r0, s0
 80098aa:	4639      	mov	r1, r7
 80098ac:	f7f7 f95c 	bl	8000b68 <__aeabi_d2iz>
 80098b0:	2800      	cmp	r0, #0
 80098b2:	f000 8088 	beq.w	80099c6 <__kernel_cos+0x136>
 80098b6:	4632      	mov	r2, r6
 80098b8:	463b      	mov	r3, r7
 80098ba:	4630      	mov	r0, r6
 80098bc:	4639      	mov	r1, r7
 80098be:	f7f6 fea3 	bl	8000608 <__aeabi_dmul>
 80098c2:	4b51      	ldr	r3, [pc, #324]	; (8009a08 <__kernel_cos+0x178>)
 80098c4:	2200      	movs	r2, #0
 80098c6:	4604      	mov	r4, r0
 80098c8:	460d      	mov	r5, r1
 80098ca:	f7f6 fe9d 	bl	8000608 <__aeabi_dmul>
 80098ce:	a340      	add	r3, pc, #256	; (adr r3, 80099d0 <__kernel_cos+0x140>)
 80098d0:	e9d3 2300 	ldrd	r2, r3, [r3]
 80098d4:	4682      	mov	sl, r0
 80098d6:	468b      	mov	fp, r1
 80098d8:	4620      	mov	r0, r4
 80098da:	4629      	mov	r1, r5
 80098dc:	f7f6 fe94 	bl	8000608 <__aeabi_dmul>
 80098e0:	a33d      	add	r3, pc, #244	; (adr r3, 80099d8 <__kernel_cos+0x148>)
 80098e2:	e9d3 2300 	ldrd	r2, r3, [r3]
 80098e6:	f7f6 fcd9 	bl	800029c <__adddf3>
 80098ea:	4622      	mov	r2, r4
 80098ec:	462b      	mov	r3, r5
 80098ee:	f7f6 fe8b 	bl	8000608 <__aeabi_dmul>
 80098f2:	a33b      	add	r3, pc, #236	; (adr r3, 80099e0 <__kernel_cos+0x150>)
 80098f4:	e9d3 2300 	ldrd	r2, r3, [r3]
 80098f8:	f7f6 fcce 	bl	8000298 <__aeabi_dsub>
 80098fc:	4622      	mov	r2, r4
 80098fe:	462b      	mov	r3, r5
 8009900:	f7f6 fe82 	bl	8000608 <__aeabi_dmul>
 8009904:	a338      	add	r3, pc, #224	; (adr r3, 80099e8 <__kernel_cos+0x158>)
 8009906:	e9d3 2300 	ldrd	r2, r3, [r3]
 800990a:	f7f6 fcc7 	bl	800029c <__adddf3>
 800990e:	4622      	mov	r2, r4
 8009910:	462b      	mov	r3, r5
 8009912:	f7f6 fe79 	bl	8000608 <__aeabi_dmul>
 8009916:	a336      	add	r3, pc, #216	; (adr r3, 80099f0 <__kernel_cos+0x160>)
 8009918:	e9d3 2300 	ldrd	r2, r3, [r3]
 800991c:	f7f6 fcbc 	bl	8000298 <__aeabi_dsub>
 8009920:	4622      	mov	r2, r4
 8009922:	462b      	mov	r3, r5
 8009924:	f7f6 fe70 	bl	8000608 <__aeabi_dmul>
 8009928:	a333      	add	r3, pc, #204	; (adr r3, 80099f8 <__kernel_cos+0x168>)
 800992a:	e9d3 2300 	ldrd	r2, r3, [r3]
 800992e:	f7f6 fcb5 	bl	800029c <__adddf3>
 8009932:	4622      	mov	r2, r4
 8009934:	462b      	mov	r3, r5
 8009936:	f7f6 fe67 	bl	8000608 <__aeabi_dmul>
 800993a:	4622      	mov	r2, r4
 800993c:	462b      	mov	r3, r5
 800993e:	f7f6 fe63 	bl	8000608 <__aeabi_dmul>
 8009942:	e9dd 2300 	ldrd	r2, r3, [sp]
 8009946:	4604      	mov	r4, r0
 8009948:	460d      	mov	r5, r1
 800994a:	4630      	mov	r0, r6
 800994c:	4639      	mov	r1, r7
 800994e:	f7f6 fe5b 	bl	8000608 <__aeabi_dmul>
 8009952:	460b      	mov	r3, r1
 8009954:	4602      	mov	r2, r0
 8009956:	4629      	mov	r1, r5
 8009958:	4620      	mov	r0, r4
 800995a:	f7f6 fc9d 	bl	8000298 <__aeabi_dsub>
 800995e:	4b2b      	ldr	r3, [pc, #172]	; (8009a0c <__kernel_cos+0x17c>)
 8009960:	4598      	cmp	r8, r3
 8009962:	4606      	mov	r6, r0
 8009964:	460f      	mov	r7, r1
 8009966:	dc10      	bgt.n	800998a <__kernel_cos+0xfa>
 8009968:	4602      	mov	r2, r0
 800996a:	460b      	mov	r3, r1
 800996c:	4650      	mov	r0, sl
 800996e:	4659      	mov	r1, fp
 8009970:	f7f6 fc92 	bl	8000298 <__aeabi_dsub>
 8009974:	460b      	mov	r3, r1
 8009976:	4926      	ldr	r1, [pc, #152]	; (8009a10 <__kernel_cos+0x180>)
 8009978:	4602      	mov	r2, r0
 800997a:	2000      	movs	r0, #0
 800997c:	f7f6 fc8c 	bl	8000298 <__aeabi_dsub>
 8009980:	ec41 0b10 	vmov	d0, r0, r1
 8009984:	b003      	add	sp, #12
 8009986:	e8bd 8ff0 	ldmia.w	sp!, {r4, r5, r6, r7, r8, r9, sl, fp, pc}
 800998a:	4b22      	ldr	r3, [pc, #136]	; (8009a14 <__kernel_cos+0x184>)
 800998c:	4920      	ldr	r1, [pc, #128]	; (8009a10 <__kernel_cos+0x180>)
 800998e:	4598      	cmp	r8, r3
 8009990:	bfcc      	ite	gt
 8009992:	4d21      	ldrgt	r5, [pc, #132]	; (8009a18 <__kernel_cos+0x188>)
 8009994:	f5a8 1500 	suble.w	r5, r8, #2097152	; 0x200000
 8009998:	2400      	movs	r4, #0
 800999a:	4622      	mov	r2, r4
 800999c:	462b      	mov	r3, r5
 800999e:	2000      	movs	r0, #0
 80099a0:	f7f6 fc7a 	bl	8000298 <__aeabi_dsub>
 80099a4:	4622      	mov	r2, r4
 80099a6:	4680      	mov	r8, r0
 80099a8:	4689      	mov	r9, r1
 80099aa:	462b      	mov	r3, r5
 80099ac:	4650      	mov	r0, sl
 80099ae:	4659      	mov	r1, fp
 80099b0:	f7f6 fc72 	bl	8000298 <__aeabi_dsub>
 80099b4:	4632      	mov	r2, r6
 80099b6:	463b      	mov	r3, r7
 80099b8:	f7f6 fc6e 	bl	8000298 <__aeabi_dsub>
 80099bc:	4602      	mov	r2, r0
 80099be:	460b      	mov	r3, r1
 80099c0:	4640      	mov	r0, r8
 80099c2:	4649      	mov	r1, r9
 80099c4:	e7da      	b.n	800997c <__kernel_cos+0xec>
 80099c6:	ed9f 0b0e 	vldr	d0, [pc, #56]	; 8009a00 <__kernel_cos+0x170>
 80099ca:	e7db      	b.n	8009984 <__kernel_cos+0xf4>
 80099cc:	f3af 8000 	nop.w
 80099d0:	be8838d4 	.word	0xbe8838d4
 80099d4:	bda8fae9 	.word	0xbda8fae9
 80099d8:	bdb4b1c4 	.word	0xbdb4b1c4
 80099dc:	3e21ee9e 	.word	0x3e21ee9e
 80099e0:	809c52ad 	.word	0x809c52ad
 80099e4:	3e927e4f 	.word	0x3e927e4f
 80099e8:	19cb1590 	.word	0x19cb1590
 80099ec:	3efa01a0 	.word	0x3efa01a0
 80099f0:	16c15177 	.word	0x16c15177
 80099f4:	3f56c16c 	.word	0x3f56c16c
 80099f8:	5555554c 	.word	0x5555554c
 80099fc:	3fa55555 	.word	0x3fa55555
 8009a00:	00000000 	.word	0x00000000
 8009a04:	3ff00000 	.word	0x3ff00000
 8009a08:	3fe00000 	.word	0x3fe00000
 8009a0c:	3fd33332 	.word	0x3fd33332
 8009a10:	3ff00000 	.word	0x3ff00000
 8009a14:	3fe90000 	.word	0x3fe90000
 8009a18:	3fd20000 	.word	0x3fd20000
 8009a1c:	00000000 	.word	0x00000000

08009a20 <__kernel_rem_pio2>:
 8009a20:	e92d 4ff0 	stmdb	sp!, {r4, r5, r6, r7, r8, r9, sl, fp, lr}
 8009a24:	ed2d 8b02 	vpush	{d8}
 8009a28:	f5ad 7d1b 	sub.w	sp, sp, #620	; 0x26c
 8009a2c:	f112 0f14 	cmn.w	r2, #20
 8009a30:	9308      	str	r3, [sp, #32]
 8009a32:	9101      	str	r1, [sp, #4]
 8009a34:	4bc4      	ldr	r3, [pc, #784]	; (8009d48 <__kernel_rem_pio2+0x328>)
 8009a36:	99a6      	ldr	r1, [sp, #664]	; 0x298
 8009a38:	900b      	str	r0, [sp, #44]	; 0x2c
 8009a3a:	f853 3021 	ldr.w	r3, [r3, r1, lsl #2]
 8009a3e:	9302      	str	r3, [sp, #8]
 8009a40:	9b08      	ldr	r3, [sp, #32]
 8009a42:	f103 33ff 	add.w	r3, r3, #4294967295
 8009a46:	bfa8      	it	ge
 8009a48:	1ed4      	subge	r4, r2, #3
 8009a4a:	9306      	str	r3, [sp, #24]
 8009a4c:	bfb2      	itee	lt
 8009a4e:	2400      	movlt	r4, #0
 8009a50:	2318      	movge	r3, #24
 8009a52:	fb94 f4f3 	sdivge	r4, r4, r3
 8009a56:	f06f 0317 	mvn.w	r3, #23
 8009a5a:	fb04 3303 	mla	r3, r4, r3, r3
 8009a5e:	eb03 0a02 	add.w	sl, r3, r2
 8009a62:	9b02      	ldr	r3, [sp, #8]
 8009a64:	9a06      	ldr	r2, [sp, #24]
 8009a66:	ed9f 8bb4 	vldr	d8, [pc, #720]	; 8009d38 <__kernel_rem_pio2+0x318>
 8009a6a:	eb03 0802 	add.w	r8, r3, r2
 8009a6e:	9ba7      	ldr	r3, [sp, #668]	; 0x29c
 8009a70:	1aa7      	subs	r7, r4, r2
 8009a72:	ae22      	add	r6, sp, #136	; 0x88
 8009a74:	eb03 0987 	add.w	r9, r3, r7, lsl #2
 8009a78:	2500      	movs	r5, #0
 8009a7a:	4545      	cmp	r5, r8
 8009a7c:	dd13      	ble.n	8009aa6 <__kernel_rem_pio2+0x86>
 8009a7e:	9b08      	ldr	r3, [sp, #32]
 8009a80:	ed9f 8bad 	vldr	d8, [pc, #692]	; 8009d38 <__kernel_rem_pio2+0x318>
 8009a84:	aa22      	add	r2, sp, #136	; 0x88
 8009a86:	eb02 05c3 	add.w	r5, r2, r3, lsl #3
 8009a8a:	f50d 7be4 	add.w	fp, sp, #456	; 0x1c8
 8009a8e:	f04f 0800 	mov.w	r8, #0
 8009a92:	9b02      	ldr	r3, [sp, #8]
 8009a94:	4598      	cmp	r8, r3
 8009a96:	dc2f      	bgt.n	8009af8 <__kernel_rem_pio2+0xd8>
 8009a98:	ed8d 8b04 	vstr	d8, [sp, #16]
 8009a9c:	f8dd 902c 	ldr.w	r9, [sp, #44]	; 0x2c
 8009aa0:	462f      	mov	r7, r5
 8009aa2:	2600      	movs	r6, #0
 8009aa4:	e01b      	b.n	8009ade <__kernel_rem_pio2+0xbe>
 8009aa6:	42ef      	cmn	r7, r5
 8009aa8:	d407      	bmi.n	8009aba <__kernel_rem_pio2+0x9a>
 8009aaa:	f859 0025 	ldr.w	r0, [r9, r5, lsl #2]
 8009aae:	f7f6 fd41 	bl	8000534 <__aeabi_i2d>
 8009ab2:	e8e6 0102 	strd	r0, r1, [r6], #8
 8009ab6:	3501      	adds	r5, #1
 8009ab8:	e7df      	b.n	8009a7a <__kernel_rem_pio2+0x5a>
 8009aba:	ec51 0b18 	vmov	r0, r1, d8
 8009abe:	e7f8      	b.n	8009ab2 <__kernel_rem_pio2+0x92>
 8009ac0:	e9d7 2300 	ldrd	r2, r3, [r7]
 8009ac4:	e8f9 0102 	ldrd	r0, r1, [r9], #8
 8009ac8:	f7f6 fd9e 	bl	8000608 <__aeabi_dmul>
 8009acc:	4602      	mov	r2, r0
 8009ace:	460b      	mov	r3, r1
 8009ad0:	e9dd 0104 	ldrd	r0, r1, [sp, #16]
 8009ad4:	f7f6 fbe2 	bl	800029c <__adddf3>
 8009ad8:	e9cd 0104 	strd	r0, r1, [sp, #16]
 8009adc:	3601      	adds	r6, #1
 8009ade:	9b06      	ldr	r3, [sp, #24]
 8009ae0:	429e      	cmp	r6, r3
 8009ae2:	f1a7 0708 	sub.w	r7, r7, #8
 8009ae6:	ddeb      	ble.n	8009ac0 <__kernel_rem_pio2+0xa0>
 8009ae8:	ed9d 7b04 	vldr	d7, [sp, #16]
 8009aec:	f108 0801 	add.w	r8, r8, #1
 8009af0:	ecab 7b02 	vstmia	fp!, {d7}
 8009af4:	3508      	adds	r5, #8
 8009af6:	e7cc      	b.n	8009a92 <__kernel_rem_pio2+0x72>
 8009af8:	9b02      	ldr	r3, [sp, #8]
 8009afa:	aa0e      	add	r2, sp, #56	; 0x38
 8009afc:	eb02 0383 	add.w	r3, r2, r3, lsl #2
 8009b00:	930d      	str	r3, [sp, #52]	; 0x34
 8009b02:	9ba7      	ldr	r3, [sp, #668]	; 0x29c
 8009b04:	eb03 0384 	add.w	r3, r3, r4, lsl #2
 8009b08:	9c02      	ldr	r4, [sp, #8]
 8009b0a:	930c      	str	r3, [sp, #48]	; 0x30
 8009b0c:	00e3      	lsls	r3, r4, #3
 8009b0e:	930a      	str	r3, [sp, #40]	; 0x28
 8009b10:	ab9a      	add	r3, sp, #616	; 0x268
 8009b12:	eb03 03c4 	add.w	r3, r3, r4, lsl #3
 8009b16:	e953 6728 	ldrd	r6, r7, [r3, #-160]	; 0xa0
 8009b1a:	f10d 0838 	add.w	r8, sp, #56	; 0x38
 8009b1e:	ab72      	add	r3, sp, #456	; 0x1c8
 8009b20:	eb03 05c4 	add.w	r5, r3, r4, lsl #3
 8009b24:	46c3      	mov	fp, r8
 8009b26:	46a1      	mov	r9, r4
 8009b28:	f1b9 0f00 	cmp.w	r9, #0
 8009b2c:	f1a5 0508 	sub.w	r5, r5, #8
 8009b30:	dc77      	bgt.n	8009c22 <__kernel_rem_pio2+0x202>
 8009b32:	ec47 6b10 	vmov	d0, r6, r7
 8009b36:	4650      	mov	r0, sl
 8009b38:	f000 fde6 	bl	800a708 <scalbn>
 8009b3c:	ec57 6b10 	vmov	r6, r7, d0
 8009b40:	2200      	movs	r2, #0
 8009b42:	f04f 537f 	mov.w	r3, #1069547520	; 0x3fc00000
 8009b46:	ee10 0a10 	vmov	r0, s0
 8009b4a:	4639      	mov	r1, r7
 8009b4c:	f7f6 fd5c 	bl	8000608 <__aeabi_dmul>
 8009b50:	ec41 0b10 	vmov	d0, r0, r1
 8009b54:	f000 fd58 	bl	800a608 <floor>
 8009b58:	4b7c      	ldr	r3, [pc, #496]	; (8009d4c <__kernel_rem_pio2+0x32c>)
 8009b5a:	ec51 0b10 	vmov	r0, r1, d0
 8009b5e:	2200      	movs	r2, #0
 8009b60:	f7f6 fd52 	bl	8000608 <__aeabi_dmul>
 8009b64:	4602      	mov	r2, r0
 8009b66:	460b      	mov	r3, r1
 8009b68:	4630      	mov	r0, r6
 8009b6a:	4639      	mov	r1, r7
 8009b6c:	f7f6 fb94 	bl	8000298 <__aeabi_dsub>
 8009b70:	460f      	mov	r7, r1
 8009b72:	4606      	mov	r6, r0
 8009b74:	f7f6 fff8 	bl	8000b68 <__aeabi_d2iz>
 8009b78:	9004      	str	r0, [sp, #16]
 8009b7a:	f7f6 fcdb 	bl	8000534 <__aeabi_i2d>
 8009b7e:	4602      	mov	r2, r0
 8009b80:	460b      	mov	r3, r1
 8009b82:	4630      	mov	r0, r6
 8009b84:	4639      	mov	r1, r7
 8009b86:	f7f6 fb87 	bl	8000298 <__aeabi_dsub>
 8009b8a:	f1ba 0f00 	cmp.w	sl, #0
 8009b8e:	4606      	mov	r6, r0
 8009b90:	460f      	mov	r7, r1
 8009b92:	dd6d      	ble.n	8009c70 <__kernel_rem_pio2+0x250>
 8009b94:	1e62      	subs	r2, r4, #1
 8009b96:	ab0e      	add	r3, sp, #56	; 0x38
 8009b98:	9d04      	ldr	r5, [sp, #16]
 8009b9a:	f853 0022 	ldr.w	r0, [r3, r2, lsl #2]
 8009b9e:	f1ca 0118 	rsb	r1, sl, #24
 8009ba2:	fa40 f301 	asr.w	r3, r0, r1
 8009ba6:	441d      	add	r5, r3
 8009ba8:	408b      	lsls	r3, r1
 8009baa:	1ac0      	subs	r0, r0, r3
 8009bac:	ab0e      	add	r3, sp, #56	; 0x38
 8009bae:	9504      	str	r5, [sp, #16]
 8009bb0:	f843 0022 	str.w	r0, [r3, r2, lsl #2]
 8009bb4:	f1ca 0317 	rsb	r3, sl, #23
 8009bb8:	fa40 fb03 	asr.w	fp, r0, r3
 8009bbc:	f1bb 0f00 	cmp.w	fp, #0
 8009bc0:	dd65      	ble.n	8009c8e <__kernel_rem_pio2+0x26e>
 8009bc2:	9b04      	ldr	r3, [sp, #16]
 8009bc4:	2200      	movs	r2, #0
 8009bc6:	3301      	adds	r3, #1
 8009bc8:	9304      	str	r3, [sp, #16]
 8009bca:	4615      	mov	r5, r2
 8009bcc:	f06f 417f 	mvn.w	r1, #4278190080	; 0xff000000
 8009bd0:	4294      	cmp	r4, r2
 8009bd2:	f300 809c 	bgt.w	8009d0e <__kernel_rem_pio2+0x2ee>
 8009bd6:	f1ba 0f00 	cmp.w	sl, #0
 8009bda:	dd07      	ble.n	8009bec <__kernel_rem_pio2+0x1cc>
 8009bdc:	f1ba 0f01 	cmp.w	sl, #1
 8009be0:	f000 80c0 	beq.w	8009d64 <__kernel_rem_pio2+0x344>
 8009be4:	f1ba 0f02 	cmp.w	sl, #2
 8009be8:	f000 80c6 	beq.w	8009d78 <__kernel_rem_pio2+0x358>
 8009bec:	f1bb 0f02 	cmp.w	fp, #2
 8009bf0:	d14d      	bne.n	8009c8e <__kernel_rem_pio2+0x26e>
 8009bf2:	4632      	mov	r2, r6
 8009bf4:	463b      	mov	r3, r7
 8009bf6:	4956      	ldr	r1, [pc, #344]	; (8009d50 <__kernel_rem_pio2+0x330>)
 8009bf8:	2000      	movs	r0, #0
 8009bfa:	f7f6 fb4d 	bl	8000298 <__aeabi_dsub>
 8009bfe:	4606      	mov	r6, r0
 8009c00:	460f      	mov	r7, r1
 8009c02:	2d00      	cmp	r5, #0
 8009c04:	d043      	beq.n	8009c8e <__kernel_rem_pio2+0x26e>
 8009c06:	4650      	mov	r0, sl
 8009c08:	ed9f 0b4d 	vldr	d0, [pc, #308]	; 8009d40 <__kernel_rem_pio2+0x320>
 8009c0c:	f000 fd7c 	bl	800a708 <scalbn>
 8009c10:	4630      	mov	r0, r6
 8009c12:	4639      	mov	r1, r7
 8009c14:	ec53 2b10 	vmov	r2, r3, d0
 8009c18:	f7f6 fb3e 	bl	8000298 <__aeabi_dsub>
 8009c1c:	4606      	mov	r6, r0
 8009c1e:	460f      	mov	r7, r1
 8009c20:	e035      	b.n	8009c8e <__kernel_rem_pio2+0x26e>
 8009c22:	4b4c      	ldr	r3, [pc, #304]	; (8009d54 <__kernel_rem_pio2+0x334>)
 8009c24:	2200      	movs	r2, #0
 8009c26:	4630      	mov	r0, r6
 8009c28:	4639      	mov	r1, r7
 8009c2a:	f7f6 fced 	bl	8000608 <__aeabi_dmul>
 8009c2e:	f7f6 ff9b 	bl	8000b68 <__aeabi_d2iz>
 8009c32:	f7f6 fc7f 	bl	8000534 <__aeabi_i2d>
 8009c36:	4602      	mov	r2, r0
 8009c38:	460b      	mov	r3, r1
 8009c3a:	ec43 2b18 	vmov	d8, r2, r3
 8009c3e:	4b46      	ldr	r3, [pc, #280]	; (8009d58 <__kernel_rem_pio2+0x338>)
 8009c40:	2200      	movs	r2, #0
 8009c42:	f7f6 fce1 	bl	8000608 <__aeabi_dmul>
 8009c46:	4602      	mov	r2, r0
 8009c48:	460b      	mov	r3, r1
 8009c4a:	4630      	mov	r0, r6
 8009c4c:	4639      	mov	r1, r7
 8009c4e:	f7f6 fb23 	bl	8000298 <__aeabi_dsub>
 8009c52:	f7f6 ff89 	bl	8000b68 <__aeabi_d2iz>
 8009c56:	e9d5 2300 	ldrd	r2, r3, [r5]
 8009c5a:	f84b 0b04 	str.w	r0, [fp], #4
 8009c5e:	ec51 0b18 	vmov	r0, r1, d8
 8009c62:	f7f6 fb1b 	bl	800029c <__adddf3>
 8009c66:	f109 39ff 	add.w	r9, r9, #4294967295
 8009c6a:	4606      	mov	r6, r0
 8009c6c:	460f      	mov	r7, r1
 8009c6e:	e75b      	b.n	8009b28 <__kernel_rem_pio2+0x108>
 8009c70:	d106      	bne.n	8009c80 <__kernel_rem_pio2+0x260>
 8009c72:	1e63      	subs	r3, r4, #1
 8009c74:	aa0e      	add	r2, sp, #56	; 0x38
 8009c76:	f852 0023 	ldr.w	r0, [r2, r3, lsl #2]
 8009c7a:	ea4f 5be0 	mov.w	fp, r0, asr #23
 8009c7e:	e79d      	b.n	8009bbc <__kernel_rem_pio2+0x19c>
 8009c80:	4b36      	ldr	r3, [pc, #216]	; (8009d5c <__kernel_rem_pio2+0x33c>)
 8009c82:	2200      	movs	r2, #0
 8009c84:	f7f6 ff46 	bl	8000b14 <__aeabi_dcmpge>
 8009c88:	2800      	cmp	r0, #0
 8009c8a:	d13d      	bne.n	8009d08 <__kernel_rem_pio2+0x2e8>
 8009c8c:	4683      	mov	fp, r0
 8009c8e:	2200      	movs	r2, #0
 8009c90:	2300      	movs	r3, #0
 8009c92:	4630      	mov	r0, r6
 8009c94:	4639      	mov	r1, r7
 8009c96:	f7f6 ff1f 	bl	8000ad8 <__aeabi_dcmpeq>
 8009c9a:	2800      	cmp	r0, #0
 8009c9c:	f000 80c0 	beq.w	8009e20 <__kernel_rem_pio2+0x400>
 8009ca0:	1e65      	subs	r5, r4, #1
 8009ca2:	462b      	mov	r3, r5
 8009ca4:	2200      	movs	r2, #0
 8009ca6:	9902      	ldr	r1, [sp, #8]
 8009ca8:	428b      	cmp	r3, r1
 8009caa:	da6c      	bge.n	8009d86 <__kernel_rem_pio2+0x366>
 8009cac:	2a00      	cmp	r2, #0
 8009cae:	f000 8089 	beq.w	8009dc4 <__kernel_rem_pio2+0x3a4>
 8009cb2:	ab0e      	add	r3, sp, #56	; 0x38
 8009cb4:	f1aa 0a18 	sub.w	sl, sl, #24
 8009cb8:	f853 3025 	ldr.w	r3, [r3, r5, lsl #2]
 8009cbc:	2b00      	cmp	r3, #0
 8009cbe:	f000 80ad 	beq.w	8009e1c <__kernel_rem_pio2+0x3fc>
 8009cc2:	4650      	mov	r0, sl
 8009cc4:	ed9f 0b1e 	vldr	d0, [pc, #120]	; 8009d40 <__kernel_rem_pio2+0x320>
 8009cc8:	f000 fd1e 	bl	800a708 <scalbn>
 8009ccc:	ab9a      	add	r3, sp, #616	; 0x268
 8009cce:	eb03 03c5 	add.w	r3, r3, r5, lsl #3
 8009cd2:	ec57 6b10 	vmov	r6, r7, d0
 8009cd6:	00ec      	lsls	r4, r5, #3
 8009cd8:	f1a3 0898 	sub.w	r8, r3, #152	; 0x98
 8009cdc:	46aa      	mov	sl, r5
 8009cde:	f1ba 0f00 	cmp.w	sl, #0
 8009ce2:	f280 80d6 	bge.w	8009e92 <__kernel_rem_pio2+0x472>
 8009ce6:	ed9f 8b14 	vldr	d8, [pc, #80]	; 8009d38 <__kernel_rem_pio2+0x318>
 8009cea:	462e      	mov	r6, r5
 8009cec:	2e00      	cmp	r6, #0
 8009cee:	f2c0 8104 	blt.w	8009efa <__kernel_rem_pio2+0x4da>
 8009cf2:	ab72      	add	r3, sp, #456	; 0x1c8
 8009cf4:	ed8d 8b06 	vstr	d8, [sp, #24]
 8009cf8:	f8df a064 	ldr.w	sl, [pc, #100]	; 8009d60 <__kernel_rem_pio2+0x340>
 8009cfc:	eb03 09c6 	add.w	r9, r3, r6, lsl #3
 8009d00:	f04f 0800 	mov.w	r8, #0
 8009d04:	1baf      	subs	r7, r5, r6
 8009d06:	e0ea      	b.n	8009ede <__kernel_rem_pio2+0x4be>
 8009d08:	f04f 0b02 	mov.w	fp, #2
 8009d0c:	e759      	b.n	8009bc2 <__kernel_rem_pio2+0x1a2>
 8009d0e:	f8d8 3000 	ldr.w	r3, [r8]
 8009d12:	b955      	cbnz	r5, 8009d2a <__kernel_rem_pio2+0x30a>
 8009d14:	b123      	cbz	r3, 8009d20 <__kernel_rem_pio2+0x300>
 8009d16:	f1c3 7380 	rsb	r3, r3, #16777216	; 0x1000000
 8009d1a:	f8c8 3000 	str.w	r3, [r8]
 8009d1e:	2301      	movs	r3, #1
 8009d20:	3201      	adds	r2, #1
 8009d22:	f108 0804 	add.w	r8, r8, #4
 8009d26:	461d      	mov	r5, r3
 8009d28:	e752      	b.n	8009bd0 <__kernel_rem_pio2+0x1b0>
 8009d2a:	1acb      	subs	r3, r1, r3
 8009d2c:	f8c8 3000 	str.w	r3, [r8]
 8009d30:	462b      	mov	r3, r5
 8009d32:	e7f5      	b.n	8009d20 <__kernel_rem_pio2+0x300>
 8009d34:	f3af 8000 	nop.w
	...
 8009d44:	3ff00000 	.word	0x3ff00000
 8009d48:	0800af18 	.word	0x0800af18
 8009d4c:	40200000 	.word	0x40200000
 8009d50:	3ff00000 	.word	0x3ff00000
 8009d54:	3e700000 	.word	0x3e700000
 8009d58:	41700000 	.word	0x41700000
 8009d5c:	3fe00000 	.word	0x3fe00000
 8009d60:	0800aed8 	.word	0x0800aed8
 8009d64:	1e62      	subs	r2, r4, #1
 8009d66:	ab0e      	add	r3, sp, #56	; 0x38
 8009d68:	f853 3022 	ldr.w	r3, [r3, r2, lsl #2]
 8009d6c:	f3c3 0316 	ubfx	r3, r3, #0, #23
 8009d70:	a90e      	add	r1, sp, #56	; 0x38
 8009d72:	f841 3022 	str.w	r3, [r1, r2, lsl #2]
 8009d76:	e739      	b.n	8009bec <__kernel_rem_pio2+0x1cc>
 8009d78:	1e62      	subs	r2, r4, #1
 8009d7a:	ab0e      	add	r3, sp, #56	; 0x38
 8009d7c:	f853 3022 	ldr.w	r3, [r3, r2, lsl #2]
 8009d80:	f3c3 0315 	ubfx	r3, r3, #0, #22
 8009d84:	e7f4      	b.n	8009d70 <__kernel_rem_pio2+0x350>
 8009d86:	a90e      	add	r1, sp, #56	; 0x38
 8009d88:	f851 1023 	ldr.w	r1, [r1, r3, lsl #2]
 8009d8c:	3b01      	subs	r3, #1
 8009d8e:	430a      	orrs	r2, r1
 8009d90:	e789      	b.n	8009ca6 <__kernel_rem_pio2+0x286>
 8009d92:	3301      	adds	r3, #1
 8009d94:	f852 1d04 	ldr.w	r1, [r2, #-4]!
 8009d98:	2900      	cmp	r1, #0
 8009d9a:	d0fa      	beq.n	8009d92 <__kernel_rem_pio2+0x372>
 8009d9c:	9a0a      	ldr	r2, [sp, #40]	; 0x28
 8009d9e:	f502 721a 	add.w	r2, r2, #616	; 0x268
 8009da2:	446a      	add	r2, sp
 8009da4:	3a98      	subs	r2, #152	; 0x98
 8009da6:	920a      	str	r2, [sp, #40]	; 0x28
 8009da8:	9a08      	ldr	r2, [sp, #32]
 8009daa:	18e3      	adds	r3, r4, r3
 8009dac:	18a5      	adds	r5, r4, r2
 8009dae:	aa22      	add	r2, sp, #136	; 0x88
 8009db0:	f104 0801 	add.w	r8, r4, #1
 8009db4:	eb02 05c5 	add.w	r5, r2, r5, lsl #3
 8009db8:	9304      	str	r3, [sp, #16]
 8009dba:	9b04      	ldr	r3, [sp, #16]
 8009dbc:	4543      	cmp	r3, r8
 8009dbe:	da04      	bge.n	8009dca <__kernel_rem_pio2+0x3aa>
 8009dc0:	461c      	mov	r4, r3
 8009dc2:	e6a3      	b.n	8009b0c <__kernel_rem_pio2+0xec>
 8009dc4:	9a0d      	ldr	r2, [sp, #52]	; 0x34
 8009dc6:	2301      	movs	r3, #1
 8009dc8:	e7e4      	b.n	8009d94 <__kernel_rem_pio2+0x374>
 8009dca:	9b0c      	ldr	r3, [sp, #48]	; 0x30
 8009dcc:	f853 0028 	ldr.w	r0, [r3, r8, lsl #2]
 8009dd0:	f7f6 fbb0 	bl	8000534 <__aeabi_i2d>
 8009dd4:	e8e5 0102 	strd	r0, r1, [r5], #8
 8009dd8:	9b0b      	ldr	r3, [sp, #44]	; 0x2c
 8009dda:	46ab      	mov	fp, r5
 8009ddc:	461c      	mov	r4, r3
 8009dde:	f04f 0900 	mov.w	r9, #0
 8009de2:	2600      	movs	r6, #0
 8009de4:	2700      	movs	r7, #0
 8009de6:	9b06      	ldr	r3, [sp, #24]
 8009de8:	4599      	cmp	r9, r3
 8009dea:	dd06      	ble.n	8009dfa <__kernel_rem_pio2+0x3da>
 8009dec:	9b0a      	ldr	r3, [sp, #40]	; 0x28
 8009dee:	e8e3 6702 	strd	r6, r7, [r3], #8
 8009df2:	f108 0801 	add.w	r8, r8, #1
 8009df6:	930a      	str	r3, [sp, #40]	; 0x28
 8009df8:	e7df      	b.n	8009dba <__kernel_rem_pio2+0x39a>
 8009dfa:	e97b 2302 	ldrd	r2, r3, [fp, #-8]!
 8009dfe:	e8f4 0102 	ldrd	r0, r1, [r4], #8
 8009e02:	f7f6 fc01 	bl	8000608 <__aeabi_dmul>
 8009e06:	4602      	mov	r2, r0
 8009e08:	460b      	mov	r3, r1
 8009e0a:	4630      	mov	r0, r6
 8009e0c:	4639      	mov	r1, r7
 8009e0e:	f7f6 fa45 	bl	800029c <__adddf3>
 8009e12:	f109 0901 	add.w	r9, r9, #1
 8009e16:	4606      	mov	r6, r0
 8009e18:	460f      	mov	r7, r1
 8009e1a:	e7e4      	b.n	8009de6 <__kernel_rem_pio2+0x3c6>
 8009e1c:	3d01      	subs	r5, #1
 8009e1e:	e748      	b.n	8009cb2 <__kernel_rem_pio2+0x292>
 8009e20:	ec47 6b10 	vmov	d0, r6, r7
 8009e24:	f1ca 0000 	rsb	r0, sl, #0
 8009e28:	f000 fc6e 	bl	800a708 <scalbn>
 8009e2c:	ec57 6b10 	vmov	r6, r7, d0
 8009e30:	4ba0      	ldr	r3, [pc, #640]	; (800a0b4 <__kernel_rem_pio2+0x694>)
 8009e32:	ee10 0a10 	vmov	r0, s0
 8009e36:	2200      	movs	r2, #0
 8009e38:	4639      	mov	r1, r7
 8009e3a:	f7f6 fe6b 	bl	8000b14 <__aeabi_dcmpge>
 8009e3e:	b1f8      	cbz	r0, 8009e80 <__kernel_rem_pio2+0x460>
 8009e40:	4b9d      	ldr	r3, [pc, #628]	; (800a0b8 <__kernel_rem_pio2+0x698>)
 8009e42:	2200      	movs	r2, #0
 8009e44:	4630      	mov	r0, r6
 8009e46:	4639      	mov	r1, r7
 8009e48:	f7f6 fbde 	bl	8000608 <__aeabi_dmul>
 8009e4c:	f7f6 fe8c 	bl	8000b68 <__aeabi_d2iz>
 8009e50:	4680      	mov	r8, r0
 8009e52:	f7f6 fb6f 	bl	8000534 <__aeabi_i2d>
 8009e56:	4b97      	ldr	r3, [pc, #604]	; (800a0b4 <__kernel_rem_pio2+0x694>)
 8009e58:	2200      	movs	r2, #0
 8009e5a:	f7f6 fbd5 	bl	8000608 <__aeabi_dmul>
 8009e5e:	460b      	mov	r3, r1
 8009e60:	4602      	mov	r2, r0
 8009e62:	4639      	mov	r1, r7
 8009e64:	4630      	mov	r0, r6
 8009e66:	f7f6 fa17 	bl	8000298 <__aeabi_dsub>
 8009e6a:	f7f6 fe7d 	bl	8000b68 <__aeabi_d2iz>
 8009e6e:	1c65      	adds	r5, r4, #1
 8009e70:	ab0e      	add	r3, sp, #56	; 0x38
 8009e72:	f10a 0a18 	add.w	sl, sl, #24
 8009e76:	f843 0024 	str.w	r0, [r3, r4, lsl #2]
 8009e7a:	f843 8025 	str.w	r8, [r3, r5, lsl #2]
 8009e7e:	e720      	b.n	8009cc2 <__kernel_rem_pio2+0x2a2>
 8009e80:	4630      	mov	r0, r6
 8009e82:	4639      	mov	r1, r7
 8009e84:	f7f6 fe70 	bl	8000b68 <__aeabi_d2iz>
 8009e88:	ab0e      	add	r3, sp, #56	; 0x38
 8009e8a:	4625      	mov	r5, r4
 8009e8c:	f843 0024 	str.w	r0, [r3, r4, lsl #2]
 8009e90:	e717      	b.n	8009cc2 <__kernel_rem_pio2+0x2a2>
 8009e92:	ab0e      	add	r3, sp, #56	; 0x38
 8009e94:	f853 002a 	ldr.w	r0, [r3, sl, lsl #2]
 8009e98:	f7f6 fb4c 	bl	8000534 <__aeabi_i2d>
 8009e9c:	4632      	mov	r2, r6
 8009e9e:	463b      	mov	r3, r7
 8009ea0:	f7f6 fbb2 	bl	8000608 <__aeabi_dmul>
 8009ea4:	4b84      	ldr	r3, [pc, #528]	; (800a0b8 <__kernel_rem_pio2+0x698>)
 8009ea6:	e968 0102 	strd	r0, r1, [r8, #-8]!
 8009eaa:	2200      	movs	r2, #0
 8009eac:	4630      	mov	r0, r6
 8009eae:	4639      	mov	r1, r7
 8009eb0:	f7f6 fbaa 	bl	8000608 <__aeabi_dmul>
 8009eb4:	f10a 3aff 	add.w	sl, sl, #4294967295
 8009eb8:	4606      	mov	r6, r0
 8009eba:	460f      	mov	r7, r1
 8009ebc:	e70f      	b.n	8009cde <__kernel_rem_pio2+0x2be>
 8009ebe:	e8f9 2302 	ldrd	r2, r3, [r9], #8
 8009ec2:	e8fa 0102 	ldrd	r0, r1, [sl], #8
 8009ec6:	f7f6 fb9f 	bl	8000608 <__aeabi_dmul>
 8009eca:	4602      	mov	r2, r0
 8009ecc:	460b      	mov	r3, r1
 8009ece:	e9dd 0106 	ldrd	r0, r1, [sp, #24]
 8009ed2:	f7f6 f9e3 	bl	800029c <__adddf3>
 8009ed6:	e9cd 0106 	strd	r0, r1, [sp, #24]
 8009eda:	f108 0801 	add.w	r8, r8, #1
 8009ede:	9b02      	ldr	r3, [sp, #8]
 8009ee0:	4598      	cmp	r8, r3
 8009ee2:	dc01      	bgt.n	8009ee8 <__kernel_rem_pio2+0x4c8>
 8009ee4:	45b8      	cmp	r8, r7
 8009ee6:	ddea      	ble.n	8009ebe <__kernel_rem_pio2+0x49e>
 8009ee8:	ed9d 7b06 	vldr	d7, [sp, #24]
 8009eec:	ab4a      	add	r3, sp, #296	; 0x128
 8009eee:	eb03 07c7 	add.w	r7, r3, r7, lsl #3
 8009ef2:	ed87 7b00 	vstr	d7, [r7]
 8009ef6:	3e01      	subs	r6, #1
 8009ef8:	e6f8      	b.n	8009cec <__kernel_rem_pio2+0x2cc>
 8009efa:	9ba6      	ldr	r3, [sp, #664]	; 0x298
 8009efc:	2b02      	cmp	r3, #2
 8009efe:	dc0b      	bgt.n	8009f18 <__kernel_rem_pio2+0x4f8>
 8009f00:	2b00      	cmp	r3, #0
 8009f02:	dc35      	bgt.n	8009f70 <__kernel_rem_pio2+0x550>
 8009f04:	d059      	beq.n	8009fba <__kernel_rem_pio2+0x59a>
 8009f06:	9b04      	ldr	r3, [sp, #16]
 8009f08:	f003 0007 	and.w	r0, r3, #7
 8009f0c:	f50d 7d1b 	add.w	sp, sp, #620	; 0x26c
 8009f10:	ecbd 8b02 	vpop	{d8}
 8009f14:	e8bd 8ff0 	ldmia.w	sp!, {r4, r5, r6, r7, r8, r9, sl, fp, pc}
 8009f18:	9ba6      	ldr	r3, [sp, #664]	; 0x298
 8009f1a:	2b03      	cmp	r3, #3
 8009f1c:	d1f3      	bne.n	8009f06 <__kernel_rem_pio2+0x4e6>
 8009f1e:	ab4a      	add	r3, sp, #296	; 0x128
 8009f20:	4423      	add	r3, r4
 8009f22:	9306      	str	r3, [sp, #24]
 8009f24:	461c      	mov	r4, r3
 8009f26:	469a      	mov	sl, r3
 8009f28:	9502      	str	r5, [sp, #8]
 8009f2a:	9b02      	ldr	r3, [sp, #8]
 8009f2c:	2b00      	cmp	r3, #0
 8009f2e:	f1aa 0a08 	sub.w	sl, sl, #8
 8009f32:	dc6b      	bgt.n	800a00c <__kernel_rem_pio2+0x5ec>
 8009f34:	46aa      	mov	sl, r5
 8009f36:	f1ba 0f01 	cmp.w	sl, #1
 8009f3a:	f1a4 0408 	sub.w	r4, r4, #8
 8009f3e:	f300 8085 	bgt.w	800a04c <__kernel_rem_pio2+0x62c>
 8009f42:	9c06      	ldr	r4, [sp, #24]
 8009f44:	2000      	movs	r0, #0
 8009f46:	3408      	adds	r4, #8
 8009f48:	2100      	movs	r1, #0
 8009f4a:	2d01      	cmp	r5, #1
 8009f4c:	f300 809d 	bgt.w	800a08a <__kernel_rem_pio2+0x66a>
 8009f50:	e9dd 564a 	ldrd	r5, r6, [sp, #296]	; 0x128
 8009f54:	e9dd 784c 	ldrd	r7, r8, [sp, #304]	; 0x130
 8009f58:	f1bb 0f00 	cmp.w	fp, #0
 8009f5c:	f040 809b 	bne.w	800a096 <__kernel_rem_pio2+0x676>
 8009f60:	9b01      	ldr	r3, [sp, #4]
 8009f62:	e9c3 5600 	strd	r5, r6, [r3]
 8009f66:	e9c3 7802 	strd	r7, r8, [r3, #8]
 8009f6a:	e9c3 0104 	strd	r0, r1, [r3, #16]
 8009f6e:	e7ca      	b.n	8009f06 <__kernel_rem_pio2+0x4e6>
 8009f70:	3408      	adds	r4, #8
 8009f72:	ab4a      	add	r3, sp, #296	; 0x128
 8009f74:	441c      	add	r4, r3
 8009f76:	462e      	mov	r6, r5
 8009f78:	2000      	movs	r0, #0
 8009f7a:	2100      	movs	r1, #0
 8009f7c:	2e00      	cmp	r6, #0
 8009f7e:	da36      	bge.n	8009fee <__kernel_rem_pio2+0x5ce>
 8009f80:	f1bb 0f00 	cmp.w	fp, #0
 8009f84:	d039      	beq.n	8009ffa <__kernel_rem_pio2+0x5da>
 8009f86:	4602      	mov	r2, r0
 8009f88:	f101 4300 	add.w	r3, r1, #2147483648	; 0x80000000
 8009f8c:	9c01      	ldr	r4, [sp, #4]
 8009f8e:	e9c4 2300 	strd	r2, r3, [r4]
 8009f92:	4602      	mov	r2, r0
 8009f94:	460b      	mov	r3, r1
 8009f96:	e9dd 014a 	ldrd	r0, r1, [sp, #296]	; 0x128
 8009f9a:	f7f6 f97d 	bl	8000298 <__aeabi_dsub>
 8009f9e:	ae4c      	add	r6, sp, #304	; 0x130
 8009fa0:	2401      	movs	r4, #1
 8009fa2:	42a5      	cmp	r5, r4
 8009fa4:	da2c      	bge.n	800a000 <__kernel_rem_pio2+0x5e0>
 8009fa6:	f1bb 0f00 	cmp.w	fp, #0
 8009faa:	d002      	beq.n	8009fb2 <__kernel_rem_pio2+0x592>
 8009fac:	f101 4300 	add.w	r3, r1, #2147483648	; 0x80000000
 8009fb0:	4619      	mov	r1, r3
 8009fb2:	9b01      	ldr	r3, [sp, #4]
 8009fb4:	e9c3 0102 	strd	r0, r1, [r3, #8]
 8009fb8:	e7a5      	b.n	8009f06 <__kernel_rem_pio2+0x4e6>
 8009fba:	f504 731a 	add.w	r3, r4, #616	; 0x268
 8009fbe:	eb0d 0403 	add.w	r4, sp, r3
 8009fc2:	f5a4 749c 	sub.w	r4, r4, #312	; 0x138
 8009fc6:	2000      	movs	r0, #0
 8009fc8:	2100      	movs	r1, #0
 8009fca:	2d00      	cmp	r5, #0
 8009fcc:	da09      	bge.n	8009fe2 <__kernel_rem_pio2+0x5c2>
 8009fce:	f1bb 0f00 	cmp.w	fp, #0
 8009fd2:	d002      	beq.n	8009fda <__kernel_rem_pio2+0x5ba>
 8009fd4:	f101 4300 	add.w	r3, r1, #2147483648	; 0x80000000
 8009fd8:	4619      	mov	r1, r3
 8009fda:	9b01      	ldr	r3, [sp, #4]
 8009fdc:	e9c3 0100 	strd	r0, r1, [r3]
 8009fe0:	e791      	b.n	8009f06 <__kernel_rem_pio2+0x4e6>
 8009fe2:	e974 2302 	ldrd	r2, r3, [r4, #-8]!
 8009fe6:	f7f6 f959 	bl	800029c <__adddf3>
 8009fea:	3d01      	subs	r5, #1
 8009fec:	e7ed      	b.n	8009fca <__kernel_rem_pio2+0x5aa>
 8009fee:	e974 2302 	ldrd	r2, r3, [r4, #-8]!
 8009ff2:	f7f6 f953 	bl	800029c <__adddf3>
 8009ff6:	3e01      	subs	r6, #1
 8009ff8:	e7c0      	b.n	8009f7c <__kernel_rem_pio2+0x55c>
 8009ffa:	4602      	mov	r2, r0
 8009ffc:	460b      	mov	r3, r1
 8009ffe:	e7c5      	b.n	8009f8c <__kernel_rem_pio2+0x56c>
 800a000:	e8f6 2302 	ldrd	r2, r3, [r6], #8
 800a004:	f7f6 f94a 	bl	800029c <__adddf3>
 800a008:	3401      	adds	r4, #1
 800a00a:	e7ca      	b.n	8009fa2 <__kernel_rem_pio2+0x582>
 800a00c:	e9da 8900 	ldrd	r8, r9, [sl]
 800a010:	e9da 6702 	ldrd	r6, r7, [sl, #8]
 800a014:	9b02      	ldr	r3, [sp, #8]
 800a016:	3b01      	subs	r3, #1
 800a018:	9302      	str	r3, [sp, #8]
 800a01a:	4632      	mov	r2, r6
 800a01c:	463b      	mov	r3, r7
 800a01e:	4640      	mov	r0, r8
 800a020:	4649      	mov	r1, r9
 800a022:	f7f6 f93b 	bl	800029c <__adddf3>
 800a026:	e9cd 0108 	strd	r0, r1, [sp, #32]
 800a02a:	4602      	mov	r2, r0
 800a02c:	460b      	mov	r3, r1
 800a02e:	4640      	mov	r0, r8
 800a030:	4649      	mov	r1, r9
 800a032:	f7f6 f931 	bl	8000298 <__aeabi_dsub>
 800a036:	4632      	mov	r2, r6
 800a038:	463b      	mov	r3, r7
 800a03a:	f7f6 f92f 	bl	800029c <__adddf3>
 800a03e:	ed9d 7b08 	vldr	d7, [sp, #32]
 800a042:	e9ca 0102 	strd	r0, r1, [sl, #8]
 800a046:	ed8a 7b00 	vstr	d7, [sl]
 800a04a:	e76e      	b.n	8009f2a <__kernel_rem_pio2+0x50a>
 800a04c:	e9d4 8900 	ldrd	r8, r9, [r4]
 800a050:	e9d4 6702 	ldrd	r6, r7, [r4, #8]
 800a054:	4640      	mov	r0, r8
 800a056:	4632      	mov	r2, r6
 800a058:	463b      	mov	r3, r7
 800a05a:	4649      	mov	r1, r9
 800a05c:	f7f6 f91e 	bl	800029c <__adddf3>
 800a060:	e9cd 0102 	strd	r0, r1, [sp, #8]
 800a064:	4602      	mov	r2, r0
 800a066:	460b      	mov	r3, r1
 800a068:	4640      	mov	r0, r8
 800a06a:	4649      	mov	r1, r9
 800a06c:	f7f6 f914 	bl	8000298 <__aeabi_dsub>
 800a070:	4632      	mov	r2, r6
 800a072:	463b      	mov	r3, r7
 800a074:	f7f6 f912 	bl	800029c <__adddf3>
 800a078:	ed9d 7b02 	vldr	d7, [sp, #8]
 800a07c:	e9c4 0102 	strd	r0, r1, [r4, #8]
 800a080:	ed84 7b00 	vstr	d7, [r4]
 800a084:	f10a 3aff 	add.w	sl, sl, #4294967295
 800a088:	e755      	b.n	8009f36 <__kernel_rem_pio2+0x516>
 800a08a:	e974 2302 	ldrd	r2, r3, [r4, #-8]!
 800a08e:	f7f6 f905 	bl	800029c <__adddf3>
 800a092:	3d01      	subs	r5, #1
 800a094:	e759      	b.n	8009f4a <__kernel_rem_pio2+0x52a>
 800a096:	9b01      	ldr	r3, [sp, #4]
 800a098:	9a01      	ldr	r2, [sp, #4]
 800a09a:	601d      	str	r5, [r3, #0]
 800a09c:	f106 4400 	add.w	r4, r6, #2147483648	; 0x80000000
 800a0a0:	605c      	str	r4, [r3, #4]
 800a0a2:	609f      	str	r7, [r3, #8]
 800a0a4:	f108 4300 	add.w	r3, r8, #2147483648	; 0x80000000
 800a0a8:	60d3      	str	r3, [r2, #12]
 800a0aa:	f101 4300 	add.w	r3, r1, #2147483648	; 0x80000000
 800a0ae:	6110      	str	r0, [r2, #16]
 800a0b0:	6153      	str	r3, [r2, #20]
 800a0b2:	e728      	b.n	8009f06 <__kernel_rem_pio2+0x4e6>
 800a0b4:	41700000 	.word	0x41700000
 800a0b8:	3e700000 	.word	0x3e700000
 800a0bc:	00000000 	.word	0x00000000

0800a0c0 <__kernel_sin>:
 800a0c0:	e92d 4ff0 	stmdb	sp!, {r4, r5, r6, r7, r8, r9, sl, fp, lr}
 800a0c4:	ed2d 8b04 	vpush	{d8-d9}
 800a0c8:	eeb0 8a41 	vmov.f32	s16, s2
 800a0cc:	eef0 8a61 	vmov.f32	s17, s3
 800a0d0:	ec55 4b10 	vmov	r4, r5, d0
 800a0d4:	b083      	sub	sp, #12
 800a0d6:	f025 4300 	bic.w	r3, r5, #2147483648	; 0x80000000
 800a0da:	f1b3 5f79 	cmp.w	r3, #1044381696	; 0x3e400000
 800a0de:	9001      	str	r0, [sp, #4]
 800a0e0:	da06      	bge.n	800a0f0 <__kernel_sin+0x30>
 800a0e2:	ee10 0a10 	vmov	r0, s0
 800a0e6:	4629      	mov	r1, r5
 800a0e8:	f7f6 fd3e 	bl	8000b68 <__aeabi_d2iz>
 800a0ec:	2800      	cmp	r0, #0
 800a0ee:	d051      	beq.n	800a194 <__kernel_sin+0xd4>
 800a0f0:	4622      	mov	r2, r4
 800a0f2:	462b      	mov	r3, r5
 800a0f4:	4620      	mov	r0, r4
 800a0f6:	4629      	mov	r1, r5
 800a0f8:	f7f6 fa86 	bl	8000608 <__aeabi_dmul>
 800a0fc:	4682      	mov	sl, r0
 800a0fe:	468b      	mov	fp, r1
 800a100:	4602      	mov	r2, r0
 800a102:	460b      	mov	r3, r1
 800a104:	4620      	mov	r0, r4
 800a106:	4629      	mov	r1, r5
 800a108:	f7f6 fa7e 	bl	8000608 <__aeabi_dmul>
 800a10c:	a341      	add	r3, pc, #260	; (adr r3, 800a214 <__kernel_sin+0x154>)
 800a10e:	e9d3 2300 	ldrd	r2, r3, [r3]
 800a112:	4680      	mov	r8, r0
 800a114:	4689      	mov	r9, r1
 800a116:	4650      	mov	r0, sl
 800a118:	4659      	mov	r1, fp
 800a11a:	f7f6 fa75 	bl	8000608 <__aeabi_dmul>
 800a11e:	a33f      	add	r3, pc, #252	; (adr r3, 800a21c <__kernel_sin+0x15c>)
 800a120:	e9d3 2300 	ldrd	r2, r3, [r3]
 800a124:	f7f6 f8b8 	bl	8000298 <__aeabi_dsub>
 800a128:	4652      	mov	r2, sl
 800a12a:	465b      	mov	r3, fp
 800a12c:	f7f6 fa6c 	bl	8000608 <__aeabi_dmul>
 800a130:	a33c      	add	r3, pc, #240	; (adr r3, 800a224 <__kernel_sin+0x164>)
 800a132:	e9d3 2300 	ldrd	r2, r3, [r3]
 800a136:	f7f6 f8b1 	bl	800029c <__adddf3>
 800a13a:	4652      	mov	r2, sl
 800a13c:	465b      	mov	r3, fp
 800a13e:	f7f6 fa63 	bl	8000608 <__aeabi_dmul>
 800a142:	a33a      	add	r3, pc, #232	; (adr r3, 800a22c <__kernel_sin+0x16c>)
 800a144:	e9d3 2300 	ldrd	r2, r3, [r3]
 800a148:	f7f6 f8a6 	bl	8000298 <__aeabi_dsub>
 800a14c:	4652      	mov	r2, sl
 800a14e:	465b      	mov	r3, fp
 800a150:	f7f6 fa5a 	bl	8000608 <__aeabi_dmul>
 800a154:	a337      	add	r3, pc, #220	; (adr r3, 800a234 <__kernel_sin+0x174>)
 800a156:	e9d3 2300 	ldrd	r2, r3, [r3]
 800a15a:	f7f6 f89f 	bl	800029c <__adddf3>
 800a15e:	9b01      	ldr	r3, [sp, #4]
 800a160:	4606      	mov	r6, r0
 800a162:	460f      	mov	r7, r1
 800a164:	b9eb      	cbnz	r3, 800a1a2 <__kernel_sin+0xe2>
 800a166:	4602      	mov	r2, r0
 800a168:	460b      	mov	r3, r1
 800a16a:	4650      	mov	r0, sl
 800a16c:	4659      	mov	r1, fp
 800a16e:	f7f6 fa4b 	bl	8000608 <__aeabi_dmul>
 800a172:	a325      	add	r3, pc, #148	; (adr r3, 800a208 <__kernel_sin+0x148>)
 800a174:	e9d3 2300 	ldrd	r2, r3, [r3]
 800a178:	f7f6 f88e 	bl	8000298 <__aeabi_dsub>
 800a17c:	4642      	mov	r2, r8
 800a17e:	464b      	mov	r3, r9
 800a180:	f7f6 fa42 	bl	8000608 <__aeabi_dmul>
 800a184:	4602      	mov	r2, r0
 800a186:	460b      	mov	r3, r1
 800a188:	4620      	mov	r0, r4
 800a18a:	4629      	mov	r1, r5
 800a18c:	f7f6 f886 	bl	800029c <__adddf3>
 800a190:	4604      	mov	r4, r0
 800a192:	460d      	mov	r5, r1
 800a194:	ec45 4b10 	vmov	d0, r4, r5
 800a198:	b003      	add	sp, #12
 800a19a:	ecbd 8b04 	vpop	{d8-d9}
 800a19e:	e8bd 8ff0 	ldmia.w	sp!, {r4, r5, r6, r7, r8, r9, sl, fp, pc}
 800a1a2:	4b1b      	ldr	r3, [pc, #108]	; (800a210 <__kernel_sin+0x150>)
 800a1a4:	ec51 0b18 	vmov	r0, r1, d8
 800a1a8:	2200      	movs	r2, #0
 800a1aa:	f7f6 fa2d 	bl	8000608 <__aeabi_dmul>
 800a1ae:	4632      	mov	r2, r6
 800a1b0:	ec41 0b19 	vmov	d9, r0, r1
 800a1b4:	463b      	mov	r3, r7
 800a1b6:	4640      	mov	r0, r8
 800a1b8:	4649      	mov	r1, r9
 800a1ba:	f7f6 fa25 	bl	8000608 <__aeabi_dmul>
 800a1be:	4602      	mov	r2, r0
 800a1c0:	460b      	mov	r3, r1
 800a1c2:	ec51 0b19 	vmov	r0, r1, d9
 800a1c6:	f7f6 f867 	bl	8000298 <__aeabi_dsub>
 800a1ca:	4652      	mov	r2, sl
 800a1cc:	465b      	mov	r3, fp
 800a1ce:	f7f6 fa1b 	bl	8000608 <__aeabi_dmul>
 800a1d2:	ec53 2b18 	vmov	r2, r3, d8
 800a1d6:	f7f6 f85f 	bl	8000298 <__aeabi_dsub>
 800a1da:	a30b      	add	r3, pc, #44	; (adr r3, 800a208 <__kernel_sin+0x148>)
 800a1dc:	e9d3 2300 	ldrd	r2, r3, [r3]
 800a1e0:	4606      	mov	r6, r0
 800a1e2:	460f      	mov	r7, r1
 800a1e4:	4640      	mov	r0, r8
 800a1e6:	4649      	mov	r1, r9
 800a1e8:	f7f6 fa0e 	bl	8000608 <__aeabi_dmul>
 800a1ec:	4602      	mov	r2, r0
 800a1ee:	460b      	mov	r3, r1
 800a1f0:	4630      	mov	r0, r6
 800a1f2:	4639      	mov	r1, r7
 800a1f4:	f7f6 f852 	bl	800029c <__adddf3>
 800a1f8:	4602      	mov	r2, r0
 800a1fa:	460b      	mov	r3, r1
 800a1fc:	4620      	mov	r0, r4
 800a1fe:	4629      	mov	r1, r5
 800a200:	f7f6 f84a 	bl	8000298 <__aeabi_dsub>
 800a204:	e7c4      	b.n	800a190 <__kernel_sin+0xd0>
 800a206:	bf00      	nop
 800a208:	55555549 	.word	0x55555549
 800a20c:	3fc55555 	.word	0x3fc55555
 800a210:	3fe00000 	.word	0x3fe00000
 800a214:	5acfd57c 	.word	0x5acfd57c
 800a218:	3de5d93a 	.word	0x3de5d93a
 800a21c:	8a2b9ceb 	.word	0x8a2b9ceb
 800a220:	3e5ae5e6 	.word	0x3e5ae5e6
 800a224:	57b1fe7d 	.word	0x57b1fe7d
 800a228:	3ec71de3 	.word	0x3ec71de3
 800a22c:	19c161d5 	.word	0x19c161d5
 800a230:	3f2a01a0 	.word	0x3f2a01a0
 800a234:	1110f8a6 	.word	0x1110f8a6
 800a238:	3f811111 	.word	0x3f811111

0800a23c <with_errno>:
 800a23c:	b570      	push	{r4, r5, r6, lr}
 800a23e:	4604      	mov	r4, r0
 800a240:	460d      	mov	r5, r1
 800a242:	4616      	mov	r6, r2
 800a244:	f7fb fbba 	bl	80059bc <__errno>
 800a248:	4629      	mov	r1, r5
 800a24a:	6006      	str	r6, [r0, #0]
 800a24c:	4620      	mov	r0, r4
 800a24e:	bd70      	pop	{r4, r5, r6, pc}

0800a250 <xflow>:
 800a250:	b537      	push	{r0, r1, r2, r4, r5, lr}
 800a252:	4614      	mov	r4, r2
 800a254:	461d      	mov	r5, r3
 800a256:	b108      	cbz	r0, 800a25c <xflow+0xc>
 800a258:	f103 4300 	add.w	r3, r3, #2147483648	; 0x80000000
 800a25c:	e9cd 2300 	strd	r2, r3, [sp]
 800a260:	e9dd 2300 	ldrd	r2, r3, [sp]
 800a264:	4620      	mov	r0, r4
 800a266:	4629      	mov	r1, r5
 800a268:	f7f6 f9ce 	bl	8000608 <__aeabi_dmul>
 800a26c:	2222      	movs	r2, #34	; 0x22
 800a26e:	b003      	add	sp, #12
 800a270:	e8bd 4030 	ldmia.w	sp!, {r4, r5, lr}
 800a274:	f7ff bfe2 	b.w	800a23c <with_errno>

0800a278 <__math_uflow>:
 800a278:	b508      	push	{r3, lr}
 800a27a:	2200      	movs	r2, #0
 800a27c:	f04f 5380 	mov.w	r3, #268435456	; 0x10000000
 800a280:	f7ff ffe6 	bl	800a250 <xflow>
 800a284:	ec41 0b10 	vmov	d0, r0, r1
 800a288:	bd08      	pop	{r3, pc}

0800a28a <__math_oflow>:
 800a28a:	b508      	push	{r3, lr}
 800a28c:	2200      	movs	r2, #0
 800a28e:	f04f 43e0 	mov.w	r3, #1879048192	; 0x70000000
 800a292:	f7ff ffdd 	bl	800a250 <xflow>
 800a296:	ec41 0b10 	vmov	d0, r0, r1
 800a29a:	bd08      	pop	{r3, pc}
 800a29c:	0000      	movs	r0, r0
	...

0800a2a0 <atan>:
 800a2a0:	e92d 4ff8 	stmdb	sp!, {r3, r4, r5, r6, r7, r8, r9, sl, fp, lr}
 800a2a4:	ec55 4b10 	vmov	r4, r5, d0
 800a2a8:	4bc3      	ldr	r3, [pc, #780]	; (800a5b8 <atan+0x318>)
 800a2aa:	f025 4600 	bic.w	r6, r5, #2147483648	; 0x80000000
 800a2ae:	429e      	cmp	r6, r3
 800a2b0:	46ab      	mov	fp, r5
 800a2b2:	dd18      	ble.n	800a2e6 <atan+0x46>
 800a2b4:	4bc1      	ldr	r3, [pc, #772]	; (800a5bc <atan+0x31c>)
 800a2b6:	429e      	cmp	r6, r3
 800a2b8:	dc01      	bgt.n	800a2be <atan+0x1e>
 800a2ba:	d109      	bne.n	800a2d0 <atan+0x30>
 800a2bc:	b144      	cbz	r4, 800a2d0 <atan+0x30>
 800a2be:	4622      	mov	r2, r4
 800a2c0:	462b      	mov	r3, r5
 800a2c2:	4620      	mov	r0, r4
 800a2c4:	4629      	mov	r1, r5
 800a2c6:	f7f5 ffe9 	bl	800029c <__adddf3>
 800a2ca:	4604      	mov	r4, r0
 800a2cc:	460d      	mov	r5, r1
 800a2ce:	e006      	b.n	800a2de <atan+0x3e>
 800a2d0:	f1bb 0f00 	cmp.w	fp, #0
 800a2d4:	f300 8131 	bgt.w	800a53a <atan+0x29a>
 800a2d8:	a59b      	add	r5, pc, #620	; (adr r5, 800a548 <atan+0x2a8>)
 800a2da:	e9d5 4500 	ldrd	r4, r5, [r5]
 800a2de:	ec45 4b10 	vmov	d0, r4, r5
 800a2e2:	e8bd 8ff8 	ldmia.w	sp!, {r3, r4, r5, r6, r7, r8, r9, sl, fp, pc}
 800a2e6:	4bb6      	ldr	r3, [pc, #728]	; (800a5c0 <atan+0x320>)
 800a2e8:	429e      	cmp	r6, r3
 800a2ea:	dc14      	bgt.n	800a316 <atan+0x76>
 800a2ec:	f1a3 73de 	sub.w	r3, r3, #29097984	; 0x1bc0000
 800a2f0:	429e      	cmp	r6, r3
 800a2f2:	dc0d      	bgt.n	800a310 <atan+0x70>
 800a2f4:	a396      	add	r3, pc, #600	; (adr r3, 800a550 <atan+0x2b0>)
 800a2f6:	e9d3 2300 	ldrd	r2, r3, [r3]
 800a2fa:	ee10 0a10 	vmov	r0, s0
 800a2fe:	4629      	mov	r1, r5
 800a300:	f7f5 ffcc 	bl	800029c <__adddf3>
 800a304:	4baf      	ldr	r3, [pc, #700]	; (800a5c4 <atan+0x324>)
 800a306:	2200      	movs	r2, #0
 800a308:	f7f6 fc0e 	bl	8000b28 <__aeabi_dcmpgt>
 800a30c:	2800      	cmp	r0, #0
 800a30e:	d1e6      	bne.n	800a2de <atan+0x3e>
 800a310:	f04f 3aff 	mov.w	sl, #4294967295
 800a314:	e02b      	b.n	800a36e <atan+0xce>
 800a316:	f000 f963 	bl	800a5e0 <fabs>
 800a31a:	4bab      	ldr	r3, [pc, #684]	; (800a5c8 <atan+0x328>)
 800a31c:	429e      	cmp	r6, r3
 800a31e:	ec55 4b10 	vmov	r4, r5, d0
 800a322:	f300 80bf 	bgt.w	800a4a4 <atan+0x204>
 800a326:	f5a3 2350 	sub.w	r3, r3, #851968	; 0xd0000
 800a32a:	429e      	cmp	r6, r3
 800a32c:	f300 80a0 	bgt.w	800a470 <atan+0x1d0>
 800a330:	ee10 2a10 	vmov	r2, s0
 800a334:	ee10 0a10 	vmov	r0, s0
 800a338:	462b      	mov	r3, r5
 800a33a:	4629      	mov	r1, r5
 800a33c:	f7f5 ffae 	bl	800029c <__adddf3>
 800a340:	4ba0      	ldr	r3, [pc, #640]	; (800a5c4 <atan+0x324>)
 800a342:	2200      	movs	r2, #0
 800a344:	f7f5 ffa8 	bl	8000298 <__aeabi_dsub>
 800a348:	2200      	movs	r2, #0
 800a34a:	4606      	mov	r6, r0
 800a34c:	460f      	mov	r7, r1
 800a34e:	f04f 4380 	mov.w	r3, #1073741824	; 0x40000000
 800a352:	4620      	mov	r0, r4
 800a354:	4629      	mov	r1, r5
 800a356:	f7f5 ffa1 	bl	800029c <__adddf3>
 800a35a:	4602      	mov	r2, r0
 800a35c:	460b      	mov	r3, r1
 800a35e:	4630      	mov	r0, r6
 800a360:	4639      	mov	r1, r7
 800a362:	f7f6 fa7b 	bl	800085c <__aeabi_ddiv>
 800a366:	f04f 0a00 	mov.w	sl, #0
 800a36a:	4604      	mov	r4, r0
 800a36c:	460d      	mov	r5, r1
 800a36e:	4622      	mov	r2, r4
 800a370:	462b      	mov	r3, r5
 800a372:	4620      	mov	r0, r4
 800a374:	4629      	mov	r1, r5
 800a376:	f7f6 f947 	bl	8000608 <__aeabi_dmul>
 800a37a:	4602      	mov	r2, r0
 800a37c:	460b      	mov	r3, r1
 800a37e:	4680      	mov	r8, r0
 800a380:	4689      	mov	r9, r1
 800a382:	f7f6 f941 	bl	8000608 <__aeabi_dmul>
 800a386:	a374      	add	r3, pc, #464	; (adr r3, 800a558 <atan+0x2b8>)
 800a388:	e9d3 2300 	ldrd	r2, r3, [r3]
 800a38c:	4606      	mov	r6, r0
 800a38e:	460f      	mov	r7, r1
 800a390:	f7f6 f93a 	bl	8000608 <__aeabi_dmul>
 800a394:	a372      	add	r3, pc, #456	; (adr r3, 800a560 <atan+0x2c0>)
 800a396:	e9d3 2300 	ldrd	r2, r3, [r3]
 800a39a:	f7f5 ff7f 	bl	800029c <__adddf3>
 800a39e:	4632      	mov	r2, r6
 800a3a0:	463b      	mov	r3, r7
 800a3a2:	f7f6 f931 	bl	8000608 <__aeabi_dmul>
 800a3a6:	a370      	add	r3, pc, #448	; (adr r3, 800a568 <atan+0x2c8>)
 800a3a8:	e9d3 2300 	ldrd	r2, r3, [r3]
 800a3ac:	f7f5 ff76 	bl	800029c <__adddf3>
 800a3b0:	4632      	mov	r2, r6
 800a3b2:	463b      	mov	r3, r7
 800a3b4:	f7f6 f928 	bl	8000608 <__aeabi_dmul>
 800a3b8:	a36d      	add	r3, pc, #436	; (adr r3, 800a570 <atan+0x2d0>)
 800a3ba:	e9d3 2300 	ldrd	r2, r3, [r3]
 800a3be:	f7f5 ff6d 	bl	800029c <__adddf3>
 800a3c2:	4632      	mov	r2, r6
 800a3c4:	463b      	mov	r3, r7
 800a3c6:	f7f6 f91f 	bl	8000608 <__aeabi_dmul>
 800a3ca:	a36b      	add	r3, pc, #428	; (adr r3, 800a578 <atan+0x2d8>)
 800a3cc:	e9d3 2300 	ldrd	r2, r3, [r3]
 800a3d0:	f7f5 ff64 	bl	800029c <__adddf3>
 800a3d4:	4632      	mov	r2, r6
 800a3d6:	463b      	mov	r3, r7
 800a3d8:	f7f6 f916 	bl	8000608 <__aeabi_dmul>
 800a3dc:	a368      	add	r3, pc, #416	; (adr r3, 800a580 <atan+0x2e0>)
 800a3de:	e9d3 2300 	ldrd	r2, r3, [r3]
 800a3e2:	f7f5 ff5b 	bl	800029c <__adddf3>
 800a3e6:	4642      	mov	r2, r8
 800a3e8:	464b      	mov	r3, r9
 800a3ea:	f7f6 f90d 	bl	8000608 <__aeabi_dmul>
 800a3ee:	a366      	add	r3, pc, #408	; (adr r3, 800a588 <atan+0x2e8>)
 800a3f0:	e9d3 2300 	ldrd	r2, r3, [r3]
 800a3f4:	4680      	mov	r8, r0
 800a3f6:	4689      	mov	r9, r1
 800a3f8:	4630      	mov	r0, r6
 800a3fa:	4639      	mov	r1, r7
 800a3fc:	f7f6 f904 	bl	8000608 <__aeabi_dmul>
 800a400:	a363      	add	r3, pc, #396	; (adr r3, 800a590 <atan+0x2f0>)
 800a402:	e9d3 2300 	ldrd	r2, r3, [r3]
 800a406:	f7f5 ff47 	bl	8000298 <__aeabi_dsub>
 800a40a:	4632      	mov	r2, r6
 800a40c:	463b      	mov	r3, r7
 800a40e:	f7f6 f8fb 	bl	8000608 <__aeabi_dmul>
 800a412:	a361      	add	r3, pc, #388	; (adr r3, 800a598 <atan+0x2f8>)
 800a414:	e9d3 2300 	ldrd	r2, r3, [r3]
 800a418:	f7f5 ff3e 	bl	8000298 <__aeabi_dsub>
 800a41c:	4632      	mov	r2, r6
 800a41e:	463b      	mov	r3, r7
 800a420:	f7f6 f8f2 	bl	8000608 <__aeabi_dmul>
 800a424:	a35e      	add	r3, pc, #376	; (adr r3, 800a5a0 <atan+0x300>)
 800a426:	e9d3 2300 	ldrd	r2, r3, [r3]
 800a42a:	f7f5 ff35 	bl	8000298 <__aeabi_dsub>
 800a42e:	4632      	mov	r2, r6
 800a430:	463b      	mov	r3, r7
 800a432:	f7f6 f8e9 	bl	8000608 <__aeabi_dmul>
 800a436:	a35c      	add	r3, pc, #368	; (adr r3, 800a5a8 <atan+0x308>)
 800a438:	e9d3 2300 	ldrd	r2, r3, [r3]
 800a43c:	f7f5 ff2c 	bl	8000298 <__aeabi_dsub>
 800a440:	4632      	mov	r2, r6
 800a442:	463b      	mov	r3, r7
 800a444:	f7f6 f8e0 	bl	8000608 <__aeabi_dmul>
 800a448:	4602      	mov	r2, r0
 800a44a:	460b      	mov	r3, r1
 800a44c:	4640      	mov	r0, r8
 800a44e:	4649      	mov	r1, r9
 800a450:	f7f5 ff24 	bl	800029c <__adddf3>
 800a454:	4622      	mov	r2, r4
 800a456:	462b      	mov	r3, r5
 800a458:	f7f6 f8d6 	bl	8000608 <__aeabi_dmul>
 800a45c:	f1ba 3fff 	cmp.w	sl, #4294967295
 800a460:	4602      	mov	r2, r0
 800a462:	460b      	mov	r3, r1
 800a464:	d14b      	bne.n	800a4fe <atan+0x25e>
 800a466:	4620      	mov	r0, r4
 800a468:	4629      	mov	r1, r5
 800a46a:	f7f5 ff15 	bl	8000298 <__aeabi_dsub>
 800a46e:	e72c      	b.n	800a2ca <atan+0x2a>
 800a470:	ee10 0a10 	vmov	r0, s0
 800a474:	4b53      	ldr	r3, [pc, #332]	; (800a5c4 <atan+0x324>)
 800a476:	2200      	movs	r2, #0
 800a478:	4629      	mov	r1, r5
 800a47a:	f7f5 ff0d 	bl	8000298 <__aeabi_dsub>
 800a47e:	4b51      	ldr	r3, [pc, #324]	; (800a5c4 <atan+0x324>)
 800a480:	4606      	mov	r6, r0
 800a482:	460f      	mov	r7, r1
 800a484:	2200      	movs	r2, #0
 800a486:	4620      	mov	r0, r4
 800a488:	4629      	mov	r1, r5
 800a48a:	f7f5 ff07 	bl	800029c <__adddf3>
 800a48e:	4602      	mov	r2, r0
 800a490:	460b      	mov	r3, r1
 800a492:	4630      	mov	r0, r6
 800a494:	4639      	mov	r1, r7
 800a496:	f7f6 f9e1 	bl	800085c <__aeabi_ddiv>
 800a49a:	f04f 0a01 	mov.w	sl, #1
 800a49e:	4604      	mov	r4, r0
 800a4a0:	460d      	mov	r5, r1
 800a4a2:	e764      	b.n	800a36e <atan+0xce>
 800a4a4:	4b49      	ldr	r3, [pc, #292]	; (800a5cc <atan+0x32c>)
 800a4a6:	429e      	cmp	r6, r3
 800a4a8:	da1d      	bge.n	800a4e6 <atan+0x246>
 800a4aa:	ee10 0a10 	vmov	r0, s0
 800a4ae:	4b48      	ldr	r3, [pc, #288]	; (800a5d0 <atan+0x330>)
 800a4b0:	2200      	movs	r2, #0
 800a4b2:	4629      	mov	r1, r5
 800a4b4:	f7f5 fef0 	bl	8000298 <__aeabi_dsub>
 800a4b8:	4b45      	ldr	r3, [pc, #276]	; (800a5d0 <atan+0x330>)
 800a4ba:	4606      	mov	r6, r0
 800a4bc:	460f      	mov	r7, r1
 800a4be:	2200      	movs	r2, #0
 800a4c0:	4620      	mov	r0, r4
 800a4c2:	4629      	mov	r1, r5
 800a4c4:	f7f6 f8a0 	bl	8000608 <__aeabi_dmul>
 800a4c8:	4b3e      	ldr	r3, [pc, #248]	; (800a5c4 <atan+0x324>)
 800a4ca:	2200      	movs	r2, #0
 800a4cc:	f7f5 fee6 	bl	800029c <__adddf3>
 800a4d0:	4602      	mov	r2, r0
 800a4d2:	460b      	mov	r3, r1
 800a4d4:	4630      	mov	r0, r6
 800a4d6:	4639      	mov	r1, r7
 800a4d8:	f7f6 f9c0 	bl	800085c <__aeabi_ddiv>
 800a4dc:	f04f 0a02 	mov.w	sl, #2
 800a4e0:	4604      	mov	r4, r0
 800a4e2:	460d      	mov	r5, r1
 800a4e4:	e743      	b.n	800a36e <atan+0xce>
 800a4e6:	462b      	mov	r3, r5
 800a4e8:	ee10 2a10 	vmov	r2, s0
 800a4ec:	4939      	ldr	r1, [pc, #228]	; (800a5d4 <atan+0x334>)
 800a4ee:	2000      	movs	r0, #0
 800a4f0:	f7f6 f9b4 	bl	800085c <__aeabi_ddiv>
 800a4f4:	f04f 0a03 	mov.w	sl, #3
 800a4f8:	4604      	mov	r4, r0
 800a4fa:	460d      	mov	r5, r1
 800a4fc:	e737      	b.n	800a36e <atan+0xce>
 800a4fe:	4b36      	ldr	r3, [pc, #216]	; (800a5d8 <atan+0x338>)
 800a500:	4e36      	ldr	r6, [pc, #216]	; (800a5dc <atan+0x33c>)
 800a502:	eb06 06ca 	add.w	r6, r6, sl, lsl #3
 800a506:	eb03 0aca 	add.w	sl, r3, sl, lsl #3
 800a50a:	e9da 2300 	ldrd	r2, r3, [sl]
 800a50e:	f7f5 fec3 	bl	8000298 <__aeabi_dsub>
 800a512:	4622      	mov	r2, r4
 800a514:	462b      	mov	r3, r5
 800a516:	f7f5 febf 	bl	8000298 <__aeabi_dsub>
 800a51a:	4602      	mov	r2, r0
 800a51c:	460b      	mov	r3, r1
 800a51e:	e9d6 0100 	ldrd	r0, r1, [r6]
 800a522:	f7f5 feb9 	bl	8000298 <__aeabi_dsub>
 800a526:	f1bb 0f00 	cmp.w	fp, #0
 800a52a:	4604      	mov	r4, r0
 800a52c:	460d      	mov	r5, r1
 800a52e:	f6bf aed6 	bge.w	800a2de <atan+0x3e>
 800a532:	f101 4300 	add.w	r3, r1, #2147483648	; 0x80000000
 800a536:	461d      	mov	r5, r3
 800a538:	e6d1      	b.n	800a2de <atan+0x3e>
 800a53a:	a51d      	add	r5, pc, #116	; (adr r5, 800a5b0 <atan+0x310>)
 800a53c:	e9d5 4500 	ldrd	r4, r5, [r5]
 800a540:	e6cd      	b.n	800a2de <atan+0x3e>
 800a542:	bf00      	nop
 800a544:	f3af 8000 	nop.w
 800a548:	54442d18 	.word	0x54442d18
 800a54c:	bff921fb 	.word	0xbff921fb
 800a550:	8800759c 	.word	0x8800759c
 800a554:	7e37e43c 	.word	0x7e37e43c
 800a558:	e322da11 	.word	0xe322da11
 800a55c:	3f90ad3a 	.word	0x3f90ad3a
 800a560:	24760deb 	.word	0x24760deb
 800a564:	3fa97b4b 	.word	0x3fa97b4b
 800a568:	a0d03d51 	.word	0xa0d03d51
 800a56c:	3fb10d66 	.word	0x3fb10d66
 800a570:	c54c206e 	.word	0xc54c206e
 800a574:	3fb745cd 	.word	0x3fb745cd
 800a578:	920083ff 	.word	0x920083ff
 800a57c:	3fc24924 	.word	0x3fc24924
 800a580:	5555550d 	.word	0x5555550d
 800a584:	3fd55555 	.word	0x3fd55555
 800a588:	2c6a6c2f 	.word	0x2c6a6c2f
 800a58c:	bfa2b444 	.word	0xbfa2b444
 800a590:	52defd9a 	.word	0x52defd9a
 800a594:	3fadde2d 	.word	0x3fadde2d
 800a598:	af749a6d 	.word	0xaf749a6d
 800a59c:	3fb3b0f2 	.word	0x3fb3b0f2
 800a5a0:	fe231671 	.word	0xfe231671
 800a5a4:	3fbc71c6 	.word	0x3fbc71c6
 800a5a8:	9998ebc4 	.word	0x9998ebc4
 800a5ac:	3fc99999 	.word	0x3fc99999
 800a5b0:	54442d18 	.word	0x54442d18
 800a5b4:	3ff921fb 	.word	0x3ff921fb
 800a5b8:	440fffff 	.word	0x440fffff
 800a5bc:	7ff00000 	.word	0x7ff00000
 800a5c0:	3fdbffff 	.word	0x3fdbffff
 800a5c4:	3ff00000 	.word	0x3ff00000
 800a5c8:	3ff2ffff 	.word	0x3ff2ffff
 800a5cc:	40038000 	.word	0x40038000
 800a5d0:	3ff80000 	.word	0x3ff80000
 800a5d4:	bff00000 	.word	0xbff00000
 800a5d8:	0800af48 	.word	0x0800af48
 800a5dc:	0800af28 	.word	0x0800af28

0800a5e0 <fabs>:
 800a5e0:	ec51 0b10 	vmov	r0, r1, d0
 800a5e4:	ee10 2a10 	vmov	r2, s0
 800a5e8:	f021 4300 	bic.w	r3, r1, #2147483648	; 0x80000000
 800a5ec:	ec43 2b10 	vmov	d0, r2, r3
 800a5f0:	4770      	bx	lr

0800a5f2 <finite>:
 800a5f2:	b082      	sub	sp, #8
 800a5f4:	ed8d 0b00 	vstr	d0, [sp]
 800a5f8:	9801      	ldr	r0, [sp, #4]
 800a5fa:	f040 4000 	orr.w	r0, r0, #2147483648	; 0x80000000
 800a5fe:	f500 1080 	add.w	r0, r0, #1048576	; 0x100000
 800a602:	0fc0      	lsrs	r0, r0, #31
 800a604:	b002      	add	sp, #8
 800a606:	4770      	bx	lr

0800a608 <floor>:
 800a608:	ec51 0b10 	vmov	r0, r1, d0
 800a60c:	e92d 41f0 	stmdb	sp!, {r4, r5, r6, r7, r8, lr}
 800a610:	f3c1 570a 	ubfx	r7, r1, #20, #11
 800a614:	f2a7 36ff 	subw	r6, r7, #1023	; 0x3ff
 800a618:	2e13      	cmp	r6, #19
 800a61a:	ee10 5a10 	vmov	r5, s0
 800a61e:	ee10 8a10 	vmov	r8, s0
 800a622:	460c      	mov	r4, r1
 800a624:	dc32      	bgt.n	800a68c <floor+0x84>
 800a626:	2e00      	cmp	r6, #0
 800a628:	da14      	bge.n	800a654 <floor+0x4c>
 800a62a:	a333      	add	r3, pc, #204	; (adr r3, 800a6f8 <floor+0xf0>)
 800a62c:	e9d3 2300 	ldrd	r2, r3, [r3]
 800a630:	f7f5 fe34 	bl	800029c <__adddf3>
 800a634:	2200      	movs	r2, #0
 800a636:	2300      	movs	r3, #0
 800a638:	f7f6 fa76 	bl	8000b28 <__aeabi_dcmpgt>
 800a63c:	b138      	cbz	r0, 800a64e <floor+0x46>
 800a63e:	2c00      	cmp	r4, #0
 800a640:	da57      	bge.n	800a6f2 <floor+0xea>
 800a642:	f024 4300 	bic.w	r3, r4, #2147483648	; 0x80000000
 800a646:	431d      	orrs	r5, r3
 800a648:	d001      	beq.n	800a64e <floor+0x46>
 800a64a:	4c2d      	ldr	r4, [pc, #180]	; (800a700 <floor+0xf8>)
 800a64c:	2500      	movs	r5, #0
 800a64e:	4621      	mov	r1, r4
 800a650:	4628      	mov	r0, r5
 800a652:	e025      	b.n	800a6a0 <floor+0x98>
 800a654:	4f2b      	ldr	r7, [pc, #172]	; (800a704 <floor+0xfc>)
 800a656:	4137      	asrs	r7, r6
 800a658:	ea01 0307 	and.w	r3, r1, r7
 800a65c:	4303      	orrs	r3, r0
 800a65e:	d01f      	beq.n	800a6a0 <floor+0x98>
 800a660:	a325      	add	r3, pc, #148	; (adr r3, 800a6f8 <floor+0xf0>)
 800a662:	e9d3 2300 	ldrd	r2, r3, [r3]
 800a666:	f7f5 fe19 	bl	800029c <__adddf3>
 800a66a:	2200      	movs	r2, #0
 800a66c:	2300      	movs	r3, #0
 800a66e:	f7f6 fa5b 	bl	8000b28 <__aeabi_dcmpgt>
 800a672:	2800      	cmp	r0, #0
 800a674:	d0eb      	beq.n	800a64e <floor+0x46>
 800a676:	2c00      	cmp	r4, #0
 800a678:	bfbe      	ittt	lt
 800a67a:	f44f 1380 	movlt.w	r3, #1048576	; 0x100000
 800a67e:	fa43 f606 	asrlt.w	r6, r3, r6
 800a682:	19a4      	addlt	r4, r4, r6
 800a684:	ea24 0407 	bic.w	r4, r4, r7
 800a688:	2500      	movs	r5, #0
 800a68a:	e7e0      	b.n	800a64e <floor+0x46>
 800a68c:	2e33      	cmp	r6, #51	; 0x33
 800a68e:	dd0b      	ble.n	800a6a8 <floor+0xa0>
 800a690:	f5b6 6f80 	cmp.w	r6, #1024	; 0x400
 800a694:	d104      	bne.n	800a6a0 <floor+0x98>
 800a696:	ee10 2a10 	vmov	r2, s0
 800a69a:	460b      	mov	r3, r1
 800a69c:	f7f5 fdfe 	bl	800029c <__adddf3>
 800a6a0:	ec41 0b10 	vmov	d0, r0, r1
 800a6a4:	e8bd 81f0 	ldmia.w	sp!, {r4, r5, r6, r7, r8, pc}
 800a6a8:	f2a7 4713 	subw	r7, r7, #1043	; 0x413
 800a6ac:	f04f 33ff 	mov.w	r3, #4294967295
 800a6b0:	fa23 f707 	lsr.w	r7, r3, r7
 800a6b4:	4207      	tst	r7, r0
 800a6b6:	d0f3      	beq.n	800a6a0 <floor+0x98>
 800a6b8:	a30f      	add	r3, pc, #60	; (adr r3, 800a6f8 <floor+0xf0>)
 800a6ba:	e9d3 2300 	ldrd	r2, r3, [r3]
 800a6be:	f7f5 fded 	bl	800029c <__adddf3>
 800a6c2:	2200      	movs	r2, #0
 800a6c4:	2300      	movs	r3, #0
 800a6c6:	f7f6 fa2f 	bl	8000b28 <__aeabi_dcmpgt>
 800a6ca:	2800      	cmp	r0, #0
 800a6cc:	d0bf      	beq.n	800a64e <floor+0x46>
 800a6ce:	2c00      	cmp	r4, #0
 800a6d0:	da02      	bge.n	800a6d8 <floor+0xd0>
 800a6d2:	2e14      	cmp	r6, #20
 800a6d4:	d103      	bne.n	800a6de <floor+0xd6>
 800a6d6:	3401      	adds	r4, #1
 800a6d8:	ea25 0507 	bic.w	r5, r5, r7
 800a6dc:	e7b7      	b.n	800a64e <floor+0x46>
 800a6de:	2301      	movs	r3, #1
 800a6e0:	f1c6 0634 	rsb	r6, r6, #52	; 0x34
 800a6e4:	fa03 f606 	lsl.w	r6, r3, r6
 800a6e8:	4435      	add	r5, r6
 800a6ea:	4545      	cmp	r5, r8
 800a6ec:	bf38      	it	cc
 800a6ee:	18e4      	addcc	r4, r4, r3
 800a6f0:	e7f2      	b.n	800a6d8 <floor+0xd0>
 800a6f2:	2500      	movs	r5, #0
 800a6f4:	462c      	mov	r4, r5
 800a6f6:	e7aa      	b.n	800a64e <floor+0x46>
 800a6f8:	8800759c 	.word	0x8800759c
 800a6fc:	7e37e43c 	.word	0x7e37e43c
 800a700:	bff00000 	.word	0xbff00000
 800a704:	000fffff 	.word	0x000fffff

0800a708 <scalbn>:
 800a708:	b570      	push	{r4, r5, r6, lr}
 800a70a:	ec55 4b10 	vmov	r4, r5, d0
 800a70e:	f3c5 520a 	ubfx	r2, r5, #20, #11
 800a712:	4606      	mov	r6, r0
 800a714:	462b      	mov	r3, r5
 800a716:	b99a      	cbnz	r2, 800a740 <scalbn+0x38>
 800a718:	f025 4300 	bic.w	r3, r5, #2147483648	; 0x80000000
 800a71c:	4323      	orrs	r3, r4
 800a71e:	d036      	beq.n	800a78e <scalbn+0x86>
 800a720:	4b39      	ldr	r3, [pc, #228]	; (800a808 <scalbn+0x100>)
 800a722:	4629      	mov	r1, r5
 800a724:	ee10 0a10 	vmov	r0, s0
 800a728:	2200      	movs	r2, #0
 800a72a:	f7f5 ff6d 	bl	8000608 <__aeabi_dmul>
 800a72e:	4b37      	ldr	r3, [pc, #220]	; (800a80c <scalbn+0x104>)
 800a730:	429e      	cmp	r6, r3
 800a732:	4604      	mov	r4, r0
 800a734:	460d      	mov	r5, r1
 800a736:	da10      	bge.n	800a75a <scalbn+0x52>
 800a738:	a32b      	add	r3, pc, #172	; (adr r3, 800a7e8 <scalbn+0xe0>)
 800a73a:	e9d3 2300 	ldrd	r2, r3, [r3]
 800a73e:	e03a      	b.n	800a7b6 <scalbn+0xae>
 800a740:	f240 71ff 	movw	r1, #2047	; 0x7ff
 800a744:	428a      	cmp	r2, r1
 800a746:	d10c      	bne.n	800a762 <scalbn+0x5a>
 800a748:	ee10 2a10 	vmov	r2, s0
 800a74c:	4620      	mov	r0, r4
 800a74e:	4629      	mov	r1, r5
 800a750:	f7f5 fda4 	bl	800029c <__adddf3>
 800a754:	4604      	mov	r4, r0
 800a756:	460d      	mov	r5, r1
 800a758:	e019      	b.n	800a78e <scalbn+0x86>
 800a75a:	f3c1 520a 	ubfx	r2, r1, #20, #11
 800a75e:	460b      	mov	r3, r1
 800a760:	3a36      	subs	r2, #54	; 0x36
 800a762:	4432      	add	r2, r6
 800a764:	f240 71fe 	movw	r1, #2046	; 0x7fe
 800a768:	428a      	cmp	r2, r1
 800a76a:	dd08      	ble.n	800a77e <scalbn+0x76>
 800a76c:	2d00      	cmp	r5, #0
 800a76e:	a120      	add	r1, pc, #128	; (adr r1, 800a7f0 <scalbn+0xe8>)
 800a770:	e9d1 0100 	ldrd	r0, r1, [r1]
 800a774:	da1c      	bge.n	800a7b0 <scalbn+0xa8>
 800a776:	a120      	add	r1, pc, #128	; (adr r1, 800a7f8 <scalbn+0xf0>)
 800a778:	e9d1 0100 	ldrd	r0, r1, [r1]
 800a77c:	e018      	b.n	800a7b0 <scalbn+0xa8>
 800a77e:	2a00      	cmp	r2, #0
 800a780:	dd08      	ble.n	800a794 <scalbn+0x8c>
 800a782:	f023 43ff 	bic.w	r3, r3, #2139095040	; 0x7f800000
 800a786:	f423 03e0 	bic.w	r3, r3, #7340032	; 0x700000
 800a78a:	ea43 5502 	orr.w	r5, r3, r2, lsl #20
 800a78e:	ec45 4b10 	vmov	d0, r4, r5
 800a792:	bd70      	pop	{r4, r5, r6, pc}
 800a794:	f112 0f35 	cmn.w	r2, #53	; 0x35
 800a798:	da19      	bge.n	800a7ce <scalbn+0xc6>
 800a79a:	f24c 3350 	movw	r3, #50000	; 0xc350
 800a79e:	429e      	cmp	r6, r3
 800a7a0:	f005 4300 	and.w	r3, r5, #2147483648	; 0x80000000
 800a7a4:	dd0a      	ble.n	800a7bc <scalbn+0xb4>
 800a7a6:	a112      	add	r1, pc, #72	; (adr r1, 800a7f0 <scalbn+0xe8>)
 800a7a8:	e9d1 0100 	ldrd	r0, r1, [r1]
 800a7ac:	2b00      	cmp	r3, #0
 800a7ae:	d1e2      	bne.n	800a776 <scalbn+0x6e>
 800a7b0:	a30f      	add	r3, pc, #60	; (adr r3, 800a7f0 <scalbn+0xe8>)
 800a7b2:	e9d3 2300 	ldrd	r2, r3, [r3]
 800a7b6:	f7f5 ff27 	bl	8000608 <__aeabi_dmul>
 800a7ba:	e7cb      	b.n	800a754 <scalbn+0x4c>
 800a7bc:	a10a      	add	r1, pc, #40	; (adr r1, 800a7e8 <scalbn+0xe0>)
 800a7be:	e9d1 0100 	ldrd	r0, r1, [r1]
 800a7c2:	2b00      	cmp	r3, #0
 800a7c4:	d0b8      	beq.n	800a738 <scalbn+0x30>
 800a7c6:	a10e      	add	r1, pc, #56	; (adr r1, 800a800 <scalbn+0xf8>)
 800a7c8:	e9d1 0100 	ldrd	r0, r1, [r1]
 800a7cc:	e7b4      	b.n	800a738 <scalbn+0x30>
 800a7ce:	f023 43ff 	bic.w	r3, r3, #2139095040	; 0x7f800000
 800a7d2:	3236      	adds	r2, #54	; 0x36
 800a7d4:	f423 03e0 	bic.w	r3, r3, #7340032	; 0x700000
 800a7d8:	ea43 5102 	orr.w	r1, r3, r2, lsl #20
 800a7dc:	4620      	mov	r0, r4
 800a7de:	4b0c      	ldr	r3, [pc, #48]	; (800a810 <scalbn+0x108>)
 800a7e0:	2200      	movs	r2, #0
 800a7e2:	e7e8      	b.n	800a7b6 <scalbn+0xae>
 800a7e4:	f3af 8000 	nop.w
 800a7e8:	c2f8f359 	.word	0xc2f8f359
 800a7ec:	01a56e1f 	.word	0x01a56e1f
 800a7f0:	8800759c 	.word	0x8800759c
 800a7f4:	7e37e43c 	.word	0x7e37e43c
 800a7f8:	8800759c 	.word	0x8800759c
 800a7fc:	fe37e43c 	.word	0xfe37e43c
 800a800:	c2f8f359 	.word	0xc2f8f359
 800a804:	81a56e1f 	.word	0x81a56e1f
 800a808:	43500000 	.word	0x43500000
 800a80c:	ffff3cb0 	.word	0xffff3cb0
 800a810:	3c900000 	.word	0x3c900000

0800a814 <_sbrk>:
 800a814:	4a04      	ldr	r2, [pc, #16]	; (800a828 <_sbrk+0x14>)
 800a816:	6811      	ldr	r1, [r2, #0]
 800a818:	4603      	mov	r3, r0
 800a81a:	b909      	cbnz	r1, 800a820 <_sbrk+0xc>
 800a81c:	4903      	ldr	r1, [pc, #12]	; (800a82c <_sbrk+0x18>)
 800a81e:	6011      	str	r1, [r2, #0]
 800a820:	6810      	ldr	r0, [r2, #0]
 800a822:	4403      	add	r3, r0
 800a824:	6013      	str	r3, [r2, #0]
 800a826:	4770      	bx	lr
 800a828:	200004b4 	.word	0x200004b4
 800a82c:	200004b8 	.word	0x200004b8

0800a830 <_init>:
 800a830:	b5f8      	push	{r3, r4, r5, r6, r7, lr}
 800a832:	bf00      	nop
 800a834:	bcf8      	pop	{r3, r4, r5, r6, r7}
 800a836:	bc08      	pop	{r3}
 800a838:	469e      	mov	lr, r3
 800a83a:	4770      	bx	lr

0800a83c <_fini>:
 800a83c:	b5f8      	push	{r3, r4, r5, r6, r7, lr}
 800a83e:	bf00      	nop
 800a840:	bcf8      	pop	{r3, r4, r5, r6, r7}
 800a842:	bc08      	pop	{r3}
 800a844:	469e      	mov	lr, r3
 800a846:	4770      	bx	lr
